
camera_exposure.elf:     file format elf32-littlenios2
camera_exposure.elf
architecture: nios2:r1, flags 0x00000112:
EXEC_P, HAS_SYMS, D_PAGED
start address 0x00020238

Program Header:
    LOAD off    0x00001000 vaddr 0x00020000 paddr 0x00020000 align 2**12
         filesz 0x00000020 memsz 0x00000020 flags r-x
    LOAD off    0x00001020 vaddr 0x00020020 paddr 0x00020020 align 2**12
         filesz 0x00014f04 memsz 0x00014f04 flags r-x
    LOAD off    0x00015f24 vaddr 0x00034f24 paddr 0x00037374 align 2**12
         filesz 0x00002450 memsz 0x00002450 flags rw-
    LOAD off    0x000007c4 vaddr 0x000397c4 paddr 0x000397c4 align 2**12
         filesz 0x00000000 memsz 0x0000015c flags rw-

Sections:
Idx Name          Size      VMA       LMA       File off  Algn
  0 .entry        00000020  00020000  00020000  00001000  2**5
                  CONTENTS, ALLOC, LOAD, READONLY, CODE
  1 .exceptions   00000218  00020020  00020020  00001020  2**2
                  CONTENTS, ALLOC, LOAD, READONLY, CODE
  2 .text         00014064  00020238  00020238  00001238  2**2
                  CONTENTS, ALLOC, LOAD, READONLY, CODE
  3 .rodata       00000c88  0003429c  0003429c  0001529c  2**2
                  CONTENTS, ALLOC, LOAD, READONLY, DATA
  4 .rwdata       00002450  00034f24  00037374  00015f24  2**2
                  CONTENTS, ALLOC, LOAD, DATA, SMALL_DATA
  5 .bss          0000015c  000397c4  000397c4  000187c4  2**2
                  ALLOC, SMALL_DATA
  6 .onchip_memory2_0 00000000  00039920  00039920  00018374  2**0
                  CONTENTS
  7 .comment      0000002d  00000000  00000000  00018374  2**0
                  CONTENTS, READONLY
  8 .debug_aranges 00001408  00000000  00000000  000183a8  2**3
                  CONTENTS, READONLY, DEBUGGING, OCTETS
  9 .debug_info   00038f70  00000000  00000000  000197b0  2**0
                  CONTENTS, READONLY, DEBUGGING, OCTETS
 10 .debug_abbrev 0000f2e8  00000000  00000000  00052720  2**0
                  CONTENTS, READONLY, DEBUGGING, OCTETS
 11 .debug_line   0001395f  00000000  00000000  00061a08  2**0
                  CONTENTS, READONLY, DEBUGGING, OCTETS
 12 .debug_frame  0000317c  00000000  00000000  00075368  2**2
                  CONTENTS, READONLY, DEBUGGING, OCTETS
 13 .debug_str    00002f88  00000000  00000000  000784e4  2**0
                  CONTENTS, READONLY, DEBUGGING, OCTETS
 14 .debug_alt_sim_info 00000060  00000000  00000000  0007b46c  2**2
                  CONTENTS, READONLY, DEBUGGING, OCTETS
 15 .debug_ranges 00000070  00000000  00000000  0007b4d0  2**3
                  CONTENTS, READONLY, DEBUGGING, OCTETS
 16 .debug_line_str 00002639  00000000  00000000  0007b540  2**0
                  CONTENTS, READONLY, DEBUGGING, OCTETS
 17 .debug_loclists 00015fcc  00000000  00000000  0007db79  2**0
                  CONTENTS, READONLY, DEBUGGING, OCTETS
 18 .debug_rnglists 000019ad  00000000  00000000  00093b45  2**0
                  CONTENTS, READONLY, DEBUGGING, OCTETS
 19 .thread_model 00000003  00000000  00000000  000995e9  2**0
                  CONTENTS, READONLY
 20 .cpu          0000000a  00000000  00000000  000995ec  2**0
                  CONTENTS, READONLY
 21 .qsys         00000001  00000000  00000000  000995f6  2**0
                  CONTENTS, READONLY
 22 .simulation_enabled 00000001  00000000  00000000  000995f7  2**0
                  CONTENTS, READONLY
 23 .sysid_hash   00000004  00000000  00000000  000995f8  2**0
                  CONTENTS, READONLY
 24 .sysid_base   00000004  00000000  00000000  000995fc  2**0
                  CONTENTS, READONLY
 25 .sysid_time   00000004  00000000  00000000  00099600  2**0
                  CONTENTS, READONLY
 26 .stderr_dev   00000009  00000000  00000000  00099604  2**0
                  CONTENTS, READONLY
 27 .stdin_dev    00000009  00000000  00000000  0009960d  2**0
                  CONTENTS, READONLY
 28 .stdout_dev   00000009  00000000  00000000  00099616  2**0
                  CONTENTS, READONLY
 29 .sopc_system_name 00000004  00000000  00000000  0009961f  2**0
                  CONTENTS, READONLY
 30 .quartus_project_dir 00000057  00000000  00000000  00099623  2**0
                  CONTENTS, READONLY
 31 .sopcinfo     000a5f36  00000000  00000000  0009967a  2**0
                  CONTENTS, READONLY
SYMBOL TABLE:
00020000 l    d  .entry	00000000 .entry
00020020 l    d  .exceptions	00000000 .exceptions
00020238 l    d  .text	00000000 .text
0003429c l    d  .rodata	00000000 .rodata
00034f24 l    d  .rwdata	00000000 .rwdata
000397c4 l    d  .bss	00000000 .bss
00039920 l    d  .onchip_memory2_0	00000000 .onchip_memory2_0
00000000 l    d  .comment	00000000 .comment
00000000 l    d  .debug_aranges	00000000 .debug_aranges
00000000 l    d  .debug_info	00000000 .debug_info
00000000 l    d  .debug_abbrev	00000000 .debug_abbrev
00000000 l    d  .debug_line	00000000 .debug_line
00000000 l    d  .debug_frame	00000000 .debug_frame
00000000 l    d  .debug_str	00000000 .debug_str
00000000 l    d  .debug_alt_sim_info	00000000 .debug_alt_sim_info
00000000 l    d  .debug_ranges	00000000 .debug_ranges
00000000 l    d  .debug_line_str	00000000 .debug_line_str
00000000 l    d  .debug_loclists	00000000 .debug_loclists
00000000 l    d  .debug_rnglists	00000000 .debug_rnglists
00000000 l    df *ABS*	00000000 crt0.o
00020280 l       .text	00000000 alt_after_alt_main
00000000 l    df *ABS*	00000000 alt_irq_handler.c
00000000 l    df *ABS*	00000000 alt_instruction_exception_entry.c
00000000 l    df *ABS*	00000000 I2C_core.c
00000000 l    df *ABS*	00000000 auto_focus.c
00000000 l    df *ABS*	00000000 main.c
00000000 l    df *ABS*	00000000 mipi_bridge_config.c
00034f24 l     O .rwdata	00000034 MipiBridgeReg
00000000 l    df *ABS*	00000000 mipi_camera_config.c
00034f58 l     O .rwdata	00000774 MipiCameraReg
00000000 l    df *ABS*	00000000 queue.c
00000000 l    df *ABS*	00000000 lib2-divmod.c
00000000 l    df *ABS*	00000000 fopen.c
00000000 l    df *ABS*	00000000 fseek.c
00000000 l    df *ABS*	00000000 fseeko.c
00000000 l    df *ABS*	00000000 fstatr.c
00000000 l    df *ABS*	00000000 fwrite.c
00000000 l    df *ABS*	00000000 getchar.c
00000000 l    df *ABS*	00000000 impure.c
000356cc l     O .rwdata	00000424 impure_data
00000000 l    df *ABS*	00000000 int_errno.c
00000000 l    df *ABS*	00000000 makebuf.c
00000000 l    df *ABS*	00000000 malloc.c
00000000 l    df *ABS*	00000000 mallocr.c
00000000 l    df *ABS*	00000000 memset.c
00000000 l    df *ABS*	00000000 openr.c
00000000 l    df *ABS*	00000000 printf.c
00000000 l    df *ABS*	00000000 putchar.c
00000000 l    df *ABS*	00000000 puts.c
00000000 l    df *ABS*	00000000 refill.c
00024524 l     F .text	0000001c lflush
00000000 l    df *ABS*	00000000 sbrkr.c
00000000 l    df *ABS*	00000000 stdio.c
00000000 l    df *ABS*	00000000 strlen.c
00000000 l    df *ABS*	00000000 vfprintf.c
00034918 l     O .rodata	00000010 zeroes.0
00026cec l     F .text	000000c4 __sbprintf
00034928 l     O .rodata	00000010 blanks.1
00000000 l    df *ABS*	00000000 writer.c
00000000 l    df *ABS*	00000000 wsetup.c
00000000 l    df *ABS*	00000000 closer.c
00000000 l    df *ABS*	00000000 dtoa.c
00026fb8 l     F .text	000001fc quorem
00000000 l    df *ABS*	00000000 fflush.c
00000000 l    df *ABS*	00000000 findfp.c
00028c88 l     F .text	00000008 __fp_lock
00028c9c l     F .text	00000008 __fp_unlock
00028ca4 l     F .text	00000168 __sinit.part.0
00000000 l    df *ABS*	00000000 flags.c
00000000 l    df *ABS*	00000000 mallocr.c
00000000 l    df *ABS*	00000000 fvwrite.c
00000000 l    df *ABS*	00000000 fwalk.c
00000000 l    df *ABS*	00000000 getc.c
00000000 l    df *ABS*	00000000 isattyr.c
00000000 l    df *ABS*	00000000 localeconv.c
00000000 l    df *ABS*	00000000 lseekr.c
00000000 l    df *ABS*	00000000 memchr.c
00000000 l    df *ABS*	00000000 memcpy.c
00000000 l    df *ABS*	00000000 memmove.c
00000000 l    df *ABS*	00000000 mprec.c
000349d4 l     O .rodata	0000000c p05.0
00000000 l    df *ABS*	00000000 putc.c
00000000 l    df *ABS*	00000000 readr.c
00000000 l    df *ABS*	00000000 mallocr.c
00000000 l    df *ABS*	00000000 rget.c
00000000 l    df *ABS*	00000000 vfprintf.c
0002b9f4 l     F .text	000000f4 __sprint_r.part.0
00034af8 l     O .rodata	00000010 zeroes.0
0002cd8c l     F .text	000000c4 __sbprintf
00034b08 l     O .rodata	00000010 blanks.1
00000000 l    df *ABS*	00000000 wbuf.c
00000000 l    df *ABS*	00000000 assert.c
00000000 l    df *ABS*	00000000 mallocr.c
00000000 l    df *ABS*	00000000 errno.c
00000000 l    df *ABS*	00000000 fclose.c
00000000 l    df *ABS*	00000000 fiprintf.c
00000000 l    df *ABS*	00000000 fputwc.c
00000000 l    df *ABS*	00000000 locale.c
00000000 l    df *ABS*	00000000 mbtowc_r.c
00000000 l    df *ABS*	00000000 strcmp.c
00000000 l    df *ABS*	00000000 vfiprintfr_1.c
00000000 l    df *ABS*	00000000 wcrtomb.c
00000000 l    df *ABS*	00000000 wctomb_r.c
00000000 l    df *ABS*	00000000 abort.c
00000000 l    df *ABS*	00000000 ctype_.c
00000000 l    df *ABS*	00000000 signal.c
00000000 l    df *ABS*	00000000 signalr.c
00000000 l    df *ABS*	00000000 libgcc2.c
00000000 l    df *ABS*	00000000 libgcc2.c
00000000 l    df *ABS*	00000000 adddf3.c
00000000 l    df *ABS*	00000000 divdf3.c
00000000 l    df *ABS*	00000000 eqdf2.c
00000000 l    df *ABS*	00000000 gedf2.c
00000000 l    df *ABS*	00000000 ledf2.c
00000000 l    df *ABS*	00000000 muldf3.c
00000000 l    df *ABS*	00000000 subdf3.c
00000000 l    df *ABS*	00000000 unorddf2.c
00000000 l    df *ABS*	00000000 fixdfsi.c
00000000 l    df *ABS*	00000000 floatsidf.c
00000000 l    df *ABS*	00000000 floatunsidf.c
00000000 l    df *ABS*	00000000 libgcc2.c
00000000 l    df *ABS*	00000000 libgcc2.c
00000000 l    df *ABS*	00000000 alt_close.c
00030e58 l     F .text	0000003c alt_get_errno
00000000 l    df *ABS*	00000000 alt_dev.c
00030f64 l     F .text	0000002c alt_dev_null_write
00000000 l    df *ABS*	00000000 alt_errno.c
00000000 l    df *ABS*	00000000 alt_exit.c
00000000 l    df *ABS*	00000000 alt_fcntl.c
00030fcc l     F .text	0000003c alt_get_errno
00000000 l    df *ABS*	00000000 alt_fstat.c
0003112c l     F .text	0000003c alt_get_errno
00000000 l    df *ABS*	00000000 alt_getpid.c
00000000 l    df *ABS*	00000000 alt_isatty.c
00031238 l     F .text	0000003c alt_get_errno
00000000 l    df *ABS*	00000000 alt_kill.c
00031318 l     F .text	0000003c alt_get_errno
00000000 l    df *ABS*	00000000 alt_load.c
00031444 l     F .text	00000068 alt_load_section
00000000 l    df *ABS*	00000000 alt_lseek.c
00031530 l     F .text	0000003c alt_get_errno
00000000 l    df *ABS*	00000000 alt_main.c
00000000 l    df *ABS*	00000000 alt_malloc_lock.c
00000000 l    df *ABS*	00000000 alt_open.c
00031704 l     F .text	0000003c alt_get_errno
00031740 l     F .text	000000b8 alt_file_locked
00000000 l    df *ABS*	00000000 alt_read.c
0003194c l     F .text	0000003c alt_get_errno
00000000 l    df *ABS*	00000000 alt_release_fd.c
00000000 l    df *ABS*	00000000 alt_sbrk.c
00037364 l     O .rwdata	00000004 heap_end
00000000 l    df *ABS*	00000000 alt_tick.c
00000000 l    df *ABS*	00000000 alt_usleep.c
00000000 l    df *ABS*	00000000 alt_write.c
00031d94 l     F .text	0000003c alt_get_errno
00000000 l    df *ABS*	00000000 alt_sys_init.c
00031ec8 l     F .text	00000034 alt_dev_reg
0003620c l     O .rwdata	00001060 jtag_uart
0003726c l     O .rwdata	000000c4 uart_0
00000000 l    df *ABS*	00000000 altera_avalon_jtag_uart_fd.c
00000000 l    df *ABS*	00000000 altera_avalon_jtag_uart_init.c
000321e0 l     F .text	00000214 altera_avalon_jtag_uart_irq
000323f4 l     F .text	000000a8 altera_avalon_jtag_uart_timeout
00000000 l    df *ABS*	00000000 altera_avalon_jtag_uart_ioctl.c
00000000 l    df *ABS*	00000000 altera_avalon_jtag_uart_read.c
00000000 l    df *ABS*	00000000 altera_avalon_jtag_uart_write.c
00000000 l    df *ABS*	00000000 altera_avalon_timer_sc.c
00032a40 l     F .text	0000007c alt_avalon_timer_sc_irq
00000000 l    df *ABS*	00000000 altera_avalon_uart_fd.c
00000000 l    df *ABS*	00000000 altera_avalon_uart_init.c
00032cfc l     F .text	0000009c altera_avalon_uart_irq
00032d98 l     F .text	000000e0 altera_avalon_uart_rxirq
00032e78 l     F .text	00000144 altera_avalon_uart_txirq
00000000 l    df *ABS*	00000000 altera_avalon_uart_read.c
00033010 l     F .text	0000003c alt_get_errno
00000000 l    df *ABS*	00000000 altera_avalon_uart_write.c
00033234 l     F .text	0000003c alt_get_errno
00000000 l    df *ABS*	00000000 alt_alarm_start.c
00000000 l    df *ABS*	00000000 alt_busy_sleep.c
00000000 l    df *ABS*	00000000 alt_dcache_flush_all.c
00000000 l    df *ABS*	00000000 alt_dev_llist_insert.c
00033728 l     F .text	0000003c alt_get_errno
00000000 l    df *ABS*	00000000 alt_do_ctors.c
00000000 l    df *ABS*	00000000 alt_do_dtors.c
00000000 l    df *ABS*	00000000 alt_find_dev.c
00000000 l    df *ABS*	00000000 alt_find_file.c
00000000 l    df *ABS*	00000000 alt_get_fd.c
00000000 l    df *ABS*	00000000 alt_icache_flush_all.c
00000000 l    df *ABS*	00000000 alt_iic.c
00000000 l    df *ABS*	00000000 alt_iic_isr_register.c
00000000 l    df *ABS*	00000000 alt_io_redirect.c
00033dd8 l     F .text	000000b0 alt_open_fd
00000000 l    df *ABS*	00000000 alt_irq_vars.c
00000000 l    df *ABS*	00000000 altera_nios2_gen2_irq.c
00000000 l    df *ABS*	00000000 alt_icache_flush.c
00000000 l    df *ABS*	00000000 atexit.c
00000000 l    df *ABS*	00000000 exit.c
00000000 l    df *ABS*	00000000 memcmp.c
00000000 l    df *ABS*	00000000 __atexit.c
00000000 l    df *ABS*	00000000 __call_atexit.c
000397f4 g     O .bss	00000004 alt_instruction_exception_handler
0002442c g     F .text	00000018 putchar
0002afb4 g     F .text	00000070 _mprec_log10
0002b0a0 g     F .text	00000060 __any_on
00029bd8 g     F .text	00000058 _isatty_r
000349e0 g     O .rodata	00000028 __mprec_tinytens
00031640 g     F .text	0000007c alt_main
00024444 g     F .text	000000d0 _puts_r
00039820 g     O .bss	00000100 alt_irq
00029c50 g     F .text	00000064 _lseek_r
00021304 g     F .text	000000bc Focus_Released
000205d0 g     F .text	00000060 ACK_check
00037374 g       *ABS*	00000000 __flash_rwdata_start
00020544 g     F .text	0000008c ACK_single_check
00029004 g     F .text	000000b8 __sflags
0002f8f0 g     F .text	00000094 .hidden __eqdf2
0002113c g     F .text	000001c8 Focus_Window
000224c4 g     F .text	00000070 OV8865_write_AF
00039920 g       *ABS*	00000000 __alt_heap_start
00022d74 g     F .text	00000064 QUEUE_IsFull
0002dce0 g     F .text	00000060 _kill_r
000243ec g     F .text	00000038 printf
0002d6d8 g     F .text	0000006c _wcrtomb_r
0002d87c g     F .text	00000090 _signal_r
0002482c g     F .text	0000005c __sseek
00028fbc g     F .text	00000010 __sinit
0002ce50 g     F .text	00000148 __swbuf_r
0002d4d8 g     F .text	00000074 _setlocale_r
00028e0c g     F .text	00000068 __sfmoreglue
000316e0 g     F .text	00000024 __malloc_unlock
00029e84 g     F .text	00000128 memmove
00020630 g     F .text	00000204 OC_I2C_Write
00028fa8 g     F .text	00000014 _cleanup
00029fac g     F .text	000000a4 _Balloc
00021038 g     F .text	00000104 Focus_Init
0002f984 g     F .text	000000fc .hidden __gtdf2
00033f04 g     F .text	00000024 altera_nios2_gen2_irq_init
0002d16c g     F .text	0000000c __errno
00020000 g     F .entry	0000001c __reset
00029c30 g     F .text	00000008 __localeconv_l
00020020 g       *ABS*	00000000 __flash_exceptions_start
00023650 g     F .text	00000060 _fstat_r
00037338 g     O .rwdata	00000001 focus_scal
000397c4 g     O .bss	00000004 errno
0002b978 g     F .text	0000007c __srget
000247a4 g     F .text	00000008 __seofread
000397dc g     O .bss	00000004 alt_argv
0003f330 g       *ABS*	00000000 _gp
00031d64 g     F .text	00000030 usleep
00031218 g     F .text	00000020 getpid
0003608c g     O .rwdata	00000180 alt_fd_list
00029acc g     F .text	0000007c _getc_r
00029b48 g     F .text	00000090 getc
00024424 g     F .text	00000008 _putchar_r
000338d4 g     F .text	00000090 alt_find_dev
00029d84 g     F .text	00000100 memcpy
00020384 g     F .text	0000013c oc_i2c_init_ex
00028c90 g     F .text	0000000c _cleanup_r
00030cc0 g     F .text	000000b8 .hidden __floatsidf
00033e88 g     F .text	0000007c alt_io_redirect
0002fa80 g     F .text	000000f8 .hidden __ltdf2
0003429c g       *ABS*	00000000 __DTOR_END__
00024514 g     F .text	00000010 puts
00033fb8 g     F .text	00000074 alt_exception_cause_generated_bad_addr
0002af0c g     F .text	000000a8 __ratio
0002cd70 g     F .text	0000001c __vfiprintf_internal
00022d34 g     F .text	00000040 QUEUE_IsEmpty
000325f8 g     F .text	00000220 altera_avalon_jtag_uart_read
00023a8c g     F .text	00000010 malloc
000243bc g     F .text	00000030 _printf_r
00020000 g       *ABS*	00000000 __alt_mem_onchip_memory2_0
0002301c g     F .text	00000064 .hidden __udivsi3
00031274 g     F .text	000000a4 isatty
0002d90c g     F .text	000000b0 _raise_r
0002cfb0 g     F .text	00000064 __assert_func
00034a30 g     O .rodata	000000c8 __mprec_tens
00033f28 g     F .text	00000090 alt_icache_flush
000397d0 g     O .bss	00000004 __malloc_top_pad
0002dd40 g     F .text	00000004 _getpid_r
00022ef4 g     F .text	00000034 QUEUE_Empty
000225b4 g     F .text	000000d0 OV8865_FOCUS_Move_to
00029c38 g     F .text	0000000c _localeconv_r
0002a400 g     F .text	000000b0 __i2b
000294e8 g     F .text	000004a4 __sfvwrite_r
00022e68 g     F .text	0000008c QUEUE_Pop
0002d9bc g     F .text	000000bc __sigtramp_r
000246f8 g     F .text	00000058 _sbrk_r
0002b2ac g     F .text	00000064 _read_r
00037336 g     O .rwdata	00000002 focus_height
0003735c g     O .rwdata	00000004 alt_max_fd
0002d178 g     F .text	000000f8 _fclose_r
00022454 g     F .text	00000070 OV8865_write_cmos_sensor_8
00028c04 g     F .text	00000084 fflush
000397cc g     O .bss	00000004 __malloc_max_sbrked_mem
0002e7a4 g     F .text	00000904 .hidden __adddf3
0002acb4 g     F .text	00000100 __b2d
0002e294 g     F .text	00000510 .hidden __umoddi3
0003156c g     F .text	000000d4 lseek
0003733c g     O .rwdata	00000004 _global_impure_ptr
0002b310 g     F .text	000005f4 _realloc_r
00039920 g       *ABS*	00000000 __bss_end
00033cf0 g     F .text	000000e8 alt_iic_isr_register
00031c38 g     F .text	0000012c alt_tick
0002dd44 g     F .text	00000550 .hidden __udivdi3
0002d43c g     F .text	00000024 _fputwc_r
00034a08 g     O .rodata	00000028 __mprec_bigtens
0002a1a4 g     F .text	00000138 __s2b
0002d808 g     F .text	00000018 abort
00030d78 g     F .text	00000090 .hidden __floatunsidf
00037332 g     O .rwdata	00000002 video_h
0002a9cc g     F .text	00000058 __mcmp
00032c50 g     F .text	000000ac altera_avalon_uart_init
00028fdc g     F .text	00000014 __fp_lock_all
00033ca4 g     F .text	0000004c alt_ic_irq_enabled
000213c0 g     F .text	000000b8 mipi_clear_error
00020ba0 g     F .text	00000214 OC_I2CL_Write
00031b94 g     F .text	000000a4 alt_alarm_stop
000397f0 g     O .bss	00000004 alt_irq_active
0002320c g     F .text	00000428 _fseeko_r
00020834 g     F .text	00000064 ACK_judge_for_read
000200fc g     F .exceptions	000000c8 alt_irq_handler
00022768 g     F .text	000000cc OV8865SetGain
00036064 g     O .rwdata	00000028 alt_dev_null
00020284 g     F .text	00000054 Write32_Data
000336dc g     F .text	0000004c alt_dcache_flush_all
0002a2dc g     F .text	00000074 __hi0bits
00030c40 g     F .text	00000080 .hidden __fixdfsi
00037339 g     O .rwdata	00000001 focus_scal_f
00037374 g       *ABS*	00000000 __ram_rwdata_end
00037354 g     O .rwdata	00000008 alt_dev_list
00031dd0 g     F .text	000000f8 write
0002b100 g     F .text	000000cc _putc_r
00034f24 g       *ABS*	00000000 __ram_rodata_end
00031168 g     F .text	000000b0 fstat
00031354 g     F .text	000000f0 kill
0002fa80 g     F .text	000000f8 .hidden __ledf2
0002a704 g     F .text	00000140 __pow5mult
0002bb00 g     F .text	00001270 ___vfiprintf_internal_r
00023080 g     F .text	0000005c .hidden __umodsi3
00021510 g     F .text	00000178 mipi_show_error_info_more
00039920 g       *ABS*	00000000 end
00023634 g     F .text	0000001c fseeko
00033270 g     F .text	000001b4 altera_avalon_uart_write
000231f0 g     F .text	0000001c fseek
00032120 g     F .text	000000c0 altera_avalon_jtag_uart_init
000201c4 g     F .exceptions	00000074 alt_instruction_exception_entry
0003429c g       *ABS*	00000000 __CTOR_LIST__
00040000 g       *ABS*	00000000 __alt_stack_pointer
00032abc g     F .text	00000084 alt_avalon_timer_sc_init
00032ba0 g     F .text	00000060 altera_avalon_uart_write_fd
00030e08 g     F .text	00000050 .hidden __clzsi2
00032c00 g     F .text	00000050 altera_avalon_uart_close_fd
00032818 g     F .text	00000228 altera_avalon_jtag_uart_write
00028fcc g     F .text	00000004 __sfp_lock_acquire
00029cb4 g     F .text	000000d0 memchr
00024928 g     F .text	000023a8 ___vfprintf_internal_r
000291e0 g     F .text	00000308 _free_r
00034c6c g     O .rodata	00000180 _ctype_b
0002d54c g     F .text	0000000c __locale_mb_cur_max
00021710 g     F .text	0000035c NAVIGATION
0003417c g     F .text	00000120 __call_exitprocs
0002b904 g     F .text	00000074 __srget_r
00037344 g     O .rwdata	00000004 __malloc_sbrk_base
00020238 g     F .text	0000004c _start
000397e4 g     O .bss	00000004 _alt_tick_rate
0002a844 g     F .text	00000188 __lshift
00022dd8 g     F .text	00000090 QUEUE_Push
000397e8 g     O .bss	00000008 _alt_nticks
0002db2c g     F .text	00000098 signal
00031988 g     F .text	000000fc read
00031f38 g     F .text	00000084 alt_sys_init
00024358 g     F .text	00000064 _open_r
000340ec g     F .text	00000090 __register_exitproc
000223f0 g     F .text	00000064 OV8865_read_cmos_sensor_8
0002a4b0 g     F .text	00000254 __multiply
0003249c g     F .text	00000068 altera_avalon_jtag_uart_close
00022200 g     F .text	00000070 MipiBridgeRegWrite
00034f24 g       *ABS*	00000000 __ram_rwdata_start
0003429c g       *ABS*	00000000 __ram_rodata_start
000397f8 g     O .bss	00000028 __malloc_current_mallinfo
0002adb4 g     F .text	00000158 __d2b
00031fbc g     F .text	00000060 altera_avalon_jtag_uart_read_fd
00033a6c g     F .text	000000a0 alt_get_fd
00033584 g     F .text	00000158 alt_busy_sleep
00026f60 g     F .text	00000058 _close_r
00034074 g     F .text	00000078 memcmp
0003207c g     F .text	00000050 altera_avalon_jtag_uart_close_fd
00039920 g       *ABS*	00000000 __alt_stack_base
000320cc g     F .text	00000054 altera_avalon_jtag_uart_ioctl_fd
000236b0 g     F .text	000000c4 _fwrite_r
00026e14 g     F .text	0000014c __swsetup_r
0002032c g     F .text	00000058 oc_i2c_init
0002f0a8 g     F .text	00000848 .hidden __divdf3
00028e74 g     F .text	00000134 __sfp
0002b024 g     F .text	0000007c __copybits
00035af0 g     O .rwdata	00000408 __malloc_av_
00028fd8 g     F .text	00000004 __sinit_lock_release
0002fb78 g     F .text	000006d8 .hidden __muldf3
00024750 g     F .text	00000054 __sread
00033964 g     F .text	00000108 alt_find_file
00033764 g     F .text	000000a8 alt_dev_llist_insert
000316bc g     F .text	00000024 __malloc_lock
00031adc g     F .text	000000b8 sbrk
00022ab0 g     F .text	000001e4 MipiCameraInit
000221b4 g     F .text	0000004c nSWAP16
00028ba4 g     F .text	00000060 _fflush_r
0002d028 g     F .text	00000144 _calloc_r
00022c94 g     F .text	0000006c QUEUE_New
000231d4 g     F .text	00000018 fopen
000397c4 g       *ABS*	00000000 __bss_start
00024260 g     F .text	000000f8 memset
00021a6c g     F .text	00000748 main
000397e0 g     O .bss	00000004 alt_envp
000397c8 g     O .bss	00000004 __malloc_max_total_mem
0003201c g     F .text	00000060 altera_avalon_jtag_uart_write_fd
0002cf98 g     F .text	00000018 __swbuf
00024888 g     F .text	00000008 __sclose
00040000 g       *ABS*	00000000 __alt_heap_limit
0002d270 g     F .text	00000010 fclose
00023850 g     F .text	00000010 getchar
000271b4 g     F .text	000017e8 _dtoa_r
00023aac g     F .text	000007b4 _malloc_r
0002d7d8 g     F .text	00000030 __ascii_wctomb
00037360 g     O .rwdata	00000004 alt_errno
0002d280 g     F .text	00000020 _fiprintf_r
0002dbc4 g     F .text	00000060 _init_signal
0002998c g     F .text	00000098 _fwalk
0002d5cc g     F .text	0000000c _mbtowc_r
0002b1cc g     F .text	000000e0 putc
00022f28 g     F .text	00000080 .hidden __divsi3
000204c0 g     F .text	00000084 oc_i2c_uninit
000290bc g     F .text	00000124 _malloc_trim_r
0003429c g       *ABS*	00000000 __CTOR_END__
000228f0 g     F .text	000001c0 MIPI_BIN_LEVEL
0002d61c g     F .text	000000b8 strcmp
0003429c g       *ABS*	00000000 __flash_rodata_start
0003429c g       *ABS*	00000000 __DTOR_LIST__
0002f8f0 g     F .text	00000094 .hidden __nedf2
00031efc g     F .text	0000003c alt_irq_init
00031a84 g     F .text	00000058 alt_release_fd
000222e8 g     F .text	00000108 MipiBridgeInit
00034dec g     O .rodata	00000100 .hidden __clz_tab
000397d4 g     O .bss	00000004 _PathLocale
0003402c g     F .text	00000014 atexit
00026db0 g     F .text	00000064 _write_r
0002d558 g     F .text	00000074 setlocale
00037340 g     O .rwdata	00000004 _impure_ptr
000397d8 g     O .bss	00000004 alt_argc
00022270 g     F .text	00000078 MipiBridgeRegRead
0002899c g     F .text	00000208 __sflush_r
00033870 g     F .text	00000064 _do_dtors
000231ec g     F .text	00000004 _fseek_r
00037330 g     O .rwdata	00000002 video_w
00024540 g     F .text	000001b8 __srefill_r
00020020 g       .exceptions	00000000 alt_irq_entry
0002d5d8 g     F .text	00000044 __ascii_mbtowc
0002ac54 g     F .text	00000060 __ulp
00028ff0 g     F .text	00000014 __fp_unlock_all
0003734c g     O .rwdata	00000008 alt_fs_list
000202d8 g     F .text	00000054 Read32_Data
00020898 g     F .text	000001d0 OC_I2C_Read
00020020 g       *ABS*	00000000 __ram_exceptions_start
00029c44 g     F .text	0000000c localeconv
00023a00 g     F .text	0000008c __swhatbuf_r
00033b40 g     F .text	00000050 alt_ic_isr_register
00023774 g     F .text	000000d4 fwrite
00037374 g       *ABS*	00000000 _edata
00032b40 g     F .text	00000060 altera_avalon_uart_read_fd
00039920 g       *ABS*	00000000 _end
00023848 g     F .text	00000008 _getchar_r
00022834 g     F .text	000000bc OV8865ReadExposure
0002d2d8 g     F .text	00000164 __fputwc
00020238 g       *ABS*	00000000 __ram_exceptions_end
00032504 g     F .text	000000f4 altera_avalon_jtag_uart_ioctl
00033c18 g     F .text	0000008c alt_ic_irq_disable
000247ac g     F .text	00000080 __swrite
00037348 g     O .rwdata	00000004 __malloc_trim_threshold
00020a68 g     F .text	00000138 OC_I2C_Read_Continue
00034040 g     F .text	00000034 exit
0002d2a0 g     F .text	00000038 fiprintf
0003733a g     O .rwdata	00000001 focus_th
0002d6d4 g     F .text	00000004 _vfiprintf_r
00029a24 g     F .text	000000a8 _fwalk_reent
0002aa24 g     F .text	00000230 __mdiff
00022fa8 g     F .text	00000074 .hidden __modsi3
00040000 g       *ABS*	00000000 __alt_data_end
00020020 g     F .exceptions	00000000 alt_exception
00028fd0 g     F .text	00000004 __sfp_lock_release
00021478 g     F .text	00000098 mipi_show_error_info
00022d00 g     F .text	00000034 QUEUE_Delete
00034b68 g     O .rodata	00000101 _ctype_
00030bec g     F .text	00000054 .hidden __unorddf2
00032fbc g     F .text	00000054 altera_avalon_uart_close
00020db4 g     F .text	00000284 OC_I2CL_Read
000230dc g     F .text	000000f8 _fopen_r
00030f90 g     F .text	0000003c _exit
00033424 g     F .text	00000160 alt_alarm_start
00023860 g     F .text	000001a0 __smakebuf_r
00024890 g     F .text	00000098 strlen
0002d820 g     F .text	0000005c _init_signal_r
000317f8 g     F .text	00000154 open
0002f984 g     F .text	000000fc .hidden __gedf2
0002d014 g     F .text	00000014 __assert
0002bae8 g     F .text	00000018 __sprint_r
00033b0c g     F .text	00000034 alt_icache_flush_all
00022684 g     F .text	000000e4 OV8865SetExposure
00037370 g     O .rwdata	00000004 alt_priority_mask
00037334 g     O .rwdata	00000002 focus_width
00033b90 g     F .text	00000088 alt_ic_irq_enable
00026cd0 g     F .text	0000001c __vfprintf_internal
0003304c g     F .text	000001e8 altera_avalon_uart_read
0002d7cc g     F .text	0000000c _wctomb_r
00021688 g     F .text	00000088 MIPI_Init
00030250 g     F .text	0000099c .hidden __subdf3
00031008 g     F .text	00000124 fcntl
0002a350 g     F .text	000000b0 __lo0bits
00037368 g     O .rwdata	00000008 alt_alarm_list
0003380c g     F .text	00000064 _do_ctors
0002dc24 g     F .text	000000bc __sigtramp
0002d744 g     F .text	00000088 wcrtomb
00030e94 g     F .text	000000d0 close
00035ef8 g     O .rwdata	0000016c __global_locale
00022534 g     F .text	00000080 OV8865_read_AF
000314ac g     F .text	00000084 alt_load
0002d460 g     F .text	00000078 fputwc
0002da78 g     F .text	000000b4 raise
00023a9c g     F .text	00000010 free
00028fd4 g     F .text	00000004 __sinit_lock_acquire
0002a074 g     F .text	00000130 __multadd
0002a050 g     F .text	00000024 _Bfree



Disassembly of section .entry:

00020000 <__reset>:
#if NIOS2_ICACHE_SIZE > 0 && defined(ALT_ALLOW_CODE_AT_RESET) && (!defined(ALT_SIM_OPTIMIZE) || defined(NIOS2_ECC_PRESENT))
    /* Assume the instruction cache size is always a power of two. */
#if NIOS2_ICACHE_SIZE > 0x8000
    movhi r2, %hi(NIOS2_ICACHE_SIZE)
#else
    movui r2, NIOS2_ICACHE_SIZE
   20000:	00840014 	movui	r2,4096
#endif

0:
    initi r2
   20004:	1001483a 	initi	r2
    addi r2, r2, -NIOS2_ICACHE_LINE_SIZE
   20008:	10bff804 	addi	r2,r2,-32
    bgt r2, zero, 0b
   2000c:	00bffd16 	blt	zero,r2,20004 <__reset+0x4>
 * Jump to the _start entry point in the .text section if reset code
 * is allowed or if optimizing for RTL simulation.
 */
#if defined(ALT_ALLOW_CODE_AT_RESET) || defined(ALT_SIM_OPTIMIZE)
    /* Jump to the _start entry point in the .text section. */
    movhi r1, %hi(_start)
   20010:	004000b4 	movhi	at,2
    ori r1, r1, %lo(_start)
   20014:	08408e14 	ori	at,at,568
    jmp r1
   20018:	0800683a 	jmp	at
   2001c:	00000000 	call	0 <__reset-0x20000>

Disassembly of section .exceptions:

00020020 <alt_exception>:

#else /* ALT_EXCEPTION_STACK disabled */
        /* 
         * Reserve space on normal stack for registers about to be pushed.
         */
        addi  sp, sp, -76
   20020:	deffed04 	addi	sp,sp,-76
         * documentation for details).
         *
         * Leave a gap in the stack frame at 4(sp) for the muldiv handler to
         * store zero into.
         */
        stw   ra,  0(sp)
   20024:	dfc00015 	stw	ra,0(sp)
        stw   r1,   8(sp)
   20028:	d8400215 	stw	at,8(sp)
        stw   r2,  12(sp)
   2002c:	d8800315 	stw	r2,12(sp)
        stw   r3,  16(sp)
   20030:	d8c00415 	stw	r3,16(sp)
        stw   r4,  20(sp)
   20034:	d9000515 	stw	r4,20(sp)
        stw   r5,  24(sp)
   20038:	d9400615 	stw	r5,24(sp)
        stw   r6,  28(sp)
   2003c:	d9800715 	stw	r6,28(sp)
        stw   r7,  32(sp)
   20040:	d9c00815 	stw	r7,32(sp)
        rdctl r5, estatus   /* Read early to avoid usage stall */
   20044:	000b307a 	rdctl	r5,estatus
        stw   r8,  36(sp)
   20048:	da000915 	stw	r8,36(sp)
        stw   r9,  40(sp)
   2004c:	da400a15 	stw	r9,40(sp)
        stw   r10, 44(sp)
   20050:	da800b15 	stw	r10,44(sp)
        stw   r11, 48(sp)
   20054:	dac00c15 	stw	r11,48(sp)
        stw   r12, 52(sp)
   20058:	db000d15 	stw	r12,52(sp)
        stw   r13, 56(sp)
   2005c:	db400e15 	stw	r13,56(sp)
        stw   r14, 60(sp)
   20060:	db800f15 	stw	r14,60(sp)
        stw   r15, 64(sp)
   20064:	dbc01015 	stw	r15,64(sp)
        /*
         * ea-4 contains the address of the instruction being executed
         * when the exception occured. For interrupt exceptions, we will
         * will be re-issue the isntruction. Store it in 72(sp)
         */
        stw   r5,  68(sp)  /* estatus */
   20068:	d9401115 	stw	r5,68(sp)
        addi  r15, ea, -4  /* instruction that caused exception */
   2006c:	ebffff04 	addi	r15,ea,-4
        stw   r15,  72(sp)
   20070:	dbc01215 	stw	r15,72(sp)
#else
        /*
         * Test to see if the exception was a software exception or caused 
         * by an external interrupt, and vector accordingly.
         */
        rdctl r4, ipending
   20074:	0009313a 	rdctl	r4,ipending
        andi  r2, r5, 1
   20078:	2880004c 	andi	r2,r5,1
        beq   r2, zero, .Lnot_irq
   2007c:	10000326 	beq	r2,zero,2008c <alt_exception+0x6c>
        beq   r4, zero, .Lnot_irq
   20080:	20000226 	beq	r4,zero,2008c <alt_exception+0x6c>
        /*
         * Now that all necessary registers have been preserved, call 
         * alt_irq_handler() to process the interrupts.
         */

        call alt_irq_handler
   20084:	00200fc0 	call	200fc <alt_irq_handler>

        .section .exceptions.irqreturn, "xa"

        br    .Lexception_exit
   20088:	00000706 	br	200a8 <alt_exception+0x88>
         * upon completion, so we write ea (address of instruction *after*
         * the one where the exception occured) into 72(sp). The actual
         * instruction that caused the exception is written in r2, which these
         * handlers will utilize.
         */
        stw ea, 72(sp) /* EA is PC+4 so will skip over instruction causing exception */
   2008c:	df401215 	stw	ea,72(sp)
.Lunknown_16bit:
        addi.n r4, r4, 2 /* Need PC+2 to skip over instruction causing exception */
        stw r4, 72(sp)

#else /* CDX is not Enabled and all instructions are 32bits */
        ldw r2, -4(ea) /* Instruction value that caused exception */
   20090:	e8bfff17 	ldw	r2,-4(ea)
   20094:	e93fff04 	addi	r4,ea,-4
   20098:	00201c40 	call	201c4 <alt_instruction_exception_entry>
   2009c:	1000021e 	bne	r2,zero,200a8 <alt_exception+0x88>
   200a0:	ebffff04 	addi	r15,ea,-4
   200a4:	dbc01215 	stw	r15,72(sp)
        /* 
         * Restore the saved registers, so that all general purpose registers 
         * have been restored to their state at the time the interrupt occured.
         */

        ldw   r5,  68(sp)
   200a8:	d9401117 	ldw	r5,68(sp)
        ldw   ea,  72(sp)  /* This becomes the PC once eret is executed */
   200ac:	df401217 	ldw	ea,72(sp)
        ldw   ra,   0(sp)
   200b0:	dfc00017 	ldw	ra,0(sp)

        wrctl estatus, r5
   200b4:	2801707a 	wrctl	estatus,r5

        ldw   r1,   8(sp)
   200b8:	d8400217 	ldw	at,8(sp)
        ldw   r2,  12(sp)
   200bc:	d8800317 	ldw	r2,12(sp)
        ldw   r3,  16(sp)
   200c0:	d8c00417 	ldw	r3,16(sp)
        ldw   r4,  20(sp)
   200c4:	d9000517 	ldw	r4,20(sp)
        ldw   r5,  24(sp)
   200c8:	d9400617 	ldw	r5,24(sp)
        ldw   r6,  28(sp)
   200cc:	d9800717 	ldw	r6,28(sp)
        ldw   r7,  32(sp)
   200d0:	d9c00817 	ldw	r7,32(sp)

#if defined(ALT_EXCEPTION_STACK) && defined(ALT_STACK_CHECK)
        ldw   et, %gprel(alt_exception_old_stack_limit)(gp)
#endif

        ldw   r8,  36(sp)
   200d4:	da000917 	ldw	r8,36(sp)
        ldw   r9,  40(sp)
   200d8:	da400a17 	ldw	r9,40(sp)
        ldw   r10, 44(sp)
   200dc:	da800b17 	ldw	r10,44(sp)
        ldw   r11, 48(sp)
   200e0:	dac00c17 	ldw	r11,48(sp)
        ldw   r12, 52(sp)
   200e4:	db000d17 	ldw	r12,52(sp)
        ldw   r13, 56(sp)
   200e8:	db400e17 	ldw	r13,56(sp)
        ldw   r14, 60(sp)
   200ec:	db800f17 	ldw	r14,60(sp)
        ldw   r15, 64(sp)
   200f0:	dbc01017 	ldw	r15,64(sp)
        stw   et, %gprel(alt_stack_limit_value)(gp)
        stw   zero, %gprel(alt_exception_old_stack_limit)(gp)
#endif /* ALT_STACK_CHECK */
        ldw   sp,  76(sp)
#else /* ALT_EXCEPTION_STACK disabled */
        addi  sp, sp, 76
   200f4:	dec01304 	addi	sp,sp,76

        /*
         * Return to the interrupted instruction.
         */

        eret
   200f8:	ef80083a 	eret

000200fc <alt_irq_handler>:
 * instruction is present if the macro ALT_CI_INTERRUPT_VECTOR defined.
 */

void alt_irq_handler (void) __attribute__ ((section (".exceptions")));
void alt_irq_handler (void)
{
   200fc:	defff904 	addi	sp,sp,-28
   20100:	dfc00615 	stw	ra,24(sp)
   20104:	df000515 	stw	fp,20(sp)
   20108:	df000504 	addi	fp,sp,20
  
  /*
   * Notify the operating system that we are at interrupt level.
   */ 
  
  ALT_OS_INT_ENTER();
   2010c:	0001883a 	nop
#ifndef NIOS2_EIC_PRESENT
static ALT_INLINE alt_u32 ALT_ALWAYS_INLINE alt_irq_pending (void)
{
  alt_u32 active;

  NIOS2_READ_IPENDING (active);
   20110:	0005313a 	rdctl	r2,ipending
   20114:	e0bffc15 	stw	r2,-16(fp)

  return active;
   20118:	e0bffc17 	ldw	r2,-16(fp)
   * Consider the case where the high priority interupt is asserted during
   * the interrupt entry sequence for a lower priority interrupt to see why
   * this is the case.
   */

  active = alt_irq_pending ();
   2011c:	e0bfff15 	stw	r2,-4(fp)

  do
  {
    i = 0;
   20120:	e03ffd15 	stw	zero,-12(fp)
    mask = 1;
   20124:	00800044 	movi	r2,1
   20128:	e0bffe15 	stw	r2,-8(fp)
     * called to clear the interrupt condition.
     */

    do
    {
      if (active & mask)
   2012c:	e0ffff17 	ldw	r3,-4(fp)
   20130:	e0bffe17 	ldw	r2,-8(fp)
   20134:	1884703a 	and	r2,r3,r2
   20138:	10001126 	beq	r2,zero,20180 <alt_irq_handler+0x84>
      { 
#ifdef ALT_ENHANCED_INTERRUPT_API_PRESENT
        alt_irq[i].handler(alt_irq[i].context); 
   2013c:	e0bffd17 	ldw	r2,-12(fp)
   20140:	100690fa 	slli	r3,r2,3
   20144:	00800134 	movhi	r2,4
   20148:	1885883a 	add	r2,r3,r2
   2014c:	10e60817 	ldw	r3,-26592(r2)
   20150:	e0bffd17 	ldw	r2,-12(fp)
   20154:	100890fa 	slli	r4,r2,3
   20158:	00800134 	movhi	r2,4
   2015c:	2085883a 	add	r2,r4,r2
   20160:	10a60917 	ldw	r2,-26588(r2)
   20164:	1009883a 	mov	r4,r2
   20168:	183ee83a 	callr	r3
#else
        alt_irq[i].handler(alt_irq[i].context, i); 
#endif
        break;
   2016c:	0001883a 	nop
  NIOS2_READ_IPENDING (active);
   20170:	0005313a 	rdctl	r2,ipending
   20174:	e0bffb15 	stw	r2,-20(fp)
  return active;
   20178:	e0bffb17 	ldw	r2,-20(fp)
   2017c:	00000706 	br	2019c <alt_irq_handler+0xa0>
      }
      mask <<= 1;
   20180:	e0bffe17 	ldw	r2,-8(fp)
   20184:	1085883a 	add	r2,r2,r2
   20188:	e0bffe15 	stw	r2,-8(fp)
      i++;
   2018c:	e0bffd17 	ldw	r2,-12(fp)
   20190:	10800044 	addi	r2,r2,1
   20194:	e0bffd15 	stw	r2,-12(fp)
      if (active & mask)
   20198:	003fe406 	br	2012c <alt_irq_handler+0x30>

    } while (1);

    active = alt_irq_pending ();
   2019c:	e0bfff15 	stw	r2,-4(fp)
    
  } while (active);
   201a0:	e0bfff17 	ldw	r2,-4(fp)
   201a4:	103fde1e 	bne	r2,zero,20120 <alt_irq_handler+0x24>

  /*
   * Notify the operating system that interrupt processing is complete.
   */ 

  ALT_OS_INT_EXIT();
   201a8:	0001883a 	nop
}
   201ac:	0001883a 	nop
   201b0:	e037883a 	mov	sp,fp
   201b4:	dfc00117 	ldw	ra,4(sp)
   201b8:	df000017 	ldw	fp,0(sp)
   201bc:	dec00204 	addi	sp,sp,8
   201c0:	f800283a 	ret

000201c4 <alt_instruction_exception_entry>:
 * that handler if it has been registered. Absent a handler, it will
 * break break or hang as discussed below.
 */
int 
alt_instruction_exception_entry (alt_u32 exception_pc)
{
   201c4:	defffb04 	addi	sp,sp,-20
   201c8:	dfc00415 	stw	ra,16(sp)
   201cc:	df000315 	stw	fp,12(sp)
   201d0:	df000304 	addi	fp,sp,12
   201d4:	e13ffd15 	stw	r4,-12(fp)
 * NIOS2_EXCEPTION_CAUSE_NOT_PRESENT. Your handling routine should
 * check the validity of the cause argument before proceeding.
 */
#ifdef NIOS2_HAS_EXTRA_EXCEPTION_INFO
  /* Get exception cause & "badaddr" */
  NIOS2_READ_EXCEPTION(cause);
   201d8:	000531fa 	rdctl	r2,exception
   201dc:	e0bfff15 	stw	r2,-4(fp)
  cause = ( (cause & NIOS2_EXCEPTION_REG_CAUSE_MASK) >>
   201e0:	e0bfff17 	ldw	r2,-4(fp)
   201e4:	1004d0ba 	srli	r2,r2,2
   201e8:	108007cc 	andi	r2,r2,31
   201ec:	e0bfff15 	stw	r2,-4(fp)
              NIOS2_EXCEPTION_REG_CAUSE_OFST );

  NIOS2_READ_BADADDR(badaddr);
   201f0:	0005333a 	rdctl	r2,badaddr
   201f4:	e0bffe15 	stw	r2,-8(fp)
#else
  cause = NIOS2_EXCEPTION_CAUSE_NOT_PRESENT;
  badaddr = 0;
#endif /* NIOS2_HAS_EXTRA_EXCEPTION_INFO */

  if(alt_instruction_exception_handler) {
   201f8:	d0a93117 	ldw	r2,-23356(gp)
   201fc:	10000726 	beq	r2,zero,2021c <alt_instruction_exception_entry+0x58>
     * Call handler. Its return value indicates whether the exception-causing
     * instruction should be re-issued. The code that called us,
     * alt_eceptions_entry.S, will look at this value and adjust the ea
     * register as necessary
     */
    return alt_instruction_exception_handler(cause, exception_pc, badaddr);
   20200:	d0a93117 	ldw	r2,-23356(gp)
   20204:	e0ffff17 	ldw	r3,-4(fp)
   20208:	e1bffe17 	ldw	r6,-8(fp)
   2020c:	e17ffd17 	ldw	r5,-12(fp)
   20210:	1809883a 	mov	r4,r3
   20214:	103ee83a 	callr	r2
   20218:	00000206 	br	20224 <alt_instruction_exception_entry+0x60>
   *    (a peripheral which negates its interrupt output before its
   *    interrupt handler has been executed will cause spurious interrupts)
   */
  else {
#ifdef NIOS2_HAS_DEBUG_STUB
    NIOS2_BREAK();
   2021c:	003da03a 	break	0
      ;
#endif /* NIOS2_HAS_DEBUG_STUB */
  }

  /* We should not get here. Remove compiler warning. */
  return NIOS2_EXCEPTION_RETURN_REISSUE_INST;
   20220:	0005883a 	mov	r2,zero
}
   20224:	e037883a 	mov	sp,fp
   20228:	dfc00117 	ldw	ra,4(sp)
   2022c:	df000017 	ldw	fp,0(sp)
   20230:	dec00204 	addi	sp,sp,8
   20234:	f800283a 	ret

Disassembly of section .text:

00020238 <_start>:

    /* Assume the data cache size is always a power of two. */
#if NIOS2_DCACHE_SIZE > 0x8000
    movhi r2, %hi(NIOS2_DCACHE_SIZE)
#else
    movui r2, NIOS2_DCACHE_SIZE
   20238:	00820014 	movui	r2,2048
#endif

0:
    initd 0(r2)
   2023c:	10000033 	initd	0(r2)
#ifdef NIOS2_ECC_PRESENT
    addi r2, r2, -4
#else
    addi r2, r2, -NIOS2_DCACHE_LINE_SIZE
   20240:	10bff804 	addi	r2,r2,-32
#endif
    bgt r2, zero, 0b
   20244:	00bffd16 	blt	zero,r2,2023c <_start+0x4>

    /*
     * Now that the caches are initialized, set up the stack pointer and global pointer.
     * The values provided by the linker are assumed to be correctly aligned.
     */
    movhi sp, %hi(__alt_stack_pointer)
   20248:	06c00134 	movhi	sp,4
    ori sp, sp, %lo(__alt_stack_pointer)
   2024c:	dec00014 	ori	sp,sp,0
    movhi gp, %hi(_gp)
   20250:	068000f4 	movhi	gp,3
    ori gp, gp, %lo(_gp)
   20254:	d6bccc14 	ori	gp,gp,62256
 */
#ifndef ALT_SIM_OPTIMIZE
    /* Log that the BSS is about to be cleared. */
    ALT_LOG_PUTS(alt_log_msg_bss)

    movhi r2, %hi(__bss_start)
   20258:	008000f4 	movhi	r2,3
    ori r2, r2, %lo(__bss_start)
   2025c:	10a5f114 	ori	r2,r2,38852

    movhi r3, %hi(__bss_end)
   20260:	00c000f4 	movhi	r3,3
    ori r3, r3, %lo(__bss_end)
   20264:	18e64814 	ori	r3,r3,39200

    beq r2, r3, 1f
   20268:	10c00326 	beq	r2,r3,20278 <_start+0x40>

0:
    stw zero, (r2)
   2026c:	10000015 	stw	zero,0(r2)
    addi r2, r2, 4
   20270:	10800104 	addi	r2,r2,4
    bltu r2, r3, 0b
   20274:	10fffd36 	bltu	r2,r3,2026c <_start+0x34>
     * section aren't defined until alt_load() has been called).
     */
    mov   et, zero
#endif

    call alt_load
   20278:	00314ac0 	call	314ac <alt_load>

    /* Log that alt_main is about to be called. */
    ALT_LOG_PUTS(alt_log_msg_alt_main)

    /* Call the C entry point. It should never return. */
    call alt_main
   2027c:	00316400 	call	31640 <alt_main>

00020280 <alt_after_alt_main>:

    /* Wait in infinite loop in case alt_main does return. */
alt_after_alt_main:
    br alt_after_alt_main
   20280:	003fff06 	br	20280 <alt_after_alt_main>

00020284 <Write32_Data>:
#define SLEEP_TIME 250  //us
#define ACK_SLEEP_TIME 250 //us
#define TRUE 1
#define FALSE 0

bool Write32_Data(alt_32 base_address, alt_32 offset_address, alt_32 Data){
   20284:	defffb04 	addi	sp,sp,-20
   20288:	df000415 	stw	fp,16(sp)
   2028c:	df000404 	addi	fp,sp,16
   20290:	e13ffe15 	stw	r4,-8(fp)
   20294:	e17ffd15 	stw	r5,-12(fp)
   20298:	e1bffc15 	stw	r6,-16(fp)
	bool bPass;
    IOWR(base_address, offset_address,Data);
   2029c:	e0bffd17 	ldw	r2,-12(fp)
   202a0:	100490ba 	slli	r2,r2,2
   202a4:	1007883a 	mov	r3,r2
   202a8:	e0bffe17 	ldw	r2,-8(fp)
   202ac:	1885883a 	add	r2,r3,r2
   202b0:	1007883a 	mov	r3,r2
   202b4:	e0bffc17 	ldw	r2,-16(fp)
   202b8:	18800035 	stwio	r2,0(r3)
    bPass=TRUE;
   202bc:	00800044 	movi	r2,1
   202c0:	e0bfff15 	stw	r2,-4(fp)
    return bPass;
   202c4:	e0bfff17 	ldw	r2,-4(fp)
}
   202c8:	e037883a 	mov	sp,fp
   202cc:	df000017 	ldw	fp,0(sp)
   202d0:	dec00104 	addi	sp,sp,4
   202d4:	f800283a 	ret

000202d8 <Read32_Data>:



bool  Read32_Data(alt_32 base_address, alt_32 offset_address, alt_32 *pData32){
   202d8:	defffb04 	addi	sp,sp,-20
   202dc:	df000415 	stw	fp,16(sp)
   202e0:	df000404 	addi	fp,sp,16
   202e4:	e13ffe15 	stw	r4,-8(fp)
   202e8:	e17ffd15 	stw	r5,-12(fp)
   202ec:	e1bffc15 	stw	r6,-16(fp)
	bool bPass;
	*pData32 =IORD(base_address ,offset_address  );
   202f0:	e0bffd17 	ldw	r2,-12(fp)
   202f4:	100490ba 	slli	r2,r2,2
   202f8:	1007883a 	mov	r3,r2
   202fc:	e0bffe17 	ldw	r2,-8(fp)
   20300:	1885883a 	add	r2,r3,r2
   20304:	10c00037 	ldwio	r3,0(r2)
   20308:	e0bffc17 	ldw	r2,-16(fp)
   2030c:	10c00015 	stw	r3,0(r2)
	bPass=TRUE;
   20310:	00800044 	movi	r2,1
   20314:	e0bfff15 	stw	r2,-4(fp)
    return bPass;
   20318:	e0bfff17 	ldw	r2,-4(fp)
}
   2031c:	e037883a 	mov	sp,fp
   20320:	df000017 	ldw	fp,0(sp)
   20324:	dec00104 	addi	sp,sp,4
   20328:	f800283a 	ret

0002032c <oc_i2c_init>:

bool oc_i2c_init(alt_32 i2c_base){
   2032c:	defffa04 	addi	sp,sp,-24
   20330:	dfc00515 	stw	ra,20(sp)
   20334:	df000415 	stw	fp,16(sp)
   20338:	df000404 	addi	fp,sp,16
   2033c:	e13ffc15 	stw	r4,-16(fp)
	bool bSuccess;
	const alt_32 ref_clk = 50*1000*1000; // 50MHz
   20340:	0080bef4 	movhi	r2,763
   20344:	10bc2004 	addi	r2,r2,-3968
   20348:	e0bfff15 	stw	r2,-4(fp)
	const alt_32 i2c_clk = 400*1000; // 400KHz
   2034c:	008001b4 	movhi	r2,6
   20350:	1086a004 	addi	r2,r2,6784
   20354:	e0bffe15 	stw	r2,-8(fp)

	bSuccess = oc_i2c_init_ex(i2c_base, ref_clk, i2c_clk);
   20358:	e1bffe17 	ldw	r6,-8(fp)
   2035c:	e17fff17 	ldw	r5,-4(fp)
   20360:	e13ffc17 	ldw	r4,-16(fp)
   20364:	00203840 	call	20384 <oc_i2c_init_ex>
   20368:	e0bffd15 	stw	r2,-12(fp)

	return bSuccess;
   2036c:	e0bffd17 	ldw	r2,-12(fp)
}
   20370:	e037883a 	mov	sp,fp
   20374:	dfc00117 	ldw	ra,4(sp)
   20378:	df000017 	ldw	fp,0(sp)
   2037c:	dec00204 	addi	sp,sp,8
   20380:	f800283a 	ret

00020384 <oc_i2c_init_ex>:

bool  oc_i2c_init_ex(alt_32 i2c_base, alt_32 ref_clk, alt_32 i2c_clk)
{
   20384:	defff604 	addi	sp,sp,-40
   20388:	dfc00915 	stw	ra,36(sp)
   2038c:	df000815 	stw	fp,32(sp)
   20390:	df000804 	addi	fp,sp,32
   20394:	e13ffa15 	stw	r4,-24(fp)
   20398:	e17ff915 	stw	r5,-28(fp)
   2039c:	e1bff815 	stw	r6,-32(fp)
	bool bSuccess=TRUE;
   203a0:	00800044 	movi	r2,1
   203a4:	e0bfff15 	stw	r2,-4(fp)
	alt_32 read_data;
	alt_32 prescale;
	alt_u8 prescale_high;
	alt_u8 prescale_low;
	const alt_u8 ControlValue = 0x80;
   203a8:	00bfe004 	movi	r2,-128
   203ac:	e0bffec5 	stb	r2,-5(fp)

    // I2c sysclock =50M hz
	// i2c scl max 400k
	//scl =sysclock/(prescale*5)
	prescale = (ref_clk/(5*i2c_clk))-1;
   203b0:	e0bff817 	ldw	r2,-32(fp)
   203b4:	10800164 	muli	r2,r2,5
   203b8:	100b883a 	mov	r5,r2
   203bc:	e13ff917 	ldw	r4,-28(fp)
   203c0:	0022f280 	call	22f28 <__divsi3>
   203c4:	10bfffc4 	addi	r2,r2,-1
   203c8:	e0bffd15 	stw	r2,-12(fp)
	prescale_low = prescale & 0xFF;
   203cc:	e0bffd17 	ldw	r2,-12(fp)
   203d0:	e0bffcc5 	stb	r2,-13(fp)
	prescale_high = (prescale >> 8) & 0xFF;
   203d4:	e0bffd17 	ldw	r2,-12(fp)
   203d8:	1005d23a 	srai	r2,r2,8
   203dc:	e0bffc85 	stb	r2,-14(fp)

   IOWR(i2c_base, 0, prescale_low);//write low byte of  prescale (reg 0)
   203e0:	e0bffa17 	ldw	r2,-24(fp)
   203e4:	e0fffcc3 	ldbu	r3,-13(fp)
   203e8:	10c00035 	stwio	r3,0(r2)
   IOWR(i2c_base, 1, prescale_high);//write high byte of prescale (reg 1)
   203ec:	e0bffa17 	ldw	r2,-24(fp)
   203f0:	10800104 	addi	r2,r2,4
   203f4:	1007883a 	mov	r3,r2
   203f8:	e0bffc83 	ldbu	r2,-14(fp)
   203fc:	18800035 	stwio	r2,0(r3)

   //enable the I2C core, but disable the IRQ
   IOWR( i2c_base, 2, ControlValue);
   20400:	e0bffa17 	ldw	r2,-24(fp)
   20404:	10800204 	addi	r2,r2,8
   20408:	1007883a 	mov	r3,r2
   2040c:	e0bffec3 	ldbu	r2,-5(fp)
   20410:	18800035 	stwio	r2,0(r3)


    // check prescale low byte
    if (bSuccess){
   20414:	e0bfff17 	ldw	r2,-4(fp)
   20418:	10000826 	beq	r2,zero,2043c <oc_i2c_init_ex+0xb8>
    	read_data =IORD(i2c_base, 0);
   2041c:	e0bffa17 	ldw	r2,-24(fp)
   20420:	10800037 	ldwio	r2,0(r2)
   20424:	e0bffb15 	stw	r2,-20(fp)
        if( (read_data & 0x00ff) != prescale_low ){
   20428:	e0bffb17 	ldw	r2,-20(fp)
   2042c:	10c03fcc 	andi	r3,r2,255
   20430:	e0bffcc3 	ldbu	r2,-13(fp)
   20434:	18800126 	beq	r3,r2,2043c <oc_i2c_init_ex+0xb8>
            bSuccess = FALSE;
   20438:	e03fff15 	stw	zero,-4(fp)
        }
    }

    // check prescale high byte
    if (bSuccess){
   2043c:	e0bfff17 	ldw	r2,-4(fp)
   20440:	10000926 	beq	r2,zero,20468 <oc_i2c_init_ex+0xe4>
    	read_data =IORD(i2c_base, 1);
   20444:	e0bffa17 	ldw	r2,-24(fp)
   20448:	10800104 	addi	r2,r2,4
   2044c:	10800037 	ldwio	r2,0(r2)
   20450:	e0bffb15 	stw	r2,-20(fp)
        if( (read_data & 0x00ff) != prescale_high ){
   20454:	e0bffb17 	ldw	r2,-20(fp)
   20458:	10c03fcc 	andi	r3,r2,255
   2045c:	e0bffc83 	ldbu	r2,-14(fp)
   20460:	18800126 	beq	r3,r2,20468 <oc_i2c_init_ex+0xe4>
            bSuccess = FALSE;
   20464:	e03fff15 	stw	zero,-4(fp)
        }
    }

    // check control
    if (bSuccess){
   20468:	e0bfff17 	ldw	r2,-4(fp)
   2046c:	10000926 	beq	r2,zero,20494 <oc_i2c_init_ex+0x110>
    	read_data =IORD(i2c_base, 2);
   20470:	e0bffa17 	ldw	r2,-24(fp)
   20474:	10800204 	addi	r2,r2,8
   20478:	10800037 	ldwio	r2,0(r2)
   2047c:	e0bffb15 	stw	r2,-20(fp)
        if( (read_data & 0x00ff) != ControlValue ){
   20480:	e0bffb17 	ldw	r2,-20(fp)
   20484:	10c03fcc 	andi	r3,r2,255
   20488:	e0bffec3 	ldbu	r2,-5(fp)
   2048c:	18800126 	beq	r3,r2,20494 <oc_i2c_init_ex+0x110>
            bSuccess = FALSE;
   20490:	e03fff15 	stw	zero,-4(fp)
        }
    }

   if (bSuccess){
   20494:	e0bfff17 	ldw	r2,-4(fp)
   20498:	1000031e 	bne	r2,zero,204a8 <oc_i2c_init_ex+0x124>
//       printf("\nI2C core is enabled! \r\n");
   }
   else
       printf("\nI2C core is not enabled successfully! \r\n");
   2049c:	010000f4 	movhi	r4,3
   204a0:	2110a704 	addi	r4,r4,17052
   204a4:	00245140 	call	24514 <puts>

   return bSuccess;
   204a8:	e0bfff17 	ldw	r2,-4(fp)

}
   204ac:	e037883a 	mov	sp,fp
   204b0:	dfc00117 	ldw	ra,4(sp)
   204b4:	df000017 	ldw	fp,0(sp)
   204b8:	dec00204 	addi	sp,sp,8
   204bc:	f800283a 	ret

000204c0 <oc_i2c_uninit>:

bool oc_i2c_uninit(alt_32 i2c_base)
{
   204c0:	defffa04 	addi	sp,sp,-24
   204c4:	dfc00515 	stw	ra,20(sp)
   204c8:	df000415 	stw	fp,16(sp)
   204cc:	df000404 	addi	fp,sp,16
   204d0:	e13ffc15 	stw	r4,-16(fp)
	bool bSuccess=TRUE;
   204d4:	00800044 	movi	r2,1
   204d8:	e0bfff15 	stw	r2,-4(fp)
	alt_32 read_data;
	const alt_u8 ControlValue = 0x00;
   204dc:	e03ffec5 	stb	zero,-5(fp)

    IOWR( i2c_base, 2, ControlValue);
   204e0:	e0bffc17 	ldw	r2,-16(fp)
   204e4:	10800204 	addi	r2,r2,8
   204e8:	1007883a 	mov	r3,r2
   204ec:	e0bffec3 	ldbu	r2,-5(fp)
   204f0:	18800035 	stwio	r2,0(r3)
   	read_data =IORD(i2c_base, 2);
   204f4:	e0bffc17 	ldw	r2,-16(fp)
   204f8:	10800204 	addi	r2,r2,8
   204fc:	10800037 	ldwio	r2,0(r2)
   20500:	e0bffd15 	stw	r2,-12(fp)
	if( (read_data & 0x00ff) != ControlValue ){
   20504:	e0bffd17 	ldw	r2,-12(fp)
   20508:	10c03fcc 	andi	r3,r2,255
   2050c:	e0bffec3 	ldbu	r2,-5(fp)
   20510:	18800126 	beq	r3,r2,20518 <oc_i2c_uninit+0x58>
            bSuccess = FALSE;
   20514:	e03fff15 	stw	zero,-4(fp)
    }

   if (bSuccess){
   20518:	e0bfff17 	ldw	r2,-4(fp)
   2051c:	1000031e 	bne	r2,zero,2052c <oc_i2c_uninit+0x6c>
//       printf("\I2C core  is disabled! \r\n");
   }
   else
       printf("\I2C core is failed to disable! \r\n");
   20520:	010000f4 	movhi	r4,3
   20524:	2110b204 	addi	r4,r4,17096
   20528:	00245140 	call	24514 <puts>

   return bSuccess;
   2052c:	e0bfff17 	ldw	r2,-4(fp)

}
   20530:	e037883a 	mov	sp,fp
   20534:	dfc00117 	ldw	ra,4(sp)
   20538:	df000017 	ldw	fp,0(sp)
   2053c:	dec00204 	addi	sp,sp,8
   20540:	f800283a 	ret

00020544 <ACK_single_check>:




bool  ACK_single_check(alt_32 i2c_base)
{
   20544:	defffb04 	addi	sp,sp,-20
   20548:	dfc00415 	stw	ra,16(sp)
   2054c:	df000315 	stw	fp,12(sp)
   20550:	df000304 	addi	fp,sp,12
   20554:	e13ffd15 	stw	r4,-12(fp)
	bool bSuccess=TRUE;
   20558:	00800044 	movi	r2,1
   2055c:	e0bfff15 	stw	r2,-4(fp)
	alt_32 read_data;

    usleep(ACK_SLEEP_TIME);
   20560:	01003e84 	movi	r4,250
   20564:	0031d640 	call	31d64 <usleep>
    read_data =IORD(i2c_base, 4);
   20568:	e0bffd17 	ldw	r2,-12(fp)
   2056c:	10800404 	addi	r2,r2,16
   20570:	10800037 	ldwio	r2,0(r2)
   20574:	e0bffe15 	stw	r2,-8(fp)
    if(read_data & 0x02)
   20578:	e0bffe17 	ldw	r2,-8(fp)
   2057c:	1080008c 	andi	r2,r2,2
   20580:	10000126 	beq	r2,zero,20588 <ACK_single_check+0x44>
            bSuccess = FALSE;
   20584:	e03fff15 	stw	zero,-4(fp)
     if (bSuccess){
   20588:	e0bfff17 	ldw	r2,-4(fp)
   2058c:	10000a26 	beq	r2,zero,205b8 <ACK_single_check+0x74>
            usleep(ACK_SLEEP_TIME);
   20590:	01003e84 	movi	r4,250
   20594:	0031d640 	call	31d64 <usleep>
            read_data =IORD(i2c_base, 4);
   20598:	e0bffd17 	ldw	r2,-12(fp)
   2059c:	10800404 	addi	r2,r2,16
   205a0:	10800037 	ldwio	r2,0(r2)
   205a4:	e0bffe15 	stw	r2,-8(fp)
                if(read_data & 0x80)
   205a8:	e0bffe17 	ldw	r2,-8(fp)
   205ac:	1080200c 	andi	r2,r2,128
   205b0:	10000126 	beq	r2,zero,205b8 <ACK_single_check+0x74>
                    bSuccess = FALSE;
   205b4:	e03fff15 	stw	zero,-4(fp)
     }
    return bSuccess;
   205b8:	e0bfff17 	ldw	r2,-4(fp)
}
   205bc:	e037883a 	mov	sp,fp
   205c0:	dfc00117 	ldw	ra,4(sp)
   205c4:	df000017 	ldw	fp,0(sp)
   205c8:	dec00204 	addi	sp,sp,8
   205cc:	f800283a 	ret

000205d0 <ACK_check>:


bool  ACK_check(alt_32 i2c_base){
   205d0:	defffb04 	addi	sp,sp,-20
   205d4:	dfc00415 	stw	ra,16(sp)
   205d8:	df000315 	stw	fp,12(sp)
   205dc:	df000304 	addi	fp,sp,12
   205e0:	e13ffd15 	stw	r4,-12(fp)
    bool bSuccess = FALSE;
   205e4:	e03fff15 	stw	zero,-4(fp)
    int i=0;
   205e8:	e03ffe15 	stw	zero,-8(fp)

    while(!bSuccess && i++ < 10){
   205ec:	00000306 	br	205fc <ACK_check+0x2c>
        bSuccess = ACK_single_check(i2c_base);
   205f0:	e13ffd17 	ldw	r4,-12(fp)
   205f4:	00205440 	call	20544 <ACK_single_check>
   205f8:	e0bfff15 	stw	r2,-4(fp)
    while(!bSuccess && i++ < 10){
   205fc:	e0bfff17 	ldw	r2,-4(fp)
   20600:	1000051e 	bne	r2,zero,20618 <ACK_check+0x48>
   20604:	e0bffe17 	ldw	r2,-8(fp)
   20608:	10c00044 	addi	r3,r2,1
   2060c:	e0fffe15 	stw	r3,-8(fp)
   20610:	10800290 	cmplti	r2,r2,10
   20614:	103ff61e 	bne	r2,zero,205f0 <ACK_check+0x20>
    }

    return bSuccess;
   20618:	e0bfff17 	ldw	r2,-4(fp)
}
   2061c:	e037883a 	mov	sp,fp
   20620:	dfc00117 	ldw	ra,4(sp)
   20624:	df000017 	ldw	fp,0(sp)
   20628:	dec00204 	addi	sp,sp,8
   2062c:	f800283a 	ret

00020630 <OC_I2C_Write>:

bool  OC_I2C_Write(alt_32 i2c_base,alt_u8 device_address,alt_u8 sub_address, alt_u8 *pData, int nWriteLength)
{
   20630:	defff904 	addi	sp,sp,-28
   20634:	dfc00615 	stw	ra,24(sp)
   20638:	df000515 	stw	fp,20(sp)
   2063c:	df000504 	addi	fp,sp,20
   20640:	e13ffe15 	stw	r4,-8(fp)
   20644:	2805883a 	mov	r2,r5
   20648:	3007883a 	mov	r3,r6
   2064c:	e1fffb15 	stw	r7,-20(fp)
   20650:	e0bffd05 	stb	r2,-12(fp)
   20654:	1805883a 	mov	r2,r3
   20658:	e0bffc05 	stb	r2,-16(fp)
    //DWORD reg_data = 0x0;
    int i;

   //set the tx reg audio chip dev address with write bit
   if (!Write32_Data( i2c_base, 3,device_address)){
   2065c:	e0bffd03 	ldbu	r2,-12(fp)
   20660:	100d883a 	mov	r6,r2
   20664:	014000c4 	movi	r5,3
   20668:	e13ffe17 	ldw	r4,-8(fp)
   2066c:	00202840 	call	20284 <Write32_Data>
   20670:	1000051e 	bne	r2,zero,20688 <OC_I2C_Write+0x58>
       printf("OC_I2C_Write error[0]\r\n");
   20674:	010000f4 	movhi	r4,3
   20678:	2110bb04 	addi	r4,r4,17132
   2067c:	00245140 	call	24514 <puts>
       return FALSE;
   20680:	0005883a 	mov	r2,zero
   20684:	00006606 	br	20820 <OC_I2C_Write+0x1f0>
   }
   //set STA and WR bits(bit7 and bit4)
   if (!Write32_Data( i2c_base, 4,0x90)){
   20688:	01802404 	movi	r6,144
   2068c:	01400104 	movi	r5,4
   20690:	e13ffe17 	ldw	r4,-8(fp)
   20694:	00202840 	call	20284 <Write32_Data>
   20698:	1000051e 	bne	r2,zero,206b0 <OC_I2C_Write+0x80>
       printf("OC_I2C_Write error[1]\r\n");
   2069c:	010000f4 	movhi	r4,3
   206a0:	2110c104 	addi	r4,r4,17156
   206a4:	00245140 	call	24514 <puts>
       return FALSE;
   206a8:	0005883a 	mov	r2,zero
   206ac:	00005c06 	br	20820 <OC_I2C_Write+0x1f0>
   }

   //wait TIP bit go to 0 to end Tx
    if(!ACK_check( i2c_base)){
   206b0:	e13ffe17 	ldw	r4,-8(fp)
   206b4:	00205d00 	call	205d0 <ACK_check>
   206b8:	1000051e 	bne	r2,zero,206d0 <OC_I2C_Write+0xa0>
        printf("OC_I2C_Write error[2]\r\n");
   206bc:	010000f4 	movhi	r4,3
   206c0:	2110c704 	addi	r4,r4,17180
   206c4:	00245140 	call	24514 <puts>
        return FALSE;
   206c8:	0005883a 	mov	r2,zero
   206cc:	00005406 	br	20820 <OC_I2C_Write+0x1f0>
    }
  // printf("\n receive ACK-device address! \n");

   //set the txr reg data with reg address + 1 data MSB
   if (!Write32_Data( i2c_base, 3,sub_address)){
   206d0:	e0bffc03 	ldbu	r2,-16(fp)
   206d4:	100d883a 	mov	r6,r2
   206d8:	014000c4 	movi	r5,3
   206dc:	e13ffe17 	ldw	r4,-8(fp)
   206e0:	00202840 	call	20284 <Write32_Data>
   206e4:	1000051e 	bne	r2,zero,206fc <OC_I2C_Write+0xcc>
       printf("OC_I2C_Write error[3]\r\n");
   206e8:	010000f4 	movhi	r4,3
   206ec:	2110cd04 	addi	r4,r4,17204
   206f0:	00245140 	call	24514 <puts>
       return FALSE;
   206f4:	0005883a 	mov	r2,zero
   206f8:	00004906 	br	20820 <OC_I2C_Write+0x1f0>
   }

   //set WR bits(bit4)
    if (!Write32_Data( i2c_base, 4,0x10)){
   206fc:	01800404 	movi	r6,16
   20700:	01400104 	movi	r5,4
   20704:	e13ffe17 	ldw	r4,-8(fp)
   20708:	00202840 	call	20284 <Write32_Data>
   2070c:	1000051e 	bne	r2,zero,20724 <OC_I2C_Write+0xf4>
        printf("OC_I2C_Write error[4]\r\n");
   20710:	010000f4 	movhi	r4,3
   20714:	2110d304 	addi	r4,r4,17228
   20718:	00245140 	call	24514 <puts>
        return FALSE;
   2071c:	0005883a 	mov	r2,zero
   20720:	00003f06 	br	20820 <OC_I2C_Write+0x1f0>
    }

   //wait TIP bit go to 0 to end Tx
    if(!ACK_check( i2c_base)){
   20724:	e13ffe17 	ldw	r4,-8(fp)
   20728:	00205d00 	call	205d0 <ACK_check>
   2072c:	1000051e 	bne	r2,zero,20744 <OC_I2C_Write+0x114>
        printf("OC_I2C_Write error[5]\r\n");
   20730:	010000f4 	movhi	r4,3
   20734:	2110d904 	addi	r4,r4,17252
   20738:	00245140 	call	24514 <puts>
        return FALSE;
   2073c:	0005883a 	mov	r2,zero
   20740:	00003706 	br	20820 <OC_I2C_Write+0x1f0>
    }
 //  printf("\n receive ACK-reg address! \n");

#if 1
        for( i=nWriteLength-1;i>=0;i--){
   20744:	e0800217 	ldw	r2,8(fp)
   20748:	10bfffc4 	addi	r2,r2,-1
   2074c:	e0bfff15 	stw	r2,-4(fp)
   20750:	00002406 	br	207e4 <OC_I2C_Write+0x1b4>
        //set the txr reg data with the data
          if (!Write32_Data( i2c_base, 3,*(pData+i))){
   20754:	e0bfff17 	ldw	r2,-4(fp)
   20758:	e0fffb17 	ldw	r3,-20(fp)
   2075c:	1885883a 	add	r2,r3,r2
   20760:	10800003 	ldbu	r2,0(r2)
   20764:	10803fcc 	andi	r2,r2,255
   20768:	100d883a 	mov	r6,r2
   2076c:	014000c4 	movi	r5,3
   20770:	e13ffe17 	ldw	r4,-8(fp)
   20774:	00202840 	call	20284 <Write32_Data>
   20778:	1000051e 	bne	r2,zero,20790 <OC_I2C_Write+0x160>
              printf("OC_I2C_Write error[6]\r\n");
   2077c:	010000f4 	movhi	r4,3
   20780:	2110df04 	addi	r4,r4,17276
   20784:	00245140 	call	24514 <puts>
              return FALSE;
   20788:	0005883a 	mov	r2,zero
   2078c:	00002406 	br	20820 <OC_I2C_Write+0x1f0>
          }

        //set STO and WR bits(bit7 and bit4)
         if (!Write32_Data( i2c_base, 4,0x10)){
   20790:	01800404 	movi	r6,16
   20794:	01400104 	movi	r5,4
   20798:	e13ffe17 	ldw	r4,-8(fp)
   2079c:	00202840 	call	20284 <Write32_Data>
   207a0:	1000051e 	bne	r2,zero,207b8 <OC_I2C_Write+0x188>
             printf("OC_I2C_Write error[7]\r\n");
   207a4:	010000f4 	movhi	r4,3
   207a8:	2110e504 	addi	r4,r4,17300
   207ac:	00245140 	call	24514 <puts>
              return FALSE;
   207b0:	0005883a 	mov	r2,zero
   207b4:	00001a06 	br	20820 <OC_I2C_Write+0x1f0>
         }

         //wait TIP bit go to 0 to end Tx
          if(!ACK_check( i2c_base)){
   207b8:	e13ffe17 	ldw	r4,-8(fp)
   207bc:	00205d00 	call	205d0 <ACK_check>
   207c0:	1000051e 	bne	r2,zero,207d8 <OC_I2C_Write+0x1a8>
              printf("OC_I2C_Write error[8]\r\n");
   207c4:	010000f4 	movhi	r4,3
   207c8:	2110eb04 	addi	r4,r4,17324
   207cc:	00245140 	call	24514 <puts>
              return FALSE;
   207d0:	0005883a 	mov	r2,zero
   207d4:	00001206 	br	20820 <OC_I2C_Write+0x1f0>
        for( i=nWriteLength-1;i>=0;i--){
   207d8:	e0bfff17 	ldw	r2,-4(fp)
   207dc:	10bfffc4 	addi	r2,r2,-1
   207e0:	e0bfff15 	stw	r2,-4(fp)
   207e4:	e0bfff17 	ldw	r2,-4(fp)
   207e8:	103fda0e 	bge	r2,zero,20754 <OC_I2C_Write+0x124>
   //wait TIP bit go to 0 to end Tx
    if(!ACK_check( i2c_base))
        return false;
#endif

     if (!Write32_Data( i2c_base, 4,0x40)){
   207ec:	01801004 	movi	r6,64
   207f0:	01400104 	movi	r5,4
   207f4:	e13ffe17 	ldw	r4,-8(fp)
   207f8:	00202840 	call	20284 <Write32_Data>
   207fc:	1000051e 	bne	r2,zero,20814 <OC_I2C_Write+0x1e4>
         printf("OC_I2C_Write error[9]\r\n");
   20800:	010000f4 	movhi	r4,3
   20804:	2110f104 	addi	r4,r4,17348
   20808:	00245140 	call	24514 <puts>
         return FALSE;
   2080c:	0005883a 	mov	r2,zero
   20810:	00000306 	br	20820 <OC_I2C_Write+0x1f0>
     }
         //Sleep(10);
     //OS_msleep(1);
     usleep(SLEEP_TIME);
   20814:	01003e84 	movi	r4,250
   20818:	0031d640 	call	31d64 <usleep>

  // printf("\n receive ACK-data! \n");

     return TRUE;
   2081c:	00800044 	movi	r2,1

}
   20820:	e037883a 	mov	sp,fp
   20824:	dfc00117 	ldw	ra,4(sp)
   20828:	df000017 	ldw	fp,0(sp)
   2082c:	dec00204 	addi	sp,sp,8
   20830:	f800283a 	ret

00020834 <ACK_judge_for_read>:


bool ACK_judge_for_read(alt_32 i2c_base)
{
   20834:	defffb04 	addi	sp,sp,-20
   20838:	dfc00415 	stw	ra,16(sp)
   2083c:	df000315 	stw	fp,12(sp)
   20840:	df000304 	addi	fp,sp,12
   20844:	e13ffd15 	stw	r4,-12(fp)
	bool bSuccess;
    alt_32 this_data;

   // OS_msleep( SLEEP_TIME );
     usleep(ACK_SLEEP_TIME);
   20848:	01003e84 	movi	r4,250
   2084c:	0031d640 	call	31d64 <usleep>
    //   while(this_data & 0x02)
//   {
//      this_data =  Read32_Data ( hPCIe, i2c_base, 4);
//   }
    bSuccess =  Read32_Data ( i2c_base, 4, &this_data);
   20850:	e0bffe04 	addi	r2,fp,-8
   20854:	100d883a 	mov	r6,r2
   20858:	01400104 	movi	r5,4
   2085c:	e13ffd17 	ldw	r4,-12(fp)
   20860:	00202d80 	call	202d8 <Read32_Data>
   20864:	e0bfff15 	stw	r2,-4(fp)
    if (bSuccess){
   20868:	e0bfff17 	ldw	r2,-4(fp)
   2086c:	10000426 	beq	r2,zero,20880 <ACK_judge_for_read+0x4c>
        if(this_data & 0x02)
   20870:	e0bffe17 	ldw	r2,-8(fp)
   20874:	1080008c 	andi	r2,r2,2
   20878:	10000126 	beq	r2,zero,20880 <ACK_judge_for_read+0x4c>
            bSuccess = FALSE;
   2087c:	e03fff15 	stw	zero,-4(fp)
    }
   //wait the rx ACK signal 0-valid

    return bSuccess;
   20880:	e0bfff17 	ldw	r2,-4(fp)

}
   20884:	e037883a 	mov	sp,fp
   20888:	dfc00117 	ldw	ra,4(sp)
   2088c:	df000017 	ldw	fp,0(sp)
   20890:	dec00204 	addi	sp,sp,8
   20894:	f800283a 	ret

00020898 <OC_I2C_Read>:

bool  OC_I2C_Read(alt_32 i2c_base,alt_u8 device_address,alt_u8 sub_address, alt_u8 *pData8, int nReadLength){
   20898:	defff804 	addi	sp,sp,-32
   2089c:	dfc00715 	stw	ra,28(sp)
   208a0:	df000615 	stw	fp,24(sp)
   208a4:	df000604 	addi	fp,sp,24
   208a8:	e13ffd15 	stw	r4,-12(fp)
   208ac:	2805883a 	mov	r2,r5
   208b0:	3007883a 	mov	r3,r6
   208b4:	e1fffa15 	stw	r7,-24(fp)
   208b8:	e0bffc05 	stb	r2,-16(fp)
   208bc:	1805883a 	mov	r2,r3
   208c0:	e0bffb05 	stb	r2,-20(fp)
    //BYTE data = 0x0;
    alt_32 Data32;
    int i;

   //set the tx reg audio chip dev address with write bit
   IOWR( i2c_base, 3,device_address);
   208c4:	e0bffd17 	ldw	r2,-12(fp)
   208c8:	10800304 	addi	r2,r2,12
   208cc:	1007883a 	mov	r3,r2
   208d0:	e0bffc03 	ldbu	r2,-16(fp)
   208d4:	18800035 	stwio	r2,0(r3)
   //set STA and WR bits(bit7 and bit4)
   IOWR( i2c_base, 4,0x90);
   208d8:	e0bffd17 	ldw	r2,-12(fp)
   208dc:	10800404 	addi	r2,r2,16
   208e0:	1007883a 	mov	r3,r2
   208e4:	00802404 	movi	r2,144
   208e8:	18800035 	stwio	r2,0(r3)
   //wait TIP bit go to 0 to end Tx
   if (!ACK_check( i2c_base)){
   208ec:	e13ffd17 	ldw	r4,-12(fp)
   208f0:	00205d00 	call	205d0 <ACK_check>
   208f4:	1000051e 	bne	r2,zero,2090c <OC_I2C_Read+0x74>
       printf("OC_I2C_Read error[2]\r\n");
   208f8:	010000f4 	movhi	r4,3
   208fc:	2110f704 	addi	r4,r4,17372
   20900:	00245140 	call	24514 <puts>
       return FALSE;
   20904:	0005883a 	mov	r2,zero
   20908:	00005206 	br	20a54 <OC_I2C_Read+0x1bc>
   }
   IOWR(i2c_base, 3,sub_address);
   2090c:	e0bffd17 	ldw	r2,-12(fp)
   20910:	10800304 	addi	r2,r2,12
   20914:	1007883a 	mov	r3,r2
   20918:	e0bffb03 	ldbu	r2,-20(fp)
   2091c:	18800035 	stwio	r2,0(r3)

   //set WR bits(bit4)
   IOWR( i2c_base, 4,0x10);
   20920:	e0bffd17 	ldw	r2,-12(fp)
   20924:	10800404 	addi	r2,r2,16
   20928:	1007883a 	mov	r3,r2
   2092c:	00800404 	movi	r2,16
   20930:	18800035 	stwio	r2,0(r3)
   //wait TIP bit go to 0 to end Tx
    if (!ACK_check( i2c_base)){
   20934:	e13ffd17 	ldw	r4,-12(fp)
   20938:	00205d00 	call	205d0 <ACK_check>
   2093c:	1000051e 	bne	r2,zero,20954 <OC_I2C_Read+0xbc>
        printf("OC_I2C_Read error[5]\r\n");
   20940:	010000f4 	movhi	r4,3
   20944:	2110fd04 	addi	r4,r4,17396
   20948:	00245140 	call	24514 <puts>
        return FALSE;
   2094c:	0005883a 	mov	r2,zero
   20950:	00004006 	br	20a54 <OC_I2C_Read+0x1bc>
  // printf("\n read receive ACK-reg address! \n");

   //read
    //set the tx reg audio chip dev address with read bit 1

    IOWR(i2c_base, 3,device_address|0x01);
   20954:	e0bffd17 	ldw	r2,-12(fp)
   20958:	10800304 	addi	r2,r2,12
   2095c:	1007883a 	mov	r3,r2
   20960:	e0bffc03 	ldbu	r2,-16(fp)
   20964:	10800054 	ori	r2,r2,1
   20968:	10803fcc 	andi	r2,r2,255
   2096c:	18800035 	stwio	r2,0(r3)

   //set STA and WR bits(bit7 and bit4)
    IOWR( i2c_base, 4,0x90);
   20970:	e0bffd17 	ldw	r2,-12(fp)
   20974:	10800404 	addi	r2,r2,16
   20978:	1007883a 	mov	r3,r2
   2097c:	00802404 	movi	r2,144
   20980:	18800035 	stwio	r2,0(r3)

   //wait TIP bit go to 0 to end Tx
    if (!ACK_check( i2c_base)){
   20984:	e13ffd17 	ldw	r4,-12(fp)
   20988:	00205d00 	call	205d0 <ACK_check>
   2098c:	1000051e 	bne	r2,zero,209a4 <OC_I2C_Read+0x10c>
        printf("OC_I2C_Read error[8]\r\n");
   20990:	010000f4 	movhi	r4,3
   20994:	21110304 	addi	r4,r4,17420
   20998:	00245140 	call	24514 <puts>
        return FALSE;
   2099c:	0005883a 	mov	r2,zero
   209a0:	00002c06 	br	20a54 <OC_I2C_Read+0x1bc>
    }

    for(i=0;i<nReadLength;i++){
   209a4:	e03fff15 	stw	zero,-4(fp)
   209a8:	00001f06 	br	20a28 <OC_I2C_Read+0x190>
  // printf("\n read receive ACK-device address(read)! \n");
   //set the RD and ACK bit(bit5 and bit3)
    	IOWR( i2c_base, 4,((i+1) == nReadLength)?0x28:0x20);
   209ac:	e0bffd17 	ldw	r2,-12(fp)
   209b0:	10800404 	addi	r2,r2,16
   209b4:	1009883a 	mov	r4,r2
   209b8:	e0bfff17 	ldw	r2,-4(fp)
   209bc:	10800044 	addi	r2,r2,1
   209c0:	e0c00217 	ldw	r3,8(fp)
   209c4:	1880021e 	bne	r3,r2,209d0 <OC_I2C_Read+0x138>
   209c8:	00800a04 	movi	r2,40
   209cc:	00000106 	br	209d4 <OC_I2C_Read+0x13c>
   209d0:	00800804 	movi	r2,32
   209d4:	20800035 	stwio	r2,0(r4)

        if (!ACK_judge_for_read( i2c_base)){
   209d8:	e13ffd17 	ldw	r4,-12(fp)
   209dc:	00208340 	call	20834 <ACK_judge_for_read>
   209e0:	1000051e 	bne	r2,zero,209f8 <OC_I2C_Read+0x160>
            printf("OC_I2C_Read error[10]\r\n");
   209e4:	010000f4 	movhi	r4,3
   209e8:	21110904 	addi	r4,r4,17444
   209ec:	00245140 	call	24514 <puts>
            return FALSE;
   209f0:	0005883a 	mov	r2,zero
   209f4:	00001706 	br	20a54 <OC_I2C_Read+0x1bc>
        }
   // printf("\n read receive ACK-device address(read)! \n");

        Data32=IORD( i2c_base, 3);
   209f8:	e0bffd17 	ldw	r2,-12(fp)
   209fc:	10800304 	addi	r2,r2,12
   20a00:	10800037 	ldwio	r2,0(r2)
   20a04:	e0bffe15 	stw	r2,-8(fp)
        *(pData8+i) =  Data32 & 0xff;
   20a08:	e0bfff17 	ldw	r2,-4(fp)
   20a0c:	e0fffa17 	ldw	r3,-24(fp)
   20a10:	1885883a 	add	r2,r3,r2
   20a14:	e0fffe17 	ldw	r3,-8(fp)
   20a18:	10c00005 	stb	r3,0(r2)
    for(i=0;i<nReadLength;i++){
   20a1c:	e0bfff17 	ldw	r2,-4(fp)
   20a20:	10800044 	addi	r2,r2,1
   20a24:	e0bfff15 	stw	r2,-4(fp)
   20a28:	e0ffff17 	ldw	r3,-4(fp)
   20a2c:	e0800217 	ldw	r2,8(fp)
   20a30:	18bfde16 	blt	r3,r2,209ac <OC_I2C_Read+0x114>
    }

    IOWR( i2c_base, 4,0x40);
   20a34:	e0bffd17 	ldw	r2,-12(fp)
   20a38:	10800404 	addi	r2,r2,16
   20a3c:	1007883a 	mov	r3,r2
   20a40:	00801004 	movi	r2,64
   20a44:	18800035 	stwio	r2,0(r3)

  // Sleep(10);
   //OS_msleep(1);
    usleep(SLEEP_TIME);
   20a48:	01003e84 	movi	r4,250
   20a4c:	0031d640 	call	31d64 <usleep>
 //  printf(" Read  [%02X] = %02Xh\r\n", sub_address, data);


   return TRUE;
   20a50:	00800044 	movi	r2,1

}
   20a54:	e037883a 	mov	sp,fp
   20a58:	dfc00117 	ldw	ra,4(sp)
   20a5c:	df000017 	ldw	fp,0(sp)
   20a60:	dec00204 	addi	sp,sp,8
   20a64:	f800283a 	ret

00020a68 <OC_I2C_Read_Continue>:


bool  OC_I2C_Read_Continue(alt_32 i2c_base,alt_u8 device_address, alt_u8 *pData8, int nReadLength){
   20a68:	defff804 	addi	sp,sp,-32
   20a6c:	dfc00715 	stw	ra,28(sp)
   20a70:	df000615 	stw	fp,24(sp)
   20a74:	df000604 	addi	fp,sp,24
   20a78:	e13ffd15 	stw	r4,-12(fp)
   20a7c:	2805883a 	mov	r2,r5
   20a80:	e1bffb15 	stw	r6,-20(fp)
   20a84:	e1fffa15 	stw	r7,-24(fp)
   20a88:	e0bffc05 	stb	r2,-16(fp)
	int i;
	alt_u32 Data32;

    IOWR(i2c_base, 3,device_address|0x01);
   20a8c:	e0bffd17 	ldw	r2,-12(fp)
   20a90:	10800304 	addi	r2,r2,12
   20a94:	1007883a 	mov	r3,r2
   20a98:	e0bffc03 	ldbu	r2,-16(fp)
   20a9c:	10800054 	ori	r2,r2,1
   20aa0:	10803fcc 	andi	r2,r2,255
   20aa4:	18800035 	stwio	r2,0(r3)

   //set STA and WR bits(bit7 and bit4)
    IOWR( i2c_base, 4,0x90);
   20aa8:	e0bffd17 	ldw	r2,-12(fp)
   20aac:	10800404 	addi	r2,r2,16
   20ab0:	1007883a 	mov	r3,r2
   20ab4:	00802404 	movi	r2,144
   20ab8:	18800035 	stwio	r2,0(r3)
//usleep(5*1000);
   //wait TIP bit go to 0 to end Tx
    if (!ACK_check( i2c_base)){
   20abc:	e13ffd17 	ldw	r4,-12(fp)
   20ac0:	00205d00 	call	205d0 <ACK_check>
   20ac4:	1000051e 	bne	r2,zero,20adc <OC_I2C_Read_Continue+0x74>
        printf("OC_I2C_Read error[8]\r\n");
   20ac8:	010000f4 	movhi	r4,3
   20acc:	21110304 	addi	r4,r4,17420
   20ad0:	00245140 	call	24514 <puts>
        return FALSE;
   20ad4:	0005883a 	mov	r2,zero
   20ad8:	00002c06 	br	20b8c <OC_I2C_Read_Continue+0x124>
    }

    for(i=0;i<nReadLength;i++){
   20adc:	e03fff15 	stw	zero,-4(fp)
   20ae0:	00001f06 	br	20b60 <OC_I2C_Read_Continue+0xf8>
  // printf("\n read receive ACK-device address(read)! \n");
   //set the RD and ACK bit(bit5 and bit3)
    	IOWR( i2c_base, 4,((i+1) == nReadLength)?0x28:0x20);
   20ae4:	e0bffd17 	ldw	r2,-12(fp)
   20ae8:	10800404 	addi	r2,r2,16
   20aec:	1009883a 	mov	r4,r2
   20af0:	e0bfff17 	ldw	r2,-4(fp)
   20af4:	10800044 	addi	r2,r2,1
   20af8:	e0fffa17 	ldw	r3,-24(fp)
   20afc:	1880021e 	bne	r3,r2,20b08 <OC_I2C_Read_Continue+0xa0>
   20b00:	00800a04 	movi	r2,40
   20b04:	00000106 	br	20b0c <OC_I2C_Read_Continue+0xa4>
   20b08:	00800804 	movi	r2,32
   20b0c:	20800035 	stwio	r2,0(r4)

        if (!ACK_judge_for_read( i2c_base)){
   20b10:	e13ffd17 	ldw	r4,-12(fp)
   20b14:	00208340 	call	20834 <ACK_judge_for_read>
   20b18:	1000051e 	bne	r2,zero,20b30 <OC_I2C_Read_Continue+0xc8>
            printf("OC_I2C_Read error[10]\r\n");
   20b1c:	010000f4 	movhi	r4,3
   20b20:	21110904 	addi	r4,r4,17444
   20b24:	00245140 	call	24514 <puts>
            return FALSE;
   20b28:	0005883a 	mov	r2,zero
   20b2c:	00001706 	br	20b8c <OC_I2C_Read_Continue+0x124>
        }
   // printf("\n read receive ACK-device address(read)! \n");

        Data32=IORD( i2c_base, 3);
   20b30:	e0bffd17 	ldw	r2,-12(fp)
   20b34:	10800304 	addi	r2,r2,12
   20b38:	10800037 	ldwio	r2,0(r2)
   20b3c:	e0bffe15 	stw	r2,-8(fp)
        *(pData8+i) =  Data32 & 0xff;
   20b40:	e0bfff17 	ldw	r2,-4(fp)
   20b44:	e0fffb17 	ldw	r3,-20(fp)
   20b48:	1885883a 	add	r2,r3,r2
   20b4c:	e0fffe17 	ldw	r3,-8(fp)
   20b50:	10c00005 	stb	r3,0(r2)
    for(i=0;i<nReadLength;i++){
   20b54:	e0bfff17 	ldw	r2,-4(fp)
   20b58:	10800044 	addi	r2,r2,1
   20b5c:	e0bfff15 	stw	r2,-4(fp)
   20b60:	e0ffff17 	ldw	r3,-4(fp)
   20b64:	e0bffa17 	ldw	r2,-24(fp)
   20b68:	18bfde16 	blt	r3,r2,20ae4 <OC_I2C_Read_Continue+0x7c>
    }

    IOWR( i2c_base, 4,0x40);
   20b6c:	e0bffd17 	ldw	r2,-12(fp)
   20b70:	10800404 	addi	r2,r2,16
   20b74:	1007883a 	mov	r3,r2
   20b78:	00801004 	movi	r2,64
   20b7c:	18800035 	stwio	r2,0(r3)

  // Sleep(10);
   //OS_msleep(1);
    usleep(SLEEP_TIME);
   20b80:	01003e84 	movi	r4,250
   20b84:	0031d640 	call	31d64 <usleep>
 //  printf(" Read  [%02X] = %02Xh\r\n", sub_address, data);


   return TRUE;
   20b88:	00800044 	movi	r2,1

}
   20b8c:	e037883a 	mov	sp,fp
   20b90:	dfc00117 	ldw	ra,4(sp)
   20b94:	df000017 	ldw	fp,0(sp)
   20b98:	dec00204 	addi	sp,sp,8
   20b9c:	f800283a 	ret

00020ba0 <OC_I2CL_Write>:


//  size > 2Kb
bool  OC_I2CL_Write(alt_32 i2c_base,alt_u8 device_address,alt_u16 sub_address,alt_u8 *pData, int nWriteLength)
    {
   20ba0:	defff804 	addi	sp,sp,-32
   20ba4:	dfc00715 	stw	ra,28(sp)
   20ba8:	df000615 	stw	fp,24(sp)
   20bac:	df000604 	addi	fp,sp,24
   20bb0:	e13ffd15 	stw	r4,-12(fp)
   20bb4:	2805883a 	mov	r2,r5
   20bb8:	3007883a 	mov	r3,r6
   20bbc:	e1fffa15 	stw	r7,-24(fp)
   20bc0:	e0bffc05 	stb	r2,-16(fp)
   20bc4:	1805883a 	mov	r2,r3
   20bc8:	e0bffb0d 	sth	r2,-20(fp)
    //DWORD reg_data = 0x0;
	alt_u8 AddrHigh, AddrLow;
    //int count= 0;

    AddrHigh = (sub_address >> 8) & 0xFF;
   20bcc:	e0bffb0b 	ldhu	r2,-20(fp)
   20bd0:	1004d23a 	srli	r2,r2,8
   20bd4:	e0bffec5 	stb	r2,-5(fp)
    AddrLow  = sub_address & 0xFF;
   20bd8:	e0bffb0b 	ldhu	r2,-20(fp)
   20bdc:	e0bffe85 	stb	r2,-6(fp)

    int i;

    //set the tx reg audio chip dev address with write bit
   if (!Write32_Data( i2c_base, 3,device_address))
   20be0:	e0bffc03 	ldbu	r2,-16(fp)
   20be4:	100d883a 	mov	r6,r2
   20be8:	014000c4 	movi	r5,3
   20bec:	e13ffd17 	ldw	r4,-12(fp)
   20bf0:	00202840 	call	20284 <Write32_Data>
   20bf4:	1000021e 	bne	r2,zero,20c00 <OC_I2CL_Write+0x60>
       return FALSE;
   20bf8:	0005883a 	mov	r2,zero
   20bfc:	00006806 	br	20da0 <OC_I2CL_Write+0x200>
   //set STA and WR bits(bit7 and bit4)
   if (!Write32_Data( i2c_base, 4,0x90))//0x90
   20c00:	01802404 	movi	r6,144
   20c04:	01400104 	movi	r5,4
   20c08:	e13ffd17 	ldw	r4,-12(fp)
   20c0c:	00202840 	call	20284 <Write32_Data>
   20c10:	1000021e 	bne	r2,zero,20c1c <OC_I2CL_Write+0x7c>
       return FALSE;
   20c14:	0005883a 	mov	r2,zero
   20c18:	00006106 	br	20da0 <OC_I2CL_Write+0x200>

   //wait TIP bit go to 0 to end Tx
    if(!ACK_check( i2c_base)){
   20c1c:	e13ffd17 	ldw	r4,-12(fp)
   20c20:	00205d00 	call	205d0 <ACK_check>
   20c24:	1000051e 	bne	r2,zero,20c3c <OC_I2CL_Write+0x9c>
        printf("OC_I2CL_Write error[0]\r\n");
   20c28:	010000f4 	movhi	r4,3
   20c2c:	21110f04 	addi	r4,r4,17468
   20c30:	00245140 	call	24514 <puts>
        return FALSE;
   20c34:	0005883a 	mov	r2,zero
   20c38:	00005906 	br	20da0 <OC_I2CL_Write+0x200>
  // printf("\n receive ACK-device address! \n");

   //set the txr reg data with reg address + 1 data MSB
 //  reg_data  = (sub_address << 1) & 0xFE;
   //reg_data |= ((data >> 8) & 0x01);
   if (!Write32_Data( i2c_base, 3,AddrHigh))//reg_data&0xff);
   20c3c:	e0bffec3 	ldbu	r2,-5(fp)
   20c40:	100d883a 	mov	r6,r2
   20c44:	014000c4 	movi	r5,3
   20c48:	e13ffd17 	ldw	r4,-12(fp)
   20c4c:	00202840 	call	20284 <Write32_Data>
   20c50:	1000021e 	bne	r2,zero,20c5c <OC_I2CL_Write+0xbc>
       return FALSE;
   20c54:	0005883a 	mov	r2,zero
   20c58:	00005106 	br	20da0 <OC_I2CL_Write+0x200>

   //set WR bits(bit4)
    if (!Write32_Data( i2c_base, 4,0x10))
   20c5c:	01800404 	movi	r6,16
   20c60:	01400104 	movi	r5,4
   20c64:	e13ffd17 	ldw	r4,-12(fp)
   20c68:	00202840 	call	20284 <Write32_Data>
   20c6c:	1000021e 	bne	r2,zero,20c78 <OC_I2CL_Write+0xd8>
        return FALSE;
   20c70:	0005883a 	mov	r2,zero
   20c74:	00004a06 	br	20da0 <OC_I2CL_Write+0x200>

   //wait TIP bit go to 0 to end Tx
    if(!ACK_check( i2c_base)){
   20c78:	e13ffd17 	ldw	r4,-12(fp)
   20c7c:	00205d00 	call	205d0 <ACK_check>
   20c80:	1000051e 	bne	r2,zero,20c98 <OC_I2CL_Write+0xf8>
        printf("OC_I2CL_Write error[1]\r\n");
   20c84:	010000f4 	movhi	r4,3
   20c88:	21111504 	addi	r4,r4,17492
   20c8c:	00245140 	call	24514 <puts>
        return FALSE;
   20c90:	0005883a 	mov	r2,zero
   20c94:	00004206 	br	20da0 <OC_I2CL_Write+0x200>
    }
  // printf("\n receive ACK-reg high address! \n");

   //set the txr reg data with reg address + 1 data MSB
   if (!Write32_Data( i2c_base, 3,AddrLow))//reg_data&0xff);
   20c98:	e0bffe83 	ldbu	r2,-6(fp)
   20c9c:	100d883a 	mov	r6,r2
   20ca0:	014000c4 	movi	r5,3
   20ca4:	e13ffd17 	ldw	r4,-12(fp)
   20ca8:	00202840 	call	20284 <Write32_Data>
   20cac:	1000021e 	bne	r2,zero,20cb8 <OC_I2CL_Write+0x118>
       return FALSE;
   20cb0:	0005883a 	mov	r2,zero
   20cb4:	00003a06 	br	20da0 <OC_I2CL_Write+0x200>

   //set WR bits(bit4)
    Write32_Data( i2c_base, 4,0x10);
   20cb8:	01800404 	movi	r6,16
   20cbc:	01400104 	movi	r5,4
   20cc0:	e13ffd17 	ldw	r4,-12(fp)
   20cc4:	00202840 	call	20284 <Write32_Data>

   //wait TIP bit go to 0 to end Tx
    if(!ACK_check( i2c_base)){
   20cc8:	e13ffd17 	ldw	r4,-12(fp)
   20ccc:	00205d00 	call	205d0 <ACK_check>
   20cd0:	1000051e 	bne	r2,zero,20ce8 <OC_I2CL_Write+0x148>
        printf("OC_I2CL_Write error[2]\r\n");
   20cd4:	010000f4 	movhi	r4,3
   20cd8:	21111b04 	addi	r4,r4,17516
   20cdc:	00245140 	call	24514 <puts>
        return FALSE;
   20ce0:	0005883a 	mov	r2,zero
   20ce4:	00002e06 	br	20da0 <OC_I2CL_Write+0x200>
    }
  //  printf("\n receive ACK-reg low address! \n");

#if 1
    for( i=nWriteLength-1;i>=0;i--){
   20ce8:	e0800217 	ldw	r2,8(fp)
   20cec:	10bfffc4 	addi	r2,r2,-1
   20cf0:	e0bfff15 	stw	r2,-4(fp)
   20cf4:	00001e06 	br	20d70 <OC_I2CL_Write+0x1d0>
        //set the txr reg data with the other data 8 bit LSB
        if (!Write32_Data( i2c_base, 3,*(pData+i)))
   20cf8:	e0bfff17 	ldw	r2,-4(fp)
   20cfc:	e0fffa17 	ldw	r3,-24(fp)
   20d00:	1885883a 	add	r2,r3,r2
   20d04:	10800003 	ldbu	r2,0(r2)
   20d08:	10803fcc 	andi	r2,r2,255
   20d0c:	100d883a 	mov	r6,r2
   20d10:	014000c4 	movi	r5,3
   20d14:	e13ffd17 	ldw	r4,-12(fp)
   20d18:	00202840 	call	20284 <Write32_Data>
   20d1c:	1000021e 	bne	r2,zero,20d28 <OC_I2CL_Write+0x188>
            return FALSE;
   20d20:	0005883a 	mov	r2,zero
   20d24:	00001e06 	br	20da0 <OC_I2CL_Write+0x200>

       //set STO and WR bits(bit7 and bit4)
        if (!Write32_Data( i2c_base, 4,0x10))
   20d28:	01800404 	movi	r6,16
   20d2c:	01400104 	movi	r5,4
   20d30:	e13ffd17 	ldw	r4,-12(fp)
   20d34:	00202840 	call	20284 <Write32_Data>
   20d38:	1000021e 	bne	r2,zero,20d44 <OC_I2CL_Write+0x1a4>
            return FALSE;
   20d3c:	0005883a 	mov	r2,zero
   20d40:	00001706 	br	20da0 <OC_I2CL_Write+0x200>

        //wait TIP bit go to 0 to end Tx
         if(!ACK_check( i2c_base)){
   20d44:	e13ffd17 	ldw	r4,-12(fp)
   20d48:	00205d00 	call	205d0 <ACK_check>
   20d4c:	1000051e 	bne	r2,zero,20d64 <OC_I2CL_Write+0x1c4>
             printf("OC_I2CL_Write error[3]\r\n");
   20d50:	010000f4 	movhi	r4,3
   20d54:	21112104 	addi	r4,r4,17540
   20d58:	00245140 	call	24514 <puts>
             return FALSE;
   20d5c:	0005883a 	mov	r2,zero
   20d60:	00000f06 	br	20da0 <OC_I2CL_Write+0x200>
    for( i=nWriteLength-1;i>=0;i--){
   20d64:	e0bfff17 	ldw	r2,-4(fp)
   20d68:	10bfffc4 	addi	r2,r2,-1
   20d6c:	e0bfff15 	stw	r2,-4(fp)
   20d70:	e0bfff17 	ldw	r2,-4(fp)
   20d74:	103fe00e 	bge	r2,zero,20cf8 <OC_I2CL_Write+0x158>
   //wait TIP bit go to 0 to end Tx
    if(!ACK_check( i2c_base))
        return FALSE;

#endif
    if (!Write32_Data( i2c_base, 4,0x40))
   20d78:	01801004 	movi	r6,64
   20d7c:	01400104 	movi	r5,4
   20d80:	e13ffd17 	ldw	r4,-12(fp)
   20d84:	00202840 	call	20284 <Write32_Data>
   20d88:	1000021e 	bne	r2,zero,20d94 <OC_I2CL_Write+0x1f4>
         return FALSE;
   20d8c:	0005883a 	mov	r2,zero
   20d90:	00000306 	br	20da0 <OC_I2CL_Write+0x200>

     //OS_msleep(1);
      usleep(SLEEP_TIME);
   20d94:	01003e84 	movi	r4,250
   20d98:	0031d640 	call	31d64 <usleep>
  //  printf("\n receive ACK-data! \n");

     return TRUE;
   20d9c:	00800044 	movi	r2,1
}
   20da0:	e037883a 	mov	sp,fp
   20da4:	dfc00117 	ldw	ra,4(sp)
   20da8:	df000017 	ldw	fp,0(sp)
   20dac:	dec00204 	addi	sp,sp,8
   20db0:	f800283a 	ret

00020db4 <OC_I2CL_Read>:

   return TRUE;

} */

bool  OC_I2CL_Read(alt_32 i2c_base,alt_u8 device_address, alt_u16 sub_address, alt_u8 *pData8, int nReadLength){
   20db4:	defff704 	addi	sp,sp,-36
   20db8:	dfc00815 	stw	ra,32(sp)
   20dbc:	df000715 	stw	fp,28(sp)
   20dc0:	df000704 	addi	fp,sp,28
   20dc4:	e13ffc15 	stw	r4,-16(fp)
   20dc8:	2805883a 	mov	r2,r5
   20dcc:	3007883a 	mov	r3,r6
   20dd0:	e1fff915 	stw	r7,-28(fp)
   20dd4:	e0bffb05 	stb	r2,-20(fp)
   20dd8:	1805883a 	mov	r2,r3
   20ddc:	e0bffa0d 	sth	r2,-24(fp)
    int i;

    alt_u8 AddrHigh, AddrLow;
    alt_u8 DataHigh, DataLow;

    AddrHigh = (sub_address >> 8) & 0xFF;
   20de0:	e0bffa0b 	ldhu	r2,-24(fp)
   20de4:	1004d23a 	srli	r2,r2,8
   20de8:	e0bffec5 	stb	r2,-5(fp)
    AddrLow  = sub_address & 0xFF;
   20dec:	e0bffa0b 	ldhu	r2,-24(fp)
   20df0:	e0bffe85 	stb	r2,-6(fp)


   //set the tx reg audio chip dev address with write bit
   if (!Write32_Data( i2c_base, 3,device_address))
   20df4:	e0bffb03 	ldbu	r2,-20(fp)
   20df8:	100d883a 	mov	r6,r2
   20dfc:	014000c4 	movi	r5,3
   20e00:	e13ffc17 	ldw	r4,-16(fp)
   20e04:	00202840 	call	20284 <Write32_Data>
   20e08:	1000021e 	bne	r2,zero,20e14 <OC_I2CL_Read+0x60>
       return FALSE;
   20e0c:	0005883a 	mov	r2,zero
   20e10:	00008406 	br	21024 <OC_I2CL_Read+0x270>

   //set STA and WR bits(bit7 and bit4)
   if (!Write32_Data( i2c_base, 4,0x90))
   20e14:	01802404 	movi	r6,144
   20e18:	01400104 	movi	r5,4
   20e1c:	e13ffc17 	ldw	r4,-16(fp)
   20e20:	00202840 	call	20284 <Write32_Data>
   20e24:	1000021e 	bne	r2,zero,20e30 <OC_I2CL_Read+0x7c>
       return FALSE;
   20e28:	0005883a 	mov	r2,zero
   20e2c:	00007d06 	br	21024 <OC_I2CL_Read+0x270>

   //wait TIP bit go to 0 to end Tx
    if(!ACK_check( i2c_base)){
   20e30:	e13ffc17 	ldw	r4,-16(fp)
   20e34:	00205d00 	call	205d0 <ACK_check>
   20e38:	1000051e 	bne	r2,zero,20e50 <OC_I2CL_Read+0x9c>
        printf("OC_I2CL_Read error[0]\r\n");
   20e3c:	010000f4 	movhi	r4,3
   20e40:	21112704 	addi	r4,r4,17564
   20e44:	00245140 	call	24514 <puts>
        return FALSE;
   20e48:	0005883a 	mov	r2,zero
   20e4c:	00007506 	br	21024 <OC_I2CL_Read+0x270>
 //  printf("\n receive ACK-device address! \n");


   //set the txr reg data with reg address + 0

   if (!Write32_Data( i2c_base, 3,AddrHigh))//reg_data&0xff);
   20e50:	e0bffec3 	ldbu	r2,-5(fp)
   20e54:	100d883a 	mov	r6,r2
   20e58:	014000c4 	movi	r5,3
   20e5c:	e13ffc17 	ldw	r4,-16(fp)
   20e60:	00202840 	call	20284 <Write32_Data>
   20e64:	1000021e 	bne	r2,zero,20e70 <OC_I2CL_Read+0xbc>
       return FALSE;
   20e68:	0005883a 	mov	r2,zero
   20e6c:	00006d06 	br	21024 <OC_I2CL_Read+0x270>

   //set WR bits(bit4)
    if (!Write32_Data( i2c_base, 4,0x10))
   20e70:	01800404 	movi	r6,16
   20e74:	01400104 	movi	r5,4
   20e78:	e13ffc17 	ldw	r4,-16(fp)
   20e7c:	00202840 	call	20284 <Write32_Data>
   20e80:	1000021e 	bne	r2,zero,20e8c <OC_I2CL_Read+0xd8>
        return FALSE;
   20e84:	0005883a 	mov	r2,zero
   20e88:	00006606 	br	21024 <OC_I2CL_Read+0x270>

   //wait TIP bit go to 0 to end Tx
    if(!ACK_check( i2c_base)){
   20e8c:	e13ffc17 	ldw	r4,-16(fp)
   20e90:	00205d00 	call	205d0 <ACK_check>
   20e94:	1000051e 	bne	r2,zero,20eac <OC_I2CL_Read+0xf8>
        printf("OC_I2CL_Read error[1]\r\n");
   20e98:	010000f4 	movhi	r4,3
   20e9c:	21112d04 	addi	r4,r4,17588
   20ea0:	00245140 	call	24514 <puts>
        return FALSE;
   20ea4:	0005883a 	mov	r2,zero
   20ea8:	00005e06 	br	21024 <OC_I2CL_Read+0x270>
    }
//   printf("\n read receive ACK-reg High address! \n");

     //set the txr reg data with reg address + 0
   if (!Write32_Data( i2c_base, 3,AddrLow)) //;//reg_data&0xff);
   20eac:	e0bffe83 	ldbu	r2,-6(fp)
   20eb0:	100d883a 	mov	r6,r2
   20eb4:	014000c4 	movi	r5,3
   20eb8:	e13ffc17 	ldw	r4,-16(fp)
   20ebc:	00202840 	call	20284 <Write32_Data>
   20ec0:	1000021e 	bne	r2,zero,20ecc <OC_I2CL_Read+0x118>
       return FALSE;
   20ec4:	0005883a 	mov	r2,zero
   20ec8:	00005606 	br	21024 <OC_I2CL_Read+0x270>
   //set WR bits(bit4)
    if (!Write32_Data( i2c_base, 4,0x10))
   20ecc:	01800404 	movi	r6,16
   20ed0:	01400104 	movi	r5,4
   20ed4:	e13ffc17 	ldw	r4,-16(fp)
   20ed8:	00202840 	call	20284 <Write32_Data>
   20edc:	1000021e 	bne	r2,zero,20ee8 <OC_I2CL_Read+0x134>
        return FALSE;
   20ee0:	0005883a 	mov	r2,zero
   20ee4:	00004f06 	br	21024 <OC_I2CL_Read+0x270>

   //wait TIP bit go to 0 to end Tx
    if(!ACK_check( i2c_base)){
   20ee8:	e13ffc17 	ldw	r4,-16(fp)
   20eec:	00205d00 	call	205d0 <ACK_check>
   20ef0:	1000051e 	bne	r2,zero,20f08 <OC_I2CL_Read+0x154>
        printf("OC_I2CL_Read error[2]\r\n");
   20ef4:	010000f4 	movhi	r4,3
   20ef8:	21113304 	addi	r4,r4,17612
   20efc:	00245140 	call	24514 <puts>
        return FALSE;
   20f00:	0005883a 	mov	r2,zero
   20f04:	00004706 	br	21024 <OC_I2CL_Read+0x270>

 //  printf("\n read receive ACK-reg Low address! \n");

   //read
    //set the tx reg audio chip dev address with read bit 1
     if (!Write32_Data( i2c_base, 3,device_address|0x01))
   20f08:	e0bffb03 	ldbu	r2,-20(fp)
   20f0c:	10800054 	ori	r2,r2,1
   20f10:	10803fcc 	andi	r2,r2,255
   20f14:	100d883a 	mov	r6,r2
   20f18:	014000c4 	movi	r5,3
   20f1c:	e13ffc17 	ldw	r4,-16(fp)
   20f20:	00202840 	call	20284 <Write32_Data>
   20f24:	1000021e 	bne	r2,zero,20f30 <OC_I2CL_Read+0x17c>
         return FALSE;
   20f28:	0005883a 	mov	r2,zero
   20f2c:	00003d06 	br	21024 <OC_I2CL_Read+0x270>

   //set STA and WR bits(bit7 and bit4)
     if (!Write32_Data( i2c_base, 4,0x90))
   20f30:	01802404 	movi	r6,144
   20f34:	01400104 	movi	r5,4
   20f38:	e13ffc17 	ldw	r4,-16(fp)
   20f3c:	00202840 	call	20284 <Write32_Data>
   20f40:	1000021e 	bne	r2,zero,20f4c <OC_I2CL_Read+0x198>
         return FALSE;
   20f44:	0005883a 	mov	r2,zero
   20f48:	00003606 	br	21024 <OC_I2CL_Read+0x270>

   //wait TIP bit go to 0 to end Tx
    if(!ACK_check( i2c_base)){
   20f4c:	e13ffc17 	ldw	r4,-16(fp)
   20f50:	00205d00 	call	205d0 <ACK_check>
   20f54:	1000051e 	bne	r2,zero,20f6c <OC_I2CL_Read+0x1b8>
        printf("OC_I2CL_Read error[3]\r\n");
   20f58:	010000f4 	movhi	r4,3
   20f5c:	21113904 	addi	r4,r4,17636
   20f60:	00245140 	call	24514 <puts>
        return FALSE;
   20f64:	0005883a 	mov	r2,zero
   20f68:	00002e06 	br	21024 <OC_I2CL_Read+0x270>
//   printf("\n read receive ACK-device address(read)! \n");

       //read the rxr data

#if 1
    for(i=0;i<nReadLength;i++){
   20f6c:	e03fff15 	stw	zero,-4(fp)
   20f70:	00001f06 	br	20ff0 <OC_I2CL_Read+0x23c>
  // printf("\n read receive ACK-device address(read)! \n");
   //set the RD and ACK bit(bit5 and bit3)
    	IOWR( i2c_base, 4,((i+1) == nReadLength)?0x28:0x20);
   20f74:	e0bffc17 	ldw	r2,-16(fp)
   20f78:	10800404 	addi	r2,r2,16
   20f7c:	1009883a 	mov	r4,r2
   20f80:	e0bfff17 	ldw	r2,-4(fp)
   20f84:	10800044 	addi	r2,r2,1
   20f88:	e0c00217 	ldw	r3,8(fp)
   20f8c:	1880021e 	bne	r3,r2,20f98 <OC_I2CL_Read+0x1e4>
   20f90:	00800a04 	movi	r2,40
   20f94:	00000106 	br	20f9c <OC_I2CL_Read+0x1e8>
   20f98:	00800804 	movi	r2,32
   20f9c:	20800035 	stwio	r2,0(r4)

        if (!ACK_judge_for_read( i2c_base)){
   20fa0:	e13ffc17 	ldw	r4,-16(fp)
   20fa4:	00208340 	call	20834 <ACK_judge_for_read>
   20fa8:	1000051e 	bne	r2,zero,20fc0 <OC_I2CL_Read+0x20c>
            printf("OC_I2CL_Read error[4]\r\n");
   20fac:	010000f4 	movhi	r4,3
   20fb0:	21113f04 	addi	r4,r4,17660
   20fb4:	00245140 	call	24514 <puts>
            return FALSE;
   20fb8:	0005883a 	mov	r2,zero
   20fbc:	00001906 	br	21024 <OC_I2CL_Read+0x270>
        }
   // printf("\n read receive ACK-device address(read)! \n");

        Data32=IORD( i2c_base, 3);
   20fc0:	e0bffc17 	ldw	r2,-16(fp)
   20fc4:	10800304 	addi	r2,r2,12
   20fc8:	10800037 	ldwio	r2,0(r2)
   20fcc:	e0bffd15 	stw	r2,-12(fp)
        *(pData8+i) =  Data32 & 0xff;
   20fd0:	e0bfff17 	ldw	r2,-4(fp)
   20fd4:	e0fff917 	ldw	r3,-28(fp)
   20fd8:	1885883a 	add	r2,r3,r2
   20fdc:	e0fffd17 	ldw	r3,-12(fp)
   20fe0:	10c00005 	stb	r3,0(r2)
    for(i=0;i<nReadLength;i++){
   20fe4:	e0bfff17 	ldw	r2,-4(fp)
   20fe8:	10800044 	addi	r2,r2,1
   20fec:	e0bfff15 	stw	r2,-4(fp)
   20ff0:	e0ffff17 	ldw	r3,-4(fp)
   20ff4:	e0800217 	ldw	r2,8(fp)
   20ff8:	18bfde16 	blt	r3,r2,20f74 <OC_I2CL_Read+0x1c0>
    DataLow =  Data32 & 0xff;

    pData16 = (DataHigh << 8) | DataLow;
#endif

   if (!Write32_Data( i2c_base, 4,0x40))
   20ffc:	01801004 	movi	r6,64
   21000:	01400104 	movi	r5,4
   21004:	e13ffc17 	ldw	r4,-16(fp)
   21008:	00202840 	call	20284 <Write32_Data>
   2100c:	1000021e 	bne	r2,zero,21018 <OC_I2CL_Read+0x264>
       return FALSE;
   21010:	0005883a 	mov	r2,zero
   21014:	00000306 	br	21024 <OC_I2CL_Read+0x270>

   //OS_msleep(1);
    usleep(SLEEP_TIME);
   21018:	01003e84 	movi	r4,250
   2101c:	0031d640 	call	31d64 <usleep>

   return TRUE;
   21020:	00800044 	movi	r2,1

}
   21024:	e037883a 	mov	sp,fp
   21028:	dfc00117 	ldw	ra,4(sp)
   2102c:	df000017 	ldw	fp,0(sp)
   21030:	dec00204 	addi	sp,sp,8
   21034:	f800283a 	ret

00021038 <Focus_Init>:
// please observe focus performance when change the scal ,scal_f. or when change camera frame rate
alt_u8  focus_scal   =   4;  // scan 0 -> 1023 , step: SCAL , to find STEP_UP
alt_u8  focus_scal_f =   1;  //  scan STEP_UP + - SCAL/2 , step: SCAL_F
alt_u8  focus_th     =   20;

void Focus_Init(void){
   21038:	defffe04 	addi	sp,sp,-8
   2103c:	dfc00115 	stw	ra,4(sp)
   21040:	df000015 	stw	fp,0(sp)
   21044:	d839883a 	mov	fp,sp
  // please look at TERASIC_AUTO_FOCUS IP to see register's detail.
  IOWR(TERASIC_AUTO_FOCUS_0_BASE,REG_CTRL, 0);// focus mode : 1: window-screen, 0: full-screen
   21048:	0007883a 	mov	r3,zero
   2104c:	00800134 	movhi	r2,4
   21050:	10c40935 	stwio	r3,4132(r2)
  IOWR(TERASIC_AUTO_FOCUS_0_BASE,REG_FOCUS_W, focus_width);// focus_width
   21054:	d0a0010b 	ldhu	r2,-32764(gp)
   21058:	10ffffcc 	andi	r3,r2,65535
   2105c:	00800134 	movhi	r2,4
   21060:	10c40a35 	stwio	r3,4136(r2)
  IOWR(TERASIC_AUTO_FOCUS_0_BASE,REG_FOCUS_H, focus_height);// focus_height
   21064:	d0a0018b 	ldhu	r2,-32762(gp)
   21068:	10ffffcc 	andi	r3,r2,65535
   2106c:	00800134 	movhi	r2,4
   21070:	10c40b35 	stwio	r3,4140(r2)
  IOWR(TERASIC_AUTO_FOCUS_0_BASE,REG_FOCUS_X_START, video_w/2-focus_width/2);//x_start
   21074:	d0a0000b 	ldhu	r2,-32768(gp)
   21078:	10bfffcc 	andi	r2,r2,65535
   2107c:	1004d07a 	srli	r2,r2,1
   21080:	10ffffcc 	andi	r3,r2,65535
   21084:	d0a0010b 	ldhu	r2,-32764(gp)
   21088:	10bfffcc 	andi	r2,r2,65535
   2108c:	1004d07a 	srli	r2,r2,1
   21090:	10bfffcc 	andi	r2,r2,65535
   21094:	1887c83a 	sub	r3,r3,r2
   21098:	00800134 	movhi	r2,4
   2109c:	10c40c35 	stwio	r3,4144(r2)
  IOWR(TERASIC_AUTO_FOCUS_0_BASE,REG_FOCUS_Y_START, video_h/2-focus_height/2);// y_start
   210a0:	d0a0008b 	ldhu	r2,-32766(gp)
   210a4:	10bfffcc 	andi	r2,r2,65535
   210a8:	1004d07a 	srli	r2,r2,1
   210ac:	10ffffcc 	andi	r3,r2,65535
   210b0:	d0a0018b 	ldhu	r2,-32762(gp)
   210b4:	10bfffcc 	andi	r2,r2,65535
   210b8:	1004d07a 	srli	r2,r2,1
   210bc:	10bfffcc 	andi	r2,r2,65535
   210c0:	1887c83a 	sub	r3,r3,r2
   210c4:	00800134 	movhi	r2,4
   210c8:	10c40d35 	stwio	r3,4148(r2)

  IOWR(TERASIC_AUTO_FOCUS_0_BASE,REG_SCAL, focus_scal*256 + focus_scal_f); // scan 0 -> 1023 , step: SCAL , to find STEP_UP
   210cc:	d0a00203 	ldbu	r2,-32760(gp)
   210d0:	10803fcc 	andi	r2,r2,255
   210d4:	1006923a 	slli	r3,r2,8
   210d8:	d0a00243 	ldbu	r2,-32759(gp)
   210dc:	10803fcc 	andi	r2,r2,255
   210e0:	1887883a 	add	r3,r3,r2
   210e4:	00800134 	movhi	r2,4
   210e8:	10c40e35 	stwio	r3,4152(r2)
                                                                          //  scan STEP_UP + - SCAL/2 , step: SCAL_F
  IOWR(TERASIC_AUTO_FOCUS_0_BASE,REG_TH, focus_th);
   210ec:	d0a00283 	ldbu	r2,-32758(gp)
   210f0:	10c03fcc 	andi	r3,r2,255
   210f4:	00800134 	movhi	r2,4
   210f8:	10c40f35 	stwio	r3,4156(r2)

  //////////// focus at initial time
  usleep(100);
   210fc:	01001904 	movi	r4,100
   21100:	0031d640 	call	31d64 <usleep>
  IOWR(TERASIC_AUTO_FOCUS_0_BASE,REG_GO, 1);
   21104:	00c00044 	movi	r3,1
   21108:	00800134 	movhi	r2,4
   2110c:	10c40835 	stwio	r3,4128(r2)
  usleep(2);
   21110:	01000084 	movi	r4,2
   21114:	0031d640 	call	31d64 <usleep>
  IOWR(TERASIC_AUTO_FOCUS_0_BASE,REG_GO, 0);
   21118:	0007883a 	mov	r3,zero
   2111c:	00800134 	movhi	r2,4
   21120:	10c40835 	stwio	r3,4128(r2)
}
   21124:	0001883a 	nop
   21128:	e037883a 	mov	sp,fp
   2112c:	dfc00117 	ldw	ra,4(sp)
   21130:	df000017 	ldw	fp,0(sp)
   21134:	dec00204 	addi	sp,sp,8
   21138:	f800283a 	ret

0002113c <Focus_Window>:

alt_u16 Focus_Window(int x,int y){
   2113c:	defffa04 	addi	sp,sp,-24
   21140:	dfc00515 	stw	ra,20(sp)
   21144:	df000415 	stw	fp,16(sp)
   21148:	df000404 	addi	fp,sp,16
   2114c:	e13ffd15 	stw	r4,-12(fp)
   21150:	e17ffc15 	stw	r5,-16(fp)
   alt_u16 x_start,y_start;
   alt_u16 end_focus;

   if(Focus_Released()) { // pre focus done
   21154:	00213040 	call	21304 <Focus_Released>
   21158:	10006426 	beq	r2,zero,212ec <Focus_Window+0x1b0>
	   IOWR(TERASIC_AUTO_FOCUS_0_BASE,REG_CTRL, 1);// focus mode : 1: window-screen, 0: full-screen
   2115c:	00c00044 	movi	r3,1
   21160:	00800134 	movhi	r2,4
   21164:	10c40935 	stwio	r3,4132(r2)

	   if(( x -  focus_width/2) < 0 ) x_start = 0;
   21168:	d0a0010b 	ldhu	r2,-32764(gp)
   2116c:	10bfffcc 	andi	r2,r2,65535
   21170:	1004d07a 	srli	r2,r2,1
   21174:	10bfffcc 	andi	r2,r2,65535
   21178:	e0fffd17 	ldw	r3,-12(fp)
   2117c:	1885c83a 	sub	r2,r3,r2
   21180:	1000020e 	bge	r2,zero,2118c <Focus_Window+0x50>
   21184:	e03fff8d 	sth	zero,-2(fp)
   21188:	00001606 	br	211e4 <Focus_Window+0xa8>
	   else if(( x + focus_width/2 ) > video_w )  x_start = video_w -1 -focus_width;
   2118c:	d0a0010b 	ldhu	r2,-32764(gp)
   21190:	10bfffcc 	andi	r2,r2,65535
   21194:	1004d07a 	srli	r2,r2,1
   21198:	10ffffcc 	andi	r3,r2,65535
   2119c:	e0bffd17 	ldw	r2,-12(fp)
   211a0:	1885883a 	add	r2,r3,r2
   211a4:	d0e0000b 	ldhu	r3,-32768(gp)
   211a8:	18ffffcc 	andi	r3,r3,65535
   211ac:	1880060e 	bge	r3,r2,211c8 <Focus_Window+0x8c>
   211b0:	d0e0000b 	ldhu	r3,-32768(gp)
   211b4:	d0a0010b 	ldhu	r2,-32764(gp)
   211b8:	1885c83a 	sub	r2,r3,r2
   211bc:	10bfffc4 	addi	r2,r2,-1
   211c0:	e0bfff8d 	sth	r2,-2(fp)
   211c4:	00000706 	br	211e4 <Focus_Window+0xa8>
	   else x_start = x - focus_width/2;
   211c8:	e0bffd17 	ldw	r2,-12(fp)
   211cc:	1007883a 	mov	r3,r2
   211d0:	d0a0010b 	ldhu	r2,-32764(gp)
   211d4:	10bfffcc 	andi	r2,r2,65535
   211d8:	1004d07a 	srli	r2,r2,1
   211dc:	1885c83a 	sub	r2,r3,r2
   211e0:	e0bfff8d 	sth	r2,-2(fp)

	   if(( y -  focus_height/2) < 0 ) y_start = 0;
   211e4:	d0a0018b 	ldhu	r2,-32762(gp)
   211e8:	10bfffcc 	andi	r2,r2,65535
   211ec:	1004d07a 	srli	r2,r2,1
   211f0:	10bfffcc 	andi	r2,r2,65535
   211f4:	e0fffc17 	ldw	r3,-16(fp)
   211f8:	1885c83a 	sub	r2,r3,r2
   211fc:	1000020e 	bge	r2,zero,21208 <Focus_Window+0xcc>
   21200:	e03fff0d 	sth	zero,-4(fp)
   21204:	00001606 	br	21260 <Focus_Window+0x124>
	   else if(( y + focus_height/2 ) > video_h )  y_start = video_h -1 -focus_height;
   21208:	d0a0018b 	ldhu	r2,-32762(gp)
   2120c:	10bfffcc 	andi	r2,r2,65535
   21210:	1004d07a 	srli	r2,r2,1
   21214:	10ffffcc 	andi	r3,r2,65535
   21218:	e0bffc17 	ldw	r2,-16(fp)
   2121c:	1885883a 	add	r2,r3,r2
   21220:	d0e0008b 	ldhu	r3,-32766(gp)
   21224:	18ffffcc 	andi	r3,r3,65535
   21228:	1880060e 	bge	r3,r2,21244 <Focus_Window+0x108>
   2122c:	d0e0008b 	ldhu	r3,-32766(gp)
   21230:	d0a0018b 	ldhu	r2,-32762(gp)
   21234:	1885c83a 	sub	r2,r3,r2
   21238:	10bfffc4 	addi	r2,r2,-1
   2123c:	e0bfff0d 	sth	r2,-4(fp)
   21240:	00000706 	br	21260 <Focus_Window+0x124>
	   else y_start = y - focus_height/2;
   21244:	e0bffc17 	ldw	r2,-16(fp)
   21248:	1007883a 	mov	r3,r2
   2124c:	d0a0018b 	ldhu	r2,-32762(gp)
   21250:	10bfffcc 	andi	r2,r2,65535
   21254:	1004d07a 	srli	r2,r2,1
   21258:	1885c83a 	sub	r2,r3,r2
   2125c:	e0bfff0d 	sth	r2,-4(fp)

	   printf("x_start= %d,y_start= %d\n",x_start,y_start);
   21260:	e0bfff8b 	ldhu	r2,-2(fp)
   21264:	e0ffff0b 	ldhu	r3,-4(fp)
   21268:	180d883a 	mov	r6,r3
   2126c:	100b883a 	mov	r5,r2
   21270:	010000f4 	movhi	r4,3
   21274:	21114504 	addi	r4,r4,17684
   21278:	00243ec0 	call	243ec <printf>

	   IOWR(TERASIC_AUTO_FOCUS_0_BASE,REG_FOCUS_X_START, x_start);//x_start
   2127c:	e0ffff8b 	ldhu	r3,-2(fp)
   21280:	00800134 	movhi	r2,4
   21284:	10c40c35 	stwio	r3,4144(r2)
	   IOWR(TERASIC_AUTO_FOCUS_0_BASE,REG_FOCUS_Y_START, y_start);//y_start
   21288:	e0ffff0b 	ldhu	r3,-4(fp)
   2128c:	00800134 	movhi	r2,4
   21290:	10c40d35 	stwio	r3,4148(r2)

	   usleep(10);
   21294:	01000284 	movi	r4,10
   21298:	0031d640 	call	31d64 <usleep>

	   IOWR(TERASIC_AUTO_FOCUS_0_BASE,REG_GO, 1);
   2129c:	00c00044 	movi	r3,1
   212a0:	00800134 	movhi	r2,4
   212a4:	10c40835 	stwio	r3,4128(r2)
	   usleep(2);
   212a8:	01000084 	movi	r4,2
   212ac:	0031d640 	call	31d64 <usleep>
	   IOWR(TERASIC_AUTO_FOCUS_0_BASE,REG_GO, 0);
   212b0:	0007883a 	mov	r3,zero
   212b4:	00800134 	movhi	r2,4
   212b8:	10c40835 	stwio	r3,4128(r2)
	   Focus_Released();
   212bc:	00213040 	call	21304 <Focus_Released>

	   end_focus = IORD(TERASIC_AUTO_FOCUS_0_BASE,REG_STATUS)&0x0FFF;
   212c0:	00800134 	movhi	r2,4
   212c4:	10840837 	ldwio	r2,4128(r2)
   212c8:	1083ffcc 	andi	r2,r2,4095
   212cc:	e0bffe8d 	sth	r2,-6(fp)
	   printf("end_focus = %d \n",end_focus);
   212d0:	e0bffe8b 	ldhu	r2,-6(fp)
   212d4:	100b883a 	mov	r5,r2
   212d8:	010000f4 	movhi	r4,3
   212dc:	21114c04 	addi	r4,r4,17712
   212e0:	00243ec0 	call	243ec <printf>

	   return end_focus;
   212e4:	e0bffe8b 	ldhu	r2,-6(fp)
   212e8:	00000106 	br	212f0 <Focus_Window+0x1b4>

   }
   return end_focus;
   212ec:	e0bffe8b 	ldhu	r2,-6(fp)

}
   212f0:	e037883a 	mov	sp,fp
   212f4:	dfc00117 	ldw	ra,4(sp)
   212f8:	df000017 	ldw	fp,0(sp)
   212fc:	dec00204 	addi	sp,sp,8
   21300:	f800283a 	ret

00021304 <Focus_Released>:

int Focus_Released(void){
   21304:	defffc04 	addi	sp,sp,-16
   21308:	dfc00315 	stw	ra,12(sp)
   2130c:	df000215 	stw	fp,8(sp)
   21310:	df000204 	addi	fp,sp,8
  int Released = FALSE;
   21314:	e03fff15 	stw	zero,-4(fp)
 * alt_nticks() returns the elapsed number of system clock ticks since reset.
 */

static ALT_INLINE alt_u64 ALT_ALWAYS_INLINE alt_nticks (void)
{
  return _alt_nticks;
   21318:	d0a92e17 	ldw	r2,-23368(gp)
   2131c:	d0e92f17 	ldw	r3,-23364(gp)
  alt_u32 TimeOut;

  TimeOut = alt_nticks() + alt_ticks_per_second()*8;
   21320:	1007883a 	mov	r3,r2
  return _alt_tick_rate;
   21324:	d0a92d17 	ldw	r2,-23372(gp)
   21328:	100490fa 	slli	r2,r2,3
   2132c:	1885883a 	add	r2,r3,r2
   21330:	e0bffe15 	stw	r2,-8(fp)

  while((IORD(TERASIC_AUTO_FOCUS_0_BASE,REG_STATUS)&0x8000) ==0 && alt_nticks() < TimeOut ); // waiting for VCM release I2C bus
   21334:	0001883a 	nop
   21338:	00800134 	movhi	r2,4
   2133c:	10840837 	ldwio	r2,4128(r2)
   21340:	10a0000c 	andi	r2,r2,32768
   21344:	1000081e 	bne	r2,zero,21368 <Focus_Released+0x64>
  return _alt_nticks;
   21348:	d0a92e17 	ldw	r2,-23368(gp)
   2134c:	d0e92f17 	ldw	r3,-23364(gp)
   21350:	e23ffe17 	ldw	r8,-8(fp)
   21354:	400d883a 	mov	r6,r8
   21358:	000f883a 	mov	r7,zero
   2135c:	19fff636 	bltu	r3,r7,21338 <Focus_Released+0x34>
   21360:	38c0011e 	bne	r7,r3,21368 <Focus_Released+0x64>
   21364:	11bff436 	bltu	r2,r6,21338 <Focus_Released+0x34>
   21368:	d0a92e17 	ldw	r2,-23368(gp)
   2136c:	d0e92f17 	ldw	r3,-23364(gp)

  if(alt_nticks() < TimeOut ) Released = TRUE;
   21370:	e1bffe17 	ldw	r6,-8(fp)
   21374:	3009883a 	mov	r4,r6
   21378:	000b883a 	mov	r5,zero
   2137c:	19400236 	bltu	r3,r5,21388 <Focus_Released+0x84>
   21380:	28c0041e 	bne	r5,r3,21394 <Focus_Released+0x90>
   21384:	1100032e 	bgeu	r2,r4,21394 <Focus_Released+0x90>
   21388:	00800044 	movi	r2,1
   2138c:	e0bfff15 	stw	r2,-4(fp)
   21390:	00000306 	br	213a0 <Focus_Released+0x9c>
  else printf("\n =>Released check TimeOut!\n");
   21394:	010000f4 	movhi	r4,3
   21398:	21115104 	addi	r4,r4,17732
   2139c:	00245140 	call	24514 <puts>

  usleep(10000);
   213a0:	0109c404 	movi	r4,10000
   213a4:	0031d640 	call	31d64 <usleep>

  return Released;
   213a8:	e0bfff17 	ldw	r2,-4(fp)
}
   213ac:	e037883a 	mov	sp,fp
   213b0:	dfc00117 	ldw	ra,4(sp)
   213b4:	df000017 	ldw	fp,0(sp)
   213b8:	dec00204 	addi	sp,sp,8
   213bc:	f800283a 	ret

000213c0 <mipi_clear_error>:
#define MIPI_REG_CSIErrEn		0x0066
#define MIPI_REG_MDLSynErr		0x0068
#define MIPI_REG_FrmErrCnt		0x0080
#define MIPI_REG_MDLErrCnt		0x0090

void mipi_clear_error(void){
   213c0:	defffe04 	addi	sp,sp,-8
   213c4:	dfc00115 	stw	ra,4(sp)
   213c8:	df000015 	stw	fp,0(sp)
   213cc:	d839883a 	mov	fp,sp
	MipiBridgeRegWrite(MIPI_REG_CSIStatus,0x01FF); // clear error
   213d0:	01407fc4 	movi	r5,511
   213d4:	01001904 	movi	r4,100
   213d8:	00222000 	call	22200 <MipiBridgeRegWrite>
	MipiBridgeRegWrite(MIPI_REG_MDLSynErr,0x0000); // clear error
   213dc:	000b883a 	mov	r5,zero
   213e0:	01001a04 	movi	r4,104
   213e4:	00222000 	call	22200 <MipiBridgeRegWrite>
	MipiBridgeRegWrite(MIPI_REG_FrmErrCnt,0x0000); // clear error
   213e8:	000b883a 	mov	r5,zero
   213ec:	01002004 	movi	r4,128
   213f0:	00222000 	call	22200 <MipiBridgeRegWrite>
	MipiBridgeRegWrite(MIPI_REG_MDLErrCnt, 0x0000); // clear error
   213f4:	000b883a 	mov	r5,zero
   213f8:	01002404 	movi	r4,144
   213fc:	00222000 	call	22200 <MipiBridgeRegWrite>

  	MipiBridgeRegWrite(0x0082,0x00);
   21400:	000b883a 	mov	r5,zero
   21404:	01002084 	movi	r4,130
   21408:	00222000 	call	22200 <MipiBridgeRegWrite>
  	MipiBridgeRegWrite(0x0084,0x00);
   2140c:	000b883a 	mov	r5,zero
   21410:	01002104 	movi	r4,132
   21414:	00222000 	call	22200 <MipiBridgeRegWrite>
  	MipiBridgeRegWrite(0x0086,0x00);
   21418:	000b883a 	mov	r5,zero
   2141c:	01002184 	movi	r4,134
   21420:	00222000 	call	22200 <MipiBridgeRegWrite>
  	MipiBridgeRegWrite(0x0088,0x00);
   21424:	000b883a 	mov	r5,zero
   21428:	01002204 	movi	r4,136
   2142c:	00222000 	call	22200 <MipiBridgeRegWrite>
  	MipiBridgeRegWrite(0x008A,0x00);
   21430:	000b883a 	mov	r5,zero
   21434:	01002284 	movi	r4,138
   21438:	00222000 	call	22200 <MipiBridgeRegWrite>
  	MipiBridgeRegWrite(0x008C,0x00);
   2143c:	000b883a 	mov	r5,zero
   21440:	01002304 	movi	r4,140
   21444:	00222000 	call	22200 <MipiBridgeRegWrite>
  	MipiBridgeRegWrite(0x008E,0x00);
   21448:	000b883a 	mov	r5,zero
   2144c:	01002384 	movi	r4,142
   21450:	00222000 	call	22200 <MipiBridgeRegWrite>
  	MipiBridgeRegWrite(0x0090,0x00);
   21454:	000b883a 	mov	r5,zero
   21458:	01002404 	movi	r4,144
   2145c:	00222000 	call	22200 <MipiBridgeRegWrite>
}
   21460:	0001883a 	nop
   21464:	e037883a 	mov	sp,fp
   21468:	dfc00117 	ldw	ra,4(sp)
   2146c:	df000017 	ldw	fp,0(sp)
   21470:	dec00204 	addi	sp,sp,8
   21474:	f800283a 	ret

00021478 <mipi_show_error_info>:

void mipi_show_error_info(void){
   21478:	defff904 	addi	sp,sp,-28
   2147c:	dfc00615 	stw	ra,24(sp)
   21480:	df000515 	stw	fp,20(sp)
   21484:	df000504 	addi	fp,sp,20

	alt_u16 PHY_status, SCI_status, MDLSynErr, FrmErrCnt, MDLErrCnt;

	PHY_status = MipiBridgeRegRead(MIPI_REG_PHYSta);
   21488:	01001884 	movi	r4,98
   2148c:	00222700 	call	22270 <MipiBridgeRegRead>
   21490:	e0bfff8d 	sth	r2,-2(fp)
	SCI_status = MipiBridgeRegRead(MIPI_REG_CSIStatus);
   21494:	01001904 	movi	r4,100
   21498:	00222700 	call	22270 <MipiBridgeRegRead>
   2149c:	e0bfff0d 	sth	r2,-4(fp)
	MDLSynErr = MipiBridgeRegRead(MIPI_REG_MDLSynErr);
   214a0:	01001a04 	movi	r4,104
   214a4:	00222700 	call	22270 <MipiBridgeRegRead>
   214a8:	e0bffe8d 	sth	r2,-6(fp)
	FrmErrCnt = MipiBridgeRegRead(MIPI_REG_FrmErrCnt);
   214ac:	01002004 	movi	r4,128
   214b0:	00222700 	call	22270 <MipiBridgeRegRead>
   214b4:	e0bffe0d 	sth	r2,-8(fp)
	MDLErrCnt = MipiBridgeRegRead(MIPI_REG_MDLErrCnt);
   214b8:	01002404 	movi	r4,144
   214bc:	00222700 	call	22270 <MipiBridgeRegRead>
   214c0:	e0bffd8d 	sth	r2,-10(fp)
	printf("PHY_status=%xh, CSI_status=%xh, MDLSynErr=%xh, FrmErrCnt=%xh, MDLErrCnt=%xh\r\n", PHY_status, SCI_status, MDLSynErr,FrmErrCnt, MDLErrCnt);
   214c4:	e13fff8b 	ldhu	r4,-2(fp)
   214c8:	e17fff0b 	ldhu	r5,-4(fp)
   214cc:	e1bffe8b 	ldhu	r6,-6(fp)
   214d0:	e0bffe0b 	ldhu	r2,-8(fp)
   214d4:	e0fffd8b 	ldhu	r3,-10(fp)
   214d8:	d8c00115 	stw	r3,4(sp)
   214dc:	d8800015 	stw	r2,0(sp)
   214e0:	300f883a 	mov	r7,r6
   214e4:	280d883a 	mov	r6,r5
   214e8:	200b883a 	mov	r5,r4
   214ec:	010000f4 	movhi	r4,3
   214f0:	21115904 	addi	r4,r4,17764
   214f4:	00243ec0 	call	243ec <printf>
}
   214f8:	0001883a 	nop
   214fc:	e037883a 	mov	sp,fp
   21500:	dfc00117 	ldw	ra,4(sp)
   21504:	df000017 	ldw	fp,0(sp)
   21508:	dec00204 	addi	sp,sp,8
   2150c:	f800283a 	ret

00021510 <mipi_show_error_info_more>:

void mipi_show_error_info_more(void){
   21510:	defffe04 	addi	sp,sp,-8
   21514:	dfc00115 	stw	ra,4(sp)
   21518:	df000015 	stw	fp,0(sp)
   2151c:	d839883a 	mov	fp,sp
    printf("FrmErrCnt = %d\n",MipiBridgeRegRead(0x0080));
   21520:	01002004 	movi	r4,128
   21524:	00222700 	call	22270 <MipiBridgeRegRead>
   21528:	10bfffcc 	andi	r2,r2,65535
   2152c:	100b883a 	mov	r5,r2
   21530:	010000f4 	movhi	r4,3
   21534:	21116d04 	addi	r4,r4,17844
   21538:	00243ec0 	call	243ec <printf>
    printf("CRCErrCnt = %d\n",MipiBridgeRegRead(0x0082));
   2153c:	01002084 	movi	r4,130
   21540:	00222700 	call	22270 <MipiBridgeRegRead>
   21544:	10bfffcc 	andi	r2,r2,65535
   21548:	100b883a 	mov	r5,r2
   2154c:	010000f4 	movhi	r4,3
   21550:	21117104 	addi	r4,r4,17860
   21554:	00243ec0 	call	243ec <printf>
    printf("CorErrCnt = %d\n",MipiBridgeRegRead(0x0084));
   21558:	01002104 	movi	r4,132
   2155c:	00222700 	call	22270 <MipiBridgeRegRead>
   21560:	10bfffcc 	andi	r2,r2,65535
   21564:	100b883a 	mov	r5,r2
   21568:	010000f4 	movhi	r4,3
   2156c:	21117504 	addi	r4,r4,17876
   21570:	00243ec0 	call	243ec <printf>
    printf("HdrErrCnt = %d\n",MipiBridgeRegRead(0x0086));
   21574:	01002184 	movi	r4,134
   21578:	00222700 	call	22270 <MipiBridgeRegRead>
   2157c:	10bfffcc 	andi	r2,r2,65535
   21580:	100b883a 	mov	r5,r2
   21584:	010000f4 	movhi	r4,3
   21588:	21117904 	addi	r4,r4,17892
   2158c:	00243ec0 	call	243ec <printf>
    printf("EIDErrCnt = %d\n",MipiBridgeRegRead(0x0088));
   21590:	01002204 	movi	r4,136
   21594:	00222700 	call	22270 <MipiBridgeRegRead>
   21598:	10bfffcc 	andi	r2,r2,65535
   2159c:	100b883a 	mov	r5,r2
   215a0:	010000f4 	movhi	r4,3
   215a4:	21117d04 	addi	r4,r4,17908
   215a8:	00243ec0 	call	243ec <printf>
    printf("CtlErrCnt = %d\n",MipiBridgeRegRead(0x008A));
   215ac:	01002284 	movi	r4,138
   215b0:	00222700 	call	22270 <MipiBridgeRegRead>
   215b4:	10bfffcc 	andi	r2,r2,65535
   215b8:	100b883a 	mov	r5,r2
   215bc:	010000f4 	movhi	r4,3
   215c0:	21118104 	addi	r4,r4,17924
   215c4:	00243ec0 	call	243ec <printf>
    printf("SoTErrCnt = %d\n",MipiBridgeRegRead(0x008C));
   215c8:	01002304 	movi	r4,140
   215cc:	00222700 	call	22270 <MipiBridgeRegRead>
   215d0:	10bfffcc 	andi	r2,r2,65535
   215d4:	100b883a 	mov	r5,r2
   215d8:	010000f4 	movhi	r4,3
   215dc:	21118504 	addi	r4,r4,17940
   215e0:	00243ec0 	call	243ec <printf>
    printf("SynErrCnt = %d\n",MipiBridgeRegRead(0x008E));
   215e4:	01002384 	movi	r4,142
   215e8:	00222700 	call	22270 <MipiBridgeRegRead>
   215ec:	10bfffcc 	andi	r2,r2,65535
   215f0:	100b883a 	mov	r5,r2
   215f4:	010000f4 	movhi	r4,3
   215f8:	21118904 	addi	r4,r4,17956
   215fc:	00243ec0 	call	243ec <printf>
    printf("MDLErrCnt = %d\n",MipiBridgeRegRead(0x0090));
   21600:	01002404 	movi	r4,144
   21604:	00222700 	call	22270 <MipiBridgeRegRead>
   21608:	10bfffcc 	andi	r2,r2,65535
   2160c:	100b883a 	mov	r5,r2
   21610:	010000f4 	movhi	r4,3
   21614:	21118d04 	addi	r4,r4,17972
   21618:	00243ec0 	call	243ec <printf>
    printf("FIFOSTATUS = %d\n",MipiBridgeRegRead(0x00F8));
   2161c:	01003e04 	movi	r4,248
   21620:	00222700 	call	22270 <MipiBridgeRegRead>
   21624:	10bfffcc 	andi	r2,r2,65535
   21628:	100b883a 	mov	r5,r2
   2162c:	010000f4 	movhi	r4,3
   21630:	21119104 	addi	r4,r4,17988
   21634:	00243ec0 	call	243ec <printf>
    printf("DataType = 0x%04x\n",MipiBridgeRegRead(0x006A));
   21638:	01001a84 	movi	r4,106
   2163c:	00222700 	call	22270 <MipiBridgeRegRead>
   21640:	10bfffcc 	andi	r2,r2,65535
   21644:	100b883a 	mov	r5,r2
   21648:	010000f4 	movhi	r4,3
   2164c:	21119604 	addi	r4,r4,18008
   21650:	00243ec0 	call	243ec <printf>
    printf("CSIPktLen = %d\n",MipiBridgeRegRead(0x006E));
   21654:	01001b84 	movi	r4,110
   21658:	00222700 	call	22270 <MipiBridgeRegRead>
   2165c:	10bfffcc 	andi	r2,r2,65535
   21660:	100b883a 	mov	r5,r2
   21664:	010000f4 	movhi	r4,3
   21668:	21119b04 	addi	r4,r4,18028
   2166c:	00243ec0 	call	243ec <printf>
}
   21670:	0001883a 	nop
   21674:	e037883a 	mov	sp,fp
   21678:	dfc00117 	ldw	ra,4(sp)
   2167c:	df000017 	ldw	fp,0(sp)
   21680:	dec00204 	addi	sp,sp,8
   21684:	f800283a 	ret

00021688 <MIPI_Init>:



bool MIPI_Init(void){
   21688:	defffd04 	addi	sp,sp,-12
   2168c:	dfc00215 	stw	ra,8(sp)
   21690:	df000115 	stw	fp,4(sp)
   21694:	df000104 	addi	fp,sp,4
	bool bSuccess;


	bSuccess = oc_i2c_init_ex(I2C_OPENCORES_MIPI_BASE, 50*1000*1000,400*1000); //I2C: 400K
   21698:	018001b4 	movhi	r6,6
   2169c:	3186a004 	addi	r6,r6,6784
   216a0:	0140bef4 	movhi	r5,763
   216a4:	297c2004 	addi	r5,r5,-3968
   216a8:	01000134 	movhi	r4,4
   216ac:	21041804 	addi	r4,r4,4192
   216b0:	00203840 	call	20384 <oc_i2c_init_ex>
   216b4:	e0bfff15 	stw	r2,-4(fp)
	if (!bSuccess)
   216b8:	e0bfff17 	ldw	r2,-4(fp)
   216bc:	1000031e 	bne	r2,zero,216cc <MIPI_Init+0x44>
		printf("failed to init MIPI- Bridge i2c\r\n");
   216c0:	010000f4 	movhi	r4,3
   216c4:	21119f04 	addi	r4,r4,18044
   216c8:	00245140 	call	24514 <puts>

    usleep(50*1000);
   216cc:	0130d414 	movui	r4,50000
   216d0:	0031d640 	call	31d64 <usleep>
    MipiBridgeInit();
   216d4:	00222e80 	call	222e8 <MipiBridgeInit>

    usleep(500*1000);
   216d8:	01000234 	movhi	r4,8
   216dc:	21284804 	addi	r4,r4,-24288
   216e0:	0031d640 	call	31d64 <usleep>

//	bSuccess = oc_i2c_init_ex(I2C_OPENCORES_CAMERA_BASE, 50*1000*1000,400*1000); //I2C: 400K
//	if (!bSuccess)
//		printf("failed to init MIPI- Camera i2c\r\n");

    MipiCameraInit();
   216e4:	0022ab00 	call	22ab0 <MipiCameraInit>
    MIPI_BIN_LEVEL(DEFAULT_LEVEL);
   216e8:	010000c4 	movi	r4,3
   216ec:	00228f00 	call	228f0 <MIPI_BIN_LEVEL>
//    OV8865_FOCUS_Move_to(340);

//    oc_i2c_uninit(I2C_OPENCORES_CAMERA_BASE);  // Release I2C bus , due to two I2C master shared!


 	usleep(1000);
   216f0:	0100fa04 	movi	r4,1000
   216f4:	0031d640 	call	31d64 <usleep>


//    oc_i2c_uninit(I2C_OPENCORES_MIPI_BASE);

	return bSuccess;
   216f8:	e0bfff17 	ldw	r2,-4(fp)
}
   216fc:	e037883a 	mov	sp,fp
   21700:	dfc00117 	ldw	ra,4(sp)
   21704:	df000017 	ldw	fp,0(sp)
   21708:	dec00204 	addi	sp,sp,8
   2170c:	f800283a 	ret

00021710 <NAVIGATION>:

char NAVIGATION(int word, int * top_1, int * top_3, int * bottom_1, int * bottom_3, FILE* ser) {
   21710:	deffed04 	addi	sp,sp,-76
   21714:	dfc01215 	stw	ra,72(sp)
   21718:	df001115 	stw	fp,68(sp)
   2171c:	df001104 	addi	fp,sp,68
   21720:	e13ff215 	stw	r4,-56(fp)
   21724:	e17ff115 	stw	r5,-60(fp)
   21728:	e1bff015 	stw	r6,-64(fp)
   2172c:	e1ffef15 	stw	r7,-68(fp)
	int id = word >> 28;
   21730:	e0bff217 	ldw	r2,-56(fp)
   21734:	1005d73a 	srai	r2,r2,28
   21738:	e0bffe15 	stw	r2,-8(fp)
	int left_1, right_1, left_3, right_3;
	int gradient_l, gradient_r;
	char dir;
	dir = '*';
   2173c:	00800a84 	movi	r2,42
   21740:	e0bfffc5 	stb	r2,-1(fp)

	//to get word[10:0]
	alt_u32 tmp = word << 21;
   21744:	e0bff217 	ldw	r2,-56(fp)
   21748:	1004957a 	slli	r2,r2,21
   2174c:	e0bffd15 	stw	r2,-12(fp)
	int data_1 = tmp >> 21;
   21750:	e0bffd17 	ldw	r2,-12(fp)
   21754:	1004d57a 	srli	r2,r2,21
   21758:	e0bffc15 	stw	r2,-16(fp)

	//to get word[26:16]
	alt_u32 tmp1 = word << 5;
   2175c:	e0bff217 	ldw	r2,-56(fp)
   21760:	1004917a 	slli	r2,r2,5
   21764:	e0bffb15 	stw	r2,-20(fp)
	int data_2 = tmp1 >> 21;
   21768:	e0bffb17 	ldw	r2,-20(fp)
   2176c:	1004d57a 	srli	r2,r2,21
   21770:	e0bffa15 	stw	r2,-24(fp)

	int x_1, x_2;

	if (id == 6){//word 2
   21774:	e0bffe17 	ldw	r2,-8(fp)
   21778:	10800198 	cmpnei	r2,r2,6
   2177c:	10000b1e 	bne	r2,zero,217ac <NAVIGATION+0x9c>
		//data1 is right_min
		
		if ((data_1==640) | (data_2==0)){
   21780:	e0bffc17 	ldw	r2,-16(fp)
   21784:	1080a020 	cmpeqi	r2,r2,640
   21788:	1007883a 	mov	r3,r2
   2178c:	e0bffa17 	ldw	r2,-24(fp)
   21790:	1005003a 	cmpeq	r2,r2,zero
   21794:	1884b03a 	or	r2,r3,r2
   21798:	10803fcc 	andi	r2,r2,255
   2179c:	1000ad26 	beq	r2,zero,21a54 <NAVIGATION+0x344>
			dir = 'c';
   217a0:	008018c4 	movi	r2,99
   217a4:	e0bfffc5 	stb	r2,-1(fp)
   217a8:	0000aa06 	br	21a54 <NAVIGATION+0x344>
		// }
		//printf("%03x %03x ", x_1, x_2);
		//printf("%03x %03x ", data_1, data_2);
	}

	else if (id == 1){//word 3
   217ac:	e0bffe17 	ldw	r2,-8(fp)
   217b0:	10800058 	cmpnei	r2,r2,1
   217b4:	1000161e 	bne	r2,zero,21810 <NAVIGATION+0x100>
		if (data_1 > 440){
   217b8:	e0bffc17 	ldw	r2,-16(fp)
   217bc:	10806e50 	cmplti	r2,r2,441
   217c0:	1000101e 	bne	r2,zero,21804 <NAVIGATION+0xf4>
			dir = 's';
   217c4:	00801cc4 	movi	r2,115
   217c8:	e0bfffc5 	stb	r2,-1(fp)
			int encode = 5;
   217cc:	00800144 	movi	r2,5
   217d0:	e0bff315 	stw	r2,-52(fp)
			//printf("%c ", dir);
			if (fwrite(&encode, 1, 1, ser) != 1)
   217d4:	e0bff304 	addi	r2,fp,-52
   217d8:	e1c00317 	ldw	r7,12(fp)
   217dc:	01800044 	movi	r6,1
   217e0:	01400044 	movi	r5,1
   217e4:	1009883a 	mov	r4,r2
   217e8:	00237740 	call	23774 <fwrite>
   217ec:	10800060 	cmpeqi	r2,r2,1
   217f0:	1000981e 	bne	r2,zero,21a54 <NAVIGATION+0x344>
    	 	   printf("Error writing to UART");
   217f4:	010000f4 	movhi	r4,3
   217f8:	2111a804 	addi	r4,r4,18080
   217fc:	00243ec0 	call	243ec <printf>
   21800:	00009406 	br	21a54 <NAVIGATION+0x344>
		}
		else {
			dir = '1';
   21804:	00800c44 	movi	r2,49
   21808:	e0bfffc5 	stb	r2,-1(fp)
   2180c:	00009106 	br	21a54 <NAVIGATION+0x344>
		}
		//printf("%c ", dir);
	}

	else if (id == 2){//word 4
   21810:	e0bffe17 	ldw	r2,-8(fp)
   21814:	10800098 	cmpnei	r2,r2,2
   21818:	1000101e 	bne	r2,zero,2185c <NAVIGATION+0x14c>
		* top_1 = data_2;
   2181c:	e0bff117 	ldw	r2,-60(fp)
   21820:	e0fffa17 	ldw	r3,-24(fp)
   21824:	10c00015 	stw	r3,0(r2)
		* bottom_1 = data_1;
   21828:	e0bfef17 	ldw	r2,-68(fp)
   2182c:	e0fffc17 	ldw	r3,-16(fp)
   21830:	10c00015 	stw	r3,0(r2)
		if (* bottom_1 > 440) {
   21834:	e0bfef17 	ldw	r2,-68(fp)
   21838:	10800017 	ldw	r2,0(r2)
   2183c:	10806e50 	cmplti	r2,r2,441
   21840:	1000031e 	bne	r2,zero,21850 <NAVIGATION+0x140>
			dir = 's';
   21844:	00801cc4 	movi	r2,115
   21848:	e0bfffc5 	stb	r2,-1(fp)
   2184c:	00008106 	br	21a54 <NAVIGATION+0x344>
			//printf("%c ", dir);
		}
		else{
			dir = '2';
   21850:	00800c84 	movi	r2,50
   21854:	e0bfffc5 	stb	r2,-1(fp)
   21858:	00007e06 	br	21a54 <NAVIGATION+0x344>
		}
		//printf("%c ", dir);
	}

	else if (id == 3){//word 5
   2185c:	e0bffe17 	ldw	r2,-8(fp)
   21860:	108000d8 	cmpnei	r2,r2,3
   21864:	1000331e 	bne	r2,zero,21934 <NAVIGATION+0x224>
		right_1 = data_2;
   21868:	e0bffa17 	ldw	r2,-24(fp)
   2186c:	e0bff615 	stw	r2,-40(fp)
		left_1 = data_1;
   21870:	e0bffc17 	ldw	r2,-16(fp)
   21874:	e0bff515 	stw	r2,-44(fp)
		gradient_l = ((*bottom_1)-(*top_1))*16/(right_1-left_1);
   21878:	e0bfef17 	ldw	r2,-68(fp)
   2187c:	10c00017 	ldw	r3,0(r2)
   21880:	e0bff117 	ldw	r2,-60(fp)
   21884:	10800017 	ldw	r2,0(r2)
   21888:	1885c83a 	sub	r2,r3,r2
   2188c:	1008913a 	slli	r4,r2,4
   21890:	e0fff617 	ldw	r3,-40(fp)
   21894:	e0bff517 	ldw	r2,-44(fp)
   21898:	1885c83a 	sub	r2,r3,r2
   2189c:	100b883a 	mov	r5,r2
   218a0:	0022f280 	call	22f28 <__divsi3>
   218a4:	e0bff415 	stw	r2,-48(fp)
		if ((gradient_l < 0.1*16)) {
   218a8:	e0bff417 	ldw	r2,-48(fp)
   218ac:	10800088 	cmpgei	r2,r2,2
   218b0:	1000031e 	bne	r2,zero,218c0 <NAVIGATION+0x1b0>
			dir = 's';
   218b4:	00801cc4 	movi	r2,115
   218b8:	e0bfffc5 	stb	r2,-1(fp)
   218bc:	00001806 	br	21920 <NAVIGATION+0x210>
			//printf("%c ", dir);
		}
		else if ((gradient_l > 0.2*16) & (gradient_l < 0.75*16)) {
   218c0:	e0bff417 	ldw	r2,-48(fp)
   218c4:	10800108 	cmpgei	r2,r2,4
   218c8:	1007883a 	mov	r3,r2
   218cc:	e0bff417 	ldw	r2,-48(fp)
   218d0:	10800310 	cmplti	r2,r2,12
   218d4:	1884703a 	and	r2,r3,r2
   218d8:	10803fcc 	andi	r2,r2,255
   218dc:	10000326 	beq	r2,zero,218ec <NAVIGATION+0x1dc>
			dir = 'r';
   218e0:	00801c84 	movi	r2,114
   218e4:	e0bfffc5 	stb	r2,-1(fp)
   218e8:	00000d06 	br	21920 <NAVIGATION+0x210>
			//printf("%c ", dir);
		}
		else if ((gradient_l > 0.74*16) & (gradient_l < 2.32*16)) {
   218ec:	e0bff417 	ldw	r2,-48(fp)
   218f0:	10800308 	cmpgei	r2,r2,12
   218f4:	1007883a 	mov	r3,r2
   218f8:	e0bff417 	ldw	r2,-48(fp)
   218fc:	10800990 	cmplti	r2,r2,38
   21900:	1884703a 	and	r2,r3,r2
   21904:	10803fcc 	andi	r2,r2,255
   21908:	10000326 	beq	r2,zero,21918 <NAVIGATION+0x208>
			dir = 'f';
   2190c:	00801984 	movi	r2,102
   21910:	e0bfffc5 	stb	r2,-1(fp)
   21914:	00000206 	br	21920 <NAVIGATION+0x210>
			//printf("%c ", dir);
		}
		else {
			dir = '3';
   21918:	00800cc4 	movi	r2,51
   2191c:	e0bfffc5 	stb	r2,-1(fp)
		}
		printf("%06x ", gradient_l);
   21920:	e17ff417 	ldw	r5,-48(fp)
   21924:	010000f4 	movhi	r4,3
   21928:	2111ae04 	addi	r4,r4,18104
   2192c:	00243ec0 	call	243ec <printf>
   21930:	00004806 	br	21a54 <NAVIGATION+0x344>
	}

	else if (id==4){//word 6
   21934:	e0bffe17 	ldw	r2,-8(fp)
   21938:	10800118 	cmpnei	r2,r2,4
   2193c:	1000101e 	bne	r2,zero,21980 <NAVIGATION+0x270>
		* top_3 = data_2;
   21940:	e0bff017 	ldw	r2,-64(fp)
   21944:	e0fffa17 	ldw	r3,-24(fp)
   21948:	10c00015 	stw	r3,0(r2)
		* bottom_3 = data_1;
   2194c:	e0800217 	ldw	r2,8(fp)
   21950:	e0fffc17 	ldw	r3,-16(fp)
   21954:	10c00015 	stw	r3,0(r2)
		if (* bottom_3 > 440) {
   21958:	e0800217 	ldw	r2,8(fp)
   2195c:	10800017 	ldw	r2,0(r2)
   21960:	10806e50 	cmplti	r2,r2,441
   21964:	1000031e 	bne	r2,zero,21974 <NAVIGATION+0x264>
			dir = 's';
   21968:	00801cc4 	movi	r2,115
   2196c:	e0bfffc5 	stb	r2,-1(fp)
   21970:	00003806 	br	21a54 <NAVIGATION+0x344>
			//printf("%c ", dir);
		}
		else {
			dir = '4';
   21974:	00800d04 	movi	r2,52
   21978:	e0bfffc5 	stb	r2,-1(fp)
   2197c:	00003506 	br	21a54 <NAVIGATION+0x344>
		}
		//printf("%c ", dir);
	}

	else if (id==5){//word 7
   21980:	e0bffe17 	ldw	r2,-8(fp)
   21984:	10800158 	cmpnei	r2,r2,5
   21988:	1000321e 	bne	r2,zero,21a54 <NAVIGATION+0x344>
		right_3 = data_1;
   2198c:	e0bffc17 	ldw	r2,-16(fp)
   21990:	e0bff915 	stw	r2,-28(fp)
		left_3 = data_2;
   21994:	e0bffa17 	ldw	r2,-24(fp)
   21998:	e0bff815 	stw	r2,-32(fp)
		gradient_r = ((*bottom_3)-(*top_3))*16/(right_3-left_3);
   2199c:	e0800217 	ldw	r2,8(fp)
   219a0:	10c00017 	ldw	r3,0(r2)
   219a4:	e0bff017 	ldw	r2,-64(fp)
   219a8:	10800017 	ldw	r2,0(r2)
   219ac:	1885c83a 	sub	r2,r3,r2
   219b0:	1008913a 	slli	r4,r2,4
   219b4:	e0fff917 	ldw	r3,-28(fp)
   219b8:	e0bff817 	ldw	r2,-32(fp)
   219bc:	1885c83a 	sub	r2,r3,r2
   219c0:	100b883a 	mov	r5,r2
   219c4:	0022f280 	call	22f28 <__divsi3>
   219c8:	e0bff715 	stw	r2,-36(fp)
		if ((gradient_r < 0.1*16)) {
   219cc:	e0bff717 	ldw	r2,-36(fp)
   219d0:	10800088 	cmpgei	r2,r2,2
   219d4:	1000031e 	bne	r2,zero,219e4 <NAVIGATION+0x2d4>
			dir = 's';
   219d8:	00801cc4 	movi	r2,115
   219dc:	e0bfffc5 	stb	r2,-1(fp)
   219e0:	00001806 	br	21a44 <NAVIGATION+0x334>
			//printf("%c ", dir);
		}
		else if ((gradient_r > 0.2*16) & (gradient_r < 0.75*16)) {
   219e4:	e0bff717 	ldw	r2,-36(fp)
   219e8:	10800108 	cmpgei	r2,r2,4
   219ec:	1007883a 	mov	r3,r2
   219f0:	e0bff717 	ldw	r2,-36(fp)
   219f4:	10800310 	cmplti	r2,r2,12
   219f8:	1884703a 	and	r2,r3,r2
   219fc:	10803fcc 	andi	r2,r2,255
   21a00:	10000326 	beq	r2,zero,21a10 <NAVIGATION+0x300>
			dir = 'l';
   21a04:	00801b04 	movi	r2,108
   21a08:	e0bfffc5 	stb	r2,-1(fp)
   21a0c:	00000d06 	br	21a44 <NAVIGATION+0x334>
			//printf("%c ", dir);
		}
		else if ((gradient_r > 0.74*16) & (gradient_r < 2.32*16)) {
   21a10:	e0bff717 	ldw	r2,-36(fp)
   21a14:	10800308 	cmpgei	r2,r2,12
   21a18:	1007883a 	mov	r3,r2
   21a1c:	e0bff717 	ldw	r2,-36(fp)
   21a20:	10800990 	cmplti	r2,r2,38
   21a24:	1884703a 	and	r2,r3,r2
   21a28:	10803fcc 	andi	r2,r2,255
   21a2c:	10000326 	beq	r2,zero,21a3c <NAVIGATION+0x32c>
			dir = 'f';
   21a30:	00801984 	movi	r2,102
   21a34:	e0bfffc5 	stb	r2,-1(fp)
   21a38:	00000206 	br	21a44 <NAVIGATION+0x334>
			//printf("%c ", dir);
		}
		else {
			dir = '5';
   21a3c:	00800d44 	movi	r2,53
   21a40:	e0bfffc5 	stb	r2,-1(fp)
		}
		//printf("%c ", dir);
		printf("%06x ", gradient_r);
   21a44:	e17ff717 	ldw	r5,-36(fp)
   21a48:	010000f4 	movhi	r4,3
   21a4c:	2111ae04 	addi	r4,r4,18104
   21a50:	00243ec0 	call	243ec <printf>
	// 		int encode = 4;
	// 		if (fwrite(&encode, 1, 1, ser) != 1)
    // 		   printf("Error writing to UART");
	// 	}
	// }
	return dir;
   21a54:	e0bfffc3 	ldbu	r2,-1(fp)
}
   21a58:	e037883a 	mov	sp,fp
   21a5c:	dfc00117 	ldw	ra,4(sp)
   21a60:	df000017 	ldw	fp,0(sp)
   21a64:	dec00204 	addi	sp,sp,8
   21a68:	f800283a 	ret

00021a6c <main>:




int main()
{
   21a6c:	deffee04 	addi	sp,sp,-72
   21a70:	dfc01115 	stw	ra,68(sp)
   21a74:	df001015 	stw	fp,64(sp)
   21a78:	df001004 	addi	fp,sp,64

	fcntl(STDIN_FILENO, F_SETFL, O_NONBLOCK);
   21a7c:	01900004 	movi	r6,16384
   21a80:	01400104 	movi	r5,4
   21a84:	0009883a 	mov	r4,zero
   21a88:	00310080 	call	31008 <fcntl>

  printf("DE10-LITE D8M VGA Demo\n");
   21a8c:	010000f4 	movhi	r4,3
   21a90:	2111b004 	addi	r4,r4,18112
   21a94:	00245140 	call	24514 <puts>
  printf("Imperial College EEE2 Project version\n");
   21a98:	010000f4 	movhi	r4,3
   21a9c:	2111b604 	addi	r4,r4,18136
   21aa0:	00245140 	call	24514 <puts>
  IOWR(MIPI_PWDN_N_BASE, 0x00, 0x00);
   21aa4:	0007883a 	mov	r3,zero
   21aa8:	00800134 	movhi	r2,4
   21aac:	10c42035 	stwio	r3,4224(r2)
  IOWR(MIPI_RESET_N_BASE, 0x00, 0x00);
   21ab0:	0007883a 	mov	r3,zero
   21ab4:	00800134 	movhi	r2,4
   21ab8:	10c42435 	stwio	r3,4240(r2)

  usleep(2000);
   21abc:	0101f404 	movi	r4,2000
   21ac0:	0031d640 	call	31d64 <usleep>
  IOWR(MIPI_PWDN_N_BASE, 0x00, 0xFF);
   21ac4:	00c03fc4 	movi	r3,255
   21ac8:	00800134 	movhi	r2,4
   21acc:	10c42035 	stwio	r3,4224(r2)
  usleep(2000);
   21ad0:	0101f404 	movi	r4,2000
   21ad4:	0031d640 	call	31d64 <usleep>
  IOWR(MIPI_RESET_N_BASE, 0x00, 0xFF);
   21ad8:	00c03fc4 	movi	r3,255
   21adc:	00800134 	movhi	r2,4
   21ae0:	10c42435 	stwio	r3,4240(r2)

  printf("Image Processor ID: %x\n",IORD(0x42000,EEE_IMGPROC_ID));
   21ae4:	00800134 	movhi	r2,4
   21ae8:	10880237 	ldwio	r2,8200(r2)
   21aec:	100b883a 	mov	r5,r2
   21af0:	010000f4 	movhi	r4,3
   21af4:	2111c004 	addi	r4,r4,18176
   21af8:	00243ec0 	call	243ec <printf>
  //printf("Image Processor ID: %x\n",IORD(EEE_IMGPROC_0_BASE,EEE_IMGPROC_ID)); //Don't know why this doesn't work - definition is in system.h in BSP


  usleep(2000);
   21afc:	0101f404 	movi	r4,2000
   21b00:	0031d640 	call	31d64 <usleep>


  // MIPI Init
   if (!MIPI_Init()){
   21b04:	00216880 	call	21688 <MIPI_Init>
   21b08:	1000041e 	bne	r2,zero,21b1c <main+0xb0>
	  printf("MIPI_Init Init failed!\r\n");
   21b0c:	010000f4 	movhi	r4,3
   21b10:	2111c604 	addi	r4,r4,18200
   21b14:	00245140 	call	24514 <puts>
   21b18:	00000306 	br	21b28 <main+0xbc>
  }else{
	  printf("MIPI_Init Init successfully!\r\n");
   21b1c:	010000f4 	movhi	r4,3
   21b20:	2111cc04 	addi	r4,r4,18224
   21b24:	00245140 	call	24514 <puts>
  }

//   while(1){
 	    mipi_clear_error();
   21b28:	00213c00 	call	213c0 <mipi_clear_error>
	 	usleep(50*1000);
   21b2c:	0130d414 	movui	r4,50000
   21b30:	0031d640 	call	31d64 <usleep>
 	    mipi_clear_error();
   21b34:	00213c00 	call	213c0 <mipi_clear_error>
	 	usleep(1000*1000);
   21b38:	010003f4 	movhi	r4,15
   21b3c:	21109004 	addi	r4,r4,16960
   21b40:	0031d640 	call	31d64 <usleep>
	    mipi_show_error_info();
   21b44:	00214780 	call	21478 <mipi_show_error_info>
//	    mipi_show_error_info_more();
	    printf("\n");
   21b48:	01000284 	movi	r4,10
   21b4c:	002442c0 	call	2442c <putchar>




    //////////////////////////////////////////////////////////
        alt_u16 bin_level = DEFAULT_LEVEL;
   21b50:	008000c4 	movi	r2,3
   21b54:	e0bfff8d 	sth	r2,-2(fp)
        alt_u8  manual_focus_step = 10;
   21b58:	00800284 	movi	r2,10
   21b5c:	e0bffd45 	stb	r2,-11(fp)
        alt_u16  current_focus = 300;
   21b60:	00804b04 	movi	r2,300
   21b64:	e0bfff0d 	sth	r2,-4(fp)
    	int boundingBoxColour = 0;
   21b68:	e03ffc15 	stw	zero,-16(fp)
    	alt_u32 exposureTime = EXPOSURE_INIT;
   21b6c:	00bfffd4 	movui	r2,65535
   21b70:	e0bffe15 	stw	r2,-8(fp)
    	alt_u16 gain = GAIN_INIT;
   21b74:	00804004 	movi	r2,256
   21b78:	e0bffd8d 	sth	r2,-10(fp)
		int top_1, top_3, bottom_1, bottom_3;
		top_1 = 0;
   21b7c:	e03ff615 	stw	zero,-40(fp)
		top_3 = 0;
   21b80:	e03ff515 	stw	zero,-44(fp)
		bottom_1 = 0;
   21b84:	e03ff415 	stw	zero,-48(fp)
		bottom_3 = 0;
   21b88:	e03ff315 	stw	zero,-52(fp)
		char word_1, word_2, word_3, word_4, word_5, word_6, word_7;

        OV8865SetExposure(exposureTime);
   21b8c:	e13ffe17 	ldw	r4,-8(fp)
   21b90:	00226840 	call	22684 <OV8865SetExposure>
        OV8865SetGain(gain);
   21b94:	e0bffd8b 	ldhu	r2,-10(fp)
   21b98:	1009883a 	mov	r4,r2
   21b9c:	00227680 	call	22768 <OV8865SetGain>
        Focus_Init();
   21ba0:	00210380 	call	21038 <Focus_Init>

        FILE* ser = fopen("/dev/uart_0", "rb+");
   21ba4:	014000f4 	movhi	r5,3
   21ba8:	2951d404 	addi	r5,r5,18256
   21bac:	010000f4 	movhi	r4,3
   21bb0:	2111d504 	addi	r4,r4,18260
   21bb4:	00231d40 	call	231d4 <fopen>
   21bb8:	e0bffb15 	stw	r2,-20(fp)
        if(ser){
   21bbc:	e0bffb17 	ldw	r2,-20(fp)
   21bc0:	10000426 	beq	r2,zero,21bd4 <main+0x168>
        	printf("Opened UART\n");
   21bc4:	010000f4 	movhi	r4,3
   21bc8:	2111d804 	addi	r4,r4,18272
   21bcc:	00245140 	call	24514 <puts>
   21bd0:	00000506 	br	21be8 <main+0x17c>
        } else {
        	printf("Failed to open UART\n");
   21bd4:	010000f4 	movhi	r4,3
   21bd8:	2111db04 	addi	r4,r4,18284
   21bdc:	00245140 	call	24514 <puts>
        	while (1);
   21be0:	0001883a 	nop
   21be4:	003ffe06 	br	21be0 <main+0x174>
        }

  while(1){

       // touch KEY0 to trigger Auto focus
	   if((IORD(KEY_BASE,0)&0x03) == 0x02){
   21be8:	00800134 	movhi	r2,4
   21bec:	10842837 	ldwio	r2,4256(r2)
   21bf0:	108000cc 	andi	r2,r2,3
   21bf4:	10800098 	cmpnei	r2,r2,2
   21bf8:	1000041e 	bne	r2,zero,21c0c <main+0x1a0>

    	   current_focus = Focus_Window(320,240);
   21bfc:	01403c04 	movi	r5,240
   21c00:	01005004 	movi	r4,320
   21c04:	002113c0 	call	2113c <Focus_Window>
   21c08:	e0bfff0d 	sth	r2,-4(fp)
       }
	   // touch KEY1 to ZOOM
	         if((IORD(KEY_BASE,0)&0x03) == 0x01){
   21c0c:	00800134 	movhi	r2,4
   21c10:	10842837 	ldwio	r2,4256(r2)
   21c14:	108000cc 	andi	r2,r2,3
   21c18:	10800058 	cmpnei	r2,r2,1
   21c1c:	1000f21e 	bne	r2,zero,21fe8 <main+0x57c>
	      	   if(bin_level == 3 )bin_level = 1;
   21c20:	e0bfff8b 	ldhu	r2,-2(fp)
   21c24:	108000d8 	cmpnei	r2,r2,3
   21c28:	1000031e 	bne	r2,zero,21c38 <main+0x1cc>
   21c2c:	00800044 	movi	r2,1
   21c30:	e0bfff8d 	sth	r2,-2(fp)
   21c34:	00000306 	br	21c44 <main+0x1d8>
	      	   else bin_level ++;
   21c38:	e0bfff8b 	ldhu	r2,-2(fp)
   21c3c:	10800044 	addi	r2,r2,1
   21c40:	e0bfff8d 	sth	r2,-2(fp)
	      	   printf("set bin level to %d\n",bin_level);
   21c44:	e0bfff8b 	ldhu	r2,-2(fp)
   21c48:	100b883a 	mov	r5,r2
   21c4c:	010000f4 	movhi	r4,3
   21c50:	2111e004 	addi	r4,r4,18304
   21c54:	00243ec0 	call	243ec <printf>
	      	   MIPI_BIN_LEVEL(bin_level);
   21c58:	e0bfff8b 	ldhu	r2,-2(fp)
   21c5c:	10803fcc 	andi	r2,r2,255
   21c60:	1009883a 	mov	r4,r2
   21c64:	00228f00 	call	228f0 <MIPI_BIN_LEVEL>
	      	 	usleep(500000);
   21c68:	01000234 	movhi	r4,8
   21c6c:	21284804 	addi	r4,r4,-24288
   21c70:	0031d640 	call	31d64 <usleep>
       }
	#endif

       //Read messages from the image processor and print them on the terminal
	   
       while ((IORD(0x42000,EEE_IMGPROC_STATUS)>>8) & 0xff) { 	//Find out if there are words to read
   21c74:	0000dc06 	br	21fe8 <main+0x57c>
		   int word;
    	   while(1){
			word = IORD(0x42000,EEE_IMGPROC_MSG);
   21c78:	00800134 	movhi	r2,4
   21c7c:	10880137 	ldwio	r2,8196(r2)
   21c80:	e0bff915 	stw	r2,-28(fp)
			if ((word>>28)==0) {
   21c84:	e0bff917 	ldw	r2,-28(fp)
   21c88:	1005d73a 	srai	r2,r2,28
   21c8c:	103ffa1e 	bne	r2,zero,21c78 <main+0x20c>
		        word_1 = NAVIGATION(word, & top_1, & top_3, & bottom_1, & bottom_3, ser);
   21c90:	e17ff404 	addi	r5,fp,-48
   21c94:	e13ff504 	addi	r4,fp,-44
   21c98:	e0fff604 	addi	r3,fp,-40
   21c9c:	e0bffb17 	ldw	r2,-20(fp)
   21ca0:	d8800115 	stw	r2,4(sp)
   21ca4:	e0bff304 	addi	r2,fp,-52
   21ca8:	d8800015 	stw	r2,0(sp)
   21cac:	280f883a 	mov	r7,r5
   21cb0:	200d883a 	mov	r6,r4
   21cb4:	180b883a 	mov	r5,r3
   21cb8:	e13ff917 	ldw	r4,-28(fp)
   21cbc:	00217100 	call	21710 <NAVIGATION>
   21cc0:	e0bff8c5 	stb	r2,-29(fp)
				printf("%c ", word_1);
   21cc4:	e0bff8c7 	ldb	r2,-29(fp)
   21cc8:	100b883a 	mov	r5,r2
   21ccc:	010000f4 	movhi	r4,3
   21cd0:	2111e604 	addi	r4,r4,18328
   21cd4:	00243ec0 	call	243ec <printf>
				break;
			}
		   }

		   while(1){
			if ((IORD(0x42000,EEE_IMGPROC_STATUS)>>8) & 0xff) {
   21cd8:	00800134 	movhi	r2,4
   21cdc:	10880037 	ldwio	r2,8192(r2)
   21ce0:	1005d23a 	srai	r2,r2,8
   21ce4:	10803fcc 	andi	r2,r2,255
   21ce8:	103ffb26 	beq	r2,zero,21cd8 <main+0x26c>
				word = IORD(0x42000,EEE_IMGPROC_MSG); 			//Get next word from message buffer
   21cec:	00800134 	movhi	r2,4
   21cf0:	10880137 	ldwio	r2,8196(r2)
   21cf4:	e0bff915 	stw	r2,-28(fp)
		        word_2 = NAVIGATION(word, & top_1, & top_3, & bottom_1, & bottom_3, ser);
   21cf8:	e17ff404 	addi	r5,fp,-48
   21cfc:	e13ff504 	addi	r4,fp,-44
   21d00:	e0fff604 	addi	r3,fp,-40
   21d04:	e0bffb17 	ldw	r2,-20(fp)
   21d08:	d8800115 	stw	r2,4(sp)
   21d0c:	e0bff304 	addi	r2,fp,-52
   21d10:	d8800015 	stw	r2,0(sp)
   21d14:	280f883a 	mov	r7,r5
   21d18:	200d883a 	mov	r6,r4
   21d1c:	180b883a 	mov	r5,r3
   21d20:	e13ff917 	ldw	r4,-28(fp)
   21d24:	00217100 	call	21710 <NAVIGATION>
   21d28:	e0bff885 	stb	r2,-30(fp)
				printf("%c ", word_2);
   21d2c:	e0bff887 	ldb	r2,-30(fp)
   21d30:	100b883a 	mov	r5,r2
   21d34:	010000f4 	movhi	r4,3
   21d38:	2111e604 	addi	r4,r4,18328
   21d3c:	00243ec0 	call	243ec <printf>
				break;
			}
		   }

		   while(1){
			if ((IORD(0x42000,EEE_IMGPROC_STATUS)>>8) & 0xff) {
   21d40:	00800134 	movhi	r2,4
   21d44:	10880037 	ldwio	r2,8192(r2)
   21d48:	1005d23a 	srai	r2,r2,8
   21d4c:	10803fcc 	andi	r2,r2,255
   21d50:	103ffb26 	beq	r2,zero,21d40 <main+0x2d4>
				word = IORD(0x42000,EEE_IMGPROC_MSG); 			//Get next word from message buffer
   21d54:	00800134 	movhi	r2,4
   21d58:	10880137 	ldwio	r2,8196(r2)
   21d5c:	e0bff915 	stw	r2,-28(fp)
		        word_3 = NAVIGATION(word, & top_1, & top_3, & bottom_1, & bottom_3, ser);
   21d60:	e17ff404 	addi	r5,fp,-48
   21d64:	e13ff504 	addi	r4,fp,-44
   21d68:	e0fff604 	addi	r3,fp,-40
   21d6c:	e0bffb17 	ldw	r2,-20(fp)
   21d70:	d8800115 	stw	r2,4(sp)
   21d74:	e0bff304 	addi	r2,fp,-52
   21d78:	d8800015 	stw	r2,0(sp)
   21d7c:	280f883a 	mov	r7,r5
   21d80:	200d883a 	mov	r6,r4
   21d84:	180b883a 	mov	r5,r3
   21d88:	e13ff917 	ldw	r4,-28(fp)
   21d8c:	00217100 	call	21710 <NAVIGATION>
   21d90:	e0bff845 	stb	r2,-31(fp)
				printf("%c ", word_3);
   21d94:	e0bff847 	ldb	r2,-31(fp)
   21d98:	100b883a 	mov	r5,r2
   21d9c:	010000f4 	movhi	r4,3
   21da0:	2111e604 	addi	r4,r4,18328
   21da4:	00243ec0 	call	243ec <printf>
				break;
			}
		   }

		   while(1){
			if ((IORD(0x42000,EEE_IMGPROC_STATUS)>>8) & 0xff) {
   21da8:	00800134 	movhi	r2,4
   21dac:	10880037 	ldwio	r2,8192(r2)
   21db0:	1005d23a 	srai	r2,r2,8
   21db4:	10803fcc 	andi	r2,r2,255
   21db8:	103ffb26 	beq	r2,zero,21da8 <main+0x33c>
				word = IORD(0x42000,EEE_IMGPROC_MSG); 			//Get next word from message buffer
   21dbc:	00800134 	movhi	r2,4
   21dc0:	10880137 	ldwio	r2,8196(r2)
   21dc4:	e0bff915 	stw	r2,-28(fp)
		        word_4 = NAVIGATION(word, & top_1, & top_3, & bottom_1, & bottom_3, ser);
   21dc8:	e17ff404 	addi	r5,fp,-48
   21dcc:	e13ff504 	addi	r4,fp,-44
   21dd0:	e0fff604 	addi	r3,fp,-40
   21dd4:	e0bffb17 	ldw	r2,-20(fp)
   21dd8:	d8800115 	stw	r2,4(sp)
   21ddc:	e0bff304 	addi	r2,fp,-52
   21de0:	d8800015 	stw	r2,0(sp)
   21de4:	280f883a 	mov	r7,r5
   21de8:	200d883a 	mov	r6,r4
   21dec:	180b883a 	mov	r5,r3
   21df0:	e13ff917 	ldw	r4,-28(fp)
   21df4:	00217100 	call	21710 <NAVIGATION>
   21df8:	e0bff805 	stb	r2,-32(fp)
				printf("%c ", word_4);
   21dfc:	e0bff807 	ldb	r2,-32(fp)
   21e00:	100b883a 	mov	r5,r2
   21e04:	010000f4 	movhi	r4,3
   21e08:	2111e604 	addi	r4,r4,18328
   21e0c:	00243ec0 	call	243ec <printf>
				break;
			}
		   }

		   while(1){
			if ((IORD(0x42000,EEE_IMGPROC_STATUS)>>8) & 0xff) {
   21e10:	00800134 	movhi	r2,4
   21e14:	10880037 	ldwio	r2,8192(r2)
   21e18:	1005d23a 	srai	r2,r2,8
   21e1c:	10803fcc 	andi	r2,r2,255
   21e20:	103ffb26 	beq	r2,zero,21e10 <main+0x3a4>
				word = IORD(0x42000,EEE_IMGPROC_MSG); 			//Get next word from message buffer
   21e24:	00800134 	movhi	r2,4
   21e28:	10880137 	ldwio	r2,8196(r2)
   21e2c:	e0bff915 	stw	r2,-28(fp)
		        word_5 = NAVIGATION(word, & top_1, & top_3, & bottom_1, & bottom_3, ser);
   21e30:	e17ff404 	addi	r5,fp,-48
   21e34:	e13ff504 	addi	r4,fp,-44
   21e38:	e0fff604 	addi	r3,fp,-40
   21e3c:	e0bffb17 	ldw	r2,-20(fp)
   21e40:	d8800115 	stw	r2,4(sp)
   21e44:	e0bff304 	addi	r2,fp,-52
   21e48:	d8800015 	stw	r2,0(sp)
   21e4c:	280f883a 	mov	r7,r5
   21e50:	200d883a 	mov	r6,r4
   21e54:	180b883a 	mov	r5,r3
   21e58:	e13ff917 	ldw	r4,-28(fp)
   21e5c:	00217100 	call	21710 <NAVIGATION>
   21e60:	e0bff7c5 	stb	r2,-33(fp)
				printf("%c ", word_5);
   21e64:	e0bff7c7 	ldb	r2,-33(fp)
   21e68:	100b883a 	mov	r5,r2
   21e6c:	010000f4 	movhi	r4,3
   21e70:	2111e604 	addi	r4,r4,18328
   21e74:	00243ec0 	call	243ec <printf>
				break;
			}
		   }

		   while(1){
			if ((IORD(0x42000,EEE_IMGPROC_STATUS)>>8) & 0xff) {
   21e78:	00800134 	movhi	r2,4
   21e7c:	10880037 	ldwio	r2,8192(r2)
   21e80:	1005d23a 	srai	r2,r2,8
   21e84:	10803fcc 	andi	r2,r2,255
   21e88:	103ffb26 	beq	r2,zero,21e78 <main+0x40c>
				word = IORD(0x42000,EEE_IMGPROC_MSG); 			//Get next word from message buffer
   21e8c:	00800134 	movhi	r2,4
   21e90:	10880137 	ldwio	r2,8196(r2)
   21e94:	e0bff915 	stw	r2,-28(fp)
		        word_6 = NAVIGATION(word, & top_1, & top_3, & bottom_1, & bottom_3, ser);
   21e98:	e17ff404 	addi	r5,fp,-48
   21e9c:	e13ff504 	addi	r4,fp,-44
   21ea0:	e0fff604 	addi	r3,fp,-40
   21ea4:	e0bffb17 	ldw	r2,-20(fp)
   21ea8:	d8800115 	stw	r2,4(sp)
   21eac:	e0bff304 	addi	r2,fp,-52
   21eb0:	d8800015 	stw	r2,0(sp)
   21eb4:	280f883a 	mov	r7,r5
   21eb8:	200d883a 	mov	r6,r4
   21ebc:	180b883a 	mov	r5,r3
   21ec0:	e13ff917 	ldw	r4,-28(fp)
   21ec4:	00217100 	call	21710 <NAVIGATION>
   21ec8:	e0bff785 	stb	r2,-34(fp)
				printf("%c ", word_6);
   21ecc:	e0bff787 	ldb	r2,-34(fp)
   21ed0:	100b883a 	mov	r5,r2
   21ed4:	010000f4 	movhi	r4,3
   21ed8:	2111e604 	addi	r4,r4,18328
   21edc:	00243ec0 	call	243ec <printf>
				break;
			}
		   }

		   while(1){
			if ((IORD(0x42000,EEE_IMGPROC_STATUS)>>8) & 0xff) {
   21ee0:	00800134 	movhi	r2,4
   21ee4:	10880037 	ldwio	r2,8192(r2)
   21ee8:	1005d23a 	srai	r2,r2,8
   21eec:	10803fcc 	andi	r2,r2,255
   21ef0:	103ffb26 	beq	r2,zero,21ee0 <main+0x474>
				word = IORD(0x42000,EEE_IMGPROC_MSG); 			//Get next word from message buffer
   21ef4:	00800134 	movhi	r2,4
   21ef8:	10880137 	ldwio	r2,8196(r2)
   21efc:	e0bff915 	stw	r2,-28(fp)
		        word_7 = NAVIGATION(word, & top_1, & top_3, & bottom_1, & bottom_3, ser);
   21f00:	e17ff404 	addi	r5,fp,-48
   21f04:	e13ff504 	addi	r4,fp,-44
   21f08:	e0fff604 	addi	r3,fp,-40
   21f0c:	e0bffb17 	ldw	r2,-20(fp)
   21f10:	d8800115 	stw	r2,4(sp)
   21f14:	e0bff304 	addi	r2,fp,-52
   21f18:	d8800015 	stw	r2,0(sp)
   21f1c:	280f883a 	mov	r7,r5
   21f20:	200d883a 	mov	r6,r4
   21f24:	180b883a 	mov	r5,r3
   21f28:	e13ff917 	ldw	r4,-28(fp)
   21f2c:	00217100 	call	21710 <NAVIGATION>
   21f30:	e0bff745 	stb	r2,-35(fp)
				printf("%c \n", word_7);
   21f34:	e0bff747 	ldb	r2,-35(fp)
   21f38:	100b883a 	mov	r5,r2
   21f3c:	010000f4 	movhi	r4,3
   21f40:	2111e704 	addi	r4,r4,18332
   21f44:	00243ec0 	call	243ec <printf>
				break;
   21f48:	0001883a 	nop
		//    if (word_2 == 'c') {//check node
		// 	encode = 9;
		// 	fwrite(&encode, 1, 1, ser);
		//    }

		   if (word_3 == 's' & word_4 == 's' & word_6 == 's'){//stop moving forward
   21f4c:	e0bff847 	ldb	r2,-31(fp)
   21f50:	10801ce0 	cmpeqi	r2,r2,115
   21f54:	1007883a 	mov	r3,r2
   21f58:	e0bff807 	ldb	r2,-32(fp)
   21f5c:	10801ce0 	cmpeqi	r2,r2,115
   21f60:	1884703a 	and	r2,r3,r2
   21f64:	10c03fcc 	andi	r3,r2,255
   21f68:	e0bff787 	ldb	r2,-34(fp)
   21f6c:	10801ce0 	cmpeqi	r2,r2,115
   21f70:	10803fcc 	andi	r2,r2,255
   21f74:	1884703a 	and	r2,r3,r2
   21f78:	10000e26 	beq	r2,zero,21fb4 <main+0x548>
			encode = 5;
   21f7c:	00800144 	movi	r2,5
   21f80:	e0bff215 	stw	r2,-56(fp)
			//printf("%c ", word_3);
			if (fwrite(&encode, 1, 1, ser) != 1)
   21f84:	e0bff204 	addi	r2,fp,-56
   21f88:	e1fffb17 	ldw	r7,-20(fp)
   21f8c:	01800044 	movi	r6,1
   21f90:	01400044 	movi	r5,1
   21f94:	1009883a 	mov	r4,r2
   21f98:	00237740 	call	23774 <fwrite>
   21f9c:	10800060 	cmpeqi	r2,r2,1
   21fa0:	1000111e 	bne	r2,zero,21fe8 <main+0x57c>
    	 	   printf("Error writing to UART");
   21fa4:	010000f4 	movhi	r4,3
   21fa8:	2111a804 	addi	r4,r4,18080
   21fac:	00243ec0 	call	243ec <printf>
   21fb0:	00000d06 	br	21fe8 <main+0x57c>
		   }
		   else{
			encode = 1;
   21fb4:	00800044 	movi	r2,1
   21fb8:	e0bff215 	stw	r2,-56(fp)
			//printf("%c ", word_3);
			if (fwrite(&encode, 1, 1, ser) != 1)
   21fbc:	e0bff204 	addi	r2,fp,-56
   21fc0:	e1fffb17 	ldw	r7,-20(fp)
   21fc4:	01800044 	movi	r6,1
   21fc8:	01400044 	movi	r5,1
   21fcc:	1009883a 	mov	r4,r2
   21fd0:	00237740 	call	23774 <fwrite>
   21fd4:	10800060 	cmpeqi	r2,r2,1
   21fd8:	1000031e 	bne	r2,zero,21fe8 <main+0x57c>
    	 	   printf("Error writing to UART");
   21fdc:	010000f4 	movhi	r4,3
   21fe0:	2111a804 	addi	r4,r4,18080
   21fe4:	00243ec0 	call	243ec <printf>
       while ((IORD(0x42000,EEE_IMGPROC_STATUS)>>8) & 0xff) { 	//Find out if there are words to read
   21fe8:	00800134 	movhi	r2,4
   21fec:	10880037 	ldwio	r2,8192(r2)
   21ff0:	1005d23a 	srai	r2,r2,8
   21ff4:	10803fcc 	andi	r2,r2,255
   21ff8:	103f1f1e 	bne	r2,zero,21c78 <main+0x20c>
       //Update the bounding box colour
       //boundingBoxColour = ((boundingBoxColour + 1) & 0xff);
       //IOWR(0x42000, EEE_IMGPROC_BBCOL, (boundingBoxColour << 8) | (0xff - boundingBoxColour));

       //Process input commands
       int in = getchar();
   21ffc:	00238500 	call	23850 <getchar>
   22000:	e0bffa15 	stw	r2,-24(fp)
       switch (in) {
   22004:	e0bffa17 	ldw	r2,-24(fp)
   22008:	10bfe704 	addi	r2,r2,-100
   2200c:	10c00468 	cmpgeui	r3,r2,17
   22010:	1800651e 	bne	r3,zero,221a8 <main+0x73c>
   22014:	100690ba 	slli	r3,r2,2
   22018:	008000b4 	movhi	r2,2
   2201c:	1885883a 	add	r2,r3,r2
   22020:	10880a17 	ldw	r2,8232(r2)
   22024:	1000683a 	jmp	r2
   22028:	00022094 	movui	zero,2178
   2202c:	0002206c 	andhi	zero,zero,2177
   22030:	00022164 	muli	zero,zero,2181
   22034:	000220ec 	andhi	zero,zero,2179
   22038:	000221a8 	cmpgeui	zero,zero,2182
   2203c:	000221a8 	cmpgeui	zero,zero,2182
   22040:	000221a8 	cmpgeui	zero,zero,2182
   22044:	000221a8 	cmpgeui	zero,zero,2182
   22048:	000221a8 	cmpgeui	zero,zero,2182
   2204c:	000221a8 	cmpgeui	zero,zero,2182
   22050:	000221a8 	cmpgeui	zero,zero,2182
   22054:	000221a8 	cmpgeui	zero,zero,2182
   22058:	000221a8 	cmpgeui	zero,zero,2182
   2205c:	000221a8 	cmpgeui	zero,zero,2182
   22060:	0002211c 	xori	zero,zero,2180
   22064:	000221a8 	cmpgeui	zero,zero,2182
   22068:	000220bc 	xorhi	zero,zero,2178
       	   case 'e': {
       		   exposureTime += EXPOSURE_STEP;
   2206c:	e0bffe17 	ldw	r2,-8(fp)
   22070:	10804004 	addi	r2,r2,256
   22074:	e0bffe15 	stw	r2,-8(fp)
       		   OV8865SetExposure(exposureTime);
   22078:	e13ffe17 	ldw	r4,-8(fp)
   2207c:	00226840 	call	22684 <OV8865SetExposure>
       		   printf("\nExposure = %x ", exposureTime);
   22080:	e17ffe17 	ldw	r5,-8(fp)
   22084:	010000f4 	movhi	r4,3
   22088:	2111e904 	addi	r4,r4,18340
   2208c:	00243ec0 	call	243ec <printf>
       	   	   break;}
   22090:	00004506 	br	221a8 <main+0x73c>
       	   case 'd': {
       		   exposureTime -= EXPOSURE_STEP;
   22094:	e0bffe17 	ldw	r2,-8(fp)
   22098:	10bfc004 	addi	r2,r2,-256
   2209c:	e0bffe15 	stw	r2,-8(fp)
       		   OV8865SetExposure(exposureTime);
   220a0:	e13ffe17 	ldw	r4,-8(fp)
   220a4:	00226840 	call	22684 <OV8865SetExposure>
       		   printf("\nExposure = %x ", exposureTime);
   220a8:	e17ffe17 	ldw	r5,-8(fp)
   220ac:	010000f4 	movhi	r4,3
   220b0:	2111e904 	addi	r4,r4,18340
   220b4:	00243ec0 	call	243ec <printf>
       	   	   break;}
   220b8:	00003b06 	br	221a8 <main+0x73c>
       	   case 't': {
       		   gain += GAIN_STEP;
   220bc:	e0bffd8b 	ldhu	r2,-10(fp)
   220c0:	10801004 	addi	r2,r2,64
   220c4:	e0bffd8d 	sth	r2,-10(fp)
       		   OV8865SetGain(gain);
   220c8:	e0bffd8b 	ldhu	r2,-10(fp)
   220cc:	1009883a 	mov	r4,r2
   220d0:	00227680 	call	22768 <OV8865SetGain>
       		   printf("\nGain = %x ", gain);
   220d4:	e0bffd8b 	ldhu	r2,-10(fp)
   220d8:	100b883a 	mov	r5,r2
   220dc:	010000f4 	movhi	r4,3
   220e0:	2111ed04 	addi	r4,r4,18356
   220e4:	00243ec0 	call	243ec <printf>
       	   	   break;}
   220e8:	00002f06 	br	221a8 <main+0x73c>
       	   case 'g': {
       		   gain -= GAIN_STEP;
   220ec:	e0bffd8b 	ldhu	r2,-10(fp)
   220f0:	10bff004 	addi	r2,r2,-64
   220f4:	e0bffd8d 	sth	r2,-10(fp)
       		   OV8865SetGain(gain);
   220f8:	e0bffd8b 	ldhu	r2,-10(fp)
   220fc:	1009883a 	mov	r4,r2
   22100:	00227680 	call	22768 <OV8865SetGain>
       		   printf("\nGain = %x ", gain);
   22104:	e0bffd8b 	ldhu	r2,-10(fp)
   22108:	100b883a 	mov	r5,r2
   2210c:	010000f4 	movhi	r4,3
   22110:	2111ed04 	addi	r4,r4,18356
   22114:	00243ec0 	call	243ec <printf>
       	   	   break;}
   22118:	00002306 	br	221a8 <main+0x73c>
       	   case 'r': {
        	   current_focus += manual_focus_step;
   2211c:	e0bffd43 	ldbu	r2,-11(fp)
   22120:	e0ffff0b 	ldhu	r3,-4(fp)
   22124:	1885883a 	add	r2,r3,r2
   22128:	e0bfff0d 	sth	r2,-4(fp)
        	   if(current_focus >1023) current_focus = 1023;
   2212c:	e0bfff0b 	ldhu	r2,-4(fp)
   22130:	10810030 	cmpltui	r2,r2,1024
   22134:	1000021e 	bne	r2,zero,22140 <main+0x6d4>
   22138:	0080ffc4 	movi	r2,1023
   2213c:	e0bfff0d 	sth	r2,-4(fp)
        	   OV8865_FOCUS_Move_to(current_focus);
   22140:	e0bfff0b 	ldhu	r2,-4(fp)
   22144:	1009883a 	mov	r4,r2
   22148:	00225b40 	call	225b4 <OV8865_FOCUS_Move_to>
        	   printf("\nFocus = %x ",current_focus);
   2214c:	e0bfff0b 	ldhu	r2,-4(fp)
   22150:	100b883a 	mov	r5,r2
   22154:	010000f4 	movhi	r4,3
   22158:	2111f004 	addi	r4,r4,18368
   2215c:	00243ec0 	call	243ec <printf>
       	   	   break;}
   22160:	00001106 	br	221a8 <main+0x73c>
       	   case 'f': {
        	   if(current_focus > manual_focus_step) current_focus -= manual_focus_step;
   22164:	e0fffd43 	ldbu	r3,-11(fp)
   22168:	e0bfff0b 	ldhu	r2,-4(fp)
   2216c:	18ffffcc 	andi	r3,r3,65535
   22170:	1880042e 	bgeu	r3,r2,22184 <main+0x718>
   22174:	e0bffd43 	ldbu	r2,-11(fp)
   22178:	e0ffff0b 	ldhu	r3,-4(fp)
   2217c:	1885c83a 	sub	r2,r3,r2
   22180:	e0bfff0d 	sth	r2,-4(fp)
        	   OV8865_FOCUS_Move_to(current_focus);
   22184:	e0bfff0b 	ldhu	r2,-4(fp)
   22188:	1009883a 	mov	r4,r2
   2218c:	00225b40 	call	225b4 <OV8865_FOCUS_Move_to>
        	   printf("\nFocus = %x ",current_focus);
   22190:	e0bfff0b 	ldhu	r2,-4(fp)
   22194:	100b883a 	mov	r5,r2
   22198:	010000f4 	movhi	r4,3
   2219c:	2111f004 	addi	r4,r4,18368
   221a0:	00243ec0 	call	243ec <printf>
       	   	   break;}
   221a4:	0001883a 	nop
       }


	   //Main loop delay
	   usleep(10000);
   221a8:	0109c404 	movi	r4,10000
   221ac:	0031d640 	call	31d64 <usleep>
  while(1){
   221b0:	003e8d06 	br	21be8 <main+0x17c>

000221b4 <nSWAP16>:
	{0x0004,0x8047} // Configuration Control Register

};


alt_u16 nSWAP16(alt_u16 x){
   221b4:	defffd04 	addi	sp,sp,-12
   221b8:	df000215 	stw	fp,8(sp)
   221bc:	df000204 	addi	fp,sp,8
   221c0:	2005883a 	mov	r2,r4
   221c4:	e0bffe0d 	sth	r2,-8(fp)
	alt_u16 y;
	//y =  (((x) >> 8) & 0xff) | (((x) & 0xff) << 8);

//	y = x;
	y = (x >> 8) & 0x00ff;
   221c8:	e0bffe0b 	ldhu	r2,-8(fp)
   221cc:	1004d23a 	srli	r2,r2,8
   221d0:	e0bfff8d 	sth	r2,-2(fp)
	y |= (x << 8) & 0xff00;
   221d4:	e0bffe0b 	ldhu	r2,-8(fp)
   221d8:	1004923a 	slli	r2,r2,8
   221dc:	1007883a 	mov	r3,r2
   221e0:	e0bfff8b 	ldhu	r2,-2(fp)
   221e4:	1884b03a 	or	r2,r3,r2
   221e8:	e0bfff8d 	sth	r2,-2(fp)
	return y;
   221ec:	e0bfff8b 	ldhu	r2,-2(fp)
}
   221f0:	e037883a 	mov	sp,fp
   221f4:	df000017 	ldw	fp,0(sp)
   221f8:	dec00104 	addi	sp,sp,4
   221fc:	f800283a 	ret

00022200 <MipiBridgeRegWrite>:


void MipiBridgeRegWrite(alt_u16 Addr, alt_u16 Value){
   22200:	defffa04 	addi	sp,sp,-24
   22204:	dfc00515 	stw	ra,20(sp)
   22208:	df000415 	stw	fp,16(sp)
   2220c:	df000404 	addi	fp,sp,16
   22210:	2005883a 	mov	r2,r4
   22214:	2807883a 	mov	r3,r5
   22218:	e0bffe0d 	sth	r2,-8(fp)
   2221c:	1805883a 	mov	r2,r3
   22220:	e0bffd0d 	sth	r2,-12(fp)
	const alt_u8 device_address = MIPI_BRIDGE_I2C_ADDR;
   22224:	00800704 	movi	r2,28
   22228:	e0bfffc5 	stb	r2,-1(fp)
	OC_I2CL_Write(I2C_OPENCORES_MIPI_BASE, device_address, Addr, (alt_u8 *)&Value, sizeof(Value));
   2222c:	e0ffffc3 	ldbu	r3,-1(fp)
   22230:	e13ffe0b 	ldhu	r4,-8(fp)
   22234:	e17ffd04 	addi	r5,fp,-12
   22238:	00800084 	movi	r2,2
   2223c:	d8800015 	stw	r2,0(sp)
   22240:	280f883a 	mov	r7,r5
   22244:	200d883a 	mov	r6,r4
   22248:	180b883a 	mov	r5,r3
   2224c:	01000134 	movhi	r4,4
   22250:	21041804 	addi	r4,r4,4192
   22254:	0020ba00 	call	20ba0 <OC_I2CL_Write>
}
   22258:	0001883a 	nop
   2225c:	e037883a 	mov	sp,fp
   22260:	dfc00117 	ldw	ra,4(sp)
   22264:	df000017 	ldw	fp,0(sp)
   22268:	dec00204 	addi	sp,sp,8
   2226c:	f800283a 	ret

00022270 <MipiBridgeRegRead>:

alt_u16 MipiBridgeRegRead(alt_u16 Addr){
   22270:	defffa04 	addi	sp,sp,-24
   22274:	dfc00515 	stw	ra,20(sp)
   22278:	df000415 	stw	fp,16(sp)
   2227c:	df000404 	addi	fp,sp,16
   22280:	2005883a 	mov	r2,r4
   22284:	e0bffd0d 	sth	r2,-12(fp)
	alt_u16 Value,tValue;
	const alt_u8 device_address = MIPI_BRIDGE_I2C_ADDR;
   22288:	00800704 	movi	r2,28
   2228c:	e0bfffc5 	stb	r2,-1(fp)

	OC_I2CL_Read(I2C_OPENCORES_MIPI_BASE,device_address, Addr,(alt_u8 *)&Value,sizeof(Value));
   22290:	e0ffffc3 	ldbu	r3,-1(fp)
   22294:	e13ffd0b 	ldhu	r4,-12(fp)
   22298:	e17ffe84 	addi	r5,fp,-6
   2229c:	00800084 	movi	r2,2
   222a0:	d8800015 	stw	r2,0(sp)
   222a4:	280f883a 	mov	r7,r5
   222a8:	200d883a 	mov	r6,r4
   222ac:	180b883a 	mov	r5,r3
   222b0:	01000134 	movhi	r4,4
   222b4:	21041804 	addi	r4,r4,4192
   222b8:	0020db40 	call	20db4 <OC_I2CL_Read>

	tValue = nSWAP16(Value);
   222bc:	e0bffe8b 	ldhu	r2,-6(fp)
   222c0:	10bfffcc 	andi	r2,r2,65535
   222c4:	1009883a 	mov	r4,r2
   222c8:	00221b40 	call	221b4 <nSWAP16>
   222cc:	e0bfff0d 	sth	r2,-4(fp)

	return (tValue);
   222d0:	e0bfff0b 	ldhu	r2,-4(fp)
}
   222d4:	e037883a 	mov	sp,fp
   222d8:	dfc00117 	ldw	ra,4(sp)
   222dc:	df000017 	ldw	fp,0(sp)
   222e0:	dec00204 	addi	sp,sp,8
   222e4:	f800283a 	ret

000222e8 <MipiBridgeInit>:




void MipiBridgeInit(void){
   222e8:	defffb04 	addi	sp,sp,-20
   222ec:	dfc00415 	stw	ra,16(sp)
   222f0:	df000315 	stw	fp,12(sp)
   222f4:	df000304 	addi	fp,sp,12

	alt_u16 data;
    int i, num;

	printf("\nStart MipiBridgeInit!\n");
   222f8:	010000f4 	movhi	r4,3
   222fc:	2111f404 	addi	r4,r4,18384
   22300:	00245140 	call	24514 <puts>

	data = MipiBridgeRegRead(0x0000); // read chip and revision id;
   22304:	0009883a 	mov	r4,zero
   22308:	00222700 	call	22270 <MipiBridgeRegRead>
   2230c:	e0bffe8d 	sth	r2,-6(fp)

	printf("Chip and Revision ID is 0x%04xh(expected: 0x4401);\n",data);
   22310:	e0bffe8b 	ldhu	r2,-6(fp)
   22314:	100b883a 	mov	r5,r2
   22318:	010000f4 	movhi	r4,3
   2231c:	2111fa04 	addi	r4,r4,18408
   22320:	00243ec0 	call	243ec <printf>


    num = sizeof(MipiBridgeReg)/sizeof(MipiBridgeReg[0]);
   22324:	00800344 	movi	r2,13
   22328:	e0bffd15 	stw	r2,-12(fp)

    for(i=0;i<num;i++){
   2232c:	e03fff15 	stw	zero,-4(fp)
   22330:	00002306 	br	223c0 <MipiBridgeInit+0xd8>
   	 if (MipiBridgeReg[i].Addr == 0xFFFF)   usleep(MipiBridgeReg[i].Data*1000);
   22334:	e0bfff17 	ldw	r2,-4(fp)
   22338:	100690ba 	slli	r3,r2,2
   2233c:	008000f4 	movhi	r2,3
   22340:	1885883a 	add	r2,r3,r2
   22344:	1093c90b 	ldhu	r2,20260(r2)
   22348:	10ffffcc 	andi	r3,r2,65535
   2234c:	00bfffd4 	movui	r2,65535
   22350:	18800a1e 	bne	r3,r2,2237c <MipiBridgeInit+0x94>
   22354:	e0bfff17 	ldw	r2,-4(fp)
   22358:	100690ba 	slli	r3,r2,2
   2235c:	008000f4 	movhi	r2,3
   22360:	1885883a 	add	r2,r3,r2
   22364:	1093c98b 	ldhu	r2,20262(r2)
   22368:	10bfffcc 	andi	r2,r2,65535
   2236c:	1080fa24 	muli	r2,r2,1000
   22370:	1009883a 	mov	r4,r2
   22374:	0031d640 	call	31d64 <usleep>
   22378:	00000e06 	br	223b4 <MipiBridgeInit+0xcc>
        else MipiBridgeRegWrite(MipiBridgeReg[i].Addr,  MipiBridgeReg[i].Data);
   2237c:	e0bfff17 	ldw	r2,-4(fp)
   22380:	100690ba 	slli	r3,r2,2
   22384:	008000f4 	movhi	r2,3
   22388:	1885883a 	add	r2,r3,r2
   2238c:	1093c90b 	ldhu	r2,20260(r2)
   22390:	113fffcc 	andi	r4,r2,65535
   22394:	e0bfff17 	ldw	r2,-4(fp)
   22398:	100690ba 	slli	r3,r2,2
   2239c:	008000f4 	movhi	r2,3
   223a0:	1885883a 	add	r2,r3,r2
   223a4:	1093c98b 	ldhu	r2,20262(r2)
   223a8:	10bfffcc 	andi	r2,r2,65535
   223ac:	100b883a 	mov	r5,r2
   223b0:	00222000 	call	22200 <MipiBridgeRegWrite>
    for(i=0;i<num;i++){
   223b4:	e0bfff17 	ldw	r2,-4(fp)
   223b8:	10800044 	addi	r2,r2,1
   223bc:	e0bfff15 	stw	r2,-4(fp)
   223c0:	e0ffff17 	ldw	r3,-4(fp)
   223c4:	e0bffd17 	ldw	r2,-12(fp)
   223c8:	18bfda16 	blt	r3,r2,22334 <MipiBridgeInit+0x4c>
//     MipiBridgeRegWrite(0x005A,((cap<<6) + (HsRxRs<<4) + ClkDly_data));
//     MipiBridgeRegWrite(0x005C,((cap<<6) + (HsRxRs<<4) + ClkDly_data));
//     MipiBridgeRegWrite(0x005E,((cap<<6) + (HsRxRs<<4) + ClkDly_data));
//

    printf("End MipiBridgeInit!\n\n");
   223cc:	010000f4 	movhi	r4,3
   223d0:	21120704 	addi	r4,r4,18460
   223d4:	00245140 	call	24514 <puts>

}
   223d8:	0001883a 	nop
   223dc:	e037883a 	mov	sp,fp
   223e0:	dfc00117 	ldw	ra,4(sp)
   223e4:	df000017 	ldw	fp,0(sp)
   223e8:	dec00204 	addi	sp,sp,8
   223ec:	f800283a 	ret

000223f0 <OV8865_read_cmos_sensor_8>:
   };




alt_u8 OV8865_read_cmos_sensor_8(alt_u16 Addr){
   223f0:	defffb04 	addi	sp,sp,-20
   223f4:	dfc00415 	stw	ra,16(sp)
   223f8:	df000315 	stw	fp,12(sp)
   223fc:	df000304 	addi	fp,sp,12
   22400:	2005883a 	mov	r2,r4
   22404:	e0bffe0d 	sth	r2,-8(fp)
	const alt_u8 device_address = MIPI_I2C_ADDR;
   22408:	00801b04 	movi	r2,108
   2240c:	e0bfffc5 	stb	r2,-1(fp)
	alt_u8 Value;

	//OC_I2CL_Write(I2C_OPENCORES_CAMERA_BASE, device_address, SWAP16(Addr), (alt_u8 *)&Value, sizeof(Value));
	OC_I2CL_Read(I2C_OPENCORES_CAMERA_BASE, device_address, Addr, (alt_u8 *)&Value, sizeof(Value));
   22410:	e0ffffc3 	ldbu	r3,-1(fp)
   22414:	e13ffe0b 	ldhu	r4,-8(fp)
   22418:	e17fff84 	addi	r5,fp,-2
   2241c:	00800044 	movi	r2,1
   22420:	d8800015 	stw	r2,0(sp)
   22424:	280f883a 	mov	r7,r5
   22428:	200d883a 	mov	r6,r4
   2242c:	180b883a 	mov	r5,r3
   22430:	01000134 	movhi	r4,4
   22434:	21041004 	addi	r4,r4,4160
   22438:	0020db40 	call	20db4 <OC_I2CL_Read>

	return (Value);
   2243c:	e0bfff83 	ldbu	r2,-2(fp)
}
   22440:	e037883a 	mov	sp,fp
   22444:	dfc00117 	ldw	ra,4(sp)
   22448:	df000017 	ldw	fp,0(sp)
   2244c:	dec00204 	addi	sp,sp,8
   22450:	f800283a 	ret

00022454 <OV8865_write_cmos_sensor_8>:


void OV8865_write_cmos_sensor_8(alt_u16 Addr, alt_u8 Value){
   22454:	defffa04 	addi	sp,sp,-24
   22458:	dfc00515 	stw	ra,20(sp)
   2245c:	df000415 	stw	fp,16(sp)
   22460:	df000404 	addi	fp,sp,16
   22464:	2005883a 	mov	r2,r4
   22468:	2807883a 	mov	r3,r5
   2246c:	e0bffe0d 	sth	r2,-8(fp)
   22470:	1805883a 	mov	r2,r3
   22474:	e0bffd05 	stb	r2,-12(fp)
	const alt_u8 device_address = MIPI_I2C_ADDR;
   22478:	00801b04 	movi	r2,108
   2247c:	e0bfffc5 	stb	r2,-1(fp)
	//OC_I2CL_Write(I2C_OPENCORES_CAMERA_BASE, device_address, SWAP16(Addr), (alt_u8 *)&Value, sizeof(Value));
	OC_I2CL_Write(I2C_OPENCORES_CAMERA_BASE, device_address, Addr, (alt_u8 *)&Value, sizeof(Value));
   22480:	e0ffffc3 	ldbu	r3,-1(fp)
   22484:	e13ffe0b 	ldhu	r4,-8(fp)
   22488:	e17ffd04 	addi	r5,fp,-12
   2248c:	00800044 	movi	r2,1
   22490:	d8800015 	stw	r2,0(sp)
   22494:	280f883a 	mov	r7,r5
   22498:	200d883a 	mov	r6,r4
   2249c:	180b883a 	mov	r5,r3
   224a0:	01000134 	movhi	r4,4
   224a4:	21041004 	addi	r4,r4,4160
   224a8:	0020ba00 	call	20ba0 <OC_I2CL_Write>
}
   224ac:	0001883a 	nop
   224b0:	e037883a 	mov	sp,fp
   224b4:	dfc00117 	ldw	ra,4(sp)
   224b8:	df000017 	ldw	fp,0(sp)
   224bc:	dec00204 	addi	sp,sp,8
   224c0:	f800283a 	ret

000224c4 <OV8865_write_AF>:


void OV8865_write_AF(alt_u8 msb, alt_u8 lsb){
   224c4:	defffa04 	addi	sp,sp,-24
   224c8:	dfc00515 	stw	ra,20(sp)
   224cc:	df000415 	stw	fp,16(sp)
   224d0:	df000404 	addi	fp,sp,16
   224d4:	2005883a 	mov	r2,r4
   224d8:	2807883a 	mov	r3,r5
   224dc:	e0bffe05 	stb	r2,-8(fp)
   224e0:	1805883a 	mov	r2,r3
   224e4:	e0bffd05 	stb	r2,-12(fp)
	// VCM149C
	const alt_u8 device_address = MIPI_AF_I2C_ADDR;
   224e8:	00800604 	movi	r2,24
   224ec:	e0bfffc5 	stb	r2,-1(fp)
	OC_I2C_Write(I2C_OPENCORES_CAMERA_BASE, device_address, msb, (alt_u8 *)&lsb, sizeof(lsb));
   224f0:	e0ffffc3 	ldbu	r3,-1(fp)
   224f4:	e13ffe03 	ldbu	r4,-8(fp)
   224f8:	e17ffd04 	addi	r5,fp,-12
   224fc:	00800044 	movi	r2,1
   22500:	d8800015 	stw	r2,0(sp)
   22504:	280f883a 	mov	r7,r5
   22508:	200d883a 	mov	r6,r4
   2250c:	180b883a 	mov	r5,r3
   22510:	01000134 	movhi	r4,4
   22514:	21041004 	addi	r4,r4,4160
   22518:	00206300 	call	20630 <OC_I2C_Write>
}
   2251c:	0001883a 	nop
   22520:	e037883a 	mov	sp,fp
   22524:	dfc00117 	ldw	ra,4(sp)
   22528:	df000017 	ldw	fp,0(sp)
   2252c:	dec00204 	addi	sp,sp,8
   22530:	f800283a 	ret

00022534 <OV8865_read_AF>:

void OV8865_read_AF(void){
   22534:	defffb04 	addi	sp,sp,-20
   22538:	dfc00415 	stw	ra,16(sp)
   2253c:	df000315 	stw	fp,12(sp)
   22540:	df000304 	addi	fp,sp,12
	// VCM149C
	const alt_u8 device_address = MIPI_AF_I2C_ADDR;
   22544:	00800604 	movi	r2,24
   22548:	e0bfffc5 	stb	r2,-1(fp)
	alt_u8 szData8[2];
	bool bSuccess;

		bSuccess = OC_I2C_Read_Continue(I2C_OPENCORES_CAMERA_BASE, device_address, szData8, sizeof(szData8));
   2254c:	e0bfffc3 	ldbu	r2,-1(fp)
   22550:	e0fffd84 	addi	r3,fp,-10
   22554:	01c00084 	movi	r7,2
   22558:	180d883a 	mov	r6,r3
   2255c:	100b883a 	mov	r5,r2
   22560:	01000134 	movhi	r4,4
   22564:	21041004 	addi	r4,r4,4160
   22568:	0020a680 	call	20a68 <OC_I2C_Read_Continue>
   2256c:	e0bffe15 	stw	r2,-8(fp)
		if (bSuccess)
   22570:	e0bffe17 	ldw	r2,-8(fp)
   22574:	10000926 	beq	r2,zero,2259c <OV8865_read_AF+0x68>
			printf("Read MSB=%xh, LSB=%xh\r\n", szData8[0], szData8[1]);
   22578:	e0bffd83 	ldbu	r2,-10(fp)
   2257c:	10803fcc 	andi	r2,r2,255
   22580:	e0fffdc3 	ldbu	r3,-9(fp)
   22584:	18c03fcc 	andi	r3,r3,255
   22588:	180d883a 	mov	r6,r3
   2258c:	100b883a 	mov	r5,r2
   22590:	010000f4 	movhi	r4,3
   22594:	21120d04 	addi	r4,r4,18484
   22598:	00243ec0 	call	243ec <printf>
}
   2259c:	0001883a 	nop
   225a0:	e037883a 	mov	sp,fp
   225a4:	dfc00117 	ldw	ra,4(sp)
   225a8:	df000017 	ldw	fp,0(sp)
   225ac:	dec00204 	addi	sp,sp,8
   225b0:	f800283a 	ret

000225b4 <OV8865_FOCUS_Move_to>:

void OV8865_FOCUS_Move_to(alt_u16 a_u2MovePosition)
{
   225b4:	defffb04 	addi	sp,sp,-20
   225b8:	dfc00415 	stw	ra,16(sp)
   225bc:	df000315 	stw	fp,12(sp)
   225c0:	df000304 	addi	fp,sp,12
   225c4:	2005883a 	mov	r2,r4
   225c8:	e0bffd0d 	sth	r2,-12(fp)
  if (a_u2MovePosition > 1023)   {a_u2MovePosition = 1023;}
   225cc:	e0bffd0b 	ldhu	r2,-12(fp)
   225d0:	10810030 	cmpltui	r2,r2,1024
   225d4:	1000021e 	bne	r2,zero,225e0 <OV8865_FOCUS_Move_to+0x2c>
   225d8:	0080ffc4 	movi	r2,1023
   225dc:	e0bffd0d 	sth	r2,-12(fp)
  if (a_u2MovePosition < 0)     {a_u2MovePosition = 0;}
  int bSuccess;

  Focus_Released(); // waiting for VCM release I2C bus
   225e0:	00213040 	call	21304 <Focus_Released>

	bSuccess = oc_i2c_init_ex(I2C_OPENCORES_CAMERA_BASE, 50*1000*1000,400*1000); //I2C: 400K
   225e4:	018001b4 	movhi	r6,6
   225e8:	3186a004 	addi	r6,r6,6784
   225ec:	0140bef4 	movhi	r5,763
   225f0:	297c2004 	addi	r5,r5,-3968
   225f4:	01000134 	movhi	r4,4
   225f8:	21041004 	addi	r4,r4,4160
   225fc:	00203840 	call	20384 <oc_i2c_init_ex>
   22600:	e0bfff15 	stw	r2,-4(fp)
	if (!bSuccess)
   22604:	e0bfff17 	ldw	r2,-4(fp)
   22608:	1000031e 	bne	r2,zero,22618 <OV8865_FOCUS_Move_to+0x64>
		printf("failed to init MIPI- Camera i2c\r\n");
   2260c:	010000f4 	movhi	r4,3
   22610:	21121304 	addi	r4,r4,18508
   22614:	00245140 	call	24514 <puts>

	//printf("Manual set focus to %d\r\n",a_u2MovePosition);
  alt_u8 msb,lsb;
  msb = (a_u2MovePosition >> 4)&0x00FF;
   22618:	e0bffd0b 	ldhu	r2,-12(fp)
   2261c:	1004d13a 	srli	r2,r2,4
   22620:	e0bffec5 	stb	r2,-5(fp)
  lsb = (a_u2MovePosition << 4 )&0x00F0;
   22624:	e0bffd0b 	ldhu	r2,-12(fp)
   22628:	1004913a 	slli	r2,r2,4
   2262c:	e0bffe85 	stb	r2,-6(fp)
  lsb += 0x06;
   22630:	e0bffe83 	ldbu	r2,-6(fp)
   22634:	10800184 	addi	r2,r2,6
   22638:	e0bffe85 	stb	r2,-6(fp)
//	printf("Write MSB=%xh, LSB=%xh\r\n", msb, lsb);
	OV8865_write_AF(msb, lsb+0x6);
   2263c:	e0fffec3 	ldbu	r3,-5(fp)
   22640:	e0bffe83 	ldbu	r2,-6(fp)
   22644:	10800184 	addi	r2,r2,6
   22648:	10803fcc 	andi	r2,r2,255
   2264c:	100b883a 	mov	r5,r2
   22650:	1809883a 	mov	r4,r3
   22654:	00224c40 	call	224c4 <OV8865_write_AF>
	usleep(1000);
   22658:	0100fa04 	movi	r4,1000
   2265c:	0031d640 	call	31d64 <usleep>
//	OV8865_read_AF();

	oc_i2c_uninit(I2C_OPENCORES_CAMERA_BASE);  // Release I2C bus , due to two I2C master shared!
   22660:	01000134 	movhi	r4,4
   22664:	21041004 	addi	r4,r4,4160
   22668:	00204c00 	call	204c0 <oc_i2c_uninit>

}
   2266c:	0001883a 	nop
   22670:	e037883a 	mov	sp,fp
   22674:	dfc00117 	ldw	ra,4(sp)
   22678:	df000017 	ldw	fp,0(sp)
   2267c:	dec00204 	addi	sp,sp,8
   22680:	f800283a 	ret

00022684 <OV8865SetExposure>:

void OV8865SetExposure(alt_u32 exposure){
   22684:	defffc04 	addi	sp,sp,-16
   22688:	dfc00315 	stw	ra,12(sp)
   2268c:	df000215 	stw	fp,8(sp)
   22690:	df000204 	addi	fp,sp,8
   22694:	e13ffe15 	stw	r4,-8(fp)

	Focus_Released(); // waiting for VCM release I2C bus
   22698:	00213040 	call	21304 <Focus_Released>

	int bSuccess = oc_i2c_init_ex(I2C_OPENCORES_CAMERA_BASE, 50*1000*1000,400*1000); //I2C: 400K
   2269c:	018001b4 	movhi	r6,6
   226a0:	3186a004 	addi	r6,r6,6784
   226a4:	0140bef4 	movhi	r5,763
   226a8:	297c2004 	addi	r5,r5,-3968
   226ac:	01000134 	movhi	r4,4
   226b0:	21041004 	addi	r4,r4,4160
   226b4:	00203840 	call	20384 <oc_i2c_init_ex>
   226b8:	e0bfff15 	stw	r2,-4(fp)
	if (!bSuccess)
   226bc:	e0bfff17 	ldw	r2,-4(fp)
   226c0:	1000031e 	bne	r2,zero,226d0 <OV8865SetExposure+0x4c>
		printf("failed to init MIPI- Camera i2c\r\n");
   226c4:	010000f4 	movhi	r4,3
   226c8:	21121304 	addi	r4,r4,18508
   226cc:	00245140 	call	24514 <puts>

	if (exposure > 0xFFFFF) exposure = 0xFFFFF;
   226d0:	e0fffe17 	ldw	r3,-8(fp)
   226d4:	00800434 	movhi	r2,16
   226d8:	18800336 	bltu	r3,r2,226e8 <OV8865SetExposure+0x64>
   226dc:	00800434 	movhi	r2,16
   226e0:	10bfffc4 	addi	r2,r2,-1
   226e4:	e0bffe15 	stw	r2,-8(fp)
	if (exposure < 0x20) exposure = 0x20;
   226e8:	e0bffe17 	ldw	r2,-8(fp)
   226ec:	10800828 	cmpgeui	r2,r2,32
   226f0:	1000021e 	bne	r2,zero,226fc <OV8865SetExposure+0x78>
   226f4:	00800804 	movi	r2,32
   226f8:	e0bffe15 	stw	r2,-8(fp)

	OV8865_write_cmos_sensor_8(0x3500, (exposure >> 16) & 0x0F);
   226fc:	e0bffe17 	ldw	r2,-8(fp)
   22700:	1004d43a 	srli	r2,r2,16
   22704:	10803fcc 	andi	r2,r2,255
   22708:	108003cc 	andi	r2,r2,15
   2270c:	100b883a 	mov	r5,r2
   22710:	010d4004 	movi	r4,13568
   22714:	00224540 	call	22454 <OV8865_write_cmos_sensor_8>
	OV8865_write_cmos_sensor_8(0x3501, (exposure >> 8) & 0xFF);
   22718:	e0bffe17 	ldw	r2,-8(fp)
   2271c:	1004d23a 	srli	r2,r2,8
   22720:	10803fcc 	andi	r2,r2,255
   22724:	100b883a 	mov	r5,r2
   22728:	010d4044 	movi	r4,13569
   2272c:	00224540 	call	22454 <OV8865_write_cmos_sensor_8>
	OV8865_write_cmos_sensor_8(0x3502, exposure & 0xFF);
   22730:	e0bffe17 	ldw	r2,-8(fp)
   22734:	10803fcc 	andi	r2,r2,255
   22738:	100b883a 	mov	r5,r2
   2273c:	010d4084 	movi	r4,13570
   22740:	00224540 	call	22454 <OV8865_write_cmos_sensor_8>


	oc_i2c_uninit(I2C_OPENCORES_CAMERA_BASE);
   22744:	01000134 	movhi	r4,4
   22748:	21041004 	addi	r4,r4,4160
   2274c:	00204c00 	call	204c0 <oc_i2c_uninit>
}
   22750:	0001883a 	nop
   22754:	e037883a 	mov	sp,fp
   22758:	dfc00117 	ldw	ra,4(sp)
   2275c:	df000017 	ldw	fp,0(sp)
   22760:	dec00204 	addi	sp,sp,8
   22764:	f800283a 	ret

00022768 <OV8865SetGain>:

void OV8865SetGain(alt_u16 gain){
   22768:	defffc04 	addi	sp,sp,-16
   2276c:	dfc00315 	stw	ra,12(sp)
   22770:	df000215 	stw	fp,8(sp)
   22774:	df000204 	addi	fp,sp,8
   22778:	2005883a 	mov	r2,r4
   2277c:	e0bffe0d 	sth	r2,-8(fp)

	Focus_Released(); // waiting for VCM release I2C bus
   22780:	00213040 	call	21304 <Focus_Released>

	int bSuccess = oc_i2c_init_ex(I2C_OPENCORES_CAMERA_BASE, 50*1000*1000,400*1000); //I2C: 400K
   22784:	018001b4 	movhi	r6,6
   22788:	3186a004 	addi	r6,r6,6784
   2278c:	0140bef4 	movhi	r5,763
   22790:	297c2004 	addi	r5,r5,-3968
   22794:	01000134 	movhi	r4,4
   22798:	21041004 	addi	r4,r4,4160
   2279c:	00203840 	call	20384 <oc_i2c_init_ex>
   227a0:	e0bfff15 	stw	r2,-4(fp)
	if (!bSuccess)
   227a4:	e0bfff17 	ldw	r2,-4(fp)
   227a8:	1000031e 	bne	r2,zero,227b8 <OV8865SetGain+0x50>
		printf("failed to init MIPI- Camera i2c\r\n");
   227ac:	010000f4 	movhi	r4,3
   227b0:	21121304 	addi	r4,r4,18508
   227b4:	00245140 	call	24514 <puts>

	if (gain > 0x7FF) gain = 0x7FF;
   227b8:	e0bffe0b 	ldhu	r2,-8(fp)
   227bc:	10820030 	cmpltui	r2,r2,2048
   227c0:	1000021e 	bne	r2,zero,227cc <OV8865SetGain+0x64>
   227c4:	0081ffc4 	movi	r2,2047
   227c8:	e0bffe0d 	sth	r2,-8(fp)
	if (gain < 0x080) gain = 0x080;
   227cc:	e0bffe0b 	ldhu	r2,-8(fp)
   227d0:	10802028 	cmpgeui	r2,r2,128
   227d4:	1000021e 	bne	r2,zero,227e0 <OV8865SetGain+0x78>
   227d8:	00802004 	movi	r2,128
   227dc:	e0bffe0d 	sth	r2,-8(fp)

	OV8865_write_cmos_sensor_8(0x3508, (gain >> 8) & 0x0F);
   227e0:	e0bffe0b 	ldhu	r2,-8(fp)
   227e4:	1004d23a 	srli	r2,r2,8
   227e8:	10803fcc 	andi	r2,r2,255
   227ec:	108003cc 	andi	r2,r2,15
   227f0:	100b883a 	mov	r5,r2
   227f4:	010d4204 	movi	r4,13576
   227f8:	00224540 	call	22454 <OV8865_write_cmos_sensor_8>
	OV8865_write_cmos_sensor_8(0x3509, gain & 0xFF);
   227fc:	e0bffe0b 	ldhu	r2,-8(fp)
   22800:	10803fcc 	andi	r2,r2,255
   22804:	100b883a 	mov	r5,r2
   22808:	010d4244 	movi	r4,13577
   2280c:	00224540 	call	22454 <OV8865_write_cmos_sensor_8>


	oc_i2c_uninit(I2C_OPENCORES_CAMERA_BASE);
   22810:	01000134 	movhi	r4,4
   22814:	21041004 	addi	r4,r4,4160
   22818:	00204c00 	call	204c0 <oc_i2c_uninit>
}
   2281c:	0001883a 	nop
   22820:	e037883a 	mov	sp,fp
   22824:	dfc00117 	ldw	ra,4(sp)
   22828:	df000017 	ldw	fp,0(sp)
   2282c:	dec00204 	addi	sp,sp,8
   22830:	f800283a 	ret

00022834 <OV8865ReadExposure>:

alt_u32 OV8865ReadExposure(){
   22834:	defffb04 	addi	sp,sp,-20
   22838:	dfc00415 	stw	ra,16(sp)
   2283c:	df000315 	stw	fp,12(sp)
   22840:	dc000215 	stw	r16,8(sp)
   22844:	df000304 	addi	fp,sp,12

	alt_u32 exposure;

	Focus_Released(); // waiting for VCM release I2C bus
   22848:	00213040 	call	21304 <Focus_Released>

	int bSuccess = oc_i2c_init_ex(I2C_OPENCORES_CAMERA_BASE, 50*1000*1000,400*1000); //I2C: 400K
   2284c:	018001b4 	movhi	r6,6
   22850:	3186a004 	addi	r6,r6,6784
   22854:	0140bef4 	movhi	r5,763
   22858:	297c2004 	addi	r5,r5,-3968
   2285c:	01000134 	movhi	r4,4
   22860:	21041004 	addi	r4,r4,4160
   22864:	00203840 	call	20384 <oc_i2c_init_ex>
   22868:	e0bffe15 	stw	r2,-8(fp)
	if (!bSuccess)
   2286c:	e0bffe17 	ldw	r2,-8(fp)
   22870:	1000031e 	bne	r2,zero,22880 <OV8865ReadExposure+0x4c>
		printf("failed to init MIPI- Camera i2c\r\n");
   22874:	010000f4 	movhi	r4,3
   22878:	21121304 	addi	r4,r4,18508
   2287c:	00245140 	call	24514 <puts>

	exposure = OV8865_read_cmos_sensor_8(0x3500);
   22880:	010d4004 	movi	r4,13568
   22884:	00223f00 	call	223f0 <OV8865_read_cmos_sensor_8>
   22888:	10803fcc 	andi	r2,r2,255
   2288c:	e0bffd15 	stw	r2,-12(fp)
	exposure = (exposure <<8) | OV8865_read_cmos_sensor_8(0x3501);
   22890:	e0bffd17 	ldw	r2,-12(fp)
   22894:	1020923a 	slli	r16,r2,8
   22898:	010d4044 	movi	r4,13569
   2289c:	00223f00 	call	223f0 <OV8865_read_cmos_sensor_8>
   228a0:	10803fcc 	andi	r2,r2,255
   228a4:	8084b03a 	or	r2,r16,r2
   228a8:	e0bffd15 	stw	r2,-12(fp)
	exposure = (exposure <<8) | OV8865_read_cmos_sensor_8(0x3502);
   228ac:	e0bffd17 	ldw	r2,-12(fp)
   228b0:	1020923a 	slli	r16,r2,8
   228b4:	010d4084 	movi	r4,13570
   228b8:	00223f00 	call	223f0 <OV8865_read_cmos_sensor_8>
   228bc:	10803fcc 	andi	r2,r2,255
   228c0:	8084b03a 	or	r2,r16,r2
   228c4:	e0bffd15 	stw	r2,-12(fp)

	oc_i2c_uninit(I2C_OPENCORES_CAMERA_BASE);
   228c8:	01000134 	movhi	r4,4
   228cc:	21041004 	addi	r4,r4,4160
   228d0:	00204c00 	call	204c0 <oc_i2c_uninit>

	return exposure;
   228d4:	e0bffd17 	ldw	r2,-12(fp)
}
   228d8:	e6ffff04 	addi	sp,fp,-4
   228dc:	dfc00217 	ldw	ra,8(sp)
   228e0:	df000117 	ldw	fp,4(sp)
   228e4:	dc000017 	ldw	r16,0(sp)
   228e8:	dec00304 	addi	sp,sp,12
   228ec:	f800283a 	ret

000228f0 <MIPI_BIN_LEVEL>:




//ZOOM
void MIPI_BIN_LEVEL(alt_u8 level){
   228f0:	defffc04 	addi	sp,sp,-16
   228f4:	dfc00315 	stw	ra,12(sp)
   228f8:	df000215 	stw	fp,8(sp)
   228fc:	df000204 	addi	fp,sp,8
   22900:	2005883a 	mov	r2,r4
   22904:	e0bffe05 	stb	r2,-8(fp)
	if(level <= 1) level = 1;
   22908:	e0bffe03 	ldbu	r2,-8(fp)
   2290c:	108000a8 	cmpgeui	r2,r2,2
   22910:	1000021e 	bne	r2,zero,2291c <MIPI_BIN_LEVEL+0x2c>
   22914:	00800044 	movi	r2,1
   22918:	e0bffe05 	stb	r2,-8(fp)
	if(level >= 3) level = 3;
   2291c:	e0bffe03 	ldbu	r2,-8(fp)
   22920:	108000f0 	cmpltui	r2,r2,3
   22924:	1000021e 	bne	r2,zero,22930 <MIPI_BIN_LEVEL+0x40>
   22928:	008000c4 	movi	r2,3
   2292c:	e0bffe05 	stb	r2,-8(fp)

	  Focus_Released(); // waiting for VCM release I2C bus
   22930:	00213040 	call	21304 <Focus_Released>

	  int bSuccess;
		bSuccess = oc_i2c_init_ex(I2C_OPENCORES_CAMERA_BASE, 50*1000*1000,400*1000); //I2C: 400K
   22934:	018001b4 	movhi	r6,6
   22938:	3186a004 	addi	r6,r6,6784
   2293c:	0140bef4 	movhi	r5,763
   22940:	297c2004 	addi	r5,r5,-3968
   22944:	01000134 	movhi	r4,4
   22948:	21041004 	addi	r4,r4,4160
   2294c:	00203840 	call	20384 <oc_i2c_init_ex>
   22950:	e0bfff15 	stw	r2,-4(fp)
		if (!bSuccess)
   22954:	e0bfff17 	ldw	r2,-4(fp)
   22958:	1000031e 	bne	r2,zero,22968 <MIPI_BIN_LEVEL+0x78>
			printf("failed to init MIPI- Camera i2c\r\n");
   2295c:	010000f4 	movhi	r4,3
   22960:	21121304 	addi	r4,r4,18508
   22964:	00245140 	call	24514 <puts>


	OV8865_write_cmos_sensor_8(0x0100, 0x00);
   22968:	000b883a 	mov	r5,zero
   2296c:	01004004 	movi	r4,256
   22970:	00224540 	call	22454 <OV8865_write_cmos_sensor_8>

	if(level == 1){
   22974:	e0bffe03 	ldbu	r2,-8(fp)
   22978:	10800058 	cmpnei	r2,r2,1
   2297c:	1000131e 	bne	r2,zero,229cc <MIPI_BIN_LEVEL+0xdc>

		OV8865_write_cmos_sensor_8(0x3814, 0x01);
   22980:	01400044 	movi	r5,1
   22984:	010e0504 	movi	r4,14356
   22988:	00224540 	call	22454 <OV8865_write_cmos_sensor_8>
		OV8865_write_cmos_sensor_8(0x3815, 0x01);
   2298c:	01400044 	movi	r5,1
   22990:	010e0544 	movi	r4,14357
   22994:	00224540 	call	22454 <OV8865_write_cmos_sensor_8>
		OV8865_write_cmos_sensor_8(0x382a, 0x01);
   22998:	01400044 	movi	r5,1
   2299c:	010e0a84 	movi	r4,14378
   229a0:	00224540 	call	22454 <OV8865_write_cmos_sensor_8>
		OV8865_write_cmos_sensor_8(0x382b, 0x01);
   229a4:	01400044 	movi	r5,1
   229a8:	010e0ac4 	movi	r4,14379
   229ac:	00224540 	call	22454 <OV8865_write_cmos_sensor_8>

		OV8865_write_cmos_sensor_8(0x3830, 8);
   229b0:	01400204 	movi	r5,8
   229b4:	010e0c04 	movi	r4,14384
   229b8:	00224540 	call	22454 <OV8865_write_cmos_sensor_8>
		OV8865_write_cmos_sensor_8(0x3836, 2);
   229bc:	01400084 	movi	r5,2
   229c0:	010e0d84 	movi	r4,14390
   229c4:	00224540 	call	22454 <OV8865_write_cmos_sensor_8>
   229c8:	00002b06 	br	22a78 <MIPI_BIN_LEVEL+0x188>
	}
	else if(level == 2){
   229cc:	e0bffe03 	ldbu	r2,-8(fp)
   229d0:	10800098 	cmpnei	r2,r2,2
   229d4:	1000131e 	bne	r2,zero,22a24 <MIPI_BIN_LEVEL+0x134>

		OV8865_write_cmos_sensor_8(0x3814, 0x03);
   229d8:	014000c4 	movi	r5,3
   229dc:	010e0504 	movi	r4,14356
   229e0:	00224540 	call	22454 <OV8865_write_cmos_sensor_8>
		OV8865_write_cmos_sensor_8(0x3815, 0x01);
   229e4:	01400044 	movi	r5,1
   229e8:	010e0544 	movi	r4,14357
   229ec:	00224540 	call	22454 <OV8865_write_cmos_sensor_8>
		OV8865_write_cmos_sensor_8(0x382a, 0x03);
   229f0:	014000c4 	movi	r5,3
   229f4:	010e0a84 	movi	r4,14378
   229f8:	00224540 	call	22454 <OV8865_write_cmos_sensor_8>
		OV8865_write_cmos_sensor_8(0x382b, 0x01);
   229fc:	01400044 	movi	r5,1
   22a00:	010e0ac4 	movi	r4,14379
   22a04:	00224540 	call	22454 <OV8865_write_cmos_sensor_8>

		OV8865_write_cmos_sensor_8(0x3830, 4);
   22a08:	01400104 	movi	r5,4
   22a0c:	010e0c04 	movi	r4,14384
   22a10:	00224540 	call	22454 <OV8865_write_cmos_sensor_8>
		OV8865_write_cmos_sensor_8(0x3836, 1);
   22a14:	01400044 	movi	r5,1
   22a18:	010e0d84 	movi	r4,14390
   22a1c:	00224540 	call	22454 <OV8865_write_cmos_sensor_8>
   22a20:	00001506 	br	22a78 <MIPI_BIN_LEVEL+0x188>

	}
	else if(level == 3){
   22a24:	e0bffe03 	ldbu	r2,-8(fp)
   22a28:	108000d8 	cmpnei	r2,r2,3
   22a2c:	1000121e 	bne	r2,zero,22a78 <MIPI_BIN_LEVEL+0x188>

		OV8865_write_cmos_sensor_8(0x3814, 0x07);
   22a30:	014001c4 	movi	r5,7
   22a34:	010e0504 	movi	r4,14356
   22a38:	00224540 	call	22454 <OV8865_write_cmos_sensor_8>
		OV8865_write_cmos_sensor_8(0x3815, 0x01);
   22a3c:	01400044 	movi	r5,1
   22a40:	010e0544 	movi	r4,14357
   22a44:	00224540 	call	22454 <OV8865_write_cmos_sensor_8>
		OV8865_write_cmos_sensor_8(0x382a, 0x07);
   22a48:	014001c4 	movi	r5,7
   22a4c:	010e0a84 	movi	r4,14378
   22a50:	00224540 	call	22454 <OV8865_write_cmos_sensor_8>
		OV8865_write_cmos_sensor_8(0x382b, 0x01);
   22a54:	01400044 	movi	r5,1
   22a58:	010e0ac4 	movi	r4,14379
   22a5c:	00224540 	call	22454 <OV8865_write_cmos_sensor_8>

		OV8865_write_cmos_sensor_8(0x3830, 8);
   22a60:	01400204 	movi	r5,8
   22a64:	010e0c04 	movi	r4,14384
   22a68:	00224540 	call	22454 <OV8865_write_cmos_sensor_8>
		OV8865_write_cmos_sensor_8(0x3836, 2);
   22a6c:	01400084 	movi	r5,2
   22a70:	010e0d84 	movi	r4,14390
   22a74:	00224540 	call	22454 <OV8865_write_cmos_sensor_8>
	}
    usleep(10000);
   22a78:	0109c404 	movi	r4,10000
   22a7c:	0031d640 	call	31d64 <usleep>
	OV8865_write_cmos_sensor_8(0x0100, 0x01);
   22a80:	01400044 	movi	r5,1
   22a84:	01004004 	movi	r4,256
   22a88:	00224540 	call	22454 <OV8865_write_cmos_sensor_8>

	oc_i2c_uninit(I2C_OPENCORES_CAMERA_BASE);  // Release I2C bus , due to two I2C master shared!
   22a8c:	01000134 	movhi	r4,4
   22a90:	21041004 	addi	r4,r4,4160
   22a94:	00204c00 	call	204c0 <oc_i2c_uninit>

}
   22a98:	0001883a 	nop
   22a9c:	e037883a 	mov	sp,fp
   22aa0:	dfc00117 	ldw	ra,4(sp)
   22aa4:	df000017 	ldw	fp,0(sp)
   22aa8:	dec00204 	addi	sp,sp,8
   22aac:	f800283a 	ret

00022ab0 <MipiCameraInit>:
//		OV8865_write_cmos_sensor_8(0x0100, 0x01);
//}


void MipiCameraInit(void)
{
   22ab0:	defffb04 	addi	sp,sp,-20
   22ab4:	dfc00415 	stw	ra,16(sp)
   22ab8:	df000315 	stw	fp,12(sp)
   22abc:	df000304 	addi	fp,sp,12

    int i, num;
    int bSuccess;

    Focus_Released(); // waiting for VCM release I2C bus
   22ac0:	00213040 	call	21304 <Focus_Released>


		bSuccess = oc_i2c_init_ex(I2C_OPENCORES_CAMERA_BASE, 50*1000*1000,400*1000); //I2C: 400K
   22ac4:	018001b4 	movhi	r6,6
   22ac8:	3186a004 	addi	r6,r6,6784
   22acc:	0140bef4 	movhi	r5,763
   22ad0:	297c2004 	addi	r5,r5,-3968
   22ad4:	01000134 	movhi	r4,4
   22ad8:	21041004 	addi	r4,r4,4160
   22adc:	00203840 	call	20384 <oc_i2c_init_ex>
   22ae0:	e0bffe15 	stw	r2,-8(fp)
		if (!bSuccess)
   22ae4:	e0bffe17 	ldw	r2,-8(fp)
   22ae8:	1000031e 	bne	r2,zero,22af8 <MipiCameraInit+0x48>
			printf("failed to init MIPI- Camera i2c\r\n");
   22aec:	010000f4 	movhi	r4,3
   22af0:	21121304 	addi	r4,r4,18508
   22af4:	00245140 	call	24514 <puts>
//        usleep(10000);
//    }
//


	 OV8865DB("\nStart MipiCameraInit -OV8865!\r\n");
   22af8:	010000f4 	movhi	r4,3
   22afc:	21121c04 	addi	r4,r4,18544
   22b00:	00245140 	call	24514 <puts>
	 OV8865DB("Write Read Test!\n");
   22b04:	010000f4 	movhi	r4,3
   22b08:	21122404 	addi	r4,r4,18576
   22b0c:	00245140 	call	24514 <puts>

	    for(i=0;i<10;i++){
   22b10:	e03fff15 	stw	zero,-4(fp)
   22b14:	00001406 	br	22b68 <MipiCameraInit+0xb8>
	       OV8865_write_cmos_sensor_8(0x3809,i);
   22b18:	e0bfff17 	ldw	r2,-4(fp)
   22b1c:	10803fcc 	andi	r2,r2,255
   22b20:	100b883a 	mov	r5,r2
   22b24:	010e0244 	movi	r4,14345
   22b28:	00224540 	call	22454 <OV8865_write_cmos_sensor_8>
	      usleep(100);
   22b2c:	01001904 	movi	r4,100
   22b30:	0031d640 	call	31d64 <usleep>
	        printf("%d (%d)\n",OV8865_read_cmos_sensor_8(0x3809),i);
   22b34:	010e0244 	movi	r4,14345
   22b38:	00223f00 	call	223f0 <OV8865_read_cmos_sensor_8>
   22b3c:	10803fcc 	andi	r2,r2,255
   22b40:	e1bfff17 	ldw	r6,-4(fp)
   22b44:	100b883a 	mov	r5,r2
   22b48:	010000f4 	movhi	r4,3
   22b4c:	21122904 	addi	r4,r4,18596
   22b50:	00243ec0 	call	243ec <printf>
	      usleep(100);
   22b54:	01001904 	movi	r4,100
   22b58:	0031d640 	call	31d64 <usleep>
	    for(i=0;i<10;i++){
   22b5c:	e0bfff17 	ldw	r2,-4(fp)
   22b60:	10800044 	addi	r2,r2,1
   22b64:	e0bfff15 	stw	r2,-4(fp)
   22b68:	e0bfff17 	ldw	r2,-4(fp)
   22b6c:	10800290 	cmplti	r2,r2,10
   22b70:	103fe91e 	bne	r2,zero,22b18 <MipiCameraInit+0x68>
	    }
	 num = sizeof(MipiCameraReg)/sizeof(MipiCameraReg[0]);
   22b74:	00804f84 	movi	r2,318
   22b78:	e0bffd15 	stw	r2,-12(fp)
     for(i=0;i<num;i++){
   22b7c:	e03fff15 	stw	zero,-4(fp)
   22b80:	00003306 	br	22c50 <MipiCameraInit+0x1a0>

    	 if (MipiCameraReg[i].Type == TIME_DELAY)   usleep(MipiCameraReg[i].Data*100);
   22b84:	e0bfff17 	ldw	r2,-4(fp)
   22b88:	10c001a4 	muli	r3,r2,6
   22b8c:	008000f4 	movhi	r2,3
   22b90:	1885883a 	add	r2,r3,r2
   22b94:	1093d603 	ldbu	r2,20312(r2)
   22b98:	10803fcc 	andi	r2,r2,255
   22b9c:	108000d8 	cmpnei	r2,r2,3
   22ba0:	10000a1e 	bne	r2,zero,22bcc <MipiCameraInit+0x11c>
   22ba4:	e0bfff17 	ldw	r2,-4(fp)
   22ba8:	10c001a4 	muli	r3,r2,6
   22bac:	008000f4 	movhi	r2,3
   22bb0:	1885883a 	add	r2,r3,r2
   22bb4:	1093d703 	ldbu	r2,20316(r2)
   22bb8:	10803fcc 	andi	r2,r2,255
   22bbc:	10801924 	muli	r2,r2,100
   22bc0:	1009883a 	mov	r4,r2
   22bc4:	0031d640 	call	31d64 <usleep>
   22bc8:	00001e06 	br	22c44 <MipiCameraInit+0x194>
    	 else if(MipiCameraReg[i].Type == END_OF_SCRIPT)   break;
   22bcc:	e0bfff17 	ldw	r2,-4(fp)
   22bd0:	10c001a4 	muli	r3,r2,6
   22bd4:	008000f4 	movhi	r2,3
   22bd8:	1885883a 	add	r2,r3,r2
   22bdc:	1093d603 	ldbu	r2,20312(r2)
   22be0:	10803fcc 	andi	r2,r2,255
   22be4:	10800118 	cmpnei	r2,r2,4
   22be8:	10001d26 	beq	r2,zero,22c60 <MipiCameraInit+0x1b0>
    	 else if(MipiCameraReg[i].Type == 0x6c)   OV8865_write_cmos_sensor_8(MipiCameraReg[i].Addr, MipiCameraReg[i].Data);
   22bec:	e0bfff17 	ldw	r2,-4(fp)
   22bf0:	10c001a4 	muli	r3,r2,6
   22bf4:	008000f4 	movhi	r2,3
   22bf8:	1885883a 	add	r2,r3,r2
   22bfc:	1093d603 	ldbu	r2,20312(r2)
   22c00:	10803fcc 	andi	r2,r2,255
   22c04:	10801b18 	cmpnei	r2,r2,108
   22c08:	10000e1e 	bne	r2,zero,22c44 <MipiCameraInit+0x194>
   22c0c:	e0bfff17 	ldw	r2,-4(fp)
   22c10:	10c001a4 	muli	r3,r2,6
   22c14:	008000f4 	movhi	r2,3
   22c18:	1885883a 	add	r2,r3,r2
   22c1c:	1093d68b 	ldhu	r2,20314(r2)
   22c20:	113fffcc 	andi	r4,r2,65535
   22c24:	e0bfff17 	ldw	r2,-4(fp)
   22c28:	10c001a4 	muli	r3,r2,6
   22c2c:	008000f4 	movhi	r2,3
   22c30:	1885883a 	add	r2,r3,r2
   22c34:	1093d703 	ldbu	r2,20316(r2)
   22c38:	10803fcc 	andi	r2,r2,255
   22c3c:	100b883a 	mov	r5,r2
   22c40:	00224540 	call	22454 <OV8865_write_cmos_sensor_8>
     for(i=0;i<num;i++){
   22c44:	e0bfff17 	ldw	r2,-4(fp)
   22c48:	10800044 	addi	r2,r2,1
   22c4c:	e0bfff15 	stw	r2,-4(fp)
   22c50:	e0ffff17 	ldw	r3,-4(fp)
   22c54:	e0bffd17 	ldw	r2,-12(fp)
   22c58:	18bfca16 	blt	r3,r2,22b84 <MipiCameraInit+0xd4>
   22c5c:	00000106 	br	22c64 <MipiCameraInit+0x1b4>
    	 else if(MipiCameraReg[i].Type == END_OF_SCRIPT)   break;
   22c60:	0001883a 	nop
     }


 	oc_i2c_uninit(I2C_OPENCORES_CAMERA_BASE);  // Release I2C bus , due to two I2C master shared!
   22c64:	01000134 	movhi	r4,4
   22c68:	21041004 	addi	r4,r4,4160
   22c6c:	00204c00 	call	204c0 <oc_i2c_uninit>



	 OV8865DB("\nEnd MipiCameraInit! -OV8865!\r\n\n");
   22c70:	010000f4 	movhi	r4,3
   22c74:	21122c04 	addi	r4,r4,18608
   22c78:	00245140 	call	24514 <puts>

}
   22c7c:	0001883a 	nop
   22c80:	e037883a 	mov	sp,fp
   22c84:	dfc00117 	ldw	ra,4(sp)
   22c88:	df000017 	ldw	fp,0(sp)
   22c8c:	dec00204 	addi	sp,sp,8
   22c90:	f800283a 	ret

00022c94 <QUEUE_New>:
#include "queue.h"




QUEUE_STRUCT* QUEUE_New(int nQueueNum){
   22c94:	defffb04 	addi	sp,sp,-20
   22c98:	dfc00415 	stw	ra,16(sp)
   22c9c:	df000315 	stw	fp,12(sp)
   22ca0:	df000304 	addi	fp,sp,12
   22ca4:	e13ffd15 	stw	r4,-12(fp)
    int nSize;
    QUEUE_STRUCT *pQueue;
    nSize = sizeof(QUEUE_STRUCT)+nQueueNum*sizeof(alt_u32);
   22ca8:	e0bffd17 	ldw	r2,-12(fp)
   22cac:	10800144 	addi	r2,r2,5
   22cb0:	100490ba 	slli	r2,r2,2
   22cb4:	e0bfff15 	stw	r2,-4(fp)
    pQueue = (QUEUE_STRUCT *)malloc(nSize);
   22cb8:	e0bfff17 	ldw	r2,-4(fp)
   22cbc:	1009883a 	mov	r4,r2
   22cc0:	0023a8c0 	call	23a8c <malloc>
   22cc4:	e0bffe15 	stw	r2,-8(fp)
    memset((void *)pQueue, 0, nSize);
   22cc8:	e0bfff17 	ldw	r2,-4(fp)
   22ccc:	100d883a 	mov	r6,r2
   22cd0:	000b883a 	mov	r5,zero
   22cd4:	e13ffe17 	ldw	r4,-8(fp)
   22cd8:	00242600 	call	24260 <memset>
    pQueue->num = nQueueNum;
   22cdc:	e0fffd17 	ldw	r3,-12(fp)
   22ce0:	e0bffe17 	ldw	r2,-8(fp)
   22ce4:	10c00015 	stw	r3,0(r2)
    return pQueue;
   22ce8:	e0bffe17 	ldw	r2,-8(fp)
}
   22cec:	e037883a 	mov	sp,fp
   22cf0:	dfc00117 	ldw	ra,4(sp)
   22cf4:	df000017 	ldw	fp,0(sp)
   22cf8:	dec00204 	addi	sp,sp,8
   22cfc:	f800283a 	ret

00022d00 <QUEUE_Delete>:

void QUEUE_Delete(QUEUE_STRUCT *pQueue){
   22d00:	defffd04 	addi	sp,sp,-12
   22d04:	dfc00215 	stw	ra,8(sp)
   22d08:	df000115 	stw	fp,4(sp)
   22d0c:	df000104 	addi	fp,sp,4
   22d10:	e13fff15 	stw	r4,-4(fp)
    free(pQueue);
   22d14:	e13fff17 	ldw	r4,-4(fp)
   22d18:	0023a9c0 	call	23a9c <free>
}
   22d1c:	0001883a 	nop
   22d20:	e037883a 	mov	sp,fp
   22d24:	dfc00117 	ldw	ra,4(sp)
   22d28:	df000017 	ldw	fp,0(sp)
   22d2c:	dec00204 	addi	sp,sp,8
   22d30:	f800283a 	ret

00022d34 <QUEUE_IsEmpty>:

bool QUEUE_IsEmpty(QUEUE_STRUCT *pQueue){
   22d34:	defffe04 	addi	sp,sp,-8
   22d38:	df000115 	stw	fp,4(sp)
   22d3c:	df000104 	addi	fp,sp,4
   22d40:	e13fff15 	stw	r4,-4(fp)
    if (pQueue->front == pQueue->rear)
   22d44:	e0bfff17 	ldw	r2,-4(fp)
   22d48:	10c00117 	ldw	r3,4(r2)
   22d4c:	e0bfff17 	ldw	r2,-4(fp)
   22d50:	10800217 	ldw	r2,8(r2)
   22d54:	1880021e 	bne	r3,r2,22d60 <QUEUE_IsEmpty+0x2c>
        return TRUE;
   22d58:	00800044 	movi	r2,1
   22d5c:	00000106 	br	22d64 <QUEUE_IsEmpty+0x30>
    return FALSE;
   22d60:	0005883a 	mov	r2,zero
}
   22d64:	e037883a 	mov	sp,fp
   22d68:	df000017 	ldw	fp,0(sp)
   22d6c:	dec00104 	addi	sp,sp,4
   22d70:	f800283a 	ret

00022d74 <QUEUE_IsFull>:

bool QUEUE_IsFull(QUEUE_STRUCT *pQueue){
   22d74:	defffd04 	addi	sp,sp,-12
   22d78:	dfc00215 	stw	ra,8(sp)
   22d7c:	df000115 	stw	fp,4(sp)
   22d80:	df000104 	addi	fp,sp,4
   22d84:	e13fff15 	stw	r4,-4(fp)
    if (((pQueue->front+1)%pQueue->num) == pQueue->rear)
   22d88:	e0bfff17 	ldw	r2,-4(fp)
   22d8c:	10800117 	ldw	r2,4(r2)
   22d90:	10c00044 	addi	r3,r2,1
   22d94:	e0bfff17 	ldw	r2,-4(fp)
   22d98:	10800017 	ldw	r2,0(r2)
   22d9c:	100b883a 	mov	r5,r2
   22da0:	1809883a 	mov	r4,r3
   22da4:	00230800 	call	23080 <__umodsi3>
   22da8:	1007883a 	mov	r3,r2
   22dac:	e0bfff17 	ldw	r2,-4(fp)
   22db0:	10800217 	ldw	r2,8(r2)
   22db4:	1880021e 	bne	r3,r2,22dc0 <QUEUE_IsFull+0x4c>
        return TRUE;
   22db8:	00800044 	movi	r2,1
   22dbc:	00000106 	br	22dc4 <QUEUE_IsFull+0x50>
    return FALSE;
   22dc0:	0005883a 	mov	r2,zero
}
   22dc4:	e037883a 	mov	sp,fp
   22dc8:	dfc00117 	ldw	ra,4(sp)
   22dcc:	df000017 	ldw	fp,0(sp)
   22dd0:	dec00204 	addi	sp,sp,8
   22dd4:	f800283a 	ret

00022dd8 <QUEUE_Push>:

bool QUEUE_Push(QUEUE_STRUCT *pQueue, alt_u32 data32){
   22dd8:	defffc04 	addi	sp,sp,-16
   22ddc:	dfc00315 	stw	ra,12(sp)
   22de0:	df000215 	stw	fp,8(sp)
   22de4:	df000204 	addi	fp,sp,8
   22de8:	e13fff15 	stw	r4,-4(fp)
   22dec:	e17ffe15 	stw	r5,-8(fp)
    if (QUEUE_IsFull(pQueue))
   22df0:	e13fff17 	ldw	r4,-4(fp)
   22df4:	0022d740 	call	22d74 <QUEUE_IsFull>
   22df8:	10000226 	beq	r2,zero,22e04 <QUEUE_Push+0x2c>
        return FALSE;
   22dfc:	0005883a 	mov	r2,zero
   22e00:	00001406 	br	22e54 <QUEUE_Push+0x7c>
    pQueue->data[pQueue->front] = data32;
   22e04:	e0bfff17 	ldw	r2,-4(fp)
   22e08:	10800117 	ldw	r2,4(r2)
   22e0c:	e0ffff17 	ldw	r3,-4(fp)
   22e10:	108000c4 	addi	r2,r2,3
   22e14:	100490ba 	slli	r2,r2,2
   22e18:	1885883a 	add	r2,r3,r2
   22e1c:	e0fffe17 	ldw	r3,-8(fp)
   22e20:	10c00015 	stw	r3,0(r2)
    pQueue->front = (pQueue->front+1)%pQueue->num;        
   22e24:	e0bfff17 	ldw	r2,-4(fp)
   22e28:	10800117 	ldw	r2,4(r2)
   22e2c:	10c00044 	addi	r3,r2,1
   22e30:	e0bfff17 	ldw	r2,-4(fp)
   22e34:	10800017 	ldw	r2,0(r2)
   22e38:	100b883a 	mov	r5,r2
   22e3c:	1809883a 	mov	r4,r3
   22e40:	00230800 	call	23080 <__umodsi3>
   22e44:	1007883a 	mov	r3,r2
   22e48:	e0bfff17 	ldw	r2,-4(fp)
   22e4c:	10c00115 	stw	r3,4(r2)
    return TRUE;
   22e50:	00800044 	movi	r2,1
}
   22e54:	e037883a 	mov	sp,fp
   22e58:	dfc00117 	ldw	ra,4(sp)
   22e5c:	df000017 	ldw	fp,0(sp)
   22e60:	dec00204 	addi	sp,sp,8
   22e64:	f800283a 	ret

00022e68 <QUEUE_Pop>:

alt_u32 QUEUE_Pop(QUEUE_STRUCT *pQueue){
   22e68:	defffc04 	addi	sp,sp,-16
   22e6c:	dfc00315 	stw	ra,12(sp)
   22e70:	df000215 	stw	fp,8(sp)
   22e74:	df000204 	addi	fp,sp,8
   22e78:	e13ffe15 	stw	r4,-8(fp)
    alt_u32 data32;
    if (QUEUE_IsEmpty(pQueue))
   22e7c:	e13ffe17 	ldw	r4,-8(fp)
   22e80:	0022d340 	call	22d34 <QUEUE_IsEmpty>
   22e84:	10000226 	beq	r2,zero,22e90 <QUEUE_Pop+0x28>
        return 0;
   22e88:	0005883a 	mov	r2,zero
   22e8c:	00001406 	br	22ee0 <QUEUE_Pop+0x78>
    data32 = pQueue->data[pQueue->rear];
   22e90:	e0bffe17 	ldw	r2,-8(fp)
   22e94:	10800217 	ldw	r2,8(r2)
   22e98:	e0fffe17 	ldw	r3,-8(fp)
   22e9c:	108000c4 	addi	r2,r2,3
   22ea0:	100490ba 	slli	r2,r2,2
   22ea4:	1885883a 	add	r2,r3,r2
   22ea8:	10800017 	ldw	r2,0(r2)
   22eac:	e0bfff15 	stw	r2,-4(fp)
    pQueue->rear = (pQueue->rear+1)%pQueue->num;        
   22eb0:	e0bffe17 	ldw	r2,-8(fp)
   22eb4:	10800217 	ldw	r2,8(r2)
   22eb8:	10c00044 	addi	r3,r2,1
   22ebc:	e0bffe17 	ldw	r2,-8(fp)
   22ec0:	10800017 	ldw	r2,0(r2)
   22ec4:	100b883a 	mov	r5,r2
   22ec8:	1809883a 	mov	r4,r3
   22ecc:	00230800 	call	23080 <__umodsi3>
   22ed0:	1007883a 	mov	r3,r2
   22ed4:	e0bffe17 	ldw	r2,-8(fp)
   22ed8:	10c00215 	stw	r3,8(r2)
    return data32;
   22edc:	e0bfff17 	ldw	r2,-4(fp)
}
   22ee0:	e037883a 	mov	sp,fp
   22ee4:	dfc00117 	ldw	ra,4(sp)
   22ee8:	df000017 	ldw	fp,0(sp)
   22eec:	dec00204 	addi	sp,sp,8
   22ef0:	f800283a 	ret

00022ef4 <QUEUE_Empty>:

void QUEUE_Empty(QUEUE_STRUCT *pQueue){
   22ef4:	defffe04 	addi	sp,sp,-8
   22ef8:	df000115 	stw	fp,4(sp)
   22efc:	df000104 	addi	fp,sp,4
   22f00:	e13fff15 	stw	r4,-4(fp)
    pQueue->front = 0;
   22f04:	e0bfff17 	ldw	r2,-4(fp)
   22f08:	10000115 	stw	zero,4(r2)
    pQueue->rear = 0;
   22f0c:	e0bfff17 	ldw	r2,-4(fp)
   22f10:	10000215 	stw	zero,8(r2)
}
   22f14:	0001883a 	nop
   22f18:	e037883a 	mov	sp,fp
   22f1c:	df000017 	ldw	fp,0(sp)
   22f20:	dec00104 	addi	sp,sp,4
   22f24:	f800283a 	ret

00022f28 <__divsi3>:
   22f28:	20001a16 	blt	r4,zero,22f94 <__divsi3+0x6c>
   22f2c:	000f883a 	mov	r7,zero
   22f30:	2800020e 	bge	r5,zero,22f3c <__divsi3+0x14>
   22f34:	014bc83a 	sub	r5,zero,r5
   22f38:	39c0005c 	xori	r7,r7,1
   22f3c:	200d883a 	mov	r6,r4
   22f40:	00c00044 	movi	r3,1
   22f44:	2900092e 	bgeu	r5,r4,22f6c <__divsi3+0x44>
   22f48:	00800804 	movi	r2,32
   22f4c:	00c00044 	movi	r3,1
   22f50:	00000106 	br	22f58 <__divsi3+0x30>
   22f54:	10001226 	beq	r2,zero,22fa0 <__divsi3+0x78>
   22f58:	294b883a 	add	r5,r5,r5
   22f5c:	10bfffc4 	addi	r2,r2,-1
   22f60:	18c7883a 	add	r3,r3,r3
   22f64:	293ffb36 	bltu	r5,r4,22f54 <__divsi3+0x2c>
   22f68:	18000d26 	beq	r3,zero,22fa0 <__divsi3+0x78>
   22f6c:	0005883a 	mov	r2,zero
   22f70:	31400236 	bltu	r6,r5,22f7c <__divsi3+0x54>
   22f74:	314dc83a 	sub	r6,r6,r5
   22f78:	10c4b03a 	or	r2,r2,r3
   22f7c:	1806d07a 	srli	r3,r3,1
   22f80:	280ad07a 	srli	r5,r5,1
   22f84:	183ffa1e 	bne	r3,zero,22f70 <__divsi3+0x48>
   22f88:	38000126 	beq	r7,zero,22f90 <__divsi3+0x68>
   22f8c:	0085c83a 	sub	r2,zero,r2
   22f90:	f800283a 	ret
   22f94:	0109c83a 	sub	r4,zero,r4
   22f98:	01c00044 	movi	r7,1
   22f9c:	003fe406 	br	22f30 <__divsi3+0x8>
   22fa0:	0005883a 	mov	r2,zero
   22fa4:	003ff806 	br	22f88 <__divsi3+0x60>

00022fa8 <__modsi3>:
   22fa8:	20001716 	blt	r4,zero,23008 <__modsi3+0x60>
   22fac:	000f883a 	mov	r7,zero
   22fb0:	2005883a 	mov	r2,r4
   22fb4:	2800010e 	bge	r5,zero,22fbc <__modsi3+0x14>
   22fb8:	014bc83a 	sub	r5,zero,r5
   22fbc:	00c00044 	movi	r3,1
   22fc0:	2900092e 	bgeu	r5,r4,22fe8 <__modsi3+0x40>
   22fc4:	01800804 	movi	r6,32
   22fc8:	00c00044 	movi	r3,1
   22fcc:	00000106 	br	22fd4 <__modsi3+0x2c>
   22fd0:	30001026 	beq	r6,zero,23014 <__modsi3+0x6c>
   22fd4:	294b883a 	add	r5,r5,r5
   22fd8:	31bfffc4 	addi	r6,r6,-1
   22fdc:	18c7883a 	add	r3,r3,r3
   22fe0:	293ffb36 	bltu	r5,r4,22fd0 <__modsi3+0x28>
   22fe4:	18000b26 	beq	r3,zero,23014 <__modsi3+0x6c>
   22fe8:	1806d07a 	srli	r3,r3,1
   22fec:	11400136 	bltu	r2,r5,22ff4 <__modsi3+0x4c>
   22ff0:	1145c83a 	sub	r2,r2,r5
   22ff4:	280ad07a 	srli	r5,r5,1
   22ff8:	183ffb1e 	bne	r3,zero,22fe8 <__modsi3+0x40>
   22ffc:	38000126 	beq	r7,zero,23004 <__modsi3+0x5c>
   23000:	0085c83a 	sub	r2,zero,r2
   23004:	f800283a 	ret
   23008:	0109c83a 	sub	r4,zero,r4
   2300c:	01c00044 	movi	r7,1
   23010:	003fe706 	br	22fb0 <__modsi3+0x8>
   23014:	2005883a 	mov	r2,r4
   23018:	003ff806 	br	22ffc <__modsi3+0x54>

0002301c <__udivsi3>:
   2301c:	200d883a 	mov	r6,r4
   23020:	2900152e 	bgeu	r5,r4,23078 <__udivsi3+0x5c>
   23024:	28001416 	blt	r5,zero,23078 <__udivsi3+0x5c>
   23028:	00800804 	movi	r2,32
   2302c:	00c00044 	movi	r3,1
   23030:	00000206 	br	2303c <__udivsi3+0x20>
   23034:	10000e26 	beq	r2,zero,23070 <__udivsi3+0x54>
   23038:	28000416 	blt	r5,zero,2304c <__udivsi3+0x30>
   2303c:	294b883a 	add	r5,r5,r5
   23040:	10bfffc4 	addi	r2,r2,-1
   23044:	18c7883a 	add	r3,r3,r3
   23048:	293ffa36 	bltu	r5,r4,23034 <__udivsi3+0x18>
   2304c:	18000826 	beq	r3,zero,23070 <__udivsi3+0x54>
   23050:	0005883a 	mov	r2,zero
   23054:	31400236 	bltu	r6,r5,23060 <__udivsi3+0x44>
   23058:	314dc83a 	sub	r6,r6,r5
   2305c:	10c4b03a 	or	r2,r2,r3
   23060:	1806d07a 	srli	r3,r3,1
   23064:	280ad07a 	srli	r5,r5,1
   23068:	183ffa1e 	bne	r3,zero,23054 <__udivsi3+0x38>
   2306c:	f800283a 	ret
   23070:	0005883a 	mov	r2,zero
   23074:	f800283a 	ret
   23078:	00c00044 	movi	r3,1
   2307c:	003ff406 	br	23050 <__udivsi3+0x34>

00023080 <__umodsi3>:
   23080:	2005883a 	mov	r2,r4
   23084:	2900132e 	bgeu	r5,r4,230d4 <__umodsi3+0x54>
   23088:	28001216 	blt	r5,zero,230d4 <__umodsi3+0x54>
   2308c:	01800804 	movi	r6,32
   23090:	00c00044 	movi	r3,1
   23094:	00000206 	br	230a0 <__umodsi3+0x20>
   23098:	30000c26 	beq	r6,zero,230cc <__umodsi3+0x4c>
   2309c:	28000416 	blt	r5,zero,230b0 <__umodsi3+0x30>
   230a0:	294b883a 	add	r5,r5,r5
   230a4:	31bfffc4 	addi	r6,r6,-1
   230a8:	18c7883a 	add	r3,r3,r3
   230ac:	293ffa36 	bltu	r5,r4,23098 <__umodsi3+0x18>
   230b0:	18000626 	beq	r3,zero,230cc <__umodsi3+0x4c>
   230b4:	1806d07a 	srli	r3,r3,1
   230b8:	11400136 	bltu	r2,r5,230c0 <__umodsi3+0x40>
   230bc:	1145c83a 	sub	r2,r2,r5
   230c0:	280ad07a 	srli	r5,r5,1
   230c4:	183ffb1e 	bne	r3,zero,230b4 <__umodsi3+0x34>
   230c8:	f800283a 	ret
   230cc:	2005883a 	mov	r2,r4
   230d0:	f800283a 	ret
   230d4:	00c00044 	movi	r3,1
   230d8:	003ff606 	br	230b4 <__umodsi3+0x34>

000230dc <_fopen_r>:
   230dc:	defffa04 	addi	sp,sp,-24
   230e0:	3007883a 	mov	r3,r6
   230e4:	dcc00415 	stw	r19,16(sp)
   230e8:	d80d883a 	mov	r6,sp
   230ec:	2827883a 	mov	r19,r5
   230f0:	180b883a 	mov	r5,r3
   230f4:	dc800315 	stw	r18,12(sp)
   230f8:	dfc00515 	stw	ra,20(sp)
   230fc:	dc400215 	stw	r17,8(sp)
   23100:	dc000115 	stw	r16,4(sp)
   23104:	2025883a 	mov	r18,r4
   23108:	00290040 	call	29004 <__sflags>
   2310c:	10002f26 	beq	r2,zero,231cc <_fopen_r+0xf0>
   23110:	9009883a 	mov	r4,r18
   23114:	1023883a 	mov	r17,r2
   23118:	0028e740 	call	28e74 <__sfp>
   2311c:	1021883a 	mov	r16,r2
   23120:	10002a26 	beq	r2,zero,231cc <_fopen_r+0xf0>
   23124:	d9800017 	ldw	r6,0(sp)
   23128:	01c06d84 	movi	r7,438
   2312c:	980b883a 	mov	r5,r19
   23130:	9009883a 	mov	r4,r18
   23134:	00243580 	call	24358 <_open_r>
   23138:	10002116 	blt	r2,zero,231c0 <_fopen_r+0xe4>
   2313c:	1004943a 	slli	r2,r2,16
   23140:	89ffffcc 	andi	r7,r17,65535
   23144:	018000b4 	movhi	r6,2
   23148:	014000b4 	movhi	r5,2
   2314c:	010000b4 	movhi	r4,2
   23150:	00c000b4 	movhi	r3,2
   23154:	3884b03a 	or	r2,r7,r2
   23158:	3191d404 	addi	r6,r6,18256
   2315c:	2951eb04 	addi	r5,r5,18348
   23160:	21120b04 	addi	r4,r4,18476
   23164:	18d22204 	addi	r3,r3,18568
   23168:	80800315 	stw	r2,12(r16)
   2316c:	84000715 	stw	r16,28(r16)
   23170:	81800815 	stw	r6,32(r16)
   23174:	81400915 	stw	r5,36(r16)
   23178:	81000a15 	stw	r4,40(r16)
   2317c:	80c00b15 	stw	r3,44(r16)
   23180:	8c40400c 	andi	r17,r17,256
   23184:	8800081e 	bne	r17,zero,231a8 <_fopen_r+0xcc>
   23188:	8005883a 	mov	r2,r16
   2318c:	dfc00517 	ldw	ra,20(sp)
   23190:	dcc00417 	ldw	r19,16(sp)
   23194:	dc800317 	ldw	r18,12(sp)
   23198:	dc400217 	ldw	r17,8(sp)
   2319c:	dc000117 	ldw	r16,4(sp)
   231a0:	dec00604 	addi	sp,sp,24
   231a4:	f800283a 	ret
   231a8:	01c00084 	movi	r7,2
   231ac:	000d883a 	mov	r6,zero
   231b0:	800b883a 	mov	r5,r16
   231b4:	9009883a 	mov	r4,r18
   231b8:	00231ec0 	call	231ec <_fseek_r>
   231bc:	003ff206 	br	23188 <_fopen_r+0xac>
   231c0:	0028fcc0 	call	28fcc <__sfp_lock_acquire>
   231c4:	8000030d 	sth	zero,12(r16)
   231c8:	0028fd00 	call	28fd0 <__sfp_lock_release>
   231cc:	0021883a 	mov	r16,zero
   231d0:	003fed06 	br	23188 <_fopen_r+0xac>

000231d4 <fopen>:
   231d4:	00c000f4 	movhi	r3,3
   231d8:	2005883a 	mov	r2,r4
   231dc:	191cd017 	ldw	r4,29504(r3)
   231e0:	280d883a 	mov	r6,r5
   231e4:	100b883a 	mov	r5,r2
   231e8:	00230dc1 	jmpi	230dc <_fopen_r>

000231ec <_fseek_r>:
   231ec:	002320c1 	jmpi	2320c <_fseeko_r>

000231f0 <fseek>:
   231f0:	00c000f4 	movhi	r3,3
   231f4:	2005883a 	mov	r2,r4
   231f8:	191cd017 	ldw	r4,29504(r3)
   231fc:	300f883a 	mov	r7,r6
   23200:	280d883a 	mov	r6,r5
   23204:	100b883a 	mov	r5,r2
   23208:	002320c1 	jmpi	2320c <_fseeko_r>

0002320c <_fseeko_r>:
   2320c:	deffe504 	addi	sp,sp,-108
   23210:	dd401715 	stw	r21,92(sp)
   23214:	dcc01515 	stw	r19,84(sp)
   23218:	dc401315 	stw	r17,76(sp)
   2321c:	dc001215 	stw	r16,72(sp)
   23220:	dfc01a15 	stw	ra,104(sp)
   23224:	ddc01915 	stw	r23,100(sp)
   23228:	dd801815 	stw	r22,96(sp)
   2322c:	dd001615 	stw	r20,88(sp)
   23230:	dc801415 	stw	r18,80(sp)
   23234:	2023883a 	mov	r17,r4
   23238:	2821883a 	mov	r16,r5
   2323c:	3027883a 	mov	r19,r6
   23240:	382b883a 	mov	r21,r7
   23244:	20000226 	beq	r4,zero,23250 <_fseeko_r+0x44>
   23248:	20800e17 	ldw	r2,56(r4)
   2324c:	10000f26 	beq	r2,zero,2328c <_fseeko_r+0x80>
   23250:	8080030b 	ldhu	r2,12(r16)
   23254:	1080420c 	andi	r2,r2,264
   23258:	10804218 	cmpnei	r2,r2,264
   2325c:	10001026 	beq	r2,zero,232a0 <_fseeko_r+0x94>
   23260:	85000a17 	ldw	r20,40(r16)
   23264:	a000f026 	beq	r20,zero,23628 <_fseeko_r+0x41c>
   23268:	a8800060 	cmpeqi	r2,r21,1
   2326c:	1000491e 	bne	r2,zero,23394 <_fseeko_r+0x188>
   23270:	04bfff44 	movi	r18,-3
   23274:	aca4703a 	and	r18,r21,r18
   23278:	90000d26 	beq	r18,zero,232b0 <_fseeko_r+0xa4>
   2327c:	00800584 	movi	r2,22
   23280:	88800015 	stw	r2,0(r17)
   23284:	00bfffc4 	movi	r2,-1
   23288:	00003706 	br	23368 <_fseeko_r+0x15c>
   2328c:	0028fbc0 	call	28fbc <__sinit>
   23290:	8080030b 	ldhu	r2,12(r16)
   23294:	1080420c 	andi	r2,r2,264
   23298:	10804218 	cmpnei	r2,r2,264
   2329c:	103ff01e 	bne	r2,zero,23260 <_fseeko_r+0x54>
   232a0:	800b883a 	mov	r5,r16
   232a4:	8809883a 	mov	r4,r17
   232a8:	0028ba40 	call	28ba4 <_fflush_r>
   232ac:	003fec06 	br	23260 <_fseeko_r+0x54>
   232b0:	81000417 	ldw	r4,16(r16)
   232b4:	002f883a 	mov	r23,zero
   232b8:	20005226 	beq	r4,zero,23404 <_fseeko_r+0x1f8>
   232bc:	8080030b 	ldhu	r2,12(r16)
   232c0:	10c2068c 	andi	r3,r2,2074
   232c4:	1800071e 	bne	r3,zero,232e4 <_fseeko_r+0xd8>
   232c8:	10c1000c 	andi	r3,r2,1024
   232cc:	1800601e 	bne	r3,zero,23450 <_fseeko_r+0x244>
   232d0:	00c000b4 	movhi	r3,2
   232d4:	18d20b04 	addi	r3,r3,18476
   232d8:	a0c04e26 	beq	r20,r3,23414 <_fseeko_r+0x208>
   232dc:	10820014 	ori	r2,r2,2048
   232e0:	8080030d 	sth	r2,12(r16)
   232e4:	800b883a 	mov	r5,r16
   232e8:	8809883a 	mov	r4,r17
   232ec:	0028ba40 	call	28ba4 <_fflush_r>
   232f0:	103fe41e 	bne	r2,zero,23284 <_fseeko_r+0x78>
   232f4:	81400717 	ldw	r5,28(r16)
   232f8:	a80f883a 	mov	r7,r21
   232fc:	980d883a 	mov	r6,r19
   23300:	8809883a 	mov	r4,r17
   23304:	a03ee83a 	callr	r20
   23308:	10bfffe0 	cmpeqi	r2,r2,-1
   2330c:	103fdd1e 	bne	r2,zero,23284 <_fseeko_r+0x78>
   23310:	81400c17 	ldw	r5,48(r16)
   23314:	28000526 	beq	r5,zero,2332c <_fseeko_r+0x120>
   23318:	80801004 	addi	r2,r16,64
   2331c:	28800226 	beq	r5,r2,23328 <_fseeko_r+0x11c>
   23320:	8809883a 	mov	r4,r17
   23324:	00291e00 	call	291e0 <_free_r>
   23328:	80000c15 	stw	zero,48(r16)
   2332c:	8080030b 	ldhu	r2,12(r16)
   23330:	80c00417 	ldw	r3,16(r16)
   23334:	80000115 	stw	zero,4(r16)
   23338:	10bdf7cc 	andi	r2,r2,63455
   2333c:	80c00015 	stw	r3,0(r16)
   23340:	8080030d 	sth	r2,12(r16)
   23344:	80001705 	stb	zero,92(r16)
   23348:	80001745 	stb	zero,93(r16)
   2334c:	80001785 	stb	zero,94(r16)
   23350:	800017c5 	stb	zero,95(r16)
   23354:	80001805 	stb	zero,96(r16)
   23358:	80001845 	stb	zero,97(r16)
   2335c:	80001885 	stb	zero,98(r16)
   23360:	800018c5 	stb	zero,99(r16)
   23364:	0005883a 	mov	r2,zero
   23368:	dfc01a17 	ldw	ra,104(sp)
   2336c:	ddc01917 	ldw	r23,100(sp)
   23370:	dd801817 	ldw	r22,96(sp)
   23374:	dd401717 	ldw	r21,92(sp)
   23378:	dd001617 	ldw	r20,88(sp)
   2337c:	dcc01517 	ldw	r19,84(sp)
   23380:	dc801417 	ldw	r18,80(sp)
   23384:	dc401317 	ldw	r17,76(sp)
   23388:	dc001217 	ldw	r16,72(sp)
   2338c:	dec01b04 	addi	sp,sp,108
   23390:	f800283a 	ret
   23394:	800b883a 	mov	r5,r16
   23398:	8809883a 	mov	r4,r17
   2339c:	0028ba40 	call	28ba4 <_fflush_r>
   233a0:	8080030b 	ldhu	r2,12(r16)
   233a4:	10c4000c 	andi	r3,r2,4096
   233a8:	1800651e 	bne	r3,zero,23540 <_fseeko_r+0x334>
   233ac:	81400717 	ldw	r5,28(r16)
   233b0:	01c00044 	movi	r7,1
   233b4:	000d883a 	mov	r6,zero
   233b8:	8809883a 	mov	r4,r17
   233bc:	a03ee83a 	callr	r20
   233c0:	1025883a 	mov	r18,r2
   233c4:	10bfffd8 	cmpnei	r2,r2,-1
   233c8:	103fae26 	beq	r2,zero,23284 <_fseeko_r+0x78>
   233cc:	8080030b 	ldhu	r2,12(r16)
   233d0:	81000417 	ldw	r4,16(r16)
   233d4:	10c0010c 	andi	r3,r2,4
   233d8:	18005d26 	beq	r3,zero,23550 <_fseeko_r+0x344>
   233dc:	80c00117 	ldw	r3,4(r16)
   233e0:	80800c17 	ldw	r2,48(r16)
   233e4:	90e5c83a 	sub	r18,r18,r3
   233e8:	10000226 	beq	r2,zero,233f4 <_fseeko_r+0x1e8>
   233ec:	81800f17 	ldw	r6,60(r16)
   233f0:	91a5c83a 	sub	r18,r18,r6
   233f4:	9ca7883a 	add	r19,r19,r18
   233f8:	05c00044 	movi	r23,1
   233fc:	002b883a 	mov	r21,zero
   23400:	203fae1e 	bne	r4,zero,232bc <_fseeko_r+0xb0>
   23404:	800b883a 	mov	r5,r16
   23408:	8809883a 	mov	r4,r17
   2340c:	00238600 	call	23860 <__smakebuf_r>
   23410:	003faa06 	br	232bc <_fseeko_r+0xb0>
   23414:	8140038f 	ldh	r5,14(r16)
   23418:	283fb016 	blt	r5,zero,232dc <_fseeko_r+0xd0>
   2341c:	d80d883a 	mov	r6,sp
   23420:	8809883a 	mov	r4,r17
   23424:	00236500 	call	23650 <_fstat_r>
   23428:	10006d1e 	bne	r2,zero,235e0 <_fseeko_r+0x3d4>
   2342c:	d8c00117 	ldw	r3,4(sp)
   23430:	01200014 	movui	r4,32768
   23434:	8080030b 	ldhu	r2,12(r16)
   23438:	18fc000c 	andi	r3,r3,61440
   2343c:	193fa71e 	bne	r3,r4,232dc <_fseeko_r+0xd0>
   23440:	10810014 	ori	r2,r2,1024
   23444:	00c10004 	movi	r3,1024
   23448:	80c01315 	stw	r3,76(r16)
   2344c:	8080030d 	sth	r2,12(r16)
   23450:	a800461e 	bne	r21,zero,2356c <_fseeko_r+0x360>
   23454:	982d883a 	mov	r22,r19
   23458:	b8004c1e 	bne	r23,zero,2358c <_fseeko_r+0x380>
   2345c:	8080030b 	ldhu	r2,12(r16)
   23460:	1084000c 	andi	r2,r2,4096
   23464:	10005626 	beq	r2,zero,235c0 <_fseeko_r+0x3b4>
   23468:	80801417 	ldw	r2,80(r16)
   2346c:	80c00117 	ldw	r3,4(r16)
   23470:	81400c17 	ldw	r5,48(r16)
   23474:	1809883a 	mov	r4,r3
   23478:	10e5c83a 	sub	r18,r2,r3
   2347c:	28004926 	beq	r5,zero,235a4 <_fseeko_r+0x398>
   23480:	81800f17 	ldw	r6,60(r16)
   23484:	91a5c83a 	sub	r18,r18,r6
   23488:	80800e17 	ldw	r2,56(r16)
   2348c:	81c00417 	ldw	r7,16(r16)
   23490:	90c7883a 	add	r3,r18,r3
   23494:	11c5c83a 	sub	r2,r2,r7
   23498:	1887c83a 	sub	r3,r3,r2
   2349c:	1185883a 	add	r2,r2,r6
   234a0:	b0c00216 	blt	r22,r3,234ac <_fseeko_r+0x2a0>
   234a4:	1889883a 	add	r4,r3,r2
   234a8:	b1004f36 	bltu	r22,r4,235e8 <_fseeko_r+0x3dc>
   234ac:	84801317 	ldw	r18,76(r16)
   234b0:	81400717 	ldw	r5,28(r16)
   234b4:	000f883a 	mov	r7,zero
   234b8:	04a5c83a 	sub	r18,zero,r18
   234bc:	95a4703a 	and	r18,r18,r22
   234c0:	900d883a 	mov	r6,r18
   234c4:	8809883a 	mov	r4,r17
   234c8:	a03ee83a 	callr	r20
   234cc:	10bfffe0 	cmpeqi	r2,r2,-1
   234d0:	103f841e 	bne	r2,zero,232e4 <_fseeko_r+0xd8>
   234d4:	80800417 	ldw	r2,16(r16)
   234d8:	81400c17 	ldw	r5,48(r16)
   234dc:	80000115 	stw	zero,4(r16)
   234e0:	80800015 	stw	r2,0(r16)
   234e4:	28000526 	beq	r5,zero,234fc <_fseeko_r+0x2f0>
   234e8:	80801004 	addi	r2,r16,64
   234ec:	28800226 	beq	r5,r2,234f8 <_fseeko_r+0x2ec>
   234f0:	8809883a 	mov	r4,r17
   234f4:	00291e00 	call	291e0 <_free_r>
   234f8:	80000c15 	stw	zero,48(r16)
   234fc:	8080030b 	ldhu	r2,12(r16)
   23500:	b4afc83a 	sub	r23,r22,r18
   23504:	10bff7cc 	andi	r2,r2,65503
   23508:	8080030d 	sth	r2,12(r16)
   2350c:	b4bf8d26 	beq	r22,r18,23344 <_fseeko_r+0x138>
   23510:	800b883a 	mov	r5,r16
   23514:	8809883a 	mov	r4,r17
   23518:	00245400 	call	24540 <__srefill_r>
   2351c:	103f711e 	bne	r2,zero,232e4 <_fseeko_r+0xd8>
   23520:	80800117 	ldw	r2,4(r16)
   23524:	15ff6f36 	bltu	r2,r23,232e4 <_fseeko_r+0xd8>
   23528:	80c00017 	ldw	r3,0(r16)
   2352c:	15c5c83a 	sub	r2,r2,r23
   23530:	80800115 	stw	r2,4(r16)
   23534:	1dc5883a 	add	r2,r3,r23
   23538:	80800015 	stw	r2,0(r16)
   2353c:	003f8106 	br	23344 <_fseeko_r+0x138>
   23540:	10c0010c 	andi	r3,r2,4
   23544:	84801417 	ldw	r18,80(r16)
   23548:	81000417 	ldw	r4,16(r16)
   2354c:	183fa31e 	bne	r3,zero,233dc <_fseeko_r+0x1d0>
   23550:	1080020c 	andi	r2,r2,8
   23554:	103fa726 	beq	r2,zero,233f4 <_fseeko_r+0x1e8>
   23558:	80800017 	ldw	r2,0(r16)
   2355c:	103fa526 	beq	r2,zero,233f4 <_fseeko_r+0x1e8>
   23560:	1105c83a 	sub	r2,r2,r4
   23564:	90a5883a 	add	r18,r18,r2
   23568:	003fa206 	br	233f4 <_fseeko_r+0x1e8>
   2356c:	8140038f 	ldh	r5,14(r16)
   23570:	d80d883a 	mov	r6,sp
   23574:	8809883a 	mov	r4,r17
   23578:	00236500 	call	23650 <_fstat_r>
   2357c:	103f591e 	bne	r2,zero,232e4 <_fseeko_r+0xd8>
   23580:	dd800417 	ldw	r22,16(sp)
   23584:	9dad883a 	add	r22,r19,r22
   23588:	b83fb426 	beq	r23,zero,2345c <_fseeko_r+0x250>
   2358c:	81400c17 	ldw	r5,48(r16)
   23590:	28000326 	beq	r5,zero,235a0 <_fseeko_r+0x394>
   23594:	80c00117 	ldw	r3,4(r16)
   23598:	81800f17 	ldw	r6,60(r16)
   2359c:	003fba06 	br	23488 <_fseeko_r+0x27c>
   235a0:	81000117 	ldw	r4,4(r16)
   235a4:	80800017 	ldw	r2,0(r16)
   235a8:	81c00417 	ldw	r7,16(r16)
   235ac:	000b883a 	mov	r5,zero
   235b0:	11c5c83a 	sub	r2,r2,r7
   235b4:	9087c83a 	sub	r3,r18,r2
   235b8:	2085883a 	add	r2,r4,r2
   235bc:	003fb806 	br	234a0 <_fseeko_r+0x294>
   235c0:	81400717 	ldw	r5,28(r16)
   235c4:	01c00044 	movi	r7,1
   235c8:	000d883a 	mov	r6,zero
   235cc:	8809883a 	mov	r4,r17
   235d0:	a03ee83a 	callr	r20
   235d4:	10ffffe0 	cmpeqi	r3,r2,-1
   235d8:	183fa426 	beq	r3,zero,2346c <_fseeko_r+0x260>
   235dc:	003f4106 	br	232e4 <_fseeko_r+0xd8>
   235e0:	8080030b 	ldhu	r2,12(r16)
   235e4:	003f3d06 	br	232dc <_fseeko_r+0xd0>
   235e8:	b0c7c83a 	sub	r3,r22,r3
   235ec:	38cf883a 	add	r7,r7,r3
   235f0:	10c5c83a 	sub	r2,r2,r3
   235f4:	81c00015 	stw	r7,0(r16)
   235f8:	80800115 	stw	r2,4(r16)
   235fc:	28000526 	beq	r5,zero,23614 <_fseeko_r+0x408>
   23600:	80801004 	addi	r2,r16,64
   23604:	28800226 	beq	r5,r2,23610 <_fseeko_r+0x404>
   23608:	8809883a 	mov	r4,r17
   2360c:	00291e00 	call	291e0 <_free_r>
   23610:	80000c15 	stw	zero,48(r16)
   23614:	80c0030b 	ldhu	r3,12(r16)
   23618:	80001705 	stb	zero,92(r16)
   2361c:	18fff7cc 	andi	r3,r3,65503
   23620:	80c0030d 	sth	r3,12(r16)
   23624:	003f4806 	br	23348 <_fseeko_r+0x13c>
   23628:	00800744 	movi	r2,29
   2362c:	88800015 	stw	r2,0(r17)
   23630:	003f1406 	br	23284 <_fseeko_r+0x78>

00023634 <fseeko>:
   23634:	00c000f4 	movhi	r3,3
   23638:	2005883a 	mov	r2,r4
   2363c:	191cd017 	ldw	r4,29504(r3)
   23640:	300f883a 	mov	r7,r6
   23644:	280d883a 	mov	r6,r5
   23648:	100b883a 	mov	r5,r2
   2364c:	002320c1 	jmpi	2320c <_fseeko_r>

00023650 <_fstat_r>:
   23650:	2807883a 	mov	r3,r5
   23654:	defffe04 	addi	sp,sp,-8
   23658:	dc000015 	stw	r16,0(sp)
   2365c:	00800134 	movhi	r2,4
   23660:	300b883a 	mov	r5,r6
   23664:	2021883a 	mov	r16,r4
   23668:	1809883a 	mov	r4,r3
   2366c:	dfc00115 	stw	ra,4(sp)
   23670:	1025f115 	stw	zero,-26684(r2)
   23674:	00311680 	call	31168 <fstat>
   23678:	10ffffd8 	cmpnei	r3,r2,-1
   2367c:	18000426 	beq	r3,zero,23690 <_fstat_r+0x40>
   23680:	dfc00117 	ldw	ra,4(sp)
   23684:	dc000017 	ldw	r16,0(sp)
   23688:	dec00204 	addi	sp,sp,8
   2368c:	f800283a 	ret
   23690:	00c00134 	movhi	r3,4
   23694:	18e5f117 	ldw	r3,-26684(r3)
   23698:	183ff926 	beq	r3,zero,23680 <_fstat_r+0x30>
   2369c:	80c00015 	stw	r3,0(r16)
   236a0:	dfc00117 	ldw	ra,4(sp)
   236a4:	dc000017 	ldw	r16,0(sp)
   236a8:	dec00204 	addi	sp,sp,8
   236ac:	f800283a 	ret

000236b0 <_fwrite_r>:
   236b0:	defff604 	addi	sp,sp,-40
   236b4:	dcc00815 	stw	r19,32(sp)
   236b8:	39a7383a 	mul	r19,r7,r6
   236bc:	00800044 	movi	r2,1
   236c0:	dc800715 	stw	r18,28(sp)
   236c4:	dc400615 	stw	r17,24(sp)
   236c8:	dc000515 	stw	r16,20(sp)
   236cc:	d9400015 	stw	r5,0(sp)
   236d0:	dfc00915 	stw	ra,36(sp)
   236d4:	dcc00115 	stw	r19,4(sp)
   236d8:	dcc00415 	stw	r19,16(sp)
   236dc:	dec00215 	stw	sp,8(sp)
   236e0:	d8800315 	stw	r2,12(sp)
   236e4:	d9400a17 	ldw	r5,40(sp)
   236e8:	3025883a 	mov	r18,r6
   236ec:	3821883a 	mov	r16,r7
   236f0:	2023883a 	mov	r17,r4
   236f4:	20000226 	beq	r4,zero,23700 <_fwrite_r+0x50>
   236f8:	20800e17 	ldw	r2,56(r4)
   236fc:	10001826 	beq	r2,zero,23760 <_fwrite_r+0xb0>
   23700:	2880030b 	ldhu	r2,12(r5)
   23704:	10c8000c 	andi	r3,r2,8192
   23708:	1800061e 	bne	r3,zero,23724 <_fwrite_r+0x74>
   2370c:	28c01917 	ldw	r3,100(r5)
   23710:	0137ffc4 	movi	r4,-8193
   23714:	10880014 	ori	r2,r2,8192
   23718:	1906703a 	and	r3,r3,r4
   2371c:	2880030d 	sth	r2,12(r5)
   23720:	28c01915 	stw	r3,100(r5)
   23724:	d9800204 	addi	r6,sp,8
   23728:	8809883a 	mov	r4,r17
   2372c:	00294e80 	call	294e8 <__sfvwrite_r>
   23730:	10000e26 	beq	r2,zero,2376c <_fwrite_r+0xbc>
   23734:	d9000417 	ldw	r4,16(sp)
   23738:	900b883a 	mov	r5,r18
   2373c:	9909c83a 	sub	r4,r19,r4
   23740:	002301c0 	call	2301c <__udivsi3>
   23744:	dfc00917 	ldw	ra,36(sp)
   23748:	dcc00817 	ldw	r19,32(sp)
   2374c:	dc800717 	ldw	r18,28(sp)
   23750:	dc400617 	ldw	r17,24(sp)
   23754:	dc000517 	ldw	r16,20(sp)
   23758:	dec00a04 	addi	sp,sp,40
   2375c:	f800283a 	ret
   23760:	0028fbc0 	call	28fbc <__sinit>
   23764:	d9400a17 	ldw	r5,40(sp)
   23768:	003fe506 	br	23700 <_fwrite_r+0x50>
   2376c:	8005883a 	mov	r2,r16
   23770:	003ff406 	br	23744 <_fwrite_r+0x94>

00023774 <fwrite>:
   23774:	defff504 	addi	sp,sp,-44
   23778:	008000f4 	movhi	r2,3
   2377c:	dcc00915 	stw	r19,36(sp)
   23780:	29a7383a 	mul	r19,r5,r6
   23784:	dc800815 	stw	r18,32(sp)
   23788:	149cd017 	ldw	r18,29504(r2)
   2378c:	d8800104 	addi	r2,sp,4
   23790:	d8800315 	stw	r2,12(sp)
   23794:	00800044 	movi	r2,1
   23798:	dc400715 	stw	r17,28(sp)
   2379c:	dc000615 	stw	r16,24(sp)
   237a0:	dfc00a15 	stw	ra,40(sp)
   237a4:	d9000115 	stw	r4,4(sp)
   237a8:	dcc00215 	stw	r19,8(sp)
   237ac:	dcc00515 	stw	r19,20(sp)
   237b0:	d8800415 	stw	r2,16(sp)
   237b4:	2823883a 	mov	r17,r5
   237b8:	3021883a 	mov	r16,r6
   237bc:	380b883a 	mov	r5,r7
   237c0:	90000226 	beq	r18,zero,237cc <fwrite+0x58>
   237c4:	90800e17 	ldw	r2,56(r18)
   237c8:	10001826 	beq	r2,zero,2382c <fwrite+0xb8>
   237cc:	2880030b 	ldhu	r2,12(r5)
   237d0:	10c8000c 	andi	r3,r2,8192
   237d4:	1800061e 	bne	r3,zero,237f0 <fwrite+0x7c>
   237d8:	28c01917 	ldw	r3,100(r5)
   237dc:	0137ffc4 	movi	r4,-8193
   237e0:	10880014 	ori	r2,r2,8192
   237e4:	1906703a 	and	r3,r3,r4
   237e8:	2880030d 	sth	r2,12(r5)
   237ec:	28c01915 	stw	r3,100(r5)
   237f0:	d9800304 	addi	r6,sp,12
   237f4:	9009883a 	mov	r4,r18
   237f8:	00294e80 	call	294e8 <__sfvwrite_r>
   237fc:	10001026 	beq	r2,zero,23840 <fwrite+0xcc>
   23800:	d9000517 	ldw	r4,20(sp)
   23804:	880b883a 	mov	r5,r17
   23808:	9909c83a 	sub	r4,r19,r4
   2380c:	002301c0 	call	2301c <__udivsi3>
   23810:	dfc00a17 	ldw	ra,40(sp)
   23814:	dcc00917 	ldw	r19,36(sp)
   23818:	dc800817 	ldw	r18,32(sp)
   2381c:	dc400717 	ldw	r17,28(sp)
   23820:	dc000617 	ldw	r16,24(sp)
   23824:	dec00b04 	addi	sp,sp,44
   23828:	f800283a 	ret
   2382c:	9009883a 	mov	r4,r18
   23830:	d9c00015 	stw	r7,0(sp)
   23834:	0028fbc0 	call	28fbc <__sinit>
   23838:	d9400017 	ldw	r5,0(sp)
   2383c:	003fe306 	br	237cc <fwrite+0x58>
   23840:	8005883a 	mov	r2,r16
   23844:	003ff206 	br	23810 <fwrite+0x9c>

00023848 <_getchar_r>:
   23848:	21400117 	ldw	r5,4(r4)
   2384c:	0029acc1 	jmpi	29acc <_getc_r>

00023850 <getchar>:
   23850:	008000f4 	movhi	r2,3
   23854:	111cd017 	ldw	r4,29504(r2)
   23858:	21400117 	ldw	r5,4(r4)
   2385c:	0029acc1 	jmpi	29acc <_getc_r>

00023860 <__smakebuf_r>:
   23860:	2880030b 	ldhu	r2,12(r5)
   23864:	deffe804 	addi	sp,sp,-96
   23868:	dc001215 	stw	r16,72(sp)
   2386c:	dfc01715 	stw	ra,92(sp)
   23870:	dd001615 	stw	r20,88(sp)
   23874:	dcc01515 	stw	r19,84(sp)
   23878:	dc801415 	stw	r18,80(sp)
   2387c:	dc401315 	stw	r17,76(sp)
   23880:	10c0008c 	andi	r3,r2,2
   23884:	2821883a 	mov	r16,r5
   23888:	18000d26 	beq	r3,zero,238c0 <__smakebuf_r+0x60>
   2388c:	288010c4 	addi	r2,r5,67
   23890:	28800015 	stw	r2,0(r5)
   23894:	28800415 	stw	r2,16(r5)
   23898:	00800044 	movi	r2,1
   2389c:	28800515 	stw	r2,20(r5)
   238a0:	dfc01717 	ldw	ra,92(sp)
   238a4:	dd001617 	ldw	r20,88(sp)
   238a8:	dcc01517 	ldw	r19,84(sp)
   238ac:	dc801417 	ldw	r18,80(sp)
   238b0:	dc401317 	ldw	r17,76(sp)
   238b4:	dc001217 	ldw	r16,72(sp)
   238b8:	dec01804 	addi	sp,sp,96
   238bc:	f800283a 	ret
   238c0:	2940038f 	ldh	r5,14(r5)
   238c4:	2023883a 	mov	r17,r4
   238c8:	28002816 	blt	r5,zero,2396c <__smakebuf_r+0x10c>
   238cc:	d80d883a 	mov	r6,sp
   238d0:	00236500 	call	23650 <_fstat_r>
   238d4:	10002416 	blt	r2,zero,23968 <__smakebuf_r+0x108>
   238d8:	d8800117 	ldw	r2,4(sp)
   238dc:	10bc000c 	andi	r2,r2,61440
   238e0:	10880018 	cmpnei	r2,r2,8192
   238e4:	1000421e 	bne	r2,zero,239f0 <__smakebuf_r+0x190>
   238e8:	8140038f 	ldh	r5,14(r16)
   238ec:	8809883a 	mov	r4,r17
   238f0:	0029bd80 	call	29bd8 <_isatty_r>
   238f4:	10000826 	beq	r2,zero,23918 <__smakebuf_r+0xb8>
   238f8:	8080030b 	ldhu	r2,12(r16)
   238fc:	80c010c4 	addi	r3,r16,67
   23900:	80c00015 	stw	r3,0(r16)
   23904:	10800054 	ori	r2,r2,1
   23908:	8080030d 	sth	r2,12(r16)
   2390c:	00800044 	movi	r2,1
   23910:	80c00415 	stw	r3,16(r16)
   23914:	80800515 	stw	r2,20(r16)
   23918:	04c00044 	movi	r19,1
   2391c:	05010004 	movi	r20,1024
   23920:	04820004 	movi	r18,2048
   23924:	a00b883a 	mov	r5,r20
   23928:	8809883a 	mov	r4,r17
   2392c:	0023aac0 	call	23aac <_malloc_r>
   23930:	10001726 	beq	r2,zero,23990 <__smakebuf_r+0x130>
   23934:	80c0030b 	ldhu	r3,12(r16)
   23938:	010000f4 	movhi	r4,3
   2393c:	21232404 	addi	r4,r4,-29552
   23940:	89000f15 	stw	r4,60(r17)
   23944:	18c02014 	ori	r3,r3,128
   23948:	80c0030d 	sth	r3,12(r16)
   2394c:	80800015 	stw	r2,0(r16)
   23950:	80800415 	stw	r2,16(r16)
   23954:	85000515 	stw	r20,20(r16)
   23958:	98001d1e 	bne	r19,zero,239d0 <__smakebuf_r+0x170>
   2395c:	90e4b03a 	or	r18,r18,r3
   23960:	8480030d 	sth	r18,12(r16)
   23964:	003fce06 	br	238a0 <__smakebuf_r+0x40>
   23968:	8080030b 	ldhu	r2,12(r16)
   2396c:	1080200c 	andi	r2,r2,128
   23970:	0027883a 	mov	r19,zero
   23974:	10001326 	beq	r2,zero,239c4 <__smakebuf_r+0x164>
   23978:	05001004 	movi	r20,64
   2397c:	a00b883a 	mov	r5,r20
   23980:	8809883a 	mov	r4,r17
   23984:	0025883a 	mov	r18,zero
   23988:	0023aac0 	call	23aac <_malloc_r>
   2398c:	103fe91e 	bne	r2,zero,23934 <__smakebuf_r+0xd4>
   23990:	8080030b 	ldhu	r2,12(r16)
   23994:	10c0800c 	andi	r3,r2,512
   23998:	183fc11e 	bne	r3,zero,238a0 <__smakebuf_r+0x40>
   2399c:	00ffff04 	movi	r3,-4
   239a0:	10c4703a 	and	r2,r2,r3
   239a4:	10800094 	ori	r2,r2,2
   239a8:	80c010c4 	addi	r3,r16,67
   239ac:	8080030d 	sth	r2,12(r16)
   239b0:	00800044 	movi	r2,1
   239b4:	80c00015 	stw	r3,0(r16)
   239b8:	80c00415 	stw	r3,16(r16)
   239bc:	80800515 	stw	r2,20(r16)
   239c0:	003fb706 	br	238a0 <__smakebuf_r+0x40>
   239c4:	05010004 	movi	r20,1024
   239c8:	0025883a 	mov	r18,zero
   239cc:	003fd506 	br	23924 <__smakebuf_r+0xc4>
   239d0:	8140038f 	ldh	r5,14(r16)
   239d4:	8809883a 	mov	r4,r17
   239d8:	0029bd80 	call	29bd8 <_isatty_r>
   239dc:	80c0030b 	ldhu	r3,12(r16)
   239e0:	103fde26 	beq	r2,zero,2395c <__smakebuf_r+0xfc>
   239e4:	18ffff0c 	andi	r3,r3,65532
   239e8:	18c00054 	ori	r3,r3,1
   239ec:	003fdb06 	br	2395c <__smakebuf_r+0xfc>
   239f0:	0027883a 	mov	r19,zero
   239f4:	05010004 	movi	r20,1024
   239f8:	04820004 	movi	r18,2048
   239fc:	003fc906 	br	23924 <__smakebuf_r+0xc4>

00023a00 <__swhatbuf_r>:
   23a00:	deffea04 	addi	sp,sp,-88
   23a04:	dc001215 	stw	r16,72(sp)
   23a08:	2821883a 	mov	r16,r5
   23a0c:	2940038f 	ldh	r5,14(r5)
   23a10:	dc801415 	stw	r18,80(sp)
   23a14:	dc401315 	stw	r17,76(sp)
   23a18:	dfc01515 	stw	ra,84(sp)
   23a1c:	3023883a 	mov	r17,r6
   23a20:	3825883a 	mov	r18,r7
   23a24:	28001016 	blt	r5,zero,23a68 <__swhatbuf_r+0x68>
   23a28:	d80d883a 	mov	r6,sp
   23a2c:	00236500 	call	23650 <_fstat_r>
   23a30:	10000d16 	blt	r2,zero,23a68 <__swhatbuf_r+0x68>
   23a34:	d8c00117 	ldw	r3,4(sp)
   23a38:	01010004 	movi	r4,1024
   23a3c:	00820004 	movi	r2,2048
   23a40:	18fc000c 	andi	r3,r3,61440
   23a44:	18c80020 	cmpeqi	r3,r3,8192
   23a48:	90c00015 	stw	r3,0(r18)
   23a4c:	89000015 	stw	r4,0(r17)
   23a50:	dfc01517 	ldw	ra,84(sp)
   23a54:	dc801417 	ldw	r18,80(sp)
   23a58:	dc401317 	ldw	r17,76(sp)
   23a5c:	dc001217 	ldw	r16,72(sp)
   23a60:	dec01604 	addi	sp,sp,88
   23a64:	f800283a 	ret
   23a68:	8080030b 	ldhu	r2,12(r16)
   23a6c:	0007883a 	mov	r3,zero
   23a70:	1080200c 	andi	r2,r2,128
   23a74:	10000326 	beq	r2,zero,23a84 <__swhatbuf_r+0x84>
   23a78:	01001004 	movi	r4,64
   23a7c:	0005883a 	mov	r2,zero
   23a80:	003ff106 	br	23a48 <__swhatbuf_r+0x48>
   23a84:	01010004 	movi	r4,1024
   23a88:	003fef06 	br	23a48 <__swhatbuf_r+0x48>

00023a8c <malloc>:
   23a8c:	008000f4 	movhi	r2,3
   23a90:	200b883a 	mov	r5,r4
   23a94:	111cd017 	ldw	r4,29504(r2)
   23a98:	0023aac1 	jmpi	23aac <_malloc_r>

00023a9c <free>:
   23a9c:	008000f4 	movhi	r2,3
   23aa0:	200b883a 	mov	r5,r4
   23aa4:	111cd017 	ldw	r4,29504(r2)
   23aa8:	00291e01 	jmpi	291e0 <_free_r>

00023aac <_malloc_r>:
   23aac:	defff604 	addi	sp,sp,-40
   23ab0:	dc400115 	stw	r17,4(sp)
   23ab4:	2c4002c4 	addi	r17,r5,11
   23ab8:	dc800215 	stw	r18,8(sp)
   23abc:	dfc00915 	stw	ra,36(sp)
   23ac0:	df000815 	stw	fp,32(sp)
   23ac4:	ddc00715 	stw	r23,28(sp)
   23ac8:	dd800615 	stw	r22,24(sp)
   23acc:	dd400515 	stw	r21,20(sp)
   23ad0:	dd000415 	stw	r20,16(sp)
   23ad4:	dcc00315 	stw	r19,12(sp)
   23ad8:	dc000015 	stw	r16,0(sp)
   23adc:	888005e8 	cmpgeui	r2,r17,23
   23ae0:	2025883a 	mov	r18,r4
   23ae4:	1000261e 	bne	r2,zero,23b80 <_malloc_r+0xd4>
   23ae8:	29400468 	cmpgeui	r5,r5,17
   23aec:	28008d1e 	bne	r5,zero,23d24 <_malloc_r+0x278>
   23af0:	00316bc0 	call	316bc <__malloc_lock>
   23af4:	04400404 	movi	r17,16
   23af8:	00800604 	movi	r2,24
   23afc:	01c00084 	movi	r7,2
   23b00:	04c000f4 	movhi	r19,3
   23b04:	9cd6bc04 	addi	r19,r19,23280
   23b08:	9885883a 	add	r2,r19,r2
   23b0c:	14000117 	ldw	r16,4(r2)
   23b10:	10fffe04 	addi	r3,r2,-8
   23b14:	80c0cb26 	beq	r16,r3,23e44 <_malloc_r+0x398>
   23b18:	80800117 	ldw	r2,4(r16)
   23b1c:	81000317 	ldw	r4,12(r16)
   23b20:	00ffff04 	movi	r3,-4
   23b24:	10c4703a 	and	r2,r2,r3
   23b28:	81400217 	ldw	r5,8(r16)
   23b2c:	8085883a 	add	r2,r16,r2
   23b30:	10c00117 	ldw	r3,4(r2)
   23b34:	29000315 	stw	r4,12(r5)
   23b38:	21400215 	stw	r5,8(r4)
   23b3c:	18c00054 	ori	r3,r3,1
   23b40:	10c00115 	stw	r3,4(r2)
   23b44:	9009883a 	mov	r4,r18
   23b48:	00316e00 	call	316e0 <__malloc_unlock>
   23b4c:	80800204 	addi	r2,r16,8
   23b50:	dfc00917 	ldw	ra,36(sp)
   23b54:	df000817 	ldw	fp,32(sp)
   23b58:	ddc00717 	ldw	r23,28(sp)
   23b5c:	dd800617 	ldw	r22,24(sp)
   23b60:	dd400517 	ldw	r21,20(sp)
   23b64:	dd000417 	ldw	r20,16(sp)
   23b68:	dcc00317 	ldw	r19,12(sp)
   23b6c:	dc800217 	ldw	r18,8(sp)
   23b70:	dc400117 	ldw	r17,4(sp)
   23b74:	dc000017 	ldw	r16,0(sp)
   23b78:	dec00a04 	addi	sp,sp,40
   23b7c:	f800283a 	ret
   23b80:	00bffe04 	movi	r2,-8
   23b84:	88a2703a 	and	r17,r17,r2
   23b88:	88006616 	blt	r17,zero,23d24 <_malloc_r+0x278>
   23b8c:	89406536 	bltu	r17,r5,23d24 <_malloc_r+0x278>
   23b90:	00316bc0 	call	316bc <__malloc_lock>
   23b94:	88807e28 	cmpgeui	r2,r17,504
   23b98:	1000ef26 	beq	r2,zero,23f58 <_malloc_r+0x4ac>
   23b9c:	8804d27a 	srli	r2,r17,9
   23ba0:	10006426 	beq	r2,zero,23d34 <_malloc_r+0x288>
   23ba4:	10c00168 	cmpgeui	r3,r2,5
   23ba8:	1800c31e 	bne	r3,zero,23eb8 <_malloc_r+0x40c>
   23bac:	8804d1ba 	srli	r2,r17,6
   23bb0:	11c00e44 	addi	r7,r2,57
   23bb4:	380890fa 	slli	r4,r7,3
   23bb8:	12000e04 	addi	r8,r2,56
   23bbc:	04c000f4 	movhi	r19,3
   23bc0:	9cd6bc04 	addi	r19,r19,23280
   23bc4:	9909883a 	add	r4,r19,r4
   23bc8:	24000117 	ldw	r16,4(r4)
   23bcc:	213ffe04 	addi	r4,r4,-8
   23bd0:	24000b26 	beq	r4,r16,23c00 <_malloc_r+0x154>
   23bd4:	01bfff04 	movi	r6,-4
   23bd8:	00000306 	br	23be8 <_malloc_r+0x13c>
   23bdc:	1800970e 	bge	r3,zero,23e3c <_malloc_r+0x390>
   23be0:	84000317 	ldw	r16,12(r16)
   23be4:	24000626 	beq	r4,r16,23c00 <_malloc_r+0x154>
   23be8:	80800117 	ldw	r2,4(r16)
   23bec:	1184703a 	and	r2,r2,r6
   23bf0:	1447c83a 	sub	r3,r2,r17
   23bf4:	19400408 	cmpgei	r5,r3,16
   23bf8:	283ff826 	beq	r5,zero,23bdc <_malloc_r+0x130>
   23bfc:	400f883a 	mov	r7,r8
   23c00:	9c000417 	ldw	r16,16(r19)
   23c04:	024000f4 	movhi	r9,3
   23c08:	4a56be04 	addi	r9,r9,23288
   23c0c:	82407f26 	beq	r16,r9,23e0c <_malloc_r+0x360>
   23c10:	80800117 	ldw	r2,4(r16)
   23c14:	00ffff04 	movi	r3,-4
   23c18:	10c4703a 	and	r2,r2,r3
   23c1c:	1447c83a 	sub	r3,r2,r17
   23c20:	19000410 	cmplti	r4,r3,16
   23c24:	2000cf26 	beq	r4,zero,23f64 <_malloc_r+0x4b8>
   23c28:	9a400515 	stw	r9,20(r19)
   23c2c:	9a400415 	stw	r9,16(r19)
   23c30:	1800c10e 	bge	r3,zero,23f38 <_malloc_r+0x48c>
   23c34:	10c08028 	cmpgeui	r3,r2,512
   23c38:	99400117 	ldw	r5,4(r19)
   23c3c:	1800851e 	bne	r3,zero,23e54 <_malloc_r+0x3a8>
   23c40:	1006d0fa 	srli	r3,r2,3
   23c44:	1008d17a 	srli	r4,r2,5
   23c48:	18800044 	addi	r2,r3,1
   23c4c:	100490fa 	slli	r2,r2,3
   23c50:	00c00044 	movi	r3,1
   23c54:	1906983a 	sll	r3,r3,r4
   23c58:	9885883a 	add	r2,r19,r2
   23c5c:	11000017 	ldw	r4,0(r2)
   23c60:	28cab03a 	or	r5,r5,r3
   23c64:	10fffe04 	addi	r3,r2,-8
   23c68:	80c00315 	stw	r3,12(r16)
   23c6c:	81000215 	stw	r4,8(r16)
   23c70:	99400115 	stw	r5,4(r19)
   23c74:	14000015 	stw	r16,0(r2)
   23c78:	24000315 	stw	r16,12(r4)
   23c7c:	3805d0ba 	srai	r2,r7,2
   23c80:	01000044 	movi	r4,1
   23c84:	2088983a 	sll	r4,r4,r2
   23c88:	29002e36 	bltu	r5,r4,23d44 <_malloc_r+0x298>
   23c8c:	2144703a 	and	r2,r4,r5
   23c90:	10000a1e 	bne	r2,zero,23cbc <_malloc_r+0x210>
   23c94:	2109883a 	add	r4,r4,r4
   23c98:	00bfff04 	movi	r2,-4
   23c9c:	3884703a 	and	r2,r7,r2
   23ca0:	2146703a 	and	r3,r4,r5
   23ca4:	11c00104 	addi	r7,r2,4
   23ca8:	1800041e 	bne	r3,zero,23cbc <_malloc_r+0x210>
   23cac:	2109883a 	add	r4,r4,r4
   23cb0:	2144703a 	and	r2,r4,r5
   23cb4:	39c00104 	addi	r7,r7,4
   23cb8:	103ffc26 	beq	r2,zero,23cac <_malloc_r+0x200>
   23cbc:	02bfff04 	movi	r10,-4
   23cc0:	381690fa 	slli	r11,r7,3
   23cc4:	3819883a 	mov	r12,r7
   23cc8:	9ad7883a 	add	r11,r19,r11
   23ccc:	5811883a 	mov	r8,r11
   23cd0:	40800317 	ldw	r2,12(r8)
   23cd4:	40808126 	beq	r8,r2,23edc <_malloc_r+0x430>
   23cd8:	10c00117 	ldw	r3,4(r2)
   23cdc:	1021883a 	mov	r16,r2
   23ce0:	10800317 	ldw	r2,12(r2)
   23ce4:	1a86703a 	and	r3,r3,r10
   23ce8:	1c4bc83a 	sub	r5,r3,r17
   23cec:	29800410 	cmplti	r6,r5,16
   23cf0:	30007f26 	beq	r6,zero,23ef0 <_malloc_r+0x444>
   23cf4:	283ff716 	blt	r5,zero,23cd4 <_malloc_r+0x228>
   23cf8:	80c7883a 	add	r3,r16,r3
   23cfc:	19400117 	ldw	r5,4(r3)
   23d00:	81800217 	ldw	r6,8(r16)
   23d04:	9009883a 	mov	r4,r18
   23d08:	29400054 	ori	r5,r5,1
   23d0c:	19400115 	stw	r5,4(r3)
   23d10:	30800315 	stw	r2,12(r6)
   23d14:	11800215 	stw	r6,8(r2)
   23d18:	00316e00 	call	316e0 <__malloc_unlock>
   23d1c:	80800204 	addi	r2,r16,8
   23d20:	003f8b06 	br	23b50 <_malloc_r+0xa4>
   23d24:	00800304 	movi	r2,12
   23d28:	90800015 	stw	r2,0(r18)
   23d2c:	0005883a 	mov	r2,zero
   23d30:	003f8706 	br	23b50 <_malloc_r+0xa4>
   23d34:	01008004 	movi	r4,512
   23d38:	01c01004 	movi	r7,64
   23d3c:	02000fc4 	movi	r8,63
   23d40:	003f9e06 	br	23bbc <_malloc_r+0x110>
   23d44:	9c000217 	ldw	r16,8(r19)
   23d48:	00bfff04 	movi	r2,-4
   23d4c:	80c00117 	ldw	r3,4(r16)
   23d50:	18aa703a 	and	r21,r3,r2
   23d54:	ac400336 	bltu	r21,r17,23d64 <_malloc_r+0x2b8>
   23d58:	ac47c83a 	sub	r3,r21,r17
   23d5c:	18800408 	cmpgei	r2,r3,16
   23d60:	10002c1e 	bne	r2,zero,23e14 <_malloc_r+0x368>
   23d64:	008000f4 	movhi	r2,3
   23d68:	109cd117 	ldw	r2,29508(r2)
   23d6c:	00c00134 	movhi	r3,4
   23d70:	1d25f417 	ldw	r20,-26672(r3)
   23d74:	10bfffd8 	cmpnei	r2,r2,-1
   23d78:	856f883a 	add	r23,r16,r21
   23d7c:	8d29883a 	add	r20,r17,r20
   23d80:	1000e726 	beq	r2,zero,24120 <_malloc_r+0x674>
   23d84:	a50403c4 	addi	r20,r20,4111
   23d88:	00bc0004 	movi	r2,-4096
   23d8c:	a0a8703a 	and	r20,r20,r2
   23d90:	a00b883a 	mov	r5,r20
   23d94:	9009883a 	mov	r4,r18
   23d98:	00246f80 	call	246f8 <_sbrk_r>
   23d9c:	102d883a 	mov	r22,r2
   23da0:	10bfffd8 	cmpnei	r2,r2,-1
   23da4:	10008426 	beq	r2,zero,23fb8 <_malloc_r+0x50c>
   23da8:	b5c08236 	bltu	r22,r23,23fb4 <_malloc_r+0x508>
   23dac:	00800134 	movhi	r2,4
   23db0:	1125fe17 	ldw	r4,-26632(r2)
   23db4:	a109883a 	add	r4,r20,r4
   23db8:	1125fe15 	stw	r4,-26632(r2)
   23dbc:	2007883a 	mov	r3,r4
   23dc0:	bd80a51e 	bne	r23,r22,24058 <_malloc_r+0x5ac>
   23dc4:	b083ffcc 	andi	r2,r22,4095
   23dc8:	1000a31e 	bne	r2,zero,24058 <_malloc_r+0x5ac>
   23dcc:	9d800217 	ldw	r22,8(r19)
   23dd0:	ad07883a 	add	r3,r21,r20
   23dd4:	18c00054 	ori	r3,r3,1
   23dd8:	b0c00115 	stw	r3,4(r22)
   23ddc:	00800134 	movhi	r2,4
   23de0:	10a5f317 	ldw	r2,-26676(r2)
   23de4:	1100022e 	bgeu	r2,r4,23df0 <_malloc_r+0x344>
   23de8:	00800134 	movhi	r2,4
   23dec:	1125f315 	stw	r4,-26676(r2)
   23df0:	00800134 	movhi	r2,4
   23df4:	10a5f217 	ldw	r2,-26680(r2)
   23df8:	1100022e 	bgeu	r2,r4,23e04 <_malloc_r+0x358>
   23dfc:	00800134 	movhi	r2,4
   23e00:	1125f215 	stw	r4,-26680(r2)
   23e04:	b021883a 	mov	r16,r22
   23e08:	00006d06 	br	23fc0 <_malloc_r+0x514>
   23e0c:	99400117 	ldw	r5,4(r19)
   23e10:	003f9a06 	br	23c7c <_malloc_r+0x1d0>
   23e14:	88800054 	ori	r2,r17,1
   23e18:	80800115 	stw	r2,4(r16)
   23e1c:	8463883a 	add	r17,r16,r17
   23e20:	9c400215 	stw	r17,8(r19)
   23e24:	18c00054 	ori	r3,r3,1
   23e28:	88c00115 	stw	r3,4(r17)
   23e2c:	9009883a 	mov	r4,r18
   23e30:	00316e00 	call	316e0 <__malloc_unlock>
   23e34:	80800204 	addi	r2,r16,8
   23e38:	003f4506 	br	23b50 <_malloc_r+0xa4>
   23e3c:	81000317 	ldw	r4,12(r16)
   23e40:	003f3906 	br	23b28 <_malloc_r+0x7c>
   23e44:	14000317 	ldw	r16,12(r2)
   23e48:	143f331e 	bne	r2,r16,23b18 <_malloc_r+0x6c>
   23e4c:	39c00084 	addi	r7,r7,2
   23e50:	003f6b06 	br	23c00 <_malloc_r+0x154>
   23e54:	1006d27a 	srli	r3,r2,9
   23e58:	19000168 	cmpgeui	r4,r3,5
   23e5c:	20005026 	beq	r4,zero,23fa0 <_malloc_r+0x4f4>
   23e60:	19000568 	cmpgeui	r4,r3,21
   23e64:	2000c01e 	bne	r4,zero,24168 <_malloc_r+0x6bc>
   23e68:	19801704 	addi	r6,r3,92
   23e6c:	300c90fa 	slli	r6,r6,3
   23e70:	190016c4 	addi	r4,r3,91
   23e74:	998d883a 	add	r6,r19,r6
   23e78:	30c00017 	ldw	r3,0(r6)
   23e7c:	31bffe04 	addi	r6,r6,-8
   23e80:	30c0a926 	beq	r6,r3,24128 <_malloc_r+0x67c>
   23e84:	023fff04 	movi	r8,-4
   23e88:	00000206 	br	23e94 <_malloc_r+0x3e8>
   23e8c:	18c00217 	ldw	r3,8(r3)
   23e90:	30c00326 	beq	r6,r3,23ea0 <_malloc_r+0x3f4>
   23e94:	19000117 	ldw	r4,4(r3)
   23e98:	2208703a 	and	r4,r4,r8
   23e9c:	113ffb36 	bltu	r2,r4,23e8c <_malloc_r+0x3e0>
   23ea0:	19800317 	ldw	r6,12(r3)
   23ea4:	81800315 	stw	r6,12(r16)
   23ea8:	80c00215 	stw	r3,8(r16)
   23eac:	34000215 	stw	r16,8(r6)
   23eb0:	1c000315 	stw	r16,12(r3)
   23eb4:	003f7106 	br	23c7c <_malloc_r+0x1d0>
   23eb8:	10c00568 	cmpgeui	r3,r2,21
   23ebc:	18004926 	beq	r3,zero,23fe4 <_malloc_r+0x538>
   23ec0:	10c01568 	cmpgeui	r3,r2,85
   23ec4:	1800af1e 	bne	r3,zero,24184 <_malloc_r+0x6d8>
   23ec8:	8804d33a 	srli	r2,r17,12
   23ecc:	11c01bc4 	addi	r7,r2,111
   23ed0:	380890fa 	slli	r4,r7,3
   23ed4:	12001b84 	addi	r8,r2,110
   23ed8:	003f3806 	br	23bbc <_malloc_r+0x110>
   23edc:	63000044 	addi	r12,r12,1
   23ee0:	608000cc 	andi	r2,r12,3
   23ee4:	42000204 	addi	r8,r8,8
   23ee8:	103f791e 	bne	r2,zero,23cd0 <_malloc_r+0x224>
   23eec:	00004406 	br	24000 <_malloc_r+0x554>
   23ef0:	81000217 	ldw	r4,8(r16)
   23ef4:	89800054 	ori	r6,r17,1
   23ef8:	81800115 	stw	r6,4(r16)
   23efc:	20800315 	stw	r2,12(r4)
   23f00:	11000215 	stw	r4,8(r2)
   23f04:	8463883a 	add	r17,r16,r17
   23f08:	9c400515 	stw	r17,20(r19)
   23f0c:	9c400415 	stw	r17,16(r19)
   23f10:	28800054 	ori	r2,r5,1
   23f14:	88800115 	stw	r2,4(r17)
   23f18:	8a400315 	stw	r9,12(r17)
   23f1c:	8a400215 	stw	r9,8(r17)
   23f20:	80c7883a 	add	r3,r16,r3
   23f24:	19400015 	stw	r5,0(r3)
   23f28:	9009883a 	mov	r4,r18
   23f2c:	00316e00 	call	316e0 <__malloc_unlock>
   23f30:	80800204 	addi	r2,r16,8
   23f34:	003f0606 	br	23b50 <_malloc_r+0xa4>
   23f38:	8085883a 	add	r2,r16,r2
   23f3c:	10c00117 	ldw	r3,4(r2)
   23f40:	9009883a 	mov	r4,r18
   23f44:	18c00054 	ori	r3,r3,1
   23f48:	10c00115 	stw	r3,4(r2)
   23f4c:	00316e00 	call	316e0 <__malloc_unlock>
   23f50:	80800204 	addi	r2,r16,8
   23f54:	003efe06 	br	23b50 <_malloc_r+0xa4>
   23f58:	880ed0fa 	srli	r7,r17,3
   23f5c:	88800204 	addi	r2,r17,8
   23f60:	003ee706 	br	23b00 <_malloc_r+0x54>
   23f64:	89000054 	ori	r4,r17,1
   23f68:	81000115 	stw	r4,4(r16)
   23f6c:	8463883a 	add	r17,r16,r17
   23f70:	9c400515 	stw	r17,20(r19)
   23f74:	9c400415 	stw	r17,16(r19)
   23f78:	19000054 	ori	r4,r3,1
   23f7c:	89000115 	stw	r4,4(r17)
   23f80:	8085883a 	add	r2,r16,r2
   23f84:	8a400315 	stw	r9,12(r17)
   23f88:	8a400215 	stw	r9,8(r17)
   23f8c:	10c00015 	stw	r3,0(r2)
   23f90:	9009883a 	mov	r4,r18
   23f94:	00316e00 	call	316e0 <__malloc_unlock>
   23f98:	80800204 	addi	r2,r16,8
   23f9c:	003eec06 	br	23b50 <_malloc_r+0xa4>
   23fa0:	1006d1ba 	srli	r3,r2,6
   23fa4:	19800e44 	addi	r6,r3,57
   23fa8:	300c90fa 	slli	r6,r6,3
   23fac:	19000e04 	addi	r4,r3,56
   23fb0:	003fb006 	br	23e74 <_malloc_r+0x3c8>
   23fb4:	84c02426 	beq	r16,r19,24048 <_malloc_r+0x59c>
   23fb8:	9c000217 	ldw	r16,8(r19)
   23fbc:	80c00117 	ldw	r3,4(r16)
   23fc0:	00bfff04 	movi	r2,-4
   23fc4:	1884703a 	and	r2,r3,r2
   23fc8:	1447c83a 	sub	r3,r2,r17
   23fcc:	14400236 	bltu	r2,r17,23fd8 <_malloc_r+0x52c>
   23fd0:	18800408 	cmpgei	r2,r3,16
   23fd4:	103f8f1e 	bne	r2,zero,23e14 <_malloc_r+0x368>
   23fd8:	9009883a 	mov	r4,r18
   23fdc:	00316e00 	call	316e0 <__malloc_unlock>
   23fe0:	003f5206 	br	23d2c <_malloc_r+0x280>
   23fe4:	11c01704 	addi	r7,r2,92
   23fe8:	380890fa 	slli	r4,r7,3
   23fec:	120016c4 	addi	r8,r2,91
   23ff0:	003ef206 	br	23bbc <_malloc_r+0x110>
   23ff4:	58800217 	ldw	r2,8(r11)
   23ff8:	39ffffc4 	addi	r7,r7,-1
   23ffc:	12c0961e 	bne	r2,r11,24258 <_malloc_r+0x7ac>
   24000:	388000cc 	andi	r2,r7,3
   24004:	5afffe04 	addi	r11,r11,-8
   24008:	103ffa1e 	bne	r2,zero,23ff4 <_malloc_r+0x548>
   2400c:	98c00117 	ldw	r3,4(r19)
   24010:	0104303a 	nor	r2,zero,r4
   24014:	10c4703a 	and	r2,r2,r3
   24018:	98800115 	stw	r2,4(r19)
   2401c:	2109883a 	add	r4,r4,r4
   24020:	113f4836 	bltu	r2,r4,23d44 <_malloc_r+0x298>
   24024:	203f4726 	beq	r4,zero,23d44 <_malloc_r+0x298>
   24028:	2086703a 	and	r3,r4,r2
   2402c:	1800041e 	bne	r3,zero,24040 <_malloc_r+0x594>
   24030:	2109883a 	add	r4,r4,r4
   24034:	2086703a 	and	r3,r4,r2
   24038:	63000104 	addi	r12,r12,4
   2403c:	183ffc26 	beq	r3,zero,24030 <_malloc_r+0x584>
   24040:	600f883a 	mov	r7,r12
   24044:	003f1e06 	br	23cc0 <_malloc_r+0x214>
   24048:	00800134 	movhi	r2,4
   2404c:	10e5fe17 	ldw	r3,-26632(r2)
   24050:	a0c7883a 	add	r3,r20,r3
   24054:	10e5fe15 	stw	r3,-26632(r2)
   24058:	008000f4 	movhi	r2,3
   2405c:	109cd117 	ldw	r2,29508(r2)
   24060:	10bfffd8 	cmpnei	r2,r2,-1
   24064:	10004e26 	beq	r2,zero,241a0 <_malloc_r+0x6f4>
   24068:	b5c5c83a 	sub	r2,r22,r23
   2406c:	10c5883a 	add	r2,r2,r3
   24070:	00c00134 	movhi	r3,4
   24074:	18a5fe15 	stw	r2,-26632(r3)
   24078:	b70001cc 	andi	fp,r22,7
   2407c:	e0003026 	beq	fp,zero,24140 <_malloc_r+0x694>
   24080:	b72dc83a 	sub	r22,r22,fp
   24084:	b5800204 	addi	r22,r22,8
   24088:	01040204 	movi	r4,4104
   2408c:	2709c83a 	sub	r4,r4,fp
   24090:	b529883a 	add	r20,r22,r20
   24094:	2509c83a 	sub	r4,r4,r20
   24098:	25c3ffcc 	andi	r23,r4,4095
   2409c:	b80b883a 	mov	r5,r23
   240a0:	9009883a 	mov	r4,r18
   240a4:	00246f80 	call	246f8 <_sbrk_r>
   240a8:	10ffffe0 	cmpeqi	r3,r2,-1
   240ac:	1800501e 	bne	r3,zero,241f0 <_malloc_r+0x744>
   240b0:	1585c83a 	sub	r2,r2,r22
   240b4:	15e9883a 	add	r20,r2,r23
   240b8:	00800134 	movhi	r2,4
   240bc:	10a5fe17 	ldw	r2,-26632(r2)
   240c0:	9d800215 	stw	r22,8(r19)
   240c4:	a0c00054 	ori	r3,r20,1
   240c8:	b889883a 	add	r4,r23,r2
   240cc:	00800134 	movhi	r2,4
   240d0:	1125fe15 	stw	r4,-26632(r2)
   240d4:	b0c00115 	stw	r3,4(r22)
   240d8:	84ff4026 	beq	r16,r19,23ddc <_malloc_r+0x330>
   240dc:	a8800428 	cmpgeui	r2,r21,16
   240e0:	10003226 	beq	r2,zero,241ac <_malloc_r+0x700>
   240e4:	80800117 	ldw	r2,4(r16)
   240e8:	017ffe04 	movi	r5,-8
   240ec:	a8fffd04 	addi	r3,r21,-12
   240f0:	1946703a 	and	r3,r3,r5
   240f4:	1080004c 	andi	r2,r2,1
   240f8:	10c4b03a 	or	r2,r2,r3
   240fc:	80800115 	stw	r2,4(r16)
   24100:	01400144 	movi	r5,5
   24104:	80c5883a 	add	r2,r16,r3
   24108:	11400115 	stw	r5,4(r2)
   2410c:	11400215 	stw	r5,8(r2)
   24110:	18c00428 	cmpgeui	r3,r3,16
   24114:	18003b1e 	bne	r3,zero,24204 <_malloc_r+0x758>
   24118:	b0c00117 	ldw	r3,4(r22)
   2411c:	003f2f06 	br	23ddc <_malloc_r+0x330>
   24120:	a5000404 	addi	r20,r20,16
   24124:	003f1a06 	br	23d90 <_malloc_r+0x2e4>
   24128:	2009d0ba 	srai	r4,r4,2
   2412c:	00800044 	movi	r2,1
   24130:	1104983a 	sll	r2,r2,r4
   24134:	288ab03a 	or	r5,r5,r2
   24138:	99400115 	stw	r5,4(r19)
   2413c:	003f5906 	br	23ea4 <_malloc_r+0x3f8>
   24140:	b509883a 	add	r4,r22,r20
   24144:	0109c83a 	sub	r4,zero,r4
   24148:	25c3ffcc 	andi	r23,r4,4095
   2414c:	b80b883a 	mov	r5,r23
   24150:	9009883a 	mov	r4,r18
   24154:	00246f80 	call	246f8 <_sbrk_r>
   24158:	10ffffe0 	cmpeqi	r3,r2,-1
   2415c:	183fd426 	beq	r3,zero,240b0 <_malloc_r+0x604>
   24160:	002f883a 	mov	r23,zero
   24164:	003fd406 	br	240b8 <_malloc_r+0x60c>
   24168:	19001568 	cmpgeui	r4,r3,85
   2416c:	2000121e 	bne	r4,zero,241b8 <_malloc_r+0x70c>
   24170:	1006d33a 	srli	r3,r2,12
   24174:	19801bc4 	addi	r6,r3,111
   24178:	300c90fa 	slli	r6,r6,3
   2417c:	19001b84 	addi	r4,r3,110
   24180:	003f3c06 	br	23e74 <_malloc_r+0x3c8>
   24184:	10c05568 	cmpgeui	r3,r2,341
   24188:	1800121e 	bne	r3,zero,241d4 <_malloc_r+0x728>
   2418c:	8804d3fa 	srli	r2,r17,15
   24190:	11c01e04 	addi	r7,r2,120
   24194:	380890fa 	slli	r4,r7,3
   24198:	12001dc4 	addi	r8,r2,119
   2419c:	003e8706 	br	23bbc <_malloc_r+0x110>
   241a0:	008000f4 	movhi	r2,3
   241a4:	159cd115 	stw	r22,29508(r2)
   241a8:	003fb306 	br	24078 <_malloc_r+0x5cc>
   241ac:	00800044 	movi	r2,1
   241b0:	b0800115 	stw	r2,4(r22)
   241b4:	003f8806 	br	23fd8 <_malloc_r+0x52c>
   241b8:	19005568 	cmpgeui	r4,r3,341
   241bc:	2000181e 	bne	r4,zero,24220 <_malloc_r+0x774>
   241c0:	1006d3fa 	srli	r3,r2,15
   241c4:	19801e04 	addi	r6,r3,120
   241c8:	300c90fa 	slli	r6,r6,3
   241cc:	19001dc4 	addi	r4,r3,119
   241d0:	003f2806 	br	23e74 <_malloc_r+0x3c8>
   241d4:	10815568 	cmpgeui	r2,r2,1365
   241d8:	1000181e 	bne	r2,zero,2423c <_malloc_r+0x790>
   241dc:	8804d4ba 	srli	r2,r17,18
   241e0:	11c01f44 	addi	r7,r2,125
   241e4:	380890fa 	slli	r4,r7,3
   241e8:	12001f04 	addi	r8,r2,124
   241ec:	003e7306 	br	23bbc <_malloc_r+0x110>
   241f0:	e73ffe04 	addi	fp,fp,-8
   241f4:	a729883a 	add	r20,r20,fp
   241f8:	a5a9c83a 	sub	r20,r20,r22
   241fc:	002f883a 	mov	r23,zero
   24200:	003fad06 	br	240b8 <_malloc_r+0x60c>
   24204:	9009883a 	mov	r4,r18
   24208:	81400204 	addi	r5,r16,8
   2420c:	00291e00 	call	291e0 <_free_r>
   24210:	00800134 	movhi	r2,4
   24214:	9d800217 	ldw	r22,8(r19)
   24218:	1125fe17 	ldw	r4,-26632(r2)
   2421c:	003fbe06 	br	24118 <_malloc_r+0x66c>
   24220:	18c15568 	cmpgeui	r3,r3,1365
   24224:	1800091e 	bne	r3,zero,2424c <_malloc_r+0x7a0>
   24228:	1006d4ba 	srli	r3,r2,18
   2422c:	19801f44 	addi	r6,r3,125
   24230:	300c90fa 	slli	r6,r6,3
   24234:	19001f04 	addi	r4,r3,124
   24238:	003f0e06 	br	23e74 <_malloc_r+0x3c8>
   2423c:	0100fe04 	movi	r4,1016
   24240:	01c01fc4 	movi	r7,127
   24244:	02001f84 	movi	r8,126
   24248:	003e5c06 	br	23bbc <_malloc_r+0x110>
   2424c:	0180fe04 	movi	r6,1016
   24250:	01001f84 	movi	r4,126
   24254:	003f0706 	br	23e74 <_malloc_r+0x3c8>
   24258:	98800117 	ldw	r2,4(r19)
   2425c:	003f6f06 	br	2401c <_malloc_r+0x570>

00024260 <memset>:
   24260:	20c000cc 	andi	r3,r4,3
   24264:	2005883a 	mov	r2,r4
   24268:	18003626 	beq	r3,zero,24344 <memset+0xe4>
   2426c:	31ffffc4 	addi	r7,r6,-1
   24270:	30003226 	beq	r6,zero,2433c <memset+0xdc>
   24274:	2811883a 	mov	r8,r5
   24278:	2007883a 	mov	r3,r4
   2427c:	00000306 	br	2428c <memset+0x2c>
   24280:	39ffffc4 	addi	r7,r7,-1
   24284:	39bfffe0 	cmpeqi	r6,r7,-1
   24288:	30002c1e 	bne	r6,zero,2433c <memset+0xdc>
   2428c:	18c00044 	addi	r3,r3,1
   24290:	198000cc 	andi	r6,r3,3
   24294:	1a3fffc5 	stb	r8,-1(r3)
   24298:	303ff91e 	bne	r6,zero,24280 <memset+0x20>
   2429c:	39000128 	cmpgeui	r4,r7,4
   242a0:	20002126 	beq	r4,zero,24328 <memset+0xc8>
   242a4:	02004074 	movhi	r8,257
   242a8:	29803fcc 	andi	r6,r5,255
   242ac:	42004044 	addi	r8,r8,257
   242b0:	39000430 	cmpltui	r4,r7,16
   242b4:	320d383a 	mul	r6,r6,r8
   242b8:	2000251e 	bne	r4,zero,24350 <memset+0xf0>
   242bc:	393ffc04 	addi	r4,r7,-16
   242c0:	2008d13a 	srli	r4,r4,4
   242c4:	21000044 	addi	r4,r4,1
   242c8:	2008913a 	slli	r4,r4,4
   242cc:	1909883a 	add	r4,r3,r4
   242d0:	19800015 	stw	r6,0(r3)
   242d4:	19800115 	stw	r6,4(r3)
   242d8:	19800215 	stw	r6,8(r3)
   242dc:	19800315 	stw	r6,12(r3)
   242e0:	18c00404 	addi	r3,r3,16
   242e4:	193ffa1e 	bne	r3,r4,242d0 <memset+0x70>
   242e8:	3a00030c 	andi	r8,r7,12
   242ec:	39c003cc 	andi	r7,r7,15
   242f0:	40000d26 	beq	r8,zero,24328 <memset+0xc8>
   242f4:	2007883a 	mov	r3,r4
   242f8:	21d3883a 	add	r9,r4,r7
   242fc:	18c00104 	addi	r3,r3,4
   24300:	48d1c83a 	sub	r8,r9,r3
   24304:	42000128 	cmpgeui	r8,r8,4
   24308:	19bfff15 	stw	r6,-4(r3)
   2430c:	403ffb1e 	bne	r8,zero,242fc <memset+0x9c>
   24310:	38ffff04 	addi	r3,r7,-4
   24314:	1806d0ba 	srli	r3,r3,2
   24318:	39c000cc 	andi	r7,r7,3
   2431c:	18c00044 	addi	r3,r3,1
   24320:	180690ba 	slli	r3,r3,2
   24324:	20c7883a 	add	r3,r4,r3
   24328:	38000526 	beq	r7,zero,24340 <memset+0xe0>
   2432c:	19cf883a 	add	r7,r3,r7
   24330:	18c00044 	addi	r3,r3,1
   24334:	197fffc5 	stb	r5,-1(r3)
   24338:	38fffd1e 	bne	r7,r3,24330 <memset+0xd0>
   2433c:	f800283a 	ret
   24340:	f800283a 	ret
   24344:	2007883a 	mov	r3,r4
   24348:	300f883a 	mov	r7,r6
   2434c:	003fd306 	br	2429c <memset+0x3c>
   24350:	1809883a 	mov	r4,r3
   24354:	003fe706 	br	242f4 <memset+0x94>

00024358 <_open_r>:
   24358:	2807883a 	mov	r3,r5
   2435c:	defffe04 	addi	sp,sp,-8
   24360:	dc000015 	stw	r16,0(sp)
   24364:	300b883a 	mov	r5,r6
   24368:	00800134 	movhi	r2,4
   2436c:	380d883a 	mov	r6,r7
   24370:	2021883a 	mov	r16,r4
   24374:	1809883a 	mov	r4,r3
   24378:	dfc00115 	stw	ra,4(sp)
   2437c:	1025f115 	stw	zero,-26684(r2)
   24380:	00317f80 	call	317f8 <open>
   24384:	10ffffd8 	cmpnei	r3,r2,-1
   24388:	18000426 	beq	r3,zero,2439c <_open_r+0x44>
   2438c:	dfc00117 	ldw	ra,4(sp)
   24390:	dc000017 	ldw	r16,0(sp)
   24394:	dec00204 	addi	sp,sp,8
   24398:	f800283a 	ret
   2439c:	00c00134 	movhi	r3,4
   243a0:	18e5f117 	ldw	r3,-26684(r3)
   243a4:	183ff926 	beq	r3,zero,2438c <_open_r+0x34>
   243a8:	80c00015 	stw	r3,0(r16)
   243ac:	dfc00117 	ldw	ra,4(sp)
   243b0:	dc000017 	ldw	r16,0(sp)
   243b4:	dec00204 	addi	sp,sp,8
   243b8:	f800283a 	ret

000243bc <_printf_r>:
   243bc:	defffd04 	addi	sp,sp,-12
   243c0:	2805883a 	mov	r2,r5
   243c4:	dfc00015 	stw	ra,0(sp)
   243c8:	d9800115 	stw	r6,4(sp)
   243cc:	d9c00215 	stw	r7,8(sp)
   243d0:	21400217 	ldw	r5,8(r4)
   243d4:	d9c00104 	addi	r7,sp,4
   243d8:	100d883a 	mov	r6,r2
   243dc:	00249280 	call	24928 <___vfprintf_internal_r>
   243e0:	dfc00017 	ldw	ra,0(sp)
   243e4:	dec00304 	addi	sp,sp,12
   243e8:	f800283a 	ret

000243ec <printf>:
   243ec:	defffc04 	addi	sp,sp,-16
   243f0:	dfc00015 	stw	ra,0(sp)
   243f4:	d9400115 	stw	r5,4(sp)
   243f8:	d9800215 	stw	r6,8(sp)
   243fc:	d9c00315 	stw	r7,12(sp)
   24400:	008000f4 	movhi	r2,3
   24404:	109cd017 	ldw	r2,29504(r2)
   24408:	200b883a 	mov	r5,r4
   2440c:	d9800104 	addi	r6,sp,4
   24410:	11000217 	ldw	r4,8(r2)
   24414:	0026cd00 	call	26cd0 <__vfprintf_internal>
   24418:	dfc00017 	ldw	ra,0(sp)
   2441c:	dec00404 	addi	sp,sp,16
   24420:	f800283a 	ret

00024424 <_putchar_r>:
   24424:	21800217 	ldw	r6,8(r4)
   24428:	002b1001 	jmpi	2b100 <_putc_r>

0002442c <putchar>:
   2442c:	008000f4 	movhi	r2,3
   24430:	109cd017 	ldw	r2,29504(r2)
   24434:	200b883a 	mov	r5,r4
   24438:	11800217 	ldw	r6,8(r2)
   2443c:	1009883a 	mov	r4,r2
   24440:	002b1001 	jmpi	2b100 <_putc_r>

00024444 <_puts_r>:
   24444:	defff504 	addi	sp,sp,-44
   24448:	dc000815 	stw	r16,32(sp)
   2444c:	2021883a 	mov	r16,r4
   24450:	2809883a 	mov	r4,r5
   24454:	dc400915 	stw	r17,36(sp)
   24458:	dfc00a15 	stw	ra,40(sp)
   2445c:	2823883a 	mov	r17,r5
   24460:	00248900 	call	24890 <strlen>
   24464:	11000044 	addi	r4,r2,1
   24468:	d8800515 	stw	r2,20(sp)
   2446c:	00800044 	movi	r2,1
   24470:	00c000f4 	movhi	r3,3
   24474:	d8800715 	stw	r2,28(sp)
   24478:	d8800404 	addi	r2,sp,16
   2447c:	18d23404 	addi	r3,r3,18640
   24480:	d8800115 	stw	r2,4(sp)
   24484:	00800084 	movi	r2,2
   24488:	dc400415 	stw	r17,16(sp)
   2448c:	d8c00615 	stw	r3,24(sp)
   24490:	d9000315 	stw	r4,12(sp)
   24494:	d8800215 	stw	r2,8(sp)
   24498:	81400217 	ldw	r5,8(r16)
   2449c:	80000226 	beq	r16,zero,244a8 <_puts_r+0x64>
   244a0:	80800e17 	ldw	r2,56(r16)
   244a4:	10001426 	beq	r2,zero,244f8 <_puts_r+0xb4>
   244a8:	2880030b 	ldhu	r2,12(r5)
   244ac:	10c8000c 	andi	r3,r2,8192
   244b0:	1800061e 	bne	r3,zero,244cc <_puts_r+0x88>
   244b4:	28c01917 	ldw	r3,100(r5)
   244b8:	0137ffc4 	movi	r4,-8193
   244bc:	10880014 	ori	r2,r2,8192
   244c0:	1906703a 	and	r3,r3,r4
   244c4:	2880030d 	sth	r2,12(r5)
   244c8:	28c01915 	stw	r3,100(r5)
   244cc:	d9800104 	addi	r6,sp,4
   244d0:	8009883a 	mov	r4,r16
   244d4:	00294e80 	call	294e8 <__sfvwrite_r>
   244d8:	1007883a 	mov	r3,r2
   244dc:	00800284 	movi	r2,10
   244e0:	18000a1e 	bne	r3,zero,2450c <_puts_r+0xc8>
   244e4:	dfc00a17 	ldw	ra,40(sp)
   244e8:	dc400917 	ldw	r17,36(sp)
   244ec:	dc000817 	ldw	r16,32(sp)
   244f0:	dec00b04 	addi	sp,sp,44
   244f4:	f800283a 	ret
   244f8:	8009883a 	mov	r4,r16
   244fc:	d9400015 	stw	r5,0(sp)
   24500:	0028fbc0 	call	28fbc <__sinit>
   24504:	d9400017 	ldw	r5,0(sp)
   24508:	003fe706 	br	244a8 <_puts_r+0x64>
   2450c:	00bfffc4 	movi	r2,-1
   24510:	003ff406 	br	244e4 <_puts_r+0xa0>

00024514 <puts>:
   24514:	008000f4 	movhi	r2,3
   24518:	200b883a 	mov	r5,r4
   2451c:	111cd017 	ldw	r4,29504(r2)
   24520:	00244441 	jmpi	24444 <_puts_r>

00024524 <lflush>:
   24524:	2080030b 	ldhu	r2,12(r4)
   24528:	1080024c 	andi	r2,r2,9
   2452c:	10800258 	cmpnei	r2,r2,9
   24530:	10000226 	beq	r2,zero,2453c <lflush+0x18>
   24534:	0005883a 	mov	r2,zero
   24538:	f800283a 	ret
   2453c:	0028c041 	jmpi	28c04 <fflush>

00024540 <__srefill_r>:
   24540:	defffc04 	addi	sp,sp,-16
   24544:	dc400115 	stw	r17,4(sp)
   24548:	dc000015 	stw	r16,0(sp)
   2454c:	dfc00315 	stw	ra,12(sp)
   24550:	dc800215 	stw	r18,8(sp)
   24554:	2023883a 	mov	r17,r4
   24558:	2821883a 	mov	r16,r5
   2455c:	20000226 	beq	r4,zero,24568 <__srefill_r+0x28>
   24560:	20800e17 	ldw	r2,56(r4)
   24564:	10003726 	beq	r2,zero,24644 <__srefill_r+0x104>
   24568:	8080030b 	ldhu	r2,12(r16)
   2456c:	10c8000c 	andi	r3,r2,8192
   24570:	1800071e 	bne	r3,zero,24590 <__srefill_r+0x50>
   24574:	80c01917 	ldw	r3,100(r16)
   24578:	11080014 	ori	r4,r2,8192
   2457c:	00b7ffc4 	movi	r2,-8193
   24580:	1886703a 	and	r3,r3,r2
   24584:	8100030d 	sth	r4,12(r16)
   24588:	2005883a 	mov	r2,r4
   2458c:	80c01915 	stw	r3,100(r16)
   24590:	80000115 	stw	zero,4(r16)
   24594:	10c0080c 	andi	r3,r2,32
   24598:	18004c1e 	bne	r3,zero,246cc <__srefill_r+0x18c>
   2459c:	10c0010c 	andi	r3,r2,4
   245a0:	18001b1e 	bne	r3,zero,24610 <__srefill_r+0xd0>
   245a4:	10c0040c 	andi	r3,r2,16
   245a8:	18004a26 	beq	r3,zero,246d4 <__srefill_r+0x194>
   245ac:	10c0020c 	andi	r3,r2,8
   245b0:	1800351e 	bne	r3,zero,24688 <__srefill_r+0x148>
   245b4:	10800114 	ori	r2,r2,4
   245b8:	8080030d 	sth	r2,12(r16)
   245bc:	80800417 	ldw	r2,16(r16)
   245c0:	10003a26 	beq	r2,zero,246ac <__srefill_r+0x16c>
   245c4:	8480030b 	ldhu	r18,12(r16)
   245c8:	908000cc 	andi	r2,r18,3
   245cc:	10001f1e 	bne	r2,zero,2464c <__srefill_r+0x10c>
   245d0:	81800417 	ldw	r6,16(r16)
   245d4:	80800817 	ldw	r2,32(r16)
   245d8:	81c00517 	ldw	r7,20(r16)
   245dc:	81400717 	ldw	r5,28(r16)
   245e0:	81800015 	stw	r6,0(r16)
   245e4:	8809883a 	mov	r4,r17
   245e8:	103ee83a 	callr	r2
   245ec:	80800115 	stw	r2,4(r16)
   245f0:	0080320e 	bge	zero,r2,246bc <__srefill_r+0x17c>
   245f4:	0005883a 	mov	r2,zero
   245f8:	dfc00317 	ldw	ra,12(sp)
   245fc:	dc800217 	ldw	r18,8(sp)
   24600:	dc400117 	ldw	r17,4(sp)
   24604:	dc000017 	ldw	r16,0(sp)
   24608:	dec00404 	addi	sp,sp,16
   2460c:	f800283a 	ret
   24610:	81400c17 	ldw	r5,48(r16)
   24614:	283fe926 	beq	r5,zero,245bc <__srefill_r+0x7c>
   24618:	80801004 	addi	r2,r16,64
   2461c:	28800226 	beq	r5,r2,24628 <__srefill_r+0xe8>
   24620:	8809883a 	mov	r4,r17
   24624:	00291e00 	call	291e0 <_free_r>
   24628:	80800f17 	ldw	r2,60(r16)
   2462c:	80000c15 	stw	zero,48(r16)
   24630:	80800115 	stw	r2,4(r16)
   24634:	103fe126 	beq	r2,zero,245bc <__srefill_r+0x7c>
   24638:	80800e17 	ldw	r2,56(r16)
   2463c:	80800015 	stw	r2,0(r16)
   24640:	003fec06 	br	245f4 <__srefill_r+0xb4>
   24644:	0028fbc0 	call	28fbc <__sinit>
   24648:	003fc706 	br	24568 <__srefill_r+0x28>
   2464c:	008000f4 	movhi	r2,3
   24650:	111ccf17 	ldw	r4,29500(r2)
   24654:	014000b4 	movhi	r5,2
   24658:	00800044 	movi	r2,1
   2465c:	8080030d 	sth	r2,12(r16)
   24660:	29514904 	addi	r5,r5,17700
   24664:	002998c0 	call	2998c <_fwalk>
   24668:	9080024c 	andi	r2,r18,9
   2466c:	8480030d 	sth	r18,12(r16)
   24670:	10800258 	cmpnei	r2,r2,9
   24674:	103fd61e 	bne	r2,zero,245d0 <__srefill_r+0x90>
   24678:	800b883a 	mov	r5,r16
   2467c:	8809883a 	mov	r4,r17
   24680:	002899c0 	call	2899c <__sflush_r>
   24684:	003fd206 	br	245d0 <__srefill_r+0x90>
   24688:	800b883a 	mov	r5,r16
   2468c:	8809883a 	mov	r4,r17
   24690:	0028ba40 	call	28ba4 <_fflush_r>
   24694:	10000d1e 	bne	r2,zero,246cc <__srefill_r+0x18c>
   24698:	8080030b 	ldhu	r2,12(r16)
   2469c:	80000215 	stw	zero,8(r16)
   246a0:	80000615 	stw	zero,24(r16)
   246a4:	10bffdcc 	andi	r2,r2,65527
   246a8:	003fc206 	br	245b4 <__srefill_r+0x74>
   246ac:	800b883a 	mov	r5,r16
   246b0:	8809883a 	mov	r4,r17
   246b4:	00238600 	call	23860 <__smakebuf_r>
   246b8:	003fc206 	br	245c4 <__srefill_r+0x84>
   246bc:	80c0030b 	ldhu	r3,12(r16)
   246c0:	1000091e 	bne	r2,zero,246e8 <__srefill_r+0x1a8>
   246c4:	18c00814 	ori	r3,r3,32
   246c8:	80c0030d 	sth	r3,12(r16)
   246cc:	00bfffc4 	movi	r2,-1
   246d0:	003fc906 	br	245f8 <__srefill_r+0xb8>
   246d4:	00c00244 	movi	r3,9
   246d8:	88c00015 	stw	r3,0(r17)
   246dc:	10801014 	ori	r2,r2,64
   246e0:	8080030d 	sth	r2,12(r16)
   246e4:	003ff906 	br	246cc <__srefill_r+0x18c>
   246e8:	18c01014 	ori	r3,r3,64
   246ec:	80000115 	stw	zero,4(r16)
   246f0:	80c0030d 	sth	r3,12(r16)
   246f4:	003ff506 	br	246cc <__srefill_r+0x18c>

000246f8 <_sbrk_r>:
   246f8:	defffe04 	addi	sp,sp,-8
   246fc:	dc000015 	stw	r16,0(sp)
   24700:	00800134 	movhi	r2,4
   24704:	2021883a 	mov	r16,r4
   24708:	2809883a 	mov	r4,r5
   2470c:	dfc00115 	stw	ra,4(sp)
   24710:	1025f115 	stw	zero,-26684(r2)
   24714:	0031adc0 	call	31adc <sbrk>
   24718:	10ffffd8 	cmpnei	r3,r2,-1
   2471c:	18000426 	beq	r3,zero,24730 <_sbrk_r+0x38>
   24720:	dfc00117 	ldw	ra,4(sp)
   24724:	dc000017 	ldw	r16,0(sp)
   24728:	dec00204 	addi	sp,sp,8
   2472c:	f800283a 	ret
   24730:	00c00134 	movhi	r3,4
   24734:	18e5f117 	ldw	r3,-26684(r3)
   24738:	183ff926 	beq	r3,zero,24720 <_sbrk_r+0x28>
   2473c:	80c00015 	stw	r3,0(r16)
   24740:	dfc00117 	ldw	ra,4(sp)
   24744:	dc000017 	ldw	r16,0(sp)
   24748:	dec00204 	addi	sp,sp,8
   2474c:	f800283a 	ret

00024750 <__sread>:
   24750:	defffe04 	addi	sp,sp,-8
   24754:	dc000015 	stw	r16,0(sp)
   24758:	2821883a 	mov	r16,r5
   2475c:	2940038f 	ldh	r5,14(r5)
   24760:	dfc00115 	stw	ra,4(sp)
   24764:	002b2ac0 	call	2b2ac <_read_r>
   24768:	10000716 	blt	r2,zero,24788 <__sread+0x38>
   2476c:	80c01417 	ldw	r3,80(r16)
   24770:	1887883a 	add	r3,r3,r2
   24774:	80c01415 	stw	r3,80(r16)
   24778:	dfc00117 	ldw	ra,4(sp)
   2477c:	dc000017 	ldw	r16,0(sp)
   24780:	dec00204 	addi	sp,sp,8
   24784:	f800283a 	ret
   24788:	80c0030b 	ldhu	r3,12(r16)
   2478c:	18fbffcc 	andi	r3,r3,61439
   24790:	80c0030d 	sth	r3,12(r16)
   24794:	dfc00117 	ldw	ra,4(sp)
   24798:	dc000017 	ldw	r16,0(sp)
   2479c:	dec00204 	addi	sp,sp,8
   247a0:	f800283a 	ret

000247a4 <__seofread>:
   247a4:	0005883a 	mov	r2,zero
   247a8:	f800283a 	ret

000247ac <__swrite>:
   247ac:	2880030b 	ldhu	r2,12(r5)
   247b0:	defffb04 	addi	sp,sp,-20
   247b4:	dcc00315 	stw	r19,12(sp)
   247b8:	dc800215 	stw	r18,8(sp)
   247bc:	dc400115 	stw	r17,4(sp)
   247c0:	dc000015 	stw	r16,0(sp)
   247c4:	dfc00415 	stw	ra,16(sp)
   247c8:	10c0400c 	andi	r3,r2,256
   247cc:	2821883a 	mov	r16,r5
   247d0:	2023883a 	mov	r17,r4
   247d4:	3025883a 	mov	r18,r6
   247d8:	3827883a 	mov	r19,r7
   247dc:	18000d1e 	bne	r3,zero,24814 <__swrite+0x68>
   247e0:	8140038f 	ldh	r5,14(r16)
   247e4:	10bbffcc 	andi	r2,r2,61439
   247e8:	980f883a 	mov	r7,r19
   247ec:	900d883a 	mov	r6,r18
   247f0:	8809883a 	mov	r4,r17
   247f4:	8080030d 	sth	r2,12(r16)
   247f8:	dfc00417 	ldw	ra,16(sp)
   247fc:	dcc00317 	ldw	r19,12(sp)
   24800:	dc800217 	ldw	r18,8(sp)
   24804:	dc400117 	ldw	r17,4(sp)
   24808:	dc000017 	ldw	r16,0(sp)
   2480c:	dec00504 	addi	sp,sp,20
   24810:	0026db01 	jmpi	26db0 <_write_r>
   24814:	2940038f 	ldh	r5,14(r5)
   24818:	01c00084 	movi	r7,2
   2481c:	000d883a 	mov	r6,zero
   24820:	0029c500 	call	29c50 <_lseek_r>
   24824:	8080030b 	ldhu	r2,12(r16)
   24828:	003fed06 	br	247e0 <__swrite+0x34>

0002482c <__sseek>:
   2482c:	defffe04 	addi	sp,sp,-8
   24830:	dc000015 	stw	r16,0(sp)
   24834:	2821883a 	mov	r16,r5
   24838:	2940038f 	ldh	r5,14(r5)
   2483c:	dfc00115 	stw	ra,4(sp)
   24840:	0029c500 	call	29c50 <_lseek_r>
   24844:	10ffffd8 	cmpnei	r3,r2,-1
   24848:	18000826 	beq	r3,zero,2486c <__sseek+0x40>
   2484c:	80c0030b 	ldhu	r3,12(r16)
   24850:	80801415 	stw	r2,80(r16)
   24854:	18c40014 	ori	r3,r3,4096
   24858:	80c0030d 	sth	r3,12(r16)
   2485c:	dfc00117 	ldw	ra,4(sp)
   24860:	dc000017 	ldw	r16,0(sp)
   24864:	dec00204 	addi	sp,sp,8
   24868:	f800283a 	ret
   2486c:	80c0030b 	ldhu	r3,12(r16)
   24870:	18fbffcc 	andi	r3,r3,61439
   24874:	80c0030d 	sth	r3,12(r16)
   24878:	dfc00117 	ldw	ra,4(sp)
   2487c:	dc000017 	ldw	r16,0(sp)
   24880:	dec00204 	addi	sp,sp,8
   24884:	f800283a 	ret

00024888 <__sclose>:
   24888:	2940038f 	ldh	r5,14(r5)
   2488c:	0026f601 	jmpi	26f60 <_close_r>

00024890 <strlen>:
   24890:	208000cc 	andi	r2,r4,3
   24894:	10000926 	beq	r2,zero,248bc <strlen+0x2c>
   24898:	2005883a 	mov	r2,r4
   2489c:	00000306 	br	248ac <strlen+0x1c>
   248a0:	10800044 	addi	r2,r2,1
   248a4:	10c000cc 	andi	r3,r2,3
   248a8:	18000526 	beq	r3,zero,248c0 <strlen+0x30>
   248ac:	10c00007 	ldb	r3,0(r2)
   248b0:	183ffb1e 	bne	r3,zero,248a0 <strlen+0x10>
   248b4:	1105c83a 	sub	r2,r2,r4
   248b8:	f800283a 	ret
   248bc:	2005883a 	mov	r2,r4
   248c0:	11400017 	ldw	r5,0(r2)
   248c4:	01ffbff4 	movhi	r7,65279
   248c8:	39ffbfc4 	addi	r7,r7,-257
   248cc:	29c7883a 	add	r3,r5,r7
   248d0:	01a02074 	movhi	r6,32897
   248d4:	014a303a 	nor	r5,zero,r5
   248d8:	1946703a 	and	r3,r3,r5
   248dc:	31a02004 	addi	r6,r6,-32640
   248e0:	1986703a 	and	r3,r3,r6
   248e4:	1800071e 	bne	r3,zero,24904 <strlen+0x74>
   248e8:	11400117 	ldw	r5,4(r2)
   248ec:	10800104 	addi	r2,r2,4
   248f0:	29c7883a 	add	r3,r5,r7
   248f4:	014a303a 	nor	r5,zero,r5
   248f8:	1946703a 	and	r3,r3,r5
   248fc:	1986703a 	and	r3,r3,r6
   24900:	183ff926 	beq	r3,zero,248e8 <strlen+0x58>
   24904:	10c00007 	ldb	r3,0(r2)
   24908:	183fea26 	beq	r3,zero,248b4 <strlen+0x24>
   2490c:	10c00047 	ldb	r3,1(r2)
   24910:	10800044 	addi	r2,r2,1
   24914:	183fe726 	beq	r3,zero,248b4 <strlen+0x24>
   24918:	10c00047 	ldb	r3,1(r2)
   2491c:	10800044 	addi	r2,r2,1
   24920:	183ffa1e 	bne	r3,zero,2490c <strlen+0x7c>
   24924:	003fe306 	br	248b4 <strlen+0x24>

00024928 <___vfprintf_internal_r>:
   24928:	deffbc04 	addi	sp,sp,-272
   2492c:	dfc04315 	stw	ra,268(sp)
   24930:	dc803c15 	stw	r18,240(sp)
   24934:	dc003a15 	stw	r16,232(sp)
   24938:	d9000515 	stw	r4,20(sp)
   2493c:	2021883a 	mov	r16,r4
   24940:	d9400415 	stw	r5,16(sp)
   24944:	3025883a 	mov	r18,r6
   24948:	d9c00715 	stw	r7,28(sp)
   2494c:	df004215 	stw	fp,264(sp)
   24950:	ddc04115 	stw	r23,260(sp)
   24954:	dd804015 	stw	r22,256(sp)
   24958:	dd403f15 	stw	r21,252(sp)
   2495c:	dd003e15 	stw	r20,248(sp)
   24960:	dcc03d15 	stw	r19,244(sp)
   24964:	dc403b15 	stw	r17,236(sp)
   24968:	0029c380 	call	29c38 <_localeconv_r>
   2496c:	10800017 	ldw	r2,0(r2)
   24970:	1009883a 	mov	r4,r2
   24974:	d8800d15 	stw	r2,52(sp)
   24978:	00248900 	call	24890 <strlen>
   2497c:	d8800c15 	stw	r2,48(sp)
   24980:	80000226 	beq	r16,zero,2498c <___vfprintf_internal_r+0x64>
   24984:	80800e17 	ldw	r2,56(r16)
   24988:	10022b26 	beq	r2,zero,25238 <___vfprintf_internal_r+0x910>
   2498c:	d9400417 	ldw	r5,16(sp)
   24990:	2880030b 	ldhu	r2,12(r5)
   24994:	10c8000c 	andi	r3,r2,8192
   24998:	1800071e 	bne	r3,zero,249b8 <___vfprintf_internal_r+0x90>
   2499c:	28c01917 	ldw	r3,100(r5)
   249a0:	11080014 	ori	r4,r2,8192
   249a4:	00b7ffc4 	movi	r2,-8193
   249a8:	1886703a 	and	r3,r3,r2
   249ac:	2900030d 	sth	r4,12(r5)
   249b0:	2005883a 	mov	r2,r4
   249b4:	28c01915 	stw	r3,100(r5)
   249b8:	10c0020c 	andi	r3,r2,8
   249bc:	1800f626 	beq	r3,zero,24d98 <___vfprintf_internal_r+0x470>
   249c0:	d8c00417 	ldw	r3,16(sp)
   249c4:	18c00417 	ldw	r3,16(r3)
   249c8:	1800f326 	beq	r3,zero,24d98 <___vfprintf_internal_r+0x470>
   249cc:	1080068c 	andi	r2,r2,26
   249d0:	10800298 	cmpnei	r2,r2,10
   249d4:	1000f926 	beq	r2,zero,24dbc <___vfprintf_internal_r+0x494>
   249d8:	dc402a04 	addi	r17,sp,168
   249dc:	04c000f4 	movhi	r19,3
   249e0:	9029883a 	mov	r20,r18
   249e4:	dc401d15 	stw	r17,116(sp)
   249e8:	d8001f15 	stw	zero,124(sp)
   249ec:	d8001e15 	stw	zero,120(sp)
   249f0:	d8000915 	stw	zero,36(sp)
   249f4:	d8000a15 	stw	zero,40(sp)
   249f8:	d8000b15 	stw	zero,44(sp)
   249fc:	d8000e15 	stw	zero,56(sp)
   24a00:	d8001115 	stw	zero,68(sp)
   24a04:	d8000615 	stw	zero,24(sp)
   24a08:	9cd24604 	addi	r19,r19,18712
   24a0c:	8825883a 	mov	r18,r17
   24a10:	a0800007 	ldb	r2,0(r20)
   24a14:	1000cd26 	beq	r2,zero,24d4c <___vfprintf_internal_r+0x424>
   24a18:	a021883a 	mov	r16,r20
   24a1c:	00000306 	br	24a2c <___vfprintf_internal_r+0x104>
   24a20:	80800047 	ldb	r2,1(r16)
   24a24:	84000044 	addi	r16,r16,1
