
camera_exposure.elf:     file format elf32-littlenios2
camera_exposure.elf
architecture: nios2:r1, flags 0x00000112:
EXEC_P, HAS_SYMS, D_PAGED
start address 0x00020238

Program Header:
    LOAD off    0x00001000 vaddr 0x00020000 paddr 0x00020000 align 2**12
         filesz 0x00000020 memsz 0x00000020 flags r-x
    LOAD off    0x00001020 vaddr 0x00020020 paddr 0x00020020 align 2**12
         filesz 0x00014f04 memsz 0x00014f04 flags r-x
    LOAD off    0x00015f24 vaddr 0x00034f24 paddr 0x00037374 align 2**12
         filesz 0x00002450 memsz 0x00002450 flags rw-
    LOAD off    0x000007c4 vaddr 0x000397c4 paddr 0x000397c4 align 2**12
         filesz 0x00000000 memsz 0x0000015c flags rw-

Sections:
Idx Name          Size      VMA       LMA       File off  Algn
  0 .entry        00000020  00020000  00020000  00001000  2**5
                  CONTENTS, ALLOC, LOAD, READONLY, CODE
  1 .exceptions   00000218  00020020  00020020  00001020  2**2
                  CONTENTS, ALLOC, LOAD, READONLY, CODE
  2 .text         00014064  00020238  00020238  00001238  2**2
                  CONTENTS, ALLOC, LOAD, READONLY, CODE
  3 .rodata       00000c88  0003429c  0003429c  0001529c  2**2
                  CONTENTS, ALLOC, LOAD, READONLY, DATA
  4 .rwdata       00002450  00034f24  00037374  00015f24  2**2
                  CONTENTS, ALLOC, LOAD, DATA, SMALL_DATA
  5 .bss          0000015c  000397c4  000397c4  000187c4  2**2
                  ALLOC, SMALL_DATA
  6 .onchip_memory2_0 00000000  00039920  00039920  00018374  2**0
                  CONTENTS
  7 .comment      0000002d  00000000  00000000  00018374  2**0
                  CONTENTS, READONLY
  8 .debug_aranges 00001408  00000000  00000000  000183a8  2**3
                  CONTENTS, READONLY, DEBUGGING, OCTETS
  9 .debug_info   00038f70  00000000  00000000  000197b0  2**0
                  CONTENTS, READONLY, DEBUGGING, OCTETS
 10 .debug_abbrev 0000f2e8  00000000  00000000  00052720  2**0
                  CONTENTS, READONLY, DEBUGGING, OCTETS
 11 .debug_line   0001395f  00000000  00000000  00061a08  2**0
                  CONTENTS, READONLY, DEBUGGING, OCTETS
 12 .debug_frame  0000317c  00000000  00000000  00075368  2**2
                  CONTENTS, READONLY, DEBUGGING, OCTETS
 13 .debug_str    00002f88  00000000  00000000  000784e4  2**0
                  CONTENTS, READONLY, DEBUGGING, OCTETS
 14 .debug_alt_sim_info 00000060  00000000  00000000  0007b46c  2**2
                  CONTENTS, READONLY, DEBUGGING, OCTETS
 15 .debug_ranges 00000070  00000000  00000000  0007b4d0  2**3
                  CONTENTS, READONLY, DEBUGGING, OCTETS
 16 .debug_line_str 00002639  00000000  00000000  0007b540  2**0
                  CONTENTS, READONLY, DEBUGGING, OCTETS
 17 .debug_loclists 00015fcc  00000000  00000000  0007db79  2**0
                  CONTENTS, READONLY, DEBUGGING, OCTETS
 18 .debug_rnglists 000019ad  00000000  00000000  00093b45  2**0
                  CONTENTS, READONLY, DEBUGGING, OCTETS
 19 .thread_model 00000003  00000000  00000000  000995e9  2**0
                  CONTENTS, READONLY
 20 .cpu          0000000a  00000000  00000000  000995ec  2**0
                  CONTENTS, READONLY
 21 .qsys         00000001  00000000  00000000  000995f6  2**0
                  CONTENTS, READONLY
 22 .simulation_enabled 00000001  00000000  00000000  000995f7  2**0
                  CONTENTS, READONLY
 23 .sysid_hash   00000004  00000000  00000000  000995f8  2**0
                  CONTENTS, READONLY
 24 .sysid_base   00000004  00000000  00000000  000995fc  2**0
                  CONTENTS, READONLY
 25 .sysid_time   00000004  00000000  00000000  00099600  2**0
                  CONTENTS, READONLY
 26 .stderr_dev   00000009  00000000  00000000  00099604  2**0
                  CONTENTS, READONLY
 27 .stdin_dev    00000009  00000000  00000000  0009960d  2**0
                  CONTENTS, READONLY
 28 .stdout_dev   00000009  00000000  00000000  00099616  2**0
                  CONTENTS, READONLY
 29 .sopc_system_name 00000004  00000000  00000000  0009961f  2**0
                  CONTENTS, READONLY
 30 .quartus_project_dir 00000057  00000000  00000000  00099623  2**0
                  CONTENTS, READONLY
 31 .sopcinfo     000a5f36  00000000  00000000  0009967a  2**0
                  CONTENTS, READONLY
SYMBOL TABLE:
00020000 l    d  .entry	00000000 .entry
00020020 l    d  .exceptions	00000000 .exceptions
00020238 l    d  .text	00000000 .text
0003429c l    d  .rodata	00000000 .rodata
00034f24 l    d  .rwdata	00000000 .rwdata
000397c4 l    d  .bss	00000000 .bss
00039920 l    d  .onchip_memory2_0	00000000 .onchip_memory2_0
00000000 l    d  .comment	00000000 .comment
00000000 l    d  .debug_aranges	00000000 .debug_aranges
00000000 l    d  .debug_info	00000000 .debug_info
00000000 l    d  .debug_abbrev	00000000 .debug_abbrev
00000000 l    d  .debug_line	00000000 .debug_line
00000000 l    d  .debug_frame	00000000 .debug_frame
00000000 l    d  .debug_str	00000000 .debug_str
00000000 l    d  .debug_alt_sim_info	00000000 .debug_alt_sim_info
00000000 l    d  .debug_ranges	00000000 .debug_ranges
00000000 l    d  .debug_line_str	00000000 .debug_line_str
00000000 l    d  .debug_loclists	00000000 .debug_loclists
00000000 l    d  .debug_rnglists	00000000 .debug_rnglists
00000000 l    df *ABS*	00000000 crt0.o
00020280 l       .text	00000000 alt_after_alt_main
00000000 l    df *ABS*	00000000 alt_irq_handler.c
00000000 l    df *ABS*	00000000 alt_instruction_exception_entry.c
00000000 l    df *ABS*	00000000 I2C_core.c
00000000 l    df *ABS*	00000000 auto_focus.c
00000000 l    df *ABS*	00000000 main.c
00000000 l    df *ABS*	00000000 mipi_bridge_config.c
00034f24 l     O .rwdata	00000034 MipiBridgeReg
00000000 l    df *ABS*	00000000 mipi_camera_config.c
00034f58 l     O .rwdata	00000774 MipiCameraReg
00000000 l    df *ABS*	00000000 queue.c
00000000 l    df *ABS*	00000000 lib2-divmod.c
00000000 l    df *ABS*	00000000 fopen.c
00000000 l    df *ABS*	00000000 fseek.c
00000000 l    df *ABS*	00000000 fseeko.c
00000000 l    df *ABS*	00000000 fstatr.c
00000000 l    df *ABS*	00000000 fwrite.c
00000000 l    df *ABS*	00000000 getchar.c
00000000 l    df *ABS*	00000000 impure.c
000356cc l     O .rwdata	00000424 impure_data
00000000 l    df *ABS*	00000000 int_errno.c
00000000 l    df *ABS*	00000000 makebuf.c
00000000 l    df *ABS*	00000000 malloc.c
00000000 l    df *ABS*	00000000 mallocr.c
00000000 l    df *ABS*	00000000 memset.c
00000000 l    df *ABS*	00000000 openr.c
00000000 l    df *ABS*	00000000 printf.c
00000000 l    df *ABS*	00000000 putchar.c
00000000 l    df *ABS*	00000000 puts.c
00000000 l    df *ABS*	00000000 refill.c
00024524 l     F .text	0000001c lflush
00000000 l    df *ABS*	00000000 sbrkr.c
00000000 l    df *ABS*	00000000 stdio.c
00000000 l    df *ABS*	00000000 strlen.c
00000000 l    df *ABS*	00000000 vfprintf.c
00034918 l     O .rodata	00000010 zeroes.0
00026cec l     F .text	000000c4 __sbprintf
00034928 l     O .rodata	00000010 blanks.1
00000000 l    df *ABS*	00000000 writer.c
00000000 l    df *ABS*	00000000 wsetup.c
00000000 l    df *ABS*	00000000 closer.c
00000000 l    df *ABS*	00000000 dtoa.c
00026fb8 l     F .text	000001fc quorem
00000000 l    df *ABS*	00000000 fflush.c
00000000 l    df *ABS*	00000000 findfp.c
00028c88 l     F .text	00000008 __fp_lock
00028c9c l     F .text	00000008 __fp_unlock
00028ca4 l     F .text	00000168 __sinit.part.0
00000000 l    df *ABS*	00000000 flags.c
00000000 l    df *ABS*	00000000 mallocr.c
00000000 l    df *ABS*	00000000 fvwrite.c
00000000 l    df *ABS*	00000000 fwalk.c
00000000 l    df *ABS*	00000000 getc.c
00000000 l    df *ABS*	00000000 isattyr.c
00000000 l    df *ABS*	00000000 localeconv.c
00000000 l    df *ABS*	00000000 lseekr.c
00000000 l    df *ABS*	00000000 memchr.c
00000000 l    df *ABS*	00000000 memcpy.c
00000000 l    df *ABS*	00000000 memmove.c
00000000 l    df *ABS*	00000000 mprec.c
000349d4 l     O .rodata	0000000c p05.0
00000000 l    df *ABS*	00000000 putc.c
00000000 l    df *ABS*	00000000 readr.c
00000000 l    df *ABS*	00000000 mallocr.c
00000000 l    df *ABS*	00000000 rget.c
00000000 l    df *ABS*	00000000 vfprintf.c
0002b9f4 l     F .text	000000f4 __sprint_r.part.0
00034af8 l     O .rodata	00000010 zeroes.0
0002cd8c l     F .text	000000c4 __sbprintf
00034b08 l     O .rodata	00000010 blanks.1
00000000 l    df *ABS*	00000000 wbuf.c
00000000 l    df *ABS*	00000000 assert.c
00000000 l    df *ABS*	00000000 mallocr.c
00000000 l    df *ABS*	00000000 errno.c
00000000 l    df *ABS*	00000000 fclose.c
00000000 l    df *ABS*	00000000 fiprintf.c
00000000 l    df *ABS*	00000000 fputwc.c
00000000 l    df *ABS*	00000000 locale.c
00000000 l    df *ABS*	00000000 mbtowc_r.c
00000000 l    df *ABS*	00000000 strcmp.c
00000000 l    df *ABS*	00000000 vfiprintfr_1.c
00000000 l    df *ABS*	00000000 wcrtomb.c
00000000 l    df *ABS*	00000000 wctomb_r.c
00000000 l    df *ABS*	00000000 abort.c
00000000 l    df *ABS*	00000000 ctype_.c
00000000 l    df *ABS*	00000000 signal.c
00000000 l    df *ABS*	00000000 signalr.c
00000000 l    df *ABS*	00000000 libgcc2.c
00000000 l    df *ABS*	00000000 libgcc2.c
00000000 l    df *ABS*	00000000 adddf3.c
00000000 l    df *ABS*	00000000 divdf3.c
00000000 l    df *ABS*	00000000 eqdf2.c
00000000 l    df *ABS*	00000000 gedf2.c
00000000 l    df *ABS*	00000000 ledf2.c
00000000 l    df *ABS*	00000000 muldf3.c
00000000 l    df *ABS*	00000000 subdf3.c
00000000 l    df *ABS*	00000000 unorddf2.c
00000000 l    df *ABS*	00000000 fixdfsi.c
00000000 l    df *ABS*	00000000 floatsidf.c
00000000 l    df *ABS*	00000000 floatunsidf.c
00000000 l    df *ABS*	00000000 libgcc2.c
00000000 l    df *ABS*	00000000 libgcc2.c
00000000 l    df *ABS*	00000000 alt_close.c
00030e58 l     F .text	0000003c alt_get_errno
00000000 l    df *ABS*	00000000 alt_dev.c
00030f64 l     F .text	0000002c alt_dev_null_write
00000000 l    df *ABS*	00000000 alt_errno.c
00000000 l    df *ABS*	00000000 alt_exit.c
00000000 l    df *ABS*	00000000 alt_fcntl.c
00030fcc l     F .text	0000003c alt_get_errno
00000000 l    df *ABS*	00000000 alt_fstat.c
0003112c l     F .text	0000003c alt_get_errno
00000000 l    df *ABS*	00000000 alt_getpid.c
00000000 l    df *ABS*	00000000 alt_isatty.c
00031238 l     F .text	0000003c alt_get_errno
00000000 l    df *ABS*	00000000 alt_kill.c
00031318 l     F .text	0000003c alt_get_errno
00000000 l    df *ABS*	00000000 alt_load.c
00031444 l     F .text	00000068 alt_load_section
00000000 l    df *ABS*	00000000 alt_lseek.c
00031530 l     F .text	0000003c alt_get_errno
00000000 l    df *ABS*	00000000 alt_main.c
00000000 l    df *ABS*	00000000 alt_malloc_lock.c
00000000 l    df *ABS*	00000000 alt_open.c
00031704 l     F .text	0000003c alt_get_errno
00031740 l     F .text	000000b8 alt_file_locked
00000000 l    df *ABS*	00000000 alt_read.c
0003194c l     F .text	0000003c alt_get_errno
00000000 l    df *ABS*	00000000 alt_release_fd.c
00000000 l    df *ABS*	00000000 alt_sbrk.c
00037364 l     O .rwdata	00000004 heap_end
00000000 l    df *ABS*	00000000 alt_tick.c
00000000 l    df *ABS*	00000000 alt_usleep.c
00000000 l    df *ABS*	00000000 alt_write.c
00031d94 l     F .text	0000003c alt_get_errno
00000000 l    df *ABS*	00000000 alt_sys_init.c
00031ec8 l     F .text	00000034 alt_dev_reg
0003620c l     O .rwdata	00001060 jtag_uart
0003726c l     O .rwdata	000000c4 uart_0
00000000 l    df *ABS*	00000000 altera_avalon_jtag_uart_fd.c
00000000 l    df *ABS*	00000000 altera_avalon_jtag_uart_init.c
000321e0 l     F .text	00000214 altera_avalon_jtag_uart_irq
000323f4 l     F .text	000000a8 altera_avalon_jtag_uart_timeout
00000000 l    df *ABS*	00000000 altera_avalon_jtag_uart_ioctl.c
00000000 l    df *ABS*	00000000 altera_avalon_jtag_uart_read.c
00000000 l    df *ABS*	00000000 altera_avalon_jtag_uart_write.c
00000000 l    df *ABS*	00000000 altera_avalon_timer_sc.c
00032a40 l     F .text	0000007c alt_avalon_timer_sc_irq
00000000 l    df *ABS*	00000000 altera_avalon_uart_fd.c
00000000 l    df *ABS*	00000000 altera_avalon_uart_init.c
00032cfc l     F .text	0000009c altera_avalon_uart_irq
00032d98 l     F .text	000000e0 altera_avalon_uart_rxirq
00032e78 l     F .text	00000144 altera_avalon_uart_txirq
00000000 l    df *ABS*	00000000 altera_avalon_uart_read.c
00033010 l     F .text	0000003c alt_get_errno
00000000 l    df *ABS*	00000000 altera_avalon_uart_write.c
00033234 l     F .text	0000003c alt_get_errno
00000000 l    df *ABS*	00000000 alt_alarm_start.c
00000000 l    df *ABS*	00000000 alt_busy_sleep.c
00000000 l    df *ABS*	00000000 alt_dcache_flush_all.c
00000000 l    df *ABS*	00000000 alt_dev_llist_insert.c
00033728 l     F .text	0000003c alt_get_errno
00000000 l    df *ABS*	00000000 alt_do_ctors.c
00000000 l    df *ABS*	00000000 alt_do_dtors.c
00000000 l    df *ABS*	00000000 alt_find_dev.c
00000000 l    df *ABS*	00000000 alt_find_file.c
00000000 l    df *ABS*	00000000 alt_get_fd.c
00000000 l    df *ABS*	00000000 alt_icache_flush_all.c
00000000 l    df *ABS*	00000000 alt_iic.c
00000000 l    df *ABS*	00000000 alt_iic_isr_register.c
00000000 l    df *ABS*	00000000 alt_io_redirect.c
00033dd8 l     F .text	000000b0 alt_open_fd
00000000 l    df *ABS*	00000000 alt_irq_vars.c
00000000 l    df *ABS*	00000000 altera_nios2_gen2_irq.c
00000000 l    df *ABS*	00000000 alt_icache_flush.c
00000000 l    df *ABS*	00000000 atexit.c
00000000 l    df *ABS*	00000000 exit.c
00000000 l    df *ABS*	00000000 memcmp.c
00000000 l    df *ABS*	00000000 __atexit.c
00000000 l    df *ABS*	00000000 __call_atexit.c
000397f4 g     O .bss	00000004 alt_instruction_exception_handler
0002442c g     F .text	00000018 putchar
0002afb4 g     F .text	00000070 _mprec_log10
0002b0a0 g     F .text	00000060 __any_on
00029bd8 g     F .text	00000058 _isatty_r
000349e0 g     O .rodata	00000028 __mprec_tinytens
00031640 g     F .text	0000007c alt_main
00024444 g     F .text	000000d0 _puts_r
00039820 g     O .bss	00000100 alt_irq
00029c50 g     F .text	00000064 _lseek_r
00021304 g     F .text	000000bc Focus_Released
000205d0 g     F .text	00000060 ACK_check
00037374 g       *ABS*	00000000 __flash_rwdata_start
00020544 g     F .text	0000008c ACK_single_check
00029004 g     F .text	000000b8 __sflags
0002f8f0 g     F .text	00000094 .hidden __eqdf2
0002113c g     F .text	000001c8 Focus_Window
000224c4 g     F .text	00000070 OV8865_write_AF
00039920 g       *ABS*	00000000 __alt_heap_start
00022d74 g     F .text	00000064 QUEUE_IsFull
0002dce0 g     F .text	00000060 _kill_r
000243ec g     F .text	00000038 printf
0002d6d8 g     F .text	0000006c _wcrtomb_r
0002d87c g     F .text	00000090 _signal_r
0002482c g     F .text	0000005c __sseek
00028fbc g     F .text	00000010 __sinit
0002ce50 g     F .text	00000148 __swbuf_r
0002d4d8 g     F .text	00000074 _setlocale_r
00028e0c g     F .text	00000068 __sfmoreglue
000316e0 g     F .text	00000024 __malloc_unlock
00029e84 g     F .text	00000128 memmove
00020630 g     F .text	00000204 OC_I2C_Write
00028fa8 g     F .text	00000014 _cleanup
00029fac g     F .text	000000a4 _Balloc
00021038 g     F .text	00000104 Focus_Init
0002f984 g     F .text	000000fc .hidden __gtdf2
00033f04 g     F .text	00000024 altera_nios2_gen2_irq_init
0002d16c g     F .text	0000000c __errno
00020000 g     F .entry	0000001c __reset
00029c30 g     F .text	00000008 __localeconv_l
00020020 g       *ABS*	00000000 __flash_exceptions_start
00023650 g     F .text	00000060 _fstat_r
00037338 g     O .rwdata	00000001 focus_scal
000397c4 g     O .bss	00000004 errno
0002b978 g     F .text	0000007c __srget
000247a4 g     F .text	00000008 __seofread
000397dc g     O .bss	00000004 alt_argv
0003f330 g       *ABS*	00000000 _gp
00031d64 g     F .text	00000030 usleep
00031218 g     F .text	00000020 getpid
0003608c g     O .rwdata	00000180 alt_fd_list
00029acc g     F .text	0000007c _getc_r
00029b48 g     F .text	00000090 getc
00024424 g     F .text	00000008 _putchar_r
000338d4 g     F .text	00000090 alt_find_dev
00029d84 g     F .text	00000100 memcpy
00020384 g     F .text	0000013c oc_i2c_init_ex
00028c90 g     F .text	0000000c _cleanup_r
00030cc0 g     F .text	000000b8 .hidden __floatsidf
00033e88 g     F .text	0000007c alt_io_redirect
0002fa80 g     F .text	000000f8 .hidden __ltdf2
0003429c g       *ABS*	00000000 __DTOR_END__
00024514 g     F .text	00000010 puts
00033fb8 g     F .text	00000074 alt_exception_cause_generated_bad_addr
0002af0c g     F .text	000000a8 __ratio
0002cd70 g     F .text	0000001c __vfiprintf_internal
00022d34 g     F .text	00000040 QUEUE_IsEmpty
000325f8 g     F .text	00000220 altera_avalon_jtag_uart_read
00023a8c g     F .text	00000010 malloc
000243bc g     F .text	00000030 _printf_r
00020000 g       *ABS*	00000000 __alt_mem_onchip_memory2_0
0002301c g     F .text	00000064 .hidden __udivsi3
00031274 g     F .text	000000a4 isatty
0002d90c g     F .text	000000b0 _raise_r
0002cfb0 g     F .text	00000064 __assert_func
00034a30 g     O .rodata	000000c8 __mprec_tens
00033f28 g     F .text	00000090 alt_icache_flush
000397d0 g     O .bss	00000004 __malloc_top_pad
0002dd40 g     F .text	00000004 _getpid_r
00022ef4 g     F .text	00000034 QUEUE_Empty
000225b4 g     F .text	000000d0 OV8865_FOCUS_Move_to
00029c38 g     F .text	0000000c _localeconv_r
0002a400 g     F .text	000000b0 __i2b
000294e8 g     F .text	000004a4 __sfvwrite_r
00022e68 g     F .text	0000008c QUEUE_Pop
0002d9bc g     F .text	000000bc __sigtramp_r
000246f8 g     F .text	00000058 _sbrk_r
0002b2ac g     F .text	00000064 _read_r
00037336 g     O .rwdata	00000002 focus_height
0003735c g     O .rwdata	00000004 alt_max_fd
0002d178 g     F .text	000000f8 _fclose_r
00022454 g     F .text	00000070 OV8865_write_cmos_sensor_8
00028c04 g     F .text	00000084 fflush
000397cc g     O .bss	00000004 __malloc_max_sbrked_mem
0002e7a4 g     F .text	00000904 .hidden __adddf3
0002acb4 g     F .text	00000100 __b2d
0002e294 g     F .text	00000510 .hidden __umoddi3
0003156c g     F .text	000000d4 lseek
0003733c g     O .rwdata	00000004 _global_impure_ptr
0002b310 g     F .text	000005f4 _realloc_r
00039920 g       *ABS*	00000000 __bss_end
00033cf0 g     F .text	000000e8 alt_iic_isr_register
00031c38 g     F .text	0000012c alt_tick
0002dd44 g     F .text	00000550 .hidden __udivdi3
0002d43c g     F .text	00000024 _fputwc_r
00034a08 g     O .rodata	00000028 __mprec_bigtens
0002a1a4 g     F .text	00000138 __s2b
0002d808 g     F .text	00000018 abort
00030d78 g     F .text	00000090 .hidden __floatunsidf
00037332 g     O .rwdata	00000002 video_h
0002a9cc g     F .text	00000058 __mcmp
00032c50 g     F .text	000000ac altera_avalon_uart_init
00028fdc g     F .text	00000014 __fp_lock_all
00033ca4 g     F .text	0000004c alt_ic_irq_enabled
000213c0 g     F .text	000000b8 mipi_clear_error
00020ba0 g     F .text	00000214 OC_I2CL_Write
00031b94 g     F .text	000000a4 alt_alarm_stop
000397f0 g     O .bss	00000004 alt_irq_active
0002320c g     F .text	00000428 _fseeko_r
00020834 g     F .text	00000064 ACK_judge_for_read
000200fc g     F .exceptions	000000c8 alt_irq_handler
00022768 g     F .text	000000cc OV8865SetGain
00036064 g     O .rwdata	00000028 alt_dev_null
00020284 g     F .text	00000054 Write32_Data
000336dc g     F .text	0000004c alt_dcache_flush_all
0002a2dc g     F .text	00000074 __hi0bits
00030c40 g     F .text	00000080 .hidden __fixdfsi
00037339 g     O .rwdata	00000001 focus_scal_f
00037374 g       *ABS*	00000000 __ram_rwdata_end
00037354 g     O .rwdata	00000008 alt_dev_list
00031dd0 g     F .text	000000f8 write
0002b100 g     F .text	000000cc _putc_r
00034f24 g       *ABS*	00000000 __ram_rodata_end
00031168 g     F .text	000000b0 fstat
00031354 g     F .text	000000f0 kill
0002fa80 g     F .text	000000f8 .hidden __ledf2
0002a704 g     F .text	00000140 __pow5mult
0002bb00 g     F .text	00001270 ___vfiprintf_internal_r
00023080 g     F .text	0000005c .hidden __umodsi3
00021510 g     F .text	00000178 mipi_show_error_info_more
00039920 g       *ABS*	00000000 end
00023634 g     F .text	0000001c fseeko
00033270 g     F .text	000001b4 altera_avalon_uart_write
000231f0 g     F .text	0000001c fseek
00032120 g     F .text	000000c0 altera_avalon_jtag_uart_init
000201c4 g     F .exceptions	00000074 alt_instruction_exception_entry
0003429c g       *ABS*	00000000 __CTOR_LIST__
00040000 g       *ABS*	00000000 __alt_stack_pointer
00032abc g     F .text	00000084 alt_avalon_timer_sc_init
00032ba0 g     F .text	00000060 altera_avalon_uart_write_fd
00030e08 g     F .text	00000050 .hidden __clzsi2
00032c00 g     F .text	00000050 altera_avalon_uart_close_fd
00032818 g     F .text	00000228 altera_avalon_jtag_uart_write
00028fcc g     F .text	00000004 __sfp_lock_acquire
00029cb4 g     F .text	000000d0 memchr
00024928 g     F .text	000023a8 ___vfprintf_internal_r
000291e0 g     F .text	00000308 _free_r
00034c6c g     O .rodata	00000180 _ctype_b
0002d54c g     F .text	0000000c __locale_mb_cur_max
00021710 g     F .text	0000035c NAVIGATION
0003417c g     F .text	00000120 __call_exitprocs
0002b904 g     F .text	00000074 __srget_r
00037344 g     O .rwdata	00000004 __malloc_sbrk_base
00020238 g     F .text	0000004c _start
000397e4 g     O .bss	00000004 _alt_tick_rate
0002a844 g     F .text	00000188 __lshift
00022dd8 g     F .text	00000090 QUEUE_Push
000397e8 g     O .bss	00000008 _alt_nticks
0002db2c g     F .text	00000098 signal
00031988 g     F .text	000000fc read
00031f38 g     F .text	00000084 alt_sys_init
00024358 g     F .text	00000064 _open_r
000340ec g     F .text	00000090 __register_exitproc
000223f0 g     F .text	00000064 OV8865_read_cmos_sensor_8
0002a4b0 g     F .text	00000254 __multiply
0003249c g     F .text	00000068 altera_avalon_jtag_uart_close
00022200 g     F .text	00000070 MipiBridgeRegWrite
00034f24 g       *ABS*	00000000 __ram_rwdata_start
0003429c g       *ABS*	00000000 __ram_rodata_start
000397f8 g     O .bss	00000028 __malloc_current_mallinfo
0002adb4 g     F .text	00000158 __d2b
00031fbc g     F .text	00000060 altera_avalon_jtag_uart_read_fd
00033a6c g     F .text	000000a0 alt_get_fd
00033584 g     F .text	00000158 alt_busy_sleep
00026f60 g     F .text	00000058 _close_r
00034074 g     F .text	00000078 memcmp
0003207c g     F .text	00000050 altera_avalon_jtag_uart_close_fd
00039920 g       *ABS*	00000000 __alt_stack_base
000320cc g     F .text	00000054 altera_avalon_jtag_uart_ioctl_fd
000236b0 g     F .text	000000c4 _fwrite_r
00026e14 g     F .text	0000014c __swsetup_r
0002032c g     F .text	00000058 oc_i2c_init
0002f0a8 g     F .text	00000848 .hidden __divdf3
00028e74 g     F .text	00000134 __sfp
0002b024 g     F .text	0000007c __copybits
00035af0 g     O .rwdata	00000408 __malloc_av_
00028fd8 g     F .text	00000004 __sinit_lock_release
0002fb78 g     F .text	000006d8 .hidden __muldf3
00024750 g     F .text	00000054 __sread
00033964 g     F .text	00000108 alt_find_file
00033764 g     F .text	000000a8 alt_dev_llist_insert
000316bc g     F .text	00000024 __malloc_lock
00031adc g     F .text	000000b8 sbrk
00022ab0 g     F .text	000001e4 MipiCameraInit
000221b4 g     F .text	0000004c nSWAP16
00028ba4 g     F .text	00000060 _fflush_r
0002d028 g     F .text	00000144 _calloc_r
00022c94 g     F .text	0000006c QUEUE_New
000231d4 g     F .text	00000018 fopen
000397c4 g       *ABS*	00000000 __bss_start
00024260 g     F .text	000000f8 memset
00021a6c g     F .text	00000748 main
000397e0 g     O .bss	00000004 alt_envp
000397c8 g     O .bss	00000004 __malloc_max_total_mem
0003201c g     F .text	00000060 altera_avalon_jtag_uart_write_fd
0002cf98 g     F .text	00000018 __swbuf
00024888 g     F .text	00000008 __sclose
00040000 g       *ABS*	00000000 __alt_heap_limit
0002d270 g     F .text	00000010 fclose
00023850 g     F .text	00000010 getchar
000271b4 g     F .text	000017e8 _dtoa_r
00023aac g     F .text	000007b4 _malloc_r
0002d7d8 g     F .text	00000030 __ascii_wctomb
00037360 g     O .rwdata	00000004 alt_errno
0002d280 g     F .text	00000020 _fiprintf_r
0002dbc4 g     F .text	00000060 _init_signal
0002998c g     F .text	00000098 _fwalk
0002d5cc g     F .text	0000000c _mbtowc_r
0002b1cc g     F .text	000000e0 putc
00022f28 g     F .text	00000080 .hidden __divsi3
000204c0 g     F .text	00000084 oc_i2c_uninit
000290bc g     F .text	00000124 _malloc_trim_r
0003429c g       *ABS*	00000000 __CTOR_END__
000228f0 g     F .text	000001c0 MIPI_BIN_LEVEL
0002d61c g     F .text	000000b8 strcmp
0003429c g       *ABS*	00000000 __flash_rodata_start
0003429c g       *ABS*	00000000 __DTOR_LIST__
0002f8f0 g     F .text	00000094 .hidden __nedf2
00031efc g     F .text	0000003c alt_irq_init
00031a84 g     F .text	00000058 alt_release_fd
000222e8 g     F .text	00000108 MipiBridgeInit
00034dec g     O .rodata	00000100 .hidden __clz_tab
000397d4 g     O .bss	00000004 _PathLocale
0003402c g     F .text	00000014 atexit
00026db0 g     F .text	00000064 _write_r
0002d558 g     F .text	00000074 setlocale
00037340 g     O .rwdata	00000004 _impure_ptr
000397d8 g     O .bss	00000004 alt_argc
00022270 g     F .text	00000078 MipiBridgeRegRead
0002899c g     F .text	00000208 __sflush_r
00033870 g     F .text	00000064 _do_dtors
000231ec g     F .text	00000004 _fseek_r
00037330 g     O .rwdata	00000002 video_w
00024540 g     F .text	000001b8 __srefill_r
00020020 g       .exceptions	00000000 alt_irq_entry
0002d5d8 g     F .text	00000044 __ascii_mbtowc
0002ac54 g     F .text	00000060 __ulp
00028ff0 g     F .text	00000014 __fp_unlock_all
0003734c g     O .rwdata	00000008 alt_fs_list
000202d8 g     F .text	00000054 Read32_Data
00020898 g     F .text	000001d0 OC_I2C_Read
00020020 g       *ABS*	00000000 __ram_exceptions_start
00029c44 g     F .text	0000000c localeconv
00023a00 g     F .text	0000008c __swhatbuf_r
00033b40 g     F .text	00000050 alt_ic_isr_register
00023774 g     F .text	000000d4 fwrite
00037374 g       *ABS*	00000000 _edata
00032b40 g     F .text	00000060 altera_avalon_uart_read_fd
00039920 g       *ABS*	00000000 _end
00023848 g     F .text	00000008 _getchar_r
00022834 g     F .text	000000bc OV8865ReadExposure
0002d2d8 g     F .text	00000164 __fputwc
00020238 g       *ABS*	00000000 __ram_exceptions_end
00032504 g     F .text	000000f4 altera_avalon_jtag_uart_ioctl
00033c18 g     F .text	0000008c alt_ic_irq_disable
000247ac g     F .text	00000080 __swrite
00037348 g     O .rwdata	00000004 __malloc_trim_threshold
00020a68 g     F .text	00000138 OC_I2C_Read_Continue
00034040 g     F .text	00000034 exit
0002d2a0 g     F .text	00000038 fiprintf
0003733a g     O .rwdata	00000001 focus_th
0002d6d4 g     F .text	00000004 _vfiprintf_r
00029a24 g     F .text	000000a8 _fwalk_reent
0002aa24 g     F .text	00000230 __mdiff
00022fa8 g     F .text	00000074 .hidden __modsi3
00040000 g       *ABS*	00000000 __alt_data_end
00020020 g     F .exceptions	00000000 alt_exception
00028fd0 g     F .text	00000004 __sfp_lock_release
00021478 g     F .text	00000098 mipi_show_error_info
00022d00 g     F .text	00000034 QUEUE_Delete
00034b68 g     O .rodata	00000101 _ctype_
00030bec g     F .text	00000054 .hidden __unorddf2
00032fbc g     F .text	00000054 altera_avalon_uart_close
00020db4 g     F .text	00000284 OC_I2CL_Read
000230dc g     F .text	000000f8 _fopen_r
00030f90 g     F .text	0000003c _exit
00033424 g     F .text	00000160 alt_alarm_start
00023860 g     F .text	000001a0 __smakebuf_r
00024890 g     F .text	00000098 strlen
0002d820 g     F .text	0000005c _init_signal_r
000317f8 g     F .text	00000154 open
0002f984 g     F .text	000000fc .hidden __gedf2
0002d014 g     F .text	00000014 __assert
0002bae8 g     F .text	00000018 __sprint_r
00033b0c g     F .text	00000034 alt_icache_flush_all
00022684 g     F .text	000000e4 OV8865SetExposure
00037370 g     O .rwdata	00000004 alt_priority_mask
00037334 g     O .rwdata	00000002 focus_width
00033b90 g     F .text	00000088 alt_ic_irq_enable
00026cd0 g     F .text	0000001c __vfprintf_internal
0003304c g     F .text	000001e8 altera_avalon_uart_read
0002d7cc g     F .text	0000000c _wctomb_r
00021688 g     F .text	00000088 MIPI_Init
00030250 g     F .text	0000099c .hidden __subdf3
00031008 g     F .text	00000124 fcntl
0002a350 g     F .text	000000b0 __lo0bits
00037368 g     O .rwdata	00000008 alt_alarm_list
0003380c g     F .text	00000064 _do_ctors
0002dc24 g     F .text	000000bc __sigtramp
0002d744 g     F .text	00000088 wcrtomb
00030e94 g     F .text	000000d0 close
00035ef8 g     O .rwdata	0000016c __global_locale
00022534 g     F .text	00000080 OV8865_read_AF
000314ac g     F .text	00000084 alt_load
0002d460 g     F .text	00000078 fputwc
0002da78 g     F .text	000000b4 raise
00023a9c g     F .text	00000010 free
00028fd4 g     F .text	00000004 __sinit_lock_acquire
0002a074 g     F .text	00000130 __multadd
0002a050 g     F .text	00000024 _Bfree



Disassembly of section .entry:

00020000 <__reset>:
#if NIOS2_ICACHE_SIZE > 0 && defined(ALT_ALLOW_CODE_AT_RESET) && (!defined(ALT_SIM_OPTIMIZE) || defined(NIOS2_ECC_PRESENT))
    /* Assume the instruction cache size is always a power of two. */
#if NIOS2_ICACHE_SIZE > 0x8000
    movhi r2, %hi(NIOS2_ICACHE_SIZE)
#else
    movui r2, NIOS2_ICACHE_SIZE
   20000:	00840014 	movui	r2,4096
#endif

0:
    initi r2
   20004:	1001483a 	initi	r2
    addi r2, r2, -NIOS2_ICACHE_LINE_SIZE
   20008:	10bff804 	addi	r2,r2,-32
    bgt r2, zero, 0b
   2000c:	00bffd16 	blt	zero,r2,20004 <__reset+0x4>
 * Jump to the _start entry point in the .text section if reset code
 * is allowed or if optimizing for RTL simulation.
 */
#if defined(ALT_ALLOW_CODE_AT_RESET) || defined(ALT_SIM_OPTIMIZE)
    /* Jump to the _start entry point in the .text section. */
    movhi r1, %hi(_start)
   20010:	004000b4 	movhi	at,2
    ori r1, r1, %lo(_start)
   20014:	08408e14 	ori	at,at,568
    jmp r1
   20018:	0800683a 	jmp	at
   2001c:	00000000 	call	0 <__reset-0x20000>

Disassembly of section .exceptions:

00020020 <alt_exception>:

#else /* ALT_EXCEPTION_STACK disabled */
        /* 
         * Reserve space on normal stack for registers about to be pushed.
         */
        addi  sp, sp, -76
   20020:	deffed04 	addi	sp,sp,-76
         * documentation for details).
         *
         * Leave a gap in the stack frame at 4(sp) for the muldiv handler to
         * store zero into.
         */
        stw   ra,  0(sp)
   20024:	dfc00015 	stw	ra,0(sp)
        stw   r1,   8(sp)
   20028:	d8400215 	stw	at,8(sp)
        stw   r2,  12(sp)
   2002c:	d8800315 	stw	r2,12(sp)
        stw   r3,  16(sp)
   20030:	d8c00415 	stw	r3,16(sp)
        stw   r4,  20(sp)
   20034:	d9000515 	stw	r4,20(sp)
        stw   r5,  24(sp)
   20038:	d9400615 	stw	r5,24(sp)
        stw   r6,  28(sp)
   2003c:	d9800715 	stw	r6,28(sp)
        stw   r7,  32(sp)
   20040:	d9c00815 	stw	r7,32(sp)
        rdctl r5, estatus   /* Read early to avoid usage stall */
   20044:	000b307a 	rdctl	r5,estatus
        stw   r8,  36(sp)
   20048:	da000915 	stw	r8,36(sp)
        stw   r9,  40(sp)
   2004c:	da400a15 	stw	r9,40(sp)
        stw   r10, 44(sp)
   20050:	da800b15 	stw	r10,44(sp)
        stw   r11, 48(sp)
   20054:	dac00c15 	stw	r11,48(sp)
        stw   r12, 52(sp)
   20058:	db000d15 	stw	r12,52(sp)
        stw   r13, 56(sp)
   2005c:	db400e15 	stw	r13,56(sp)
        stw   r14, 60(sp)
   20060:	db800f15 	stw	r14,60(sp)
        stw   r15, 64(sp)
   20064:	dbc01015 	stw	r15,64(sp)
        /*
         * ea-4 contains the address of the instruction being executed
         * when the exception occured. For interrupt exceptions, we will
         * will be re-issue the isntruction. Store it in 72(sp)
         */
        stw   r5,  68(sp)  /* estatus */
   20068:	d9401115 	stw	r5,68(sp)
        addi  r15, ea, -4  /* instruction that caused exception */
   2006c:	ebffff04 	addi	r15,ea,-4
        stw   r15,  72(sp)
   20070:	dbc01215 	stw	r15,72(sp)
#else
        /*
         * Test to see if the exception was a software exception or caused 
         * by an external interrupt, and vector accordingly.
         */
        rdctl r4, ipending
   20074:	0009313a 	rdctl	r4,ipending
        andi  r2, r5, 1
   20078:	2880004c 	andi	r2,r5,1
        beq   r2, zero, .Lnot_irq
   2007c:	10000326 	beq	r2,zero,2008c <alt_exception+0x6c>
        beq   r4, zero, .Lnot_irq
   20080:	20000226 	beq	r4,zero,2008c <alt_exception+0x6c>
        /*
         * Now that all necessary registers have been preserved, call 
         * alt_irq_handler() to process the interrupts.
         */

        call alt_irq_handler
   20084:	00200fc0 	call	200fc <alt_irq_handler>

        .section .exceptions.irqreturn, "xa"

        br    .Lexception_exit
   20088:	00000706 	br	200a8 <alt_exception+0x88>
         * upon completion, so we write ea (address of instruction *after*
         * the one where the exception occured) into 72(sp). The actual
         * instruction that caused the exception is written in r2, which these
         * handlers will utilize.
         */
        stw ea, 72(sp) /* EA is PC+4 so will skip over instruction causing exception */
   2008c:	df401215 	stw	ea,72(sp)
.Lunknown_16bit:
        addi.n r4, r4, 2 /* Need PC+2 to skip over instruction causing exception */
        stw r4, 72(sp)

#else /* CDX is not Enabled and all instructions are 32bits */
        ldw r2, -4(ea) /* Instruction value that caused exception */
   20090:	e8bfff17 	ldw	r2,-4(ea)
   20094:	e93fff04 	addi	r4,ea,-4
   20098:	00201c40 	call	201c4 <alt_instruction_exception_entry>
   2009c:	1000021e 	bne	r2,zero,200a8 <alt_exception+0x88>
   200a0:	ebffff04 	addi	r15,ea,-4
   200a4:	dbc01215 	stw	r15,72(sp)
        /* 
         * Restore the saved registers, so that all general purpose registers 
         * have been restored to their state at the time the interrupt occured.
         */

        ldw   r5,  68(sp)
   200a8:	d9401117 	ldw	r5,68(sp)
        ldw   ea,  72(sp)  /* This becomes the PC once eret is executed */
   200ac:	df401217 	ldw	ea,72(sp)
        ldw   ra,   0(sp)
   200b0:	dfc00017 	ldw	ra,0(sp)

        wrctl estatus, r5
   200b4:	2801707a 	wrctl	estatus,r5

        ldw   r1,   8(sp)
   200b8:	d8400217 	ldw	at,8(sp)
        ldw   r2,  12(sp)
   200bc:	d8800317 	ldw	r2,12(sp)
        ldw   r3,  16(sp)
   200c0:	d8c00417 	ldw	r3,16(sp)
        ldw   r4,  20(sp)
   200c4:	d9000517 	ldw	r4,20(sp)
        ldw   r5,  24(sp)
   200c8:	d9400617 	ldw	r5,24(sp)
        ldw   r6,  28(sp)
   200cc:	d9800717 	ldw	r6,28(sp)
        ldw   r7,  32(sp)
   200d0:	d9c00817 	ldw	r7,32(sp)

#if defined(ALT_EXCEPTION_STACK) && defined(ALT_STACK_CHECK)
        ldw   et, %gprel(alt_exception_old_stack_limit)(gp)
#endif

        ldw   r8,  36(sp)
   200d4:	da000917 	ldw	r8,36(sp)
        ldw   r9,  40(sp)
   200d8:	da400a17 	ldw	r9,40(sp)
        ldw   r10, 44(sp)
   200dc:	da800b17 	ldw	r10,44(sp)
        ldw   r11, 48(sp)
   200e0:	dac00c17 	ldw	r11,48(sp)
        ldw   r12, 52(sp)
   200e4:	db000d17 	ldw	r12,52(sp)
        ldw   r13, 56(sp)
   200e8:	db400e17 	ldw	r13,56(sp)
        ldw   r14, 60(sp)
   200ec:	db800f17 	ldw	r14,60(sp)
        ldw   r15, 64(sp)
   200f0:	dbc01017 	ldw	r15,64(sp)
        stw   et, %gprel(alt_stack_limit_value)(gp)
        stw   zero, %gprel(alt_exception_old_stack_limit)(gp)
#endif /* ALT_STACK_CHECK */
        ldw   sp,  76(sp)
#else /* ALT_EXCEPTION_STACK disabled */
        addi  sp, sp, 76
   200f4:	dec01304 	addi	sp,sp,76

        /*
         * Return to the interrupted instruction.
         */

        eret
   200f8:	ef80083a 	eret

000200fc <alt_irq_handler>:
 * instruction is present if the macro ALT_CI_INTERRUPT_VECTOR defined.
 */

void alt_irq_handler (void) __attribute__ ((section (".exceptions")));
void alt_irq_handler (void)
{
   200fc:	defff904 	addi	sp,sp,-28
   20100:	dfc00615 	stw	ra,24(sp)
   20104:	df000515 	stw	fp,20(sp)
   20108:	df000504 	addi	fp,sp,20
  
  /*
   * Notify the operating system that we are at interrupt level.
   */ 
  
  ALT_OS_INT_ENTER();
   2010c:	0001883a 	nop
#ifndef NIOS2_EIC_PRESENT
static ALT_INLINE alt_u32 ALT_ALWAYS_INLINE alt_irq_pending (void)
{
  alt_u32 active;

  NIOS2_READ_IPENDING (active);
   20110:	0005313a 	rdctl	r2,ipending
   20114:	e0bffc15 	stw	r2,-16(fp)

  return active;
   20118:	e0bffc17 	ldw	r2,-16(fp)
   * Consider the case where the high priority interupt is asserted during
   * the interrupt entry sequence for a lower priority interrupt to see why
   * this is the case.
   */

  active = alt_irq_pending ();
   2011c:	e0bfff15 	stw	r2,-4(fp)

  do
  {
    i = 0;
   20120:	e03ffd15 	stw	zero,-12(fp)
    mask = 1;
   20124:	00800044 	movi	r2,1
   20128:	e0bffe15 	stw	r2,-8(fp)
     * called to clear the interrupt condition.
     */

    do
    {
      if (active & mask)
   2012c:	e0ffff17 	ldw	r3,-4(fp)
   20130:	e0bffe17 	ldw	r2,-8(fp)
   20134:	1884703a 	and	r2,r3,r2
   20138:	10001126 	beq	r2,zero,20180 <alt_irq_handler+0x84>
      { 
#ifdef ALT_ENHANCED_INTERRUPT_API_PRESENT
        alt_irq[i].handler(alt_irq[i].context); 
   2013c:	e0bffd17 	ldw	r2,-12(fp)
   20140:	100690fa 	slli	r3,r2,3
   20144:	00800134 	movhi	r2,4
   20148:	1885883a 	add	r2,r3,r2
   2014c:	10e60817 	ldw	r3,-26592(r2)
   20150:	e0bffd17 	ldw	r2,-12(fp)
   20154:	100890fa 	slli	r4,r2,3
   20158:	00800134 	movhi	r2,4
   2015c:	2085883a 	add	r2,r4,r2
   20160:	10a60917 	ldw	r2,-26588(r2)
   20164:	1009883a 	mov	r4,r2
   20168:	183ee83a 	callr	r3
#else
        alt_irq[i].handler(alt_irq[i].context, i); 
#endif
        break;
   2016c:	0001883a 	nop
  NIOS2_READ_IPENDING (active);
   20170:	0005313a 	rdctl	r2,ipending
   20174:	e0bffb15 	stw	r2,-20(fp)
  return active;
   20178:	e0bffb17 	ldw	r2,-20(fp)
   2017c:	00000706 	br	2019c <alt_irq_handler+0xa0>
      }
      mask <<= 1;
   20180:	e0bffe17 	ldw	r2,-8(fp)
   20184:	1085883a 	add	r2,r2,r2
   20188:	e0bffe15 	stw	r2,-8(fp)
      i++;
   2018c:	e0bffd17 	ldw	r2,-12(fp)
   20190:	10800044 	addi	r2,r2,1
   20194:	e0bffd15 	stw	r2,-12(fp)
      if (active & mask)
   20198:	003fe406 	br	2012c <alt_irq_handler+0x30>

    } while (1);

    active = alt_irq_pending ();
   2019c:	e0bfff15 	stw	r2,-4(fp)
    
  } while (active);
   201a0:	e0bfff17 	ldw	r2,-4(fp)
   201a4:	103fde1e 	bne	r2,zero,20120 <alt_irq_handler+0x24>

  /*
   * Notify the operating system that interrupt processing is complete.
   */ 

  ALT_OS_INT_EXIT();
   201a8:	0001883a 	nop
}
   201ac:	0001883a 	nop
   201b0:	e037883a 	mov	sp,fp
   201b4:	dfc00117 	ldw	ra,4(sp)
   201b8:	df000017 	ldw	fp,0(sp)
   201bc:	dec00204 	addi	sp,sp,8
   201c0:	f800283a 	ret

000201c4 <alt_instruction_exception_entry>:
 * that handler if it has been registered. Absent a handler, it will
 * break break or hang as discussed below.
 */
int 
alt_instruction_exception_entry (alt_u32 exception_pc)
{
   201c4:	defffb04 	addi	sp,sp,-20
   201c8:	dfc00415 	stw	ra,16(sp)
   201cc:	df000315 	stw	fp,12(sp)
   201d0:	df000304 	addi	fp,sp,12
   201d4:	e13ffd15 	stw	r4,-12(fp)
 * NIOS2_EXCEPTION_CAUSE_NOT_PRESENT. Your handling routine should
 * check the validity of the cause argument before proceeding.
 */
#ifdef NIOS2_HAS_EXTRA_EXCEPTION_INFO
  /* Get exception cause & "badaddr" */
  NIOS2_READ_EXCEPTION(cause);
   201d8:	000531fa 	rdctl	r2,exception
   201dc:	e0bfff15 	stw	r2,-4(fp)
  cause = ( (cause & NIOS2_EXCEPTION_REG_CAUSE_MASK) >>
   201e0:	e0bfff17 	ldw	r2,-4(fp)
   201e4:	1004d0ba 	srli	r2,r2,2
   201e8:	108007cc 	andi	r2,r2,31
   201ec:	e0bfff15 	stw	r2,-4(fp)
              NIOS2_EXCEPTION_REG_CAUSE_OFST );

  NIOS2_READ_BADADDR(badaddr);
   201f0:	0005333a 	rdctl	r2,badaddr
   201f4:	e0bffe15 	stw	r2,-8(fp)
#else
  cause = NIOS2_EXCEPTION_CAUSE_NOT_PRESENT;
  badaddr = 0;
#endif /* NIOS2_HAS_EXTRA_EXCEPTION_INFO */

  if(alt_instruction_exception_handler) {
   201f8:	d0a93117 	ldw	r2,-23356(gp)
   201fc:	10000726 	beq	r2,zero,2021c <alt_instruction_exception_entry+0x58>
     * Call handler. Its return value indicates whether the exception-causing
     * instruction should be re-issued. The code that called us,
     * alt_eceptions_entry.S, will look at this value and adjust the ea
     * register as necessary
     */
    return alt_instruction_exception_handler(cause, exception_pc, badaddr);
   20200:	d0a93117 	ldw	r2,-23356(gp)
   20204:	e0ffff17 	ldw	r3,-4(fp)
   20208:	e1bffe17 	ldw	r6,-8(fp)
   2020c:	e17ffd17 	ldw	r5,-12(fp)
   20210:	1809883a 	mov	r4,r3
   20214:	103ee83a 	callr	r2
   20218:	00000206 	br	20224 <alt_instruction_exception_entry+0x60>
   *    (a peripheral which negates its interrupt output before its
   *    interrupt handler has been executed will cause spurious interrupts)
   */
  else {
#ifdef NIOS2_HAS_DEBUG_STUB
    NIOS2_BREAK();
   2021c:	003da03a 	break	0
      ;
#endif /* NIOS2_HAS_DEBUG_STUB */
  }

  /* We should not get here. Remove compiler warning. */
  return NIOS2_EXCEPTION_RETURN_REISSUE_INST;
   20220:	0005883a 	mov	r2,zero
}
   20224:	e037883a 	mov	sp,fp
   20228:	dfc00117 	ldw	ra,4(sp)
   2022c:	df000017 	ldw	fp,0(sp)
   20230:	dec00204 	addi	sp,sp,8
   20234:	f800283a 	ret

Disassembly of section .text:

00020238 <_start>:

    /* Assume the data cache size is always a power of two. */
#if NIOS2_DCACHE_SIZE > 0x8000
    movhi r2, %hi(NIOS2_DCACHE_SIZE)
#else
    movui r2, NIOS2_DCACHE_SIZE
   20238:	00820014 	movui	r2,2048
#endif

0:
    initd 0(r2)
   2023c:	10000033 	initd	0(r2)
#ifdef NIOS2_ECC_PRESENT
    addi r2, r2, -4
#else
    addi r2, r2, -NIOS2_DCACHE_LINE_SIZE
   20240:	10bff804 	addi	r2,r2,-32
#endif
    bgt r2, zero, 0b
   20244:	00bffd16 	blt	zero,r2,2023c <_start+0x4>

    /*
     * Now that the caches are initialized, set up the stack pointer and global pointer.
     * The values provided by the linker are assumed to be correctly aligned.
     */
    movhi sp, %hi(__alt_stack_pointer)
   20248:	06c00134 	movhi	sp,4
    ori sp, sp, %lo(__alt_stack_pointer)
   2024c:	dec00014 	ori	sp,sp,0
    movhi gp, %hi(_gp)
   20250:	068000f4 	movhi	gp,3
    ori gp, gp, %lo(_gp)
   20254:	d6bccc14 	ori	gp,gp,62256
 */
#ifndef ALT_SIM_OPTIMIZE
    /* Log that the BSS is about to be cleared. */
    ALT_LOG_PUTS(alt_log_msg_bss)

    movhi r2, %hi(__bss_start)
   20258:	008000f4 	movhi	r2,3
    ori r2, r2, %lo(__bss_start)
   2025c:	10a5f114 	ori	r2,r2,38852

    movhi r3, %hi(__bss_end)
   20260:	00c000f4 	movhi	r3,3
    ori r3, r3, %lo(__bss_end)
   20264:	18e64814 	ori	r3,r3,39200

    beq r2, r3, 1f
   20268:	10c00326 	beq	r2,r3,20278 <_start+0x40>

0:
    stw zero, (r2)
   2026c:	10000015 	stw	zero,0(r2)
    addi r2, r2, 4
   20270:	10800104 	addi	r2,r2,4
    bltu r2, r3, 0b
   20274:	10fffd36 	bltu	r2,r3,2026c <_start+0x34>
     * section aren't defined until alt_load() has been called).
     */
    mov   et, zero
#endif

    call alt_load
   20278:	00314ac0 	call	314ac <alt_load>

    /* Log that alt_main is about to be called. */
    ALT_LOG_PUTS(alt_log_msg_alt_main)

    /* Call the C entry point. It should never return. */
    call alt_main
   2027c:	00316400 	call	31640 <alt_main>

00020280 <alt_after_alt_main>:

    /* Wait in infinite loop in case alt_main does return. */
alt_after_alt_main:
    br alt_after_alt_main
   20280:	003fff06 	br	20280 <alt_after_alt_main>

00020284 <Write32_Data>:
#define SLEEP_TIME 250  //us
#define ACK_SLEEP_TIME 250 //us
#define TRUE 1
#define FALSE 0

bool Write32_Data(alt_32 base_address, alt_32 offset_address, alt_32 Data){
   20284:	defffb04 	addi	sp,sp,-20
   20288:	df000415 	stw	fp,16(sp)
   2028c:	df000404 	addi	fp,sp,16
   20290:	e13ffe15 	stw	r4,-8(fp)
   20294:	e17ffd15 	stw	r5,-12(fp)
   20298:	e1bffc15 	stw	r6,-16(fp)
	bool bPass;
    IOWR(base_address, offset_address,Data);
   2029c:	e0bffd17 	ldw	r2,-12(fp)
   202a0:	100490ba 	slli	r2,r2,2
   202a4:	1007883a 	mov	r3,r2
   202a8:	e0bffe17 	ldw	r2,-8(fp)
   202ac:	1885883a 	add	r2,r3,r2
   202b0:	1007883a 	mov	r3,r2
   202b4:	e0bffc17 	ldw	r2,-16(fp)
   202b8:	18800035 	stwio	r2,0(r3)
    bPass=TRUE;
   202bc:	00800044 	movi	r2,1
   202c0:	e0bfff15 	stw	r2,-4(fp)
    return bPass;
   202c4:	e0bfff17 	ldw	r2,-4(fp)
}
   202c8:	e037883a 	mov	sp,fp
   202cc:	df000017 	ldw	fp,0(sp)
   202d0:	dec00104 	addi	sp,sp,4
   202d4:	f800283a 	ret

000202d8 <Read32_Data>:



bool  Read32_Data(alt_32 base_address, alt_32 offset_address, alt_32 *pData32){
   202d8:	defffb04 	addi	sp,sp,-20
   202dc:	df000415 	stw	fp,16(sp)
   202e0:	df000404 	addi	fp,sp,16
   202e4:	e13ffe15 	stw	r4,-8(fp)
   202e8:	e17ffd15 	stw	r5,-12(fp)
   202ec:	e1bffc15 	stw	r6,-16(fp)
	bool bPass;
	*pData32 =IORD(base_address ,offset_address  );
   202f0:	e0bffd17 	ldw	r2,-12(fp)
   202f4:	100490ba 	slli	r2,r2,2
   202f8:	1007883a 	mov	r3,r2
   202fc:	e0bffe17 	ldw	r2,-8(fp)
   20300:	1885883a 	add	r2,r3,r2
   20304:	10c00037 	ldwio	r3,0(r2)
   20308:	e0bffc17 	ldw	r2,-16(fp)
   2030c:	10c00015 	stw	r3,0(r2)
	bPass=TRUE;
   20310:	00800044 	movi	r2,1
   20314:	e0bfff15 	stw	r2,-4(fp)
    return bPass;
   20318:	e0bfff17 	ldw	r2,-4(fp)
}
   2031c:	e037883a 	mov	sp,fp
   20320:	df000017 	ldw	fp,0(sp)
   20324:	dec00104 	addi	sp,sp,4
   20328:	f800283a 	ret

0002032c <oc_i2c_init>:

bool oc_i2c_init(alt_32 i2c_base){
   2032c:	defffa04 	addi	sp,sp,-24
   20330:	dfc00515 	stw	ra,20(sp)
   20334:	df000415 	stw	fp,16(sp)
   20338:	df000404 	addi	fp,sp,16
   2033c:	e13ffc15 	stw	r4,-16(fp)
	bool bSuccess;
	const alt_32 ref_clk = 50*1000*1000; // 50MHz
   20340:	0080bef4 	movhi	r2,763
   20344:	10bc2004 	addi	r2,r2,-3968
   20348:	e0bfff15 	stw	r2,-4(fp)
	const alt_32 i2c_clk = 400*1000; // 400KHz
   2034c:	008001b4 	movhi	r2,6
   20350:	1086a004 	addi	r2,r2,6784
   20354:	e0bffe15 	stw	r2,-8(fp)

	bSuccess = oc_i2c_init_ex(i2c_base, ref_clk, i2c_clk);
   20358:	e1bffe17 	ldw	r6,-8(fp)
   2035c:	e17fff17 	ldw	r5,-4(fp)
   20360:	e13ffc17 	ldw	r4,-16(fp)
   20364:	00203840 	call	20384 <oc_i2c_init_ex>
   20368:	e0bffd15 	stw	r2,-12(fp)

	return bSuccess;
   2036c:	e0bffd17 	ldw	r2,-12(fp)
}
   20370:	e037883a 	mov	sp,fp
   20374:	dfc00117 	ldw	ra,4(sp)
   20378:	df000017 	ldw	fp,0(sp)
   2037c:	dec00204 	addi	sp,sp,8
   20380:	f800283a 	ret

00020384 <oc_i2c_init_ex>:

bool  oc_i2c_init_ex(alt_32 i2c_base, alt_32 ref_clk, alt_32 i2c_clk)
{
   20384:	defff604 	addi	sp,sp,-40
   20388:	dfc00915 	stw	ra,36(sp)
   2038c:	df000815 	stw	fp,32(sp)
   20390:	df000804 	addi	fp,sp,32
   20394:	e13ffa15 	stw	r4,-24(fp)
   20398:	e17ff915 	stw	r5,-28(fp)
   2039c:	e1bff815 	stw	r6,-32(fp)
	bool bSuccess=TRUE;
   203a0:	00800044 	movi	r2,1
   203a4:	e0bfff15 	stw	r2,-4(fp)
	alt_32 read_data;
	alt_32 prescale;
	alt_u8 prescale_high;
	alt_u8 prescale_low;
	const alt_u8 ControlValue = 0x80;
   203a8:	00bfe004 	movi	r2,-128
   203ac:	e0bffec5 	stb	r2,-5(fp)

    // I2c sysclock =50M hz
	// i2c scl max 400k
	//scl =sysclock/(prescale*5)
	prescale = (ref_clk/(5*i2c_clk))-1;
   203b0:	e0bff817 	ldw	r2,-32(fp)
   203b4:	10800164 	muli	r2,r2,5
   203b8:	100b883a 	mov	r5,r2
   203bc:	e13ff917 	ldw	r4,-28(fp)
   203c0:	0022f280 	call	22f28 <__divsi3>
   203c4:	10bfffc4 	addi	r2,r2,-1
   203c8:	e0bffd15 	stw	r2,-12(fp)
	prescale_low = prescale & 0xFF;
   203cc:	e0bffd17 	ldw	r2,-12(fp)
   203d0:	e0bffcc5 	stb	r2,-13(fp)
	prescale_high = (prescale >> 8) & 0xFF;
   203d4:	e0bffd17 	ldw	r2,-12(fp)
   203d8:	1005d23a 	srai	r2,r2,8
   203dc:	e0bffc85 	stb	r2,-14(fp)

   IOWR(i2c_base, 0, prescale_low);//write low byte of  prescale (reg 0)
   203e0:	e0bffa17 	ldw	r2,-24(fp)
   203e4:	e0fffcc3 	ldbu	r3,-13(fp)
   203e8:	10c00035 	stwio	r3,0(r2)
   IOWR(i2c_base, 1, prescale_high);//write high byte of prescale (reg 1)
   203ec:	e0bffa17 	ldw	r2,-24(fp)
   203f0:	10800104 	addi	r2,r2,4
   203f4:	1007883a 	mov	r3,r2
   203f8:	e0bffc83 	ldbu	r2,-14(fp)
   203fc:	18800035 	stwio	r2,0(r3)

   //enable the I2C core, but disable the IRQ
   IOWR( i2c_base, 2, ControlValue);
   20400:	e0bffa17 	ldw	r2,-24(fp)
   20404:	10800204 	addi	r2,r2,8
   20408:	1007883a 	mov	r3,r2
   2040c:	e0bffec3 	ldbu	r2,-5(fp)
   20410:	18800035 	stwio	r2,0(r3)


    // check prescale low byte
    if (bSuccess){
   20414:	e0bfff17 	ldw	r2,-4(fp)
   20418:	10000826 	beq	r2,zero,2043c <oc_i2c_init_ex+0xb8>
    	read_data =IORD(i2c_base, 0);
   2041c:	e0bffa17 	ldw	r2,-24(fp)
   20420:	10800037 	ldwio	r2,0(r2)
   20424:	e0bffb15 	stw	r2,-20(fp)
        if( (read_data & 0x00ff) != prescale_low ){
   20428:	e0bffb17 	ldw	r2,-20(fp)
   2042c:	10c03fcc 	andi	r3,r2,255
   20430:	e0bffcc3 	ldbu	r2,-13(fp)
   20434:	18800126 	beq	r3,r2,2043c <oc_i2c_init_ex+0xb8>
            bSuccess = FALSE;
   20438:	e03fff15 	stw	zero,-4(fp)
        }
    }

    // check prescale high byte
    if (bSuccess){
   2043c:	e0bfff17 	ldw	r2,-4(fp)
   20440:	10000926 	beq	r2,zero,20468 <oc_i2c_init_ex+0xe4>
    	read_data =IORD(i2c_base, 1);
   20444:	e0bffa17 	ldw	r2,-24(fp)
   20448:	10800104 	addi	r2,r2,4
   2044c:	10800037 	ldwio	r2,0(r2)
   20450:	e0bffb15 	stw	r2,-20(fp)
        if( (read_data & 0x00ff) != prescale_high ){
   20454:	e0bffb17 	ldw	r2,-20(fp)
   20458:	10c03fcc 	andi	r3,r2,255
   2045c:	e0bffc83 	ldbu	r2,-14(fp)
   20460:	18800126 	beq	r3,r2,20468 <oc_i2c_init_ex+0xe4>
            bSuccess = FALSE;
   20464:	e03fff15 	stw	zero,-4(fp)
        }
    }

    // check control
    if (bSuccess){
   20468:	e0bfff17 	ldw	r2,-4(fp)
   2046c:	10000926 	beq	r2,zero,20494 <oc_i2c_init_ex+0x110>
    	read_data =IORD(i2c_base, 2);
   20470:	e0bffa17 	ldw	r2,-24(fp)
   20474:	10800204 	addi	r2,r2,8
   20478:	10800037 	ldwio	r2,0(r2)
   2047c:	e0bffb15 	stw	r2,-20(fp)
        if( (read_data & 0x00ff) != ControlValue ){
   20480:	e0bffb17 	ldw	r2,-20(fp)
   20484:	10c03fcc 	andi	r3,r2,255
   20488:	e0bffec3 	ldbu	r2,-5(fp)
   2048c:	18800126 	beq	r3,r2,20494 <oc_i2c_init_ex+0x110>
            bSuccess = FALSE;
   20490:	e03fff15 	stw	zero,-4(fp)
        }
    }

   if (bSuccess){
   20494:	e0bfff17 	ldw	r2,-4(fp)
   20498:	1000031e 	bne	r2,zero,204a8 <oc_i2c_init_ex+0x124>
//       printf("\nI2C core is enabled! \r\n");
   }
   else
       printf("\nI2C core is not enabled successfully! \r\n");
   2049c:	010000f4 	movhi	r4,3
   204a0:	2110a704 	addi	r4,r4,17052
   204a4:	00245140 	call	24514 <puts>

   return bSuccess;
   204a8:	e0bfff17 	ldw	r2,-4(fp)

}
   204ac:	e037883a 	mov	sp,fp
   204b0:	dfc00117 	ldw	ra,4(sp)
   204b4:	df000017 	ldw	fp,0(sp)
   204b8:	dec00204 	addi	sp,sp,8
   204bc:	f800283a 	ret

000204c0 <oc_i2c_uninit>:

bool oc_i2c_uninit(alt_32 i2c_base)
{
   204c0:	defffa04 	addi	sp,sp,-24
   204c4:	dfc00515 	stw	ra,20(sp)
   204c8:	df000415 	stw	fp,16(sp)
   204cc:	df000404 	addi	fp,sp,16
   204d0:	e13ffc15 	stw	r4,-16(fp)
	bool bSuccess=TRUE;
   204d4:	00800044 	movi	r2,1
   204d8:	e0bfff15 	stw	r2,-4(fp)
	alt_32 read_data;
	const alt_u8 ControlValue = 0x00;
   204dc:	e03ffec5 	stb	zero,-5(fp)

    IOWR( i2c_base, 2, ControlValue);
   204e0:	e0bffc17 	ldw	r2,-16(fp)
   204e4:	10800204 	addi	r2,r2,8
   204e8:	1007883a 	mov	r3,r2
   204ec:	e0bffec3 	ldbu	r2,-5(fp)
   204f0:	18800035 	stwio	r2,0(r3)
   	read_data =IORD(i2c_base, 2);
   204f4:	e0bffc17 	ldw	r2,-16(fp)
   204f8:	10800204 	addi	r2,r2,8
   204fc:	10800037 	ldwio	r2,0(r2)
   20500:	e0bffd15 	stw	r2,-12(fp)
	if( (read_data & 0x00ff) != ControlValue ){
   20504:	e0bffd17 	ldw	r2,-12(fp)
   20508:	10c03fcc 	andi	r3,r2,255
   2050c:	e0bffec3 	ldbu	r2,-5(fp)
   20510:	18800126 	beq	r3,r2,20518 <oc_i2c_uninit+0x58>
            bSuccess = FALSE;
   20514:	e03fff15 	stw	zero,-4(fp)
    }

   if (bSuccess){
   20518:	e0bfff17 	ldw	r2,-4(fp)
   2051c:	1000031e 	bne	r2,zero,2052c <oc_i2c_uninit+0x6c>
//       printf("\I2C core  is disabled! \r\n");
   }
   else
       printf("\I2C core is failed to disable! \r\n");
   20520:	010000f4 	movhi	r4,3
   20524:	2110b204 	addi	r4,r4,17096
   20528:	00245140 	call	24514 <puts>

   return bSuccess;
   2052c:	e0bfff17 	ldw	r2,-4(fp)

}
   20530:	e037883a 	mov	sp,fp
   20534:	dfc00117 	ldw	ra,4(sp)
   20538:	df000017 	ldw	fp,0(sp)
   2053c:	dec00204 	addi	sp,sp,8
   20540:	f800283a 	ret

00020544 <ACK_single_check>:




bool  ACK_single_check(alt_32 i2c_base)
{
   20544:	defffb04 	addi	sp,sp,-20
   20548:	dfc00415 	stw	ra,16(sp)
   2054c:	df000315 	stw	fp,12(sp)
   20550:	df000304 	addi	fp,sp,12
   20554:	e13ffd15 	stw	r4,-12(fp)
	bool bSuccess=TRUE;
   20558:	00800044 	movi	r2,1
   2055c:	e0bfff15 	stw	r2,-4(fp)
	alt_32 read_data;

    usleep(ACK_SLEEP_TIME);
   20560:	01003e84 	movi	r4,250
   20564:	0031d640 	call	31d64 <usleep>
    read_data =IORD(i2c_base, 4);
   20568:	e0bffd17 	ldw	r2,-12(fp)
   2056c:	10800404 	addi	r2,r2,16
   20570:	10800037 	ldwio	r2,0(r2)
   20574:	e0bffe15 	stw	r2,-8(fp)
    if(read_data & 0x02)
   20578:	e0bffe17 	ldw	r2,-8(fp)
   2057c:	1080008c 	andi	r2,r2,2
   20580:	10000126 	beq	r2,zero,20588 <ACK_single_check+0x44>
            bSuccess = FALSE;
   20584:	e03fff15 	stw	zero,-4(fp)
     if (bSuccess){
   20588:	e0bfff17 	ldw	r2,-4(fp)
   2058c:	10000a26 	beq	r2,zero,205b8 <ACK_single_check+0x74>
            usleep(ACK_SLEEP_TIME);
   20590:	01003e84 	movi	r4,250
   20594:	0031d640 	call	31d64 <usleep>
            read_data =IORD(i2c_base, 4);
   20598:	e0bffd17 	ldw	r2,-12(fp)
   2059c:	10800404 	addi	r2,r2,16
   205a0:	10800037 	ldwio	r2,0(r2)
   205a4:	e0bffe15 	stw	r2,-8(fp)
                if(read_data & 0x80)
   205a8:	e0bffe17 	ldw	r2,-8(fp)
   205ac:	1080200c 	andi	r2,r2,128
   205b0:	10000126 	beq	r2,zero,205b8 <ACK_single_check+0x74>
                    bSuccess = FALSE;
   205b4:	e03fff15 	stw	zero,-4(fp)
     }
    return bSuccess;
   205b8:	e0bfff17 	ldw	r2,-4(fp)
}
   205bc:	e037883a 	mov	sp,fp
   205c0:	dfc00117 	ldw	ra,4(sp)
   205c4:	df000017 	ldw	fp,0(sp)
   205c8:	dec00204 	addi	sp,sp,8
   205cc:	f800283a 	ret

000205d0 <ACK_check>:


bool  ACK_check(alt_32 i2c_base){
   205d0:	defffb04 	addi	sp,sp,-20
   205d4:	dfc00415 	stw	ra,16(sp)
   205d8:	df000315 	stw	fp,12(sp)
   205dc:	df000304 	addi	fp,sp,12
   205e0:	e13ffd15 	stw	r4,-12(fp)
    bool bSuccess = FALSE;
   205e4:	e03fff15 	stw	zero,-4(fp)
    int i=0;
   205e8:	e03ffe15 	stw	zero,-8(fp)

    while(!bSuccess && i++ < 10){
   205ec:	00000306 	br	205fc <ACK_check+0x2c>
        bSuccess = ACK_single_check(i2c_base);
   205f0:	e13ffd17 	ldw	r4,-12(fp)
   205f4:	00205440 	call	20544 <ACK_single_check>
   205f8:	e0bfff15 	stw	r2,-4(fp)
    while(!bSuccess && i++ < 10){
   205fc:	e0bfff17 	ldw	r2,-4(fp)
   20600:	1000051e 	bne	r2,zero,20618 <ACK_check+0x48>
   20604:	e0bffe17 	ldw	r2,-8(fp)
   20608:	10c00044 	addi	r3,r2,1
   2060c:	e0fffe15 	stw	r3,-8(fp)
   20610:	10800290 	cmplti	r2,r2,10
   20614:	103ff61e 	bne	r2,zero,205f0 <ACK_check+0x20>
    }

    return bSuccess;
   20618:	e0bfff17 	ldw	r2,-4(fp)
}
   2061c:	e037883a 	mov	sp,fp
   20620:	dfc00117 	ldw	ra,4(sp)
   20624:	df000017 	ldw	fp,0(sp)
   20628:	dec00204 	addi	sp,sp,8
   2062c:	f800283a 	ret

00020630 <OC_I2C_Write>:

bool  OC_I2C_Write(alt_32 i2c_base,alt_u8 device_address,alt_u8 sub_address, alt_u8 *pData, int nWriteLength)
{
   20630:	defff904 	addi	sp,sp,-28
   20634:	dfc00615 	stw	ra,24(sp)
   20638:	df000515 	stw	fp,20(sp)
   2063c:	df000504 	addi	fp,sp,20
   20640:	e13ffe15 	stw	r4,-8(fp)
   20644:	2805883a 	mov	r2,r5
   20648:	3007883a 	mov	r3,r6
   2064c:	e1fffb15 	stw	r7,-20(fp)
   20650:	e0bffd05 	stb	r2,-12(fp)
   20654:	1805883a 	mov	r2,r3
   20658:	e0bffc05 	stb	r2,-16(fp)
    //DWORD reg_data = 0x0;
    int i;

   //set the tx reg audio chip dev address with write bit
   if (!Write32_Data( i2c_base, 3,device_address)){
   2065c:	e0bffd03 	ldbu	r2,-12(fp)
   20660:	100d883a 	mov	r6,r2
   20664:	014000c4 	movi	r5,3
   20668:	e13ffe17 	ldw	r4,-8(fp)
   2066c:	00202840 	call	20284 <Write32_Data>
   20670:	1000051e 	bne	r2,zero,20688 <OC_I2C_Write+0x58>
       printf("OC_I2C_Write error[0]\r\n");
   20674:	010000f4 	movhi	r4,3
   20678:	2110bb04 	addi	r4,r4,17132
   2067c:	00245140 	call	24514 <puts>
       return FALSE;
   20680:	0005883a 	mov	r2,zero
   20684:	00006606 	br	20820 <OC_I2C_Write+0x1f0>
   }
   //set STA and WR bits(bit7 and bit4)
   if (!Write32_Data( i2c_base, 4,0x90)){
   20688:	01802404 	movi	r6,144
   2068c:	01400104 	movi	r5,4
   20690:	e13ffe17 	ldw	r4,-8(fp)
   20694:	00202840 	call	20284 <Write32_Data>
   20698:	1000051e 	bne	r2,zero,206b0 <OC_I2C_Write+0x80>
       printf("OC_I2C_Write error[1]\r\n");
   2069c:	010000f4 	movhi	r4,3
   206a0:	2110c104 	addi	r4,r4,17156
   206a4:	00245140 	call	24514 <puts>
       return FALSE;
   206a8:	0005883a 	mov	r2,zero
   206ac:	00005c06 	br	20820 <OC_I2C_Write+0x1f0>
   }

   //wait TIP bit go to 0 to end Tx
    if(!ACK_check( i2c_base)){
   206b0:	e13ffe17 	ldw	r4,-8(fp)
   206b4:	00205d00 	call	205d0 <ACK_check>
   206b8:	1000051e 	bne	r2,zero,206d0 <OC_I2C_Write+0xa0>
        printf("OC_I2C_Write error[2]\r\n");
   206bc:	010000f4 	movhi	r4,3
   206c0:	2110c704 	addi	r4,r4,17180
   206c4:	00245140 	call	24514 <puts>
        return FALSE;
   206c8:	0005883a 	mov	r2,zero
   206cc:	00005406 	br	20820 <OC_I2C_Write+0x1f0>
    }
  // printf("\n receive ACK-device address! \n");

   //set the txr reg data with reg address + 1 data MSB
   if (!Write32_Data( i2c_base, 3,sub_address)){
   206d0:	e0bffc03 	ldbu	r2,-16(fp)
   206d4:	100d883a 	mov	r6,r2
   206d8:	014000c4 	movi	r5,3
   206dc:	e13ffe17 	ldw	r4,-8(fp)
   206e0:	00202840 	call	20284 <Write32_Data>
   206e4:	1000051e 	bne	r2,zero,206fc <OC_I2C_Write+0xcc>
       printf("OC_I2C_Write error[3]\r\n");
   206e8:	010000f4 	movhi	r4,3
   206ec:	2110cd04 	addi	r4,r4,17204
   206f0:	00245140 	call	24514 <puts>
       return FALSE;
   206f4:	0005883a 	mov	r2,zero
   206f8:	00004906 	br	20820 <OC_I2C_Write+0x1f0>
   }

   //set WR bits(bit4)
    if (!Write32_Data( i2c_base, 4,0x10)){
   206fc:	01800404 	movi	r6,16
   20700:	01400104 	movi	r5,4
   20704:	e13ffe17 	ldw	r4,-8(fp)
   20708:	00202840 	call	20284 <Write32_Data>
   2070c:	1000051e 	bne	r2,zero,20724 <OC_I2C_Write+0xf4>
        printf("OC_I2C_Write error[4]\r\n");
   20710:	010000f4 	movhi	r4,3
   20714:	2110d304 	addi	r4,r4,17228
   20718:	00245140 	call	24514 <puts>
        return FALSE;
   2071c:	0005883a 	mov	r2,zero
   20720:	00003f06 	br	20820 <OC_I2C_Write+0x1f0>
    }

   //wait TIP bit go to 0 to end Tx
    if(!ACK_check( i2c_base)){
   20724:	e13ffe17 	ldw	r4,-8(fp)
   20728:	00205d00 	call	205d0 <ACK_check>
   2072c:	1000051e 	bne	r2,zero,20744 <OC_I2C_Write+0x114>
        printf("OC_I2C_Write error[5]\r\n");
   20730:	010000f4 	movhi	r4,3
   20734:	2110d904 	addi	r4,r4,17252
   20738:	00245140 	call	24514 <puts>
        return FALSE;
   2073c:	0005883a 	mov	r2,zero
   20740:	00003706 	br	20820 <OC_I2C_Write+0x1f0>
    }
 //  printf("\n receive ACK-reg address! \n");

#if 1
        for( i=nWriteLength-1;i>=0;i--){
   20744:	e0800217 	ldw	r2,8(fp)
   20748:	10bfffc4 	addi	r2,r2,-1
   2074c:	e0bfff15 	stw	r2,-4(fp)
   20750:	00002406 	br	207e4 <OC_I2C_Write+0x1b4>
        //set the txr reg data with the data
          if (!Write32_Data( i2c_base, 3,*(pData+i))){
   20754:	e0bfff17 	ldw	r2,-4(fp)
   20758:	e0fffb17 	ldw	r3,-20(fp)
   2075c:	1885883a 	add	r2,r3,r2
   20760:	10800003 	ldbu	r2,0(r2)
   20764:	10803fcc 	andi	r2,r2,255
   20768:	100d883a 	mov	r6,r2
   2076c:	014000c4 	movi	r5,3
   20770:	e13ffe17 	ldw	r4,-8(fp)
   20774:	00202840 	call	20284 <Write32_Data>
   20778:	1000051e 	bne	r2,zero,20790 <OC_I2C_Write+0x160>
              printf("OC_I2C_Write error[6]\r\n");
   2077c:	010000f4 	movhi	r4,3
   20780:	2110df04 	addi	r4,r4,17276
   20784:	00245140 	call	24514 <puts>
              return FALSE;
   20788:	0005883a 	mov	r2,zero
   2078c:	00002406 	br	20820 <OC_I2C_Write+0x1f0>
          }

        //set STO and WR bits(bit7 and bit4)
         if (!Write32_Data( i2c_base, 4,0x10)){
   20790:	01800404 	movi	r6,16
   20794:	01400104 	movi	r5,4
   20798:	e13ffe17 	ldw	r4,-8(fp)
   2079c:	00202840 	call	20284 <Write32_Data>
   207a0:	1000051e 	bne	r2,zero,207b8 <OC_I2C_Write+0x188>
             printf("OC_I2C_Write error[7]\r\n");
   207a4:	010000f4 	movhi	r4,3
   207a8:	2110e504 	addi	r4,r4,17300
   207ac:	00245140 	call	24514 <puts>
              return FALSE;
   207b0:	0005883a 	mov	r2,zero
   207b4:	00001a06 	br	20820 <OC_I2C_Write+0x1f0>
         }

         //wait TIP bit go to 0 to end Tx
          if(!ACK_check( i2c_base)){
   207b8:	e13ffe17 	ldw	r4,-8(fp)
   207bc:	00205d00 	call	205d0 <ACK_check>
   207c0:	1000051e 	bne	r2,zero,207d8 <OC_I2C_Write+0x1a8>
              printf("OC_I2C_Write error[8]\r\n");
   207c4:	010000f4 	movhi	r4,3
   207c8:	2110eb04 	addi	r4,r4,17324
   207cc:	00245140 	call	24514 <puts>
              return FALSE;
   207d0:	0005883a 	mov	r2,zero
   207d4:	00001206 	br	20820 <OC_I2C_Write+0x1f0>
        for( i=nWriteLength-1;i>=0;i--){
   207d8:	e0bfff17 	ldw	r2,-4(fp)
   207dc:	10bfffc4 	addi	r2,r2,-1
   207e0:	e0bfff15 	stw	r2,-4(fp)
   207e4:	e0bfff17 	ldw	r2,-4(fp)
   207e8:	103fda0e 	bge	r2,zero,20754 <OC_I2C_Write+0x124>
   //wait TIP bit go to 0 to end Tx
    if(!ACK_check( i2c_base))
        return false;
#endif

     if (!Write32_Data( i2c_base, 4,0x40)){
   207ec:	01801004 	movi	r6,64
   207f0:	01400104 	movi	r5,4
   207f4:	e13ffe17 	ldw	r4,-8(fp)
   207f8:	00202840 	call	20284 <Write32_Data>
   207fc:	1000051e 	bne	r2,zero,20814 <OC_I2C_Write+0x1e4>
         printf("OC_I2C_Write error[9]\r\n");
   20800:	010000f4 	movhi	r4,3
   20804:	2110f104 	addi	r4,r4,17348
   20808:	00245140 	call	24514 <puts>
         return FALSE;
   2080c:	0005883a 	mov	r2,zero
   20810:	00000306 	br	20820 <OC_I2C_Write+0x1f0>
     }
         //Sleep(10);
     //OS_msleep(1);
     usleep(SLEEP_TIME);
   20814:	01003e84 	movi	r4,250
   20818:	0031d640 	call	31d64 <usleep>

  // printf("\n receive ACK-data! \n");

     return TRUE;
   2081c:	00800044 	movi	r2,1

}
   20820:	e037883a 	mov	sp,fp
   20824:	dfc00117 	ldw	ra,4(sp)
   20828:	df000017 	ldw	fp,0(sp)
   2082c:	dec00204 	addi	sp,sp,8
   20830:	f800283a 	ret

00020834 <ACK_judge_for_read>:


bool ACK_judge_for_read(alt_32 i2c_base)
{
   20834:	defffb04 	addi	sp,sp,-20
   20838:	dfc00415 	stw	ra,16(sp)
   2083c:	df000315 	stw	fp,12(sp)
   20840:	df000304 	addi	fp,sp,12
   20844:	e13ffd15 	stw	r4,-12(fp)
	bool bSuccess;
    alt_32 this_data;

   // OS_msleep( SLEEP_TIME );
     usleep(ACK_SLEEP_TIME);
   20848:	01003e84 	movi	r4,250
   2084c:	0031d640 	call	31d64 <usleep>
    //   while(this_data & 0x02)
//   {
//      this_data =  Read32_Data ( hPCIe, i2c_base, 4);
//   }
    bSuccess =  Read32_Data ( i2c_base, 4, &this_data);
   20850:	e0bffe04 	addi	r2,fp,-8
   20854:	100d883a 	mov	r6,r2
   20858:	01400104 	movi	r5,4
   2085c:	e13ffd17 	ldw	r4,-12(fp)
   20860:	00202d80 	call	202d8 <Read32_Data>
   20864:	e0bfff15 	stw	r2,-4(fp)
    if (bSuccess){
   20868:	e0bfff17 	ldw	r2,-4(fp)
   2086c:	10000426 	beq	r2,zero,20880 <ACK_judge_for_read+0x4c>
        if(this_data & 0x02)
   20870:	e0bffe17 	ldw	r2,-8(fp)
   20874:	1080008c 	andi	r2,r2,2
   20878:	10000126 	beq	r2,zero,20880 <ACK_judge_for_read+0x4c>
            bSuccess = FALSE;
   2087c:	e03fff15 	stw	zero,-4(fp)
    }
   //wait the rx ACK signal 0-valid

    return bSuccess;
   20880:	e0bfff17 	ldw	r2,-4(fp)

}
   20884:	e037883a 	mov	sp,fp
   20888:	dfc00117 	ldw	ra,4(sp)
   2088c:	df000017 	ldw	fp,0(sp)
   20890:	dec00204 	addi	sp,sp,8
   20894:	f800283a 	ret

00020898 <OC_I2C_Read>:

bool  OC_I2C_Read(alt_32 i2c_base,alt_u8 device_address,alt_u8 sub_address, alt_u8 *pData8, int nReadLength){
   20898:	defff804 	addi	sp,sp,-32
   2089c:	dfc00715 	stw	ra,28(sp)
   208a0:	df000615 	stw	fp,24(sp)
   208a4:	df000604 	addi	fp,sp,24
   208a8:	e13ffd15 	stw	r4,-12(fp)
   208ac:	2805883a 	mov	r2,r5
   208b0:	3007883a 	mov	r3,r6
   208b4:	e1fffa15 	stw	r7,-24(fp)
   208b8:	e0bffc05 	stb	r2,-16(fp)
   208bc:	1805883a 	mov	r2,r3
   208c0:	e0bffb05 	stb	r2,-20(fp)
    //BYTE data = 0x0;
    alt_32 Data32;
    int i;

   //set the tx reg audio chip dev address with write bit
   IOWR( i2c_base, 3,device_address);
   208c4:	e0bffd17 	ldw	r2,-12(fp)
   208c8:	10800304 	addi	r2,r2,12
   208cc:	1007883a 	mov	r3,r2
   208d0:	e0bffc03 	ldbu	r2,-16(fp)
   208d4:	18800035 	stwio	r2,0(r3)
   //set STA and WR bits(bit7 and bit4)
   IOWR( i2c_base, 4,0x90);
   208d8:	e0bffd17 	ldw	r2,-12(fp)
   208dc:	10800404 	addi	r2,r2,16
   208e0:	1007883a 	mov	r3,r2
   208e4:	00802404 	movi	r2,144
   208e8:	18800035 	stwio	r2,0(r3)
   //wait TIP bit go to 0 to end Tx
   if (!ACK_check( i2c_base)){
   208ec:	e13ffd17 	ldw	r4,-12(fp)
   208f0:	00205d00 	call	205d0 <ACK_check>
   208f4:	1000051e 	bne	r2,zero,2090c <OC_I2C_Read+0x74>
       printf("OC_I2C_Read error[2]\r\n");
   208f8:	010000f4 	movhi	r4,3
   208fc:	2110f704 	addi	r4,r4,17372
   20900:	00245140 	call	24514 <puts>
       return FALSE;
   20904:	0005883a 	mov	r2,zero
   20908:	00005206 	br	20a54 <OC_I2C_Read+0x1bc>
   }
   IOWR(i2c_base, 3,sub_address);
   2090c:	e0bffd17 	ldw	r2,-12(fp)
   20910:	10800304 	addi	r2,r2,12
   20914:	1007883a 	mov	r3,r2
   20918:	e0bffb03 	ldbu	r2,-20(fp)
   2091c:	18800035 	stwio	r2,0(r3)

   //set WR bits(bit4)
   IOWR( i2c_base, 4,0x10);
   20920:	e0bffd17 	ldw	r2,-12(fp)
   20924:	10800404 	addi	r2,r2,16
   20928:	1007883a 	mov	r3,r2
   2092c:	00800404 	movi	r2,16
   20930:	18800035 	stwio	r2,0(r3)
   //wait TIP bit go to 0 to end Tx
    if (!ACK_check( i2c_base)){
   20934:	e13ffd17 	ldw	r4,-12(fp)
   20938:	00205d00 	call	205d0 <ACK_check>
   2093c:	1000051e 	bne	r2,zero,20954 <OC_I2C_Read+0xbc>
        printf("OC_I2C_Read error[5]\r\n");
   20940:	010000f4 	movhi	r4,3
   20944:	2110fd04 	addi	r4,r4,17396
   20948:	00245140 	call	24514 <puts>
        return FALSE;
   2094c:	0005883a 	mov	r2,zero
   20950:	00004006 	br	20a54 <OC_I2C_Read+0x1bc>
  // printf("\n read receive ACK-reg address! \n");

   //read
    //set the tx reg audio chip dev address with read bit 1

    IOWR(i2c_base, 3,device_address|0x01);
   20954:	e0bffd17 	ldw	r2,-12(fp)
   20958:	10800304 	addi	r2,r2,12
   2095c:	1007883a 	mov	r3,r2
   20960:	e0bffc03 	ldbu	r2,-16(fp)
   20964:	10800054 	ori	r2,r2,1
   20968:	10803fcc 	andi	r2,r2,255
   2096c:	18800035 	stwio	r2,0(r3)

   //set STA and WR bits(bit7 and bit4)
    IOWR( i2c_base, 4,0x90);
   20970:	e0bffd17 	ldw	r2,-12(fp)
   20974:	10800404 	addi	r2,r2,16
   20978:	1007883a 	mov	r3,r2
   2097c:	00802404 	movi	r2,144
   20980:	18800035 	stwio	r2,0(r3)

   //wait TIP bit go to 0 to end Tx
    if (!ACK_check( i2c_base)){
   20984:	e13ffd17 	ldw	r4,-12(fp)
   20988:	00205d00 	call	205d0 <ACK_check>
   2098c:	1000051e 	bne	r2,zero,209a4 <OC_I2C_Read+0x10c>
        printf("OC_I2C_Read error[8]\r\n");
   20990:	010000f4 	movhi	r4,3
   20994:	21110304 	addi	r4,r4,17420
   20998:	00245140 	call	24514 <puts>
        return FALSE;
   2099c:	0005883a 	mov	r2,zero
   209a0:	00002c06 	br	20a54 <OC_I2C_Read+0x1bc>
    }

    for(i=0;i<nReadLength;i++){
   209a4:	e03fff15 	stw	zero,-4(fp)
   209a8:	00001f06 	br	20a28 <OC_I2C_Read+0x190>
  // printf("\n read receive ACK-device address(read)! \n");
   //set the RD and ACK bit(bit5 and bit3)
    	IOWR( i2c_base, 4,((i+1) == nReadLength)?0x28:0x20);
   209ac:	e0bffd17 	ldw	r2,-12(fp)
   209b0:	10800404 	addi	r2,r2,16
   209b4:	1009883a 	mov	r4,r2
   209b8:	e0bfff17 	ldw	r2,-4(fp)
   209bc:	10800044 	addi	r2,r2,1
   209c0:	e0c00217 	ldw	r3,8(fp)
   209c4:	1880021e 	bne	r3,r2,209d0 <OC_I2C_Read+0x138>
   209c8:	00800a04 	movi	r2,40
   209cc:	00000106 	br	209d4 <OC_I2C_Read+0x13c>
   209d0:	00800804 	movi	r2,32
   209d4:	20800035 	stwio	r2,0(r4)

        if (!ACK_judge_for_read( i2c_base)){
   209d8:	e13ffd17 	ldw	r4,-12(fp)
   209dc:	00208340 	call	20834 <ACK_judge_for_read>
   209e0:	1000051e 	bne	r2,zero,209f8 <OC_I2C_Read+0x160>
            printf("OC_I2C_Read error[10]\r\n");
   209e4:	010000f4 	movhi	r4,3
   209e8:	21110904 	addi	r4,r4,17444
   209ec:	00245140 	call	24514 <puts>
            return FALSE;
   209f0:	0005883a 	mov	r2,zero
   209f4:	00001706 	br	20a54 <OC_I2C_Read+0x1bc>
        }
   // printf("\n read receive ACK-device address(read)! \n");

        Data32=IORD( i2c_base, 3);
   209f8:	e0bffd17 	ldw	r2,-12(fp)
   209fc:	10800304 	addi	r2,r2,12
   20a00:	10800037 	ldwio	r2,0(r2)
   20a04:	e0bffe15 	stw	r2,-8(fp)
        *(pData8+i) =  Data32 & 0xff;
   20a08:	e0bfff17 	ldw	r2,-4(fp)
   20a0c:	e0fffa17 	ldw	r3,-24(fp)
   20a10:	1885883a 	add	r2,r3,r2
   20a14:	e0fffe17 	ldw	r3,-8(fp)
   20a18:	10c00005 	stb	r3,0(r2)
    for(i=0;i<nReadLength;i++){
   20a1c:	e0bfff17 	ldw	r2,-4(fp)
   20a20:	10800044 	addi	r2,r2,1
   20a24:	e0bfff15 	stw	r2,-4(fp)
   20a28:	e0ffff17 	ldw	r3,-4(fp)
   20a2c:	e0800217 	ldw	r2,8(fp)
   20a30:	18bfde16 	blt	r3,r2,209ac <OC_I2C_Read+0x114>
    }

    IOWR( i2c_base, 4,0x40);
   20a34:	e0bffd17 	ldw	r2,-12(fp)
   20a38:	10800404 	addi	r2,r2,16
   20a3c:	1007883a 	mov	r3,r2
   20a40:	00801004 	movi	r2,64
   20a44:	18800035 	stwio	r2,0(r3)

  // Sleep(10);
   //OS_msleep(1);
    usleep(SLEEP_TIME);
   20a48:	01003e84 	movi	r4,250
   20a4c:	0031d640 	call	31d64 <usleep>
 //  printf(" Read  [%02X] = %02Xh\r\n", sub_address, data);


   return TRUE;
   20a50:	00800044 	movi	r2,1

}
   20a54:	e037883a 	mov	sp,fp
   20a58:	dfc00117 	ldw	ra,4(sp)
   20a5c:	df000017 	ldw	fp,0(sp)
   20a60:	dec00204 	addi	sp,sp,8
   20a64:	f800283a 	ret

00020a68 <OC_I2C_Read_Continue>:


bool  OC_I2C_Read_Continue(alt_32 i2c_base,alt_u8 device_address, alt_u8 *pData8, int nReadLength){
   20a68:	defff804 	addi	sp,sp,-32
   20a6c:	dfc00715 	stw	ra,28(sp)
   20a70:	df000615 	stw	fp,24(sp)
   20a74:	df000604 	addi	fp,sp,24
   20a78:	e13ffd15 	stw	r4,-12(fp)
   20a7c:	2805883a 	mov	r2,r5
   20a80:	e1bffb15 	stw	r6,-20(fp)
   20a84:	e1fffa15 	stw	r7,-24(fp)
   20a88:	e0bffc05 	stb	r2,-16(fp)
	int i;
	alt_u32 Data32;

    IOWR(i2c_base, 3,device_address|0x01);
   20a8c:	e0bffd17 	ldw	r2,-12(fp)
   20a90:	10800304 	addi	r2,r2,12
   20a94:	1007883a 	mov	r3,r2
   20a98:	e0bffc03 	ldbu	r2,-16(fp)
   20a9c:	10800054 	ori	r2,r2,1
   20aa0:	10803fcc 	andi	r2,r2,255
   20aa4:	18800035 	stwio	r2,0(r3)

   //set STA and WR bits(bit7 and bit4)
    IOWR( i2c_base, 4,0x90);
   20aa8:	e0bffd17 	ldw	r2,-12(fp)
   20aac:	10800404 	addi	r2,r2,16
   20ab0:	1007883a 	mov	r3,r2
   20ab4:	00802404 	movi	r2,144
   20ab8:	18800035 	stwio	r2,0(r3)
//usleep(5*1000);
   //wait TIP bit go to 0 to end Tx
    if (!ACK_check( i2c_base)){
   20abc:	e13ffd17 	ldw	r4,-12(fp)
   20ac0:	00205d00 	call	205d0 <ACK_check>
   20ac4:	1000051e 	bne	r2,zero,20adc <OC_I2C_Read_Continue+0x74>
        printf("OC_I2C_Read error[8]\r\n");
   20ac8:	010000f4 	movhi	r4,3
   20acc:	21110304 	addi	r4,r4,17420
   20ad0:	00245140 	call	24514 <puts>
        return FALSE;
   20ad4:	0005883a 	mov	r2,zero
   20ad8:	00002c06 	br	20b8c <OC_I2C_Read_Continue+0x124>
    }

    for(i=0;i<nReadLength;i++){
   20adc:	e03fff15 	stw	zero,-4(fp)
   20ae0:	00001f06 	br	20b60 <OC_I2C_Read_Continue+0xf8>
  // printf("\n read receive ACK-device address(read)! \n");
   //set the RD and ACK bit(bit5 and bit3)
    	IOWR( i2c_base, 4,((i+1) == nReadLength)?0x28:0x20);
   20ae4:	e0bffd17 	ldw	r2,-12(fp)
   20ae8:	10800404 	addi	r2,r2,16
   20aec:	1009883a 	mov	r4,r2
   20af0:	e0bfff17 	ldw	r2,-4(fp)
   20af4:	10800044 	addi	r2,r2,1
   20af8:	e0fffa17 	ldw	r3,-24(fp)
   20afc:	1880021e 	bne	r3,r2,20b08 <OC_I2C_Read_Continue+0xa0>
   20b00:	00800a04 	movi	r2,40
   20b04:	00000106 	br	20b0c <OC_I2C_Read_Continue+0xa4>
   20b08:	00800804 	movi	r2,32
   20b0c:	20800035 	stwio	r2,0(r4)

        if (!ACK_judge_for_read( i2c_base)){
   20b10:	e13ffd17 	ldw	r4,-12(fp)
   20b14:	00208340 	call	20834 <ACK_judge_for_read>
   20b18:	1000051e 	bne	r2,zero,20b30 <OC_I2C_Read_Continue+0xc8>
            printf("OC_I2C_Read error[10]\r\n");
   20b1c:	010000f4 	movhi	r4,3
   20b20:	21110904 	addi	r4,r4,17444
   20b24:	00245140 	call	24514 <puts>
            return FALSE;
   20b28:	0005883a 	mov	r2,zero
   20b2c:	00001706 	br	20b8c <OC_I2C_Read_Continue+0x124>
        }
   // printf("\n read receive ACK-device address(read)! \n");

        Data32=IORD( i2c_base, 3);
   20b30:	e0bffd17 	ldw	r2,-12(fp)
   20b34:	10800304 	addi	r2,r2,12
   20b38:	10800037 	ldwio	r2,0(r2)
   20b3c:	e0bffe15 	stw	r2,-8(fp)
        *(pData8+i) =  Data32 & 0xff;
   20b40:	e0bfff17 	ldw	r2,-4(fp)
   20b44:	e0fffb17 	ldw	r3,-20(fp)
   20b48:	1885883a 	add	r2,r3,r2
   20b4c:	e0fffe17 	ldw	r3,-8(fp)
   20b50:	10c00005 	stb	r3,0(r2)
    for(i=0;i<nReadLength;i++){
   20b54:	e0bfff17 	ldw	r2,-4(fp)
   20b58:	10800044 	addi	r2,r2,1
   20b5c:	e0bfff15 	stw	r2,-4(fp)
   20b60:	e0ffff17 	ldw	r3,-4(fp)
   20b64:	e0bffa17 	ldw	r2,-24(fp)
   20b68:	18bfde16 	blt	r3,r2,20ae4 <OC_I2C_Read_Continue+0x7c>
    }

    IOWR( i2c_base, 4,0x40);
   20b6c:	e0bffd17 	ldw	r2,-12(fp)
   20b70:	10800404 	addi	r2,r2,16
   20b74:	1007883a 	mov	r3,r2
   20b78:	00801004 	movi	r2,64
   20b7c:	18800035 	stwio	r2,0(r3)

  // Sleep(10);
   //OS_msleep(1);
    usleep(SLEEP_TIME);
   20b80:	01003e84 	movi	r4,250
   20b84:	0031d640 	call	31d64 <usleep>
 //  printf(" Read  [%02X] = %02Xh\r\n", sub_address, data);


   return TRUE;
   20b88:	00800044 	movi	r2,1

}
   20b8c:	e037883a 	mov	sp,fp
   20b90:	dfc00117 	ldw	ra,4(sp)
   20b94:	df000017 	ldw	fp,0(sp)
   20b98:	dec00204 	addi	sp,sp,8
   20b9c:	f800283a 	ret

00020ba0 <OC_I2CL_Write>:


//  size > 2Kb
bool  OC_I2CL_Write(alt_32 i2c_base,alt_u8 device_address,alt_u16 sub_address,alt_u8 *pData, int nWriteLength)
    {
   20ba0:	defff804 	addi	sp,sp,-32
   20ba4:	dfc00715 	stw	ra,28(sp)
   20ba8:	df000615 	stw	fp,24(sp)
   20bac:	df000604 	addi	fp,sp,24
   20bb0:	e13ffd15 	stw	r4,-12(fp)
   20bb4:	2805883a 	mov	r2,r5
   20bb8:	3007883a 	mov	r3,r6
   20bbc:	e1fffa15 	stw	r7,-24(fp)
   20bc0:	e0bffc05 	stb	r2,-16(fp)
   20bc4:	1805883a 	mov	r2,r3
   20bc8:	e0bffb0d 	sth	r2,-20(fp)
    //DWORD reg_data = 0x0;
	alt_u8 AddrHigh, AddrLow;
    //int count= 0;

    AddrHigh = (sub_address >> 8) & 0xFF;
   20bcc:	e0bffb0b 	ldhu	r2,-20(fp)
   20bd0:	1004d23a 	srli	r2,r2,8
   20bd4:	e0bffec5 	stb	r2,-5(fp)
    AddrLow  = sub_address & 0xFF;
   20bd8:	e0bffb0b 	ldhu	r2,-20(fp)
   20bdc:	e0bffe85 	stb	r2,-6(fp)

    int i;

    //set the tx reg audio chip dev address with write bit
   if (!Write32_Data( i2c_base, 3,device_address))
   20be0:	e0bffc03 	ldbu	r2,-16(fp)
   20be4:	100d883a 	mov	r6,r2
   20be8:	014000c4 	movi	r5,3
   20bec:	e13ffd17 	ldw	r4,-12(fp)
   20bf0:	00202840 	call	20284 <Write32_Data>
   20bf4:	1000021e 	bne	r2,zero,20c00 <OC_I2CL_Write+0x60>
       return FALSE;
   20bf8:	0005883a 	mov	r2,zero
   20bfc:	00006806 	br	20da0 <OC_I2CL_Write+0x200>
   //set STA and WR bits(bit7 and bit4)
   if (!Write32_Data( i2c_base, 4,0x90))//0x90
   20c00:	01802404 	movi	r6,144
   20c04:	01400104 	movi	r5,4
   20c08:	e13ffd17 	ldw	r4,-12(fp)
   20c0c:	00202840 	call	20284 <Write32_Data>
   20c10:	1000021e 	bne	r2,zero,20c1c <OC_I2CL_Write+0x7c>
       return FALSE;
   20c14:	0005883a 	mov	r2,zero
   20c18:	00006106 	br	20da0 <OC_I2CL_Write+0x200>

   //wait TIP bit go to 0 to end Tx
    if(!ACK_check( i2c_base)){
   20c1c:	e13ffd17 	ldw	r4,-12(fp)
   20c20:	00205d00 	call	205d0 <ACK_check>
   20c24:	1000051e 	bne	r2,zero,20c3c <OC_I2CL_Write+0x9c>
        printf("OC_I2CL_Write error[0]\r\n");
   20c28:	010000f4 	movhi	r4,3
   20c2c:	21110f04 	addi	r4,r4,17468
   20c30:	00245140 	call	24514 <puts>
        return FALSE;
   20c34:	0005883a 	mov	r2,zero
   20c38:	00005906 	br	20da0 <OC_I2CL_Write+0x200>
  // printf("\n receive ACK-device address! \n");

   //set the txr reg data with reg address + 1 data MSB
 //  reg_data  = (sub_address << 1) & 0xFE;
   //reg_data |= ((data >> 8) & 0x01);
   if (!Write32_Data( i2c_base, 3,AddrHigh))//reg_data&0xff);
   20c3c:	e0bffec3 	ldbu	r2,-5(fp)
   20c40:	100d883a 	mov	r6,r2
   20c44:	014000c4 	movi	r5,3
   20c48:	e13ffd17 	ldw	r4,-12(fp)
   20c4c:	00202840 	call	20284 <Write32_Data>
   20c50:	1000021e 	bne	r2,zero,20c5c <OC_I2CL_Write+0xbc>
       return FALSE;
   20c54:	0005883a 	mov	r2,zero
   20c58:	00005106 	br	20da0 <OC_I2CL_Write+0x200>

   //set WR bits(bit4)
    if (!Write32_Data( i2c_base, 4,0x10))
   20c5c:	01800404 	movi	r6,16
   20c60:	01400104 	movi	r5,4
   20c64:	e13ffd17 	ldw	r4,-12(fp)
   20c68:	00202840 	call	20284 <Write32_Data>
   20c6c:	1000021e 	bne	r2,zero,20c78 <OC_I2CL_Write+0xd8>
        return FALSE;
   20c70:	0005883a 	mov	r2,zero
   20c74:	00004a06 	br	20da0 <OC_I2CL_Write+0x200>

   //wait TIP bit go to 0 to end Tx
    if(!ACK_check( i2c_base)){
   20c78:	e13ffd17 	ldw	r4,-12(fp)
   20c7c:	00205d00 	call	205d0 <ACK_check>
   20c80:	1000051e 	bne	r2,zero,20c98 <OC_I2CL_Write+0xf8>
        printf("OC_I2CL_Write error[1]\r\n");
   20c84:	010000f4 	movhi	r4,3
   20c88:	21111504 	addi	r4,r4,17492
   20c8c:	00245140 	call	24514 <puts>
        return FALSE;
   20c90:	0005883a 	mov	r2,zero
   20c94:	00004206 	br	20da0 <OC_I2CL_Write+0x200>
    }
  // printf("\n receive ACK-reg high address! \n");

   //set the txr reg data with reg address + 1 data MSB
   if (!Write32_Data( i2c_base, 3,AddrLow))//reg_data&0xff);
   20c98:	e0bffe83 	ldbu	r2,-6(fp)
   20c9c:	100d883a 	mov	r6,r2
   20ca0:	014000c4 	movi	r5,3
   20ca4:	e13ffd17 	ldw	r4,-12(fp)
   20ca8:	00202840 	call	20284 <Write32_Data>
   20cac:	1000021e 	bne	r2,zero,20cb8 <OC_I2CL_Write+0x118>
       return FALSE;
   20cb0:	0005883a 	mov	r2,zero
   20cb4:	00003a06 	br	20da0 <OC_I2CL_Write+0x200>

   //set WR bits(bit4)
    Write32_Data( i2c_base, 4,0x10);
   20cb8:	01800404 	movi	r6,16
   20cbc:	01400104 	movi	r5,4
   20cc0:	e13ffd17 	ldw	r4,-12(fp)
   20cc4:	00202840 	call	20284 <Write32_Data>

   //wait TIP bit go to 0 to end Tx
    if(!ACK_check( i2c_base)){
   20cc8:	e13ffd17 	ldw	r4,-12(fp)
   20ccc:	00205d00 	call	205d0 <ACK_check>
   20cd0:	1000051e 	bne	r2,zero,20ce8 <OC_I2CL_Write+0x148>
        printf("OC_I2CL_Write error[2]\r\n");
   20cd4:	010000f4 	movhi	r4,3
   20cd8:	21111b04 	addi	r4,r4,17516
   20cdc:	00245140 	call	24514 <puts>
        return FALSE;
   20ce0:	0005883a 	mov	r2,zero
   20ce4:	00002e06 	br	20da0 <OC_I2CL_Write+0x200>
    }
  //  printf("\n receive ACK-reg low address! \n");

#if 1
    for( i=nWriteLength-1;i>=0;i--){
   20ce8:	e0800217 	ldw	r2,8(fp)
   20cec:	10bfffc4 	addi	r2,r2,-1
   20cf0:	e0bfff15 	stw	r2,-4(fp)
   20cf4:	00001e06 	br	20d70 <OC_I2CL_Write+0x1d0>
        //set the txr reg data with the other data 8 bit LSB
        if (!Write32_Data( i2c_base, 3,*(pData+i)))
   20cf8:	e0bfff17 	ldw	r2,-4(fp)
   20cfc:	e0fffa17 	ldw	r3,-24(fp)
   20d00:	1885883a 	add	r2,r3,r2
   20d04:	10800003 	ldbu	r2,0(r2)
   20d08:	10803fcc 	andi	r2,r2,255
   20d0c:	100d883a 	mov	r6,r2
   20d10:	014000c4 	movi	r5,3
   20d14:	e13ffd17 	ldw	r4,-12(fp)
   20d18:	00202840 	call	20284 <Write32_Data>
   20d1c:	1000021e 	bne	r2,zero,20d28 <OC_I2CL_Write+0x188>
            return FALSE;
   20d20:	0005883a 	mov	r2,zero
   20d24:	00001e06 	br	20da0 <OC_I2CL_Write+0x200>

       //set STO and WR bits(bit7 and bit4)
        if (!Write32_Data( i2c_base, 4,0x10))
   20d28:	01800404 	movi	r6,16
   20d2c:	01400104 	movi	r5,4
   20d30:	e13ffd17 	ldw	r4,-12(fp)
   20d34:	00202840 	call	20284 <Write32_Data>
   20d38:	1000021e 	bne	r2,zero,20d44 <OC_I2CL_Write+0x1a4>
            return FALSE;
   20d3c:	0005883a 	mov	r2,zero
   20d40:	00001706 	br	20da0 <OC_I2CL_Write+0x200>

        //wait TIP bit go to 0 to end Tx
         if(!ACK_check( i2c_base)){
   20d44:	e13ffd17 	ldw	r4,-12(fp)
   20d48:	00205d00 	call	205d0 <ACK_check>
   20d4c:	1000051e 	bne	r2,zero,20d64 <OC_I2CL_Write+0x1c4>
             printf("OC_I2CL_Write error[3]\r\n");
   20d50:	010000f4 	movhi	r4,3
   20d54:	21112104 	addi	r4,r4,17540
   20d58:	00245140 	call	24514 <puts>
             return FALSE;
   20d5c:	0005883a 	mov	r2,zero
   20d60:	00000f06 	br	20da0 <OC_I2CL_Write+0x200>
    for( i=nWriteLength-1;i>=0;i--){
   20d64:	e0bfff17 	ldw	r2,-4(fp)
   20d68:	10bfffc4 	addi	r2,r2,-1
   20d6c:	e0bfff15 	stw	r2,-4(fp)
   20d70:	e0bfff17 	ldw	r2,-4(fp)
   20d74:	103fe00e 	bge	r2,zero,20cf8 <OC_I2CL_Write+0x158>
   //wait TIP bit go to 0 to end Tx
    if(!ACK_check( i2c_base))
        return FALSE;

#endif
    if (!Write32_Data( i2c_base, 4,0x40))
   20d78:	01801004 	movi	r6,64
   20d7c:	01400104 	movi	r5,4
   20d80:	e13ffd17 	ldw	r4,-12(fp)
   20d84:	00202840 	call	20284 <Write32_Data>
   20d88:	1000021e 	bne	r2,zero,20d94 <OC_I2CL_Write+0x1f4>
         return FALSE;
   20d8c:	0005883a 	mov	r2,zero
   20d90:	00000306 	br	20da0 <OC_I2CL_Write+0x200>

     //OS_msleep(1);
      usleep(SLEEP_TIME);
   20d94:	01003e84 	movi	r4,250
   20d98:	0031d640 	call	31d64 <usleep>
  //  printf("\n receive ACK-data! \n");

     return TRUE;
   20d9c:	00800044 	movi	r2,1
}
   20da0:	e037883a 	mov	sp,fp
   20da4:	dfc00117 	ldw	ra,4(sp)
   20da8:	df000017 	ldw	fp,0(sp)
   20dac:	dec00204 	addi	sp,sp,8
   20db0:	f800283a 	ret

00020db4 <OC_I2CL_Read>:

   return TRUE;

} */

bool  OC_I2CL_Read(alt_32 i2c_base,alt_u8 device_address, alt_u16 sub_address, alt_u8 *pData8, int nReadLength){
   20db4:	defff704 	addi	sp,sp,-36
   20db8:	dfc00815 	stw	ra,32(sp)
   20dbc:	df000715 	stw	fp,28(sp)
   20dc0:	df000704 	addi	fp,sp,28
   20dc4:	e13ffc15 	stw	r4,-16(fp)
   20dc8:	2805883a 	mov	r2,r5
   20dcc:	3007883a 	mov	r3,r6
   20dd0:	e1fff915 	stw	r7,-28(fp)
   20dd4:	e0bffb05 	stb	r2,-20(fp)
   20dd8:	1805883a 	mov	r2,r3
   20ddc:	e0bffa0d 	sth	r2,-24(fp)
    int i;

    alt_u8 AddrHigh, AddrLow;
    alt_u8 DataHigh, DataLow;

    AddrHigh = (sub_address >> 8) & 0xFF;
   20de0:	e0bffa0b 	ldhu	r2,-24(fp)
   20de4:	1004d23a 	srli	r2,r2,8
   20de8:	e0bffec5 	stb	r2,-5(fp)
    AddrLow  = sub_address & 0xFF;
   20dec:	e0bffa0b 	ldhu	r2,-24(fp)
   20df0:	e0bffe85 	stb	r2,-6(fp)


   //set the tx reg audio chip dev address with write bit
   if (!Write32_Data( i2c_base, 3,device_address))
   20df4:	e0bffb03 	ldbu	r2,-20(fp)
   20df8:	100d883a 	mov	r6,r2
   20dfc:	014000c4 	movi	r5,3
   20e00:	e13ffc17 	ldw	r4,-16(fp)
   20e04:	00202840 	call	20284 <Write32_Data>
   20e08:	1000021e 	bne	r2,zero,20e14 <OC_I2CL_Read+0x60>
       return FALSE;
   20e0c:	0005883a 	mov	r2,zero
   20e10:	00008406 	br	21024 <OC_I2CL_Read+0x270>

   //set STA and WR bits(bit7 and bit4)
   if (!Write32_Data( i2c_base, 4,0x90))
   20e14:	01802404 	movi	r6,144
   20e18:	01400104 	movi	r5,4
   20e1c:	e13ffc17 	ldw	r4,-16(fp)
   20e20:	00202840 	call	20284 <Write32_Data>
   20e24:	1000021e 	bne	r2,zero,20e30 <OC_I2CL_Read+0x7c>
       return FALSE;
   20e28:	0005883a 	mov	r2,zero
   20e2c:	00007d06 	br	21024 <OC_I2CL_Read+0x270>

   //wait TIP bit go to 0 to end Tx
    if(!ACK_check( i2c_base)){
   20e30:	e13ffc17 	ldw	r4,-16(fp)
   20e34:	00205d00 	call	205d0 <ACK_check>
   20e38:	1000051e 	bne	r2,zero,20e50 <OC_I2CL_Read+0x9c>
        printf("OC_I2CL_Read error[0]\r\n");
   20e3c:	010000f4 	movhi	r4,3
   20e40:	21112704 	addi	r4,r4,17564
   20e44:	00245140 	call	24514 <puts>
        return FALSE;
   20e48:	0005883a 	mov	r2,zero
   20e4c:	00007506 	br	21024 <OC_I2CL_Read+0x270>
 //  printf("\n receive ACK-device address! \n");


   //set the txr reg data with reg address + 0

   if (!Write32_Data( i2c_base, 3,AddrHigh))//reg_data&0xff);
   20e50:	e0bffec3 	ldbu	r2,-5(fp)
   20e54:	100d883a 	mov	r6,r2
   20e58:	014000c4 	movi	r5,3
   20e5c:	e13ffc17 	ldw	r4,-16(fp)
   20e60:	00202840 	call	20284 <Write32_Data>
   20e64:	1000021e 	bne	r2,zero,20e70 <OC_I2CL_Read+0xbc>
       return FALSE;
   20e68:	0005883a 	mov	r2,zero
   20e6c:	00006d06 	br	21024 <OC_I2CL_Read+0x270>

   //set WR bits(bit4)
    if (!Write32_Data( i2c_base, 4,0x10))
   20e70:	01800404 	movi	r6,16
   20e74:	01400104 	movi	r5,4
   20e78:	e13ffc17 	ldw	r4,-16(fp)
   20e7c:	00202840 	call	20284 <Write32_Data>
   20e80:	1000021e 	bne	r2,zero,20e8c <OC_I2CL_Read+0xd8>
        return FALSE;
   20e84:	0005883a 	mov	r2,zero
   20e88:	00006606 	br	21024 <OC_I2CL_Read+0x270>

   //wait TIP bit go to 0 to end Tx
    if(!ACK_check( i2c_base)){
   20e8c:	e13ffc17 	ldw	r4,-16(fp)
   20e90:	00205d00 	call	205d0 <ACK_check>
   20e94:	1000051e 	bne	r2,zero,20eac <OC_I2CL_Read+0xf8>
        printf("OC_I2CL_Read error[1]\r\n");
   20e98:	010000f4 	movhi	r4,3
   20e9c:	21112d04 	addi	r4,r4,17588
   20ea0:	00245140 	call	24514 <puts>
        return FALSE;
   20ea4:	0005883a 	mov	r2,zero
   20ea8:	00005e06 	br	21024 <OC_I2CL_Read+0x270>
    }
//   printf("\n read receive ACK-reg High address! \n");

     //set the txr reg data with reg address + 0
   if (!Write32_Data( i2c_base, 3,AddrLow)) //;//reg_data&0xff);
   20eac:	e0bffe83 	ldbu	r2,-6(fp)
   20eb0:	100d883a 	mov	r6,r2
   20eb4:	014000c4 	movi	r5,3
   20eb8:	e13ffc17 	ldw	r4,-16(fp)
   20ebc:	00202840 	call	20284 <Write32_Data>
   20ec0:	1000021e 	bne	r2,zero,20ecc <OC_I2CL_Read+0x118>
       return FALSE;
   20ec4:	0005883a 	mov	r2,zero
   20ec8:	00005606 	br	21024 <OC_I2CL_Read+0x270>
   //set WR bits(bit4)
    if (!Write32_Data( i2c_base, 4,0x10))
   20ecc:	01800404 	movi	r6,16
   20ed0:	01400104 	movi	r5,4
   20ed4:	e13ffc17 	ldw	r4,-16(fp)
   20ed8:	00202840 	call	20284 <Write32_Data>
   20edc:	1000021e 	bne	r2,zero,20ee8 <OC_I2CL_Read+0x134>
        return FALSE;
   20ee0:	0005883a 	mov	r2,zero
   20ee4:	00004f06 	br	21024 <OC_I2CL_Read+0x270>

   //wait TIP bit go to 0 to end Tx
    if(!ACK_check( i2c_base)){
   20ee8:	e13ffc17 	ldw	r4,-16(fp)
   20eec:	00205d00 	call	205d0 <ACK_check>
   20ef0:	1000051e 	bne	r2,zero,20f08 <OC_I2CL_Read+0x154>
        printf("OC_I2CL_Read error[2]\r\n");
   20ef4:	010000f4 	movhi	r4,3
   20ef8:	21113304 	addi	r4,r4,17612
   20efc:	00245140 	call	24514 <puts>
        return FALSE;
   20f00:	0005883a 	mov	r2,zero
   20f04:	00004706 	br	21024 <OC_I2CL_Read+0x270>

 //  printf("\n read receive ACK-reg Low address! \n");

   //read
    //set the tx reg audio chip dev address with read bit 1
     if (!Write32_Data( i2c_base, 3,device_address|0x01))
   20f08:	e0bffb03 	ldbu	r2,-20(fp)
   20f0c:	10800054 	ori	r2,r2,1
   20f10:	10803fcc 	andi	r2,r2,255
   20f14:	100d883a 	mov	r6,r2
   20f18:	014000c4 	movi	r5,3
   20f1c:	e13ffc17 	ldw	r4,-16(fp)
   20f20:	00202840 	call	20284 <Write32_Data>
   20f24:	1000021e 	bne	r2,zero,20f30 <OC_I2CL_Read+0x17c>
         return FALSE;
   20f28:	0005883a 	mov	r2,zero
   20f2c:	00003d06 	br	21024 <OC_I2CL_Read+0x270>

   //set STA and WR bits(bit7 and bit4)
     if (!Write32_Data( i2c_base, 4,0x90))
   20f30:	01802404 	movi	r6,144
   20f34:	01400104 	movi	r5,4
   20f38:	e13ffc17 	ldw	r4,-16(fp)
   20f3c:	00202840 	call	20284 <Write32_Data>
   20f40:	1000021e 	bne	r2,zero,20f4c <OC_I2CL_Read+0x198>
         return FALSE;
   20f44:	0005883a 	mov	r2,zero
   20f48:	00003606 	br	21024 <OC_I2CL_Read+0x270>

   //wait TIP bit go to 0 to end Tx
    if(!ACK_check( i2c_base)){
   20f4c:	e13ffc17 	ldw	r4,-16(fp)
   20f50:	00205d00 	call	205d0 <ACK_check>
   20f54:	1000051e 	bne	r2,zero,20f6c <OC_I2CL_Read+0x1b8>
        printf("OC_I2CL_Read error[3]\r\n");
   20f58:	010000f4 	movhi	r4,3
   20f5c:	21113904 	addi	r4,r4,17636
   20f60:	00245140 	call	24514 <puts>
        return FALSE;
   20f64:	0005883a 	mov	r2,zero
   20f68:	00002e06 	br	21024 <OC_I2CL_Read+0x270>
//   printf("\n read receive ACK-device address(read)! \n");

       //read the rxr data

#if 1
    for(i=0;i<nReadLength;i++){
   20f6c:	e03fff15 	stw	zero,-4(fp)
   20f70:	00001f06 	br	20ff0 <OC_I2CL_Read+0x23c>
  // printf("\n read receive ACK-device address(read)! \n");
   //set the RD and ACK bit(bit5 and bit3)
    	IOWR( i2c_base, 4,((i+1) == nReadLength)?0x28:0x20);
   20f74:	e0bffc17 	ldw	r2,-16(fp)
   20f78:	10800404 	addi	r2,r2,16
   20f7c:	1009883a 	mov	r4,r2
   20f80:	e0bfff17 	ldw	r2,-4(fp)
   20f84:	10800044 	addi	r2,r2,1
   20f88:	e0c00217 	ldw	r3,8(fp)
   20f8c:	1880021e 	bne	r3,r2,20f98 <OC_I2CL_Read+0x1e4>
   20f90:	00800a04 	movi	r2,40
   20f94:	00000106 	br	20f9c <OC_I2CL_Read+0x1e8>
   20f98:	00800804 	movi	r2,32
   20f9c:	20800035 	stwio	r2,0(r4)

        if (!ACK_judge_for_read( i2c_base)){
   20fa0:	e13ffc17 	ldw	r4,-16(fp)
   20fa4:	00208340 	call	20834 <ACK_judge_for_read>
   20fa8:	1000051e 	bne	r2,zero,20fc0 <OC_I2CL_Read+0x20c>
            printf("OC_I2CL_Read error[4]\r\n");
   20fac:	010000f4 	movhi	r4,3
   20fb0:	21113f04 	addi	r4,r4,17660
   20fb4:	00245140 	call	24514 <puts>
            return FALSE;
   20fb8:	0005883a 	mov	r2,zero
   20fbc:	00001906 	br	21024 <OC_I2CL_Read+0x270>
        }
   // printf("\n read receive ACK-device address(read)! \n");

        Data32=IORD( i2c_base, 3);
   20fc0:	e0bffc17 	ldw	r2,-16(fp)
   20fc4:	10800304 	addi	r2,r2,12
   20fc8:	10800037 	ldwio	r2,0(r2)
   20fcc:	e0bffd15 	stw	r2,-12(fp)
        *(pData8+i) =  Data32 & 0xff;
   20fd0:	e0bfff17 	ldw	r2,-4(fp)
   20fd4:	e0fff917 	ldw	r3,-28(fp)
   20fd8:	1885883a 	add	r2,r3,r2
   20fdc:	e0fffd17 	ldw	r3,-12(fp)
   20fe0:	10c00005 	stb	r3,0(r2)
    for(i=0;i<nReadLength;i++){
   20fe4:	e0bfff17 	ldw	r2,-4(fp)
   20fe8:	10800044 	addi	r2,r2,1
   20fec:	e0bfff15 	stw	r2,-4(fp)
   20ff0:	e0ffff17 	ldw	r3,-4(fp)
   20ff4:	e0800217 	ldw	r2,8(fp)
   20ff8:	18bfde16 	blt	r3,r2,20f74 <OC_I2CL_Read+0x1c0>
    DataLow =  Data32 & 0xff;

    pData16 = (DataHigh << 8) | DataLow;
#endif

   if (!Write32_Data( i2c_base, 4,0x40))
   20ffc:	01801004 	movi	r6,64
   21000:	01400104 	movi	r5,4
   21004:	e13ffc17 	ldw	r4,-16(fp)
   21008:	00202840 	call	20284 <Write32_Data>
   2100c:	1000021e 	bne	r2,zero,21018 <OC_I2CL_Read+0x264>
       return FALSE;
   21010:	0005883a 	mov	r2,zero
   21014:	00000306 	br	21024 <OC_I2CL_Read+0x270>

   //OS_msleep(1);
    usleep(SLEEP_TIME);
   21018:	01003e84 	movi	r4,250
   2101c:	0031d640 	call	31d64 <usleep>

   return TRUE;
   21020:	00800044 	movi	r2,1

}
   21024:	e037883a 	mov	sp,fp
   21028:	dfc00117 	ldw	ra,4(sp)
   2102c:	df000017 	ldw	fp,0(sp)
   21030:	dec00204 	addi	sp,sp,8
   21034:	f800283a 	ret

00021038 <Focus_Init>:
// please observe focus performance when change the scal ,scal_f. or when change camera frame rate
alt_u8  focus_scal   =   4;  // scan 0 -> 1023 , step: SCAL , to find STEP_UP
alt_u8  focus_scal_f =   1;  //  scan STEP_UP + - SCAL/2 , step: SCAL_F
alt_u8  focus_th     =   20;

void Focus_Init(void){
   21038:	defffe04 	addi	sp,sp,-8
   2103c:	dfc00115 	stw	ra,4(sp)
   21040:	df000015 	stw	fp,0(sp)
   21044:	d839883a 	mov	fp,sp
  // please look at TERASIC_AUTO_FOCUS IP to see register's detail.
  IOWR(TERASIC_AUTO_FOCUS_0_BASE,REG_CTRL, 0);// focus mode : 1: window-screen, 0: full-screen
   21048:	0007883a 	mov	r3,zero
   2104c:	00800134 	movhi	r2,4
   21050:	10c40935 	stwio	r3,4132(r2)
  IOWR(TERASIC_AUTO_FOCUS_0_BASE,REG_FOCUS_W, focus_width);// focus_width
   21054:	d0a0010b 	ldhu	r2,-32764(gp)
   21058:	10ffffcc 	andi	r3,r2,65535
   2105c:	00800134 	movhi	r2,4
   21060:	10c40a35 	stwio	r3,4136(r2)
  IOWR(TERASIC_AUTO_FOCUS_0_BASE,REG_FOCUS_H, focus_height);// focus_height
   21064:	d0a0018b 	ldhu	r2,-32762(gp)
   21068:	10ffffcc 	andi	r3,r2,65535
   2106c:	00800134 	movhi	r2,4
   21070:	10c40b35 	stwio	r3,4140(r2)
  IOWR(TERASIC_AUTO_FOCUS_0_BASE,REG_FOCUS_X_START, video_w/2-focus_width/2);//x_start
   21074:	d0a0000b 	ldhu	r2,-32768(gp)
   21078:	10bfffcc 	andi	r2,r2,65535
   2107c:	1004d07a 	srli	r2,r2,1
   21080:	10ffffcc 	andi	r3,r2,65535
   21084:	d0a0010b 	ldhu	r2,-32764(gp)
   21088:	10bfffcc 	andi	r2,r2,65535
   2108c:	1004d07a 	srli	r2,r2,1
   21090:	10bfffcc 	andi	r2,r2,65535
   21094:	1887c83a 	sub	r3,r3,r2
   21098:	00800134 	movhi	r2,4
   2109c:	10c40c35 	stwio	r3,4144(r2)
  IOWR(TERASIC_AUTO_FOCUS_0_BASE,REG_FOCUS_Y_START, video_h/2-focus_height/2);// y_start
   210a0:	d0a0008b 	ldhu	r2,-32766(gp)
   210a4:	10bfffcc 	andi	r2,r2,65535
   210a8:	1004d07a 	srli	r2,r2,1
   210ac:	10ffffcc 	andi	r3,r2,65535
   210b0:	d0a0018b 	ldhu	r2,-32762(gp)
   210b4:	10bfffcc 	andi	r2,r2,65535
   210b8:	1004d07a 	srli	r2,r2,1
   210bc:	10bfffcc 	andi	r2,r2,65535
   210c0:	1887c83a 	sub	r3,r3,r2
   210c4:	00800134 	movhi	r2,4
   210c8:	10c40d35 	stwio	r3,4148(r2)

  IOWR(TERASIC_AUTO_FOCUS_0_BASE,REG_SCAL, focus_scal*256 + focus_scal_f); // scan 0 -> 1023 , step: SCAL , to find STEP_UP
   210cc:	d0a00203 	ldbu	r2,-32760(gp)
   210d0:	10803fcc 	andi	r2,r2,255
   210d4:	1006923a 	slli	r3,r2,8
   210d8:	d0a00243 	ldbu	r2,-32759(gp)
   210dc:	10803fcc 	andi	r2,r2,255
   210e0:	1887883a 	add	r3,r3,r2
   210e4:	00800134 	movhi	r2,4
   210e8:	10c40e35 	stwio	r3,4152(r2)
                                                                          //  scan STEP_UP + - SCAL/2 , step: SCAL_F
  IOWR(TERASIC_AUTO_FOCUS_0_BASE,REG_TH, focus_th);
   210ec:	d0a00283 	ldbu	r2,-32758(gp)
   210f0:	10c03fcc 	andi	r3,r2,255
   210f4:	00800134 	movhi	r2,4
   210f8:	10c40f35 	stwio	r3,4156(r2)

  //////////// focus at initial time
  usleep(100);
   210fc:	01001904 	movi	r4,100
   21100:	0031d640 	call	31d64 <usleep>
  IOWR(TERASIC_AUTO_FOCUS_0_BASE,REG_GO, 1);
   21104:	00c00044 	movi	r3,1
   21108:	00800134 	movhi	r2,4
   2110c:	10c40835 	stwio	r3,4128(r2)
  usleep(2);
   21110:	01000084 	movi	r4,2
   21114:	0031d640 	call	31d64 <usleep>
  IOWR(TERASIC_AUTO_FOCUS_0_BASE,REG_GO, 0);
   21118:	0007883a 	mov	r3,zero
   2111c:	00800134 	movhi	r2,4
   21120:	10c40835 	stwio	r3,4128(r2)
}
   21124:	0001883a 	nop
   21128:	e037883a 	mov	sp,fp
   2112c:	dfc00117 	ldw	ra,4(sp)
   21130:	df000017 	ldw	fp,0(sp)
   21134:	dec00204 	addi	sp,sp,8
   21138:	f800283a 	ret

0002113c <Focus_Window>:

alt_u16 Focus_Window(int x,int y){
   2113c:	defffa04 	addi	sp,sp,-24
   21140:	dfc00515 	stw	ra,20(sp)
   21144:	df000415 	stw	fp,16(sp)
   21148:	df000404 	addi	fp,sp,16
   2114c:	e13ffd15 	stw	r4,-12(fp)
   21150:	e17ffc15 	stw	r5,-16(fp)
   alt_u16 x_start,y_start;
   alt_u16 end_focus;

   if(Focus_Released()) { // pre focus done
   21154:	00213040 	call	21304 <Focus_Released>
   21158:	10006426 	beq	r2,zero,212ec <Focus_Window+0x1b0>
	   IOWR(TERASIC_AUTO_FOCUS_0_BASE,REG_CTRL, 1);// focus mode : 1: window-screen, 0: full-screen
   2115c:	00c00044 	movi	r3,1
   21160:	00800134 	movhi	r2,4
   21164:	10c40935 	stwio	r3,4132(r2)

	   if(( x -  focus_width/2) < 0 ) x_start = 0;
   21168:	d0a0010b 	ldhu	r2,-32764(gp)
   2116c:	10bfffcc 	andi	r2,r2,65535
   21170:	1004d07a 	srli	r2,r2,1
   21174:	10bfffcc 	andi	r2,r2,65535
   21178:	e0fffd17 	ldw	r3,-12(fp)
   2117c:	1885c83a 	sub	r2,r3,r2
   21180:	1000020e 	bge	r2,zero,2118c <Focus_Window+0x50>
   21184:	e03fff8d 	sth	zero,-2(fp)
   21188:	00001606 	br	211e4 <Focus_Window+0xa8>
	   else if(( x + focus_width/2 ) > video_w )  x_start = video_w -1 -focus_width;
   2118c:	d0a0010b 	ldhu	r2,-32764(gp)
   21190:	10bfffcc 	andi	r2,r2,65535
   21194:	1004d07a 	srli	r2,r2,1
   21198:	10ffffcc 	andi	r3,r2,65535
   2119c:	e0bffd17 	ldw	r2,-12(fp)
   211a0:	1885883a 	add	r2,r3,r2
   211a4:	d0e0000b 	ldhu	r3,-32768(gp)
   211a8:	18ffffcc 	andi	r3,r3,65535
   211ac:	1880060e 	bge	r3,r2,211c8 <Focus_Window+0x8c>
   211b0:	d0e0000b 	ldhu	r3,-32768(gp)
   211b4:	d0a0010b 	ldhu	r2,-32764(gp)
   211b8:	1885c83a 	sub	r2,r3,r2
   211bc:	10bfffc4 	addi	r2,r2,-1
   211c0:	e0bfff8d 	sth	r2,-2(fp)
   211c4:	00000706 	br	211e4 <Focus_Window+0xa8>
	   else x_start = x - focus_width/2;
   211c8:	e0bffd17 	ldw	r2,-12(fp)
   211cc:	1007883a 	mov	r3,r2
   211d0:	d0a0010b 	ldhu	r2,-32764(gp)
   211d4:	10bfffcc 	andi	r2,r2,65535
   211d8:	1004d07a 	srli	r2,r2,1
   211dc:	1885c83a 	sub	r2,r3,r2
   211e0:	e0bfff8d 	sth	r2,-2(fp)

	   if(( y -  focus_height/2) < 0 ) y_start = 0;
   211e4:	d0a0018b 	ldhu	r2,-32762(gp)
   211e8:	10bfffcc 	andi	r2,r2,65535
   211ec:	1004d07a 	srli	r2,r2,1
   211f0:	10bfffcc 	andi	r2,r2,65535
   211f4:	e0fffc17 	ldw	r3,-16(fp)
   211f8:	1885c83a 	sub	r2,r3,r2
   211fc:	1000020e 	bge	r2,zero,21208 <Focus_Window+0xcc>
   21200:	e03fff0d 	sth	zero,-4(fp)
   21204:	00001606 	br	21260 <Focus_Window+0x124>
	   else if(( y + focus_height/2 ) > video_h )  y_start = video_h -1 -focus_height;
   21208:	d0a0018b 	ldhu	r2,-32762(gp)
   2120c:	10bfffcc 	andi	r2,r2,65535
   21210:	1004d07a 	srli	r2,r2,1
   21214:	10ffffcc 	andi	r3,r2,65535
   21218:	e0bffc17 	ldw	r2,-16(fp)
   2121c:	1885883a 	add	r2,r3,r2
   21220:	d0e0008b 	ldhu	r3,-32766(gp)
   21224:	18ffffcc 	andi	r3,r3,65535
   21228:	1880060e 	bge	r3,r2,21244 <Focus_Window+0x108>
   2122c:	d0e0008b 	ldhu	r3,-32766(gp)
   21230:	d0a0018b 	ldhu	r2,-32762(gp)
   21234:	1885c83a 	sub	r2,r3,r2
   21238:	10bfffc4 	addi	r2,r2,-1
   2123c:	e0bfff0d 	sth	r2,-4(fp)
   21240:	00000706 	br	21260 <Focus_Window+0x124>
	   else y_start = y - focus_height/2;
   21244:	e0bffc17 	ldw	r2,-16(fp)
   21248:	1007883a 	mov	r3,r2
   2124c:	d0a0018b 	ldhu	r2,-32762(gp)
   21250:	10bfffcc 	andi	r2,r2,65535
   21254:	1004d07a 	srli	r2,r2,1
   21258:	1885c83a 	sub	r2,r3,r2
   2125c:	e0bfff0d 	sth	r2,-4(fp)

	   printf("x_start= %d,y_start= %d\n",x_start,y_start);
   21260:	e0bfff8b 	ldhu	r2,-2(fp)
   21264:	e0ffff0b 	ldhu	r3,-4(fp)
   21268:	180d883a 	mov	r6,r3
   2126c:	100b883a 	mov	r5,r2
   21270:	010000f4 	movhi	r4,3
   21274:	21114504 	addi	r4,r4,17684
   21278:	00243ec0 	call	243ec <printf>

	   IOWR(TERASIC_AUTO_FOCUS_0_BASE,REG_FOCUS_X_START, x_start);//x_start
   2127c:	e0ffff8b 	ldhu	r3,-2(fp)
   21280:	00800134 	movhi	r2,4
   21284:	10c40c35 	stwio	r3,4144(r2)
	   IOWR(TERASIC_AUTO_FOCUS_0_BASE,REG_FOCUS_Y_START, y_start);//y_start
   21288:	e0ffff0b 	ldhu	r3,-4(fp)
   2128c:	00800134 	movhi	r2,4
   21290:	10c40d35 	stwio	r3,4148(r2)

	   usleep(10);
   21294:	01000284 	movi	r4,10
   21298:	0031d640 	call	31d64 <usleep>

	   IOWR(TERASIC_AUTO_FOCUS_0_BASE,REG_GO, 1);
   2129c:	00c00044 	movi	r3,1
   212a0:	00800134 	movhi	r2,4
   212a4:	10c40835 	stwio	r3,4128(r2)
	   usleep(2);
   212a8:	01000084 	movi	r4,2
   212ac:	0031d640 	call	31d64 <usleep>
	   IOWR(TERASIC_AUTO_FOCUS_0_BASE,REG_GO, 0);
   212b0:	0007883a 	mov	r3,zero
   212b4:	00800134 	movhi	r2,4
   212b8:	10c40835 	stwio	r3,4128(r2)
	   Focus_Released();
   212bc:	00213040 	call	21304 <Focus_Released>

	   end_focus = IORD(TERASIC_AUTO_FOCUS_0_BASE,REG_STATUS)&0x0FFF;
   212c0:	00800134 	movhi	r2,4
   212c4:	10840837 	ldwio	r2,4128(r2)
   212c8:	1083ffcc 	andi	r2,r2,4095
   212cc:	e0bffe8d 	sth	r2,-6(fp)
	   printf("end_focus = %d \n",end_focus);
   212d0:	e0bffe8b 	ldhu	r2,-6(fp)
   212d4:	100b883a 	mov	r5,r2
   212d8:	010000f4 	movhi	r4,3
   212dc:	21114c04 	addi	r4,r4,17712
   212e0:	00243ec0 	call	243ec <printf>

	   return end_focus;
   212e4:	e0bffe8b 	ldhu	r2,-6(fp)
   212e8:	00000106 	br	212f0 <Focus_Window+0x1b4>

   }
   return end_focus;
   212ec:	e0bffe8b 	ldhu	r2,-6(fp)

}
   212f0:	e037883a 	mov	sp,fp
   212f4:	dfc00117 	ldw	ra,4(sp)
   212f8:	df000017 	ldw	fp,0(sp)
   212fc:	dec00204 	addi	sp,sp,8
   21300:	f800283a 	ret

00021304 <Focus_Released>:

int Focus_Released(void){
   21304:	defffc04 	addi	sp,sp,-16
   21308:	dfc00315 	stw	ra,12(sp)
   2130c:	df000215 	stw	fp,8(sp)
   21310:	df000204 	addi	fp,sp,8
  int Released = FALSE;
   21314:	e03fff15 	stw	zero,-4(fp)
 * alt_nticks() returns the elapsed number of system clock ticks since reset.
 */

static ALT_INLINE alt_u64 ALT_ALWAYS_INLINE alt_nticks (void)
{
  return _alt_nticks;
   21318:	d0a92e17 	ldw	r2,-23368(gp)
   2131c:	d0e92f17 	ldw	r3,-23364(gp)
  alt_u32 TimeOut;

  TimeOut = alt_nticks() + alt_ticks_per_second()*8;
   21320:	1007883a 	mov	r3,r2
  return _alt_tick_rate;
   21324:	d0a92d17 	ldw	r2,-23372(gp)
   21328:	100490fa 	slli	r2,r2,3
   2132c:	1885883a 	add	r2,r3,r2
   21330:	e0bffe15 	stw	r2,-8(fp)

  while((IORD(TERASIC_AUTO_FOCUS_0_BASE,REG_STATUS)&0x8000) ==0 && alt_nticks() < TimeOut ); // waiting for VCM release I2C bus
   21334:	0001883a 	nop
   21338:	00800134 	movhi	r2,4
   2133c:	10840837 	ldwio	r2,4128(r2)
   21340:	10a0000c 	andi	r2,r2,32768
   21344:	1000081e 	bne	r2,zero,21368 <Focus_Released+0x64>
  return _alt_nticks;
   21348:	d0a92e17 	ldw	r2,-23368(gp)
   2134c:	d0e92f17 	ldw	r3,-23364(gp)
   21350:	e23ffe17 	ldw	r8,-8(fp)
   21354:	400d883a 	mov	r6,r8
   21358:	000f883a 	mov	r7,zero
   2135c:	19fff636 	bltu	r3,r7,21338 <Focus_Released+0x34>
   21360:	38c0011e 	bne	r7,r3,21368 <Focus_Released+0x64>
   21364:	11bff436 	bltu	r2,r6,21338 <Focus_Released+0x34>
   21368:	d0a92e17 	ldw	r2,-23368(gp)
   2136c:	d0e92f17 	ldw	r3,-23364(gp)

  if(alt_nticks() < TimeOut ) Released = TRUE;
   21370:	e1bffe17 	ldw	r6,-8(fp)
   21374:	3009883a 	mov	r4,r6
   21378:	000b883a 	mov	r5,zero
   2137c:	19400236 	bltu	r3,r5,21388 <Focus_Released+0x84>
   21380:	28c0041e 	bne	r5,r3,21394 <Focus_Released+0x90>
   21384:	1100032e 	bgeu	r2,r4,21394 <Focus_Released+0x90>
   21388:	00800044 	movi	r2,1
   2138c:	e0bfff15 	stw	r2,-4(fp)
   21390:	00000306 	br	213a0 <Focus_Released+0x9c>
  else printf("\n =>Released check TimeOut!\n");
   21394:	010000f4 	movhi	r4,3
   21398:	21115104 	addi	r4,r4,17732
   2139c:	00245140 	call	24514 <puts>

  usleep(10000);
   213a0:	0109c404 	movi	r4,10000
   213a4:	0031d640 	call	31d64 <usleep>

  return Released;
   213a8:	e0bfff17 	ldw	r2,-4(fp)
}
   213ac:	e037883a 	mov	sp,fp
   213b0:	dfc00117 	ldw	ra,4(sp)
   213b4:	df000017 	ldw	fp,0(sp)
   213b8:	dec00204 	addi	sp,sp,8
   213bc:	f800283a 	ret

000213c0 <mipi_clear_error>:
#define MIPI_REG_CSIErrEn		0x0066
#define MIPI_REG_MDLSynErr		0x0068
#define MIPI_REG_FrmErrCnt		0x0080
#define MIPI_REG_MDLErrCnt		0x0090

void mipi_clear_error(void){
   213c0:	defffe04 	addi	sp,sp,-8
   213c4:	dfc00115 	stw	ra,4(sp)
   213c8:	df000015 	stw	fp,0(sp)
   213cc:	d839883a 	mov	fp,sp
	MipiBridgeRegWrite(MIPI_REG_CSIStatus,0x01FF); // clear error
   213d0:	01407fc4 	movi	r5,511
   213d4:	01001904 	movi	r4,100
   213d8:	00222000 	call	22200 <MipiBridgeRegWrite>
	MipiBridgeRegWrite(MIPI_REG_MDLSynErr,0x0000); // clear error
   213dc:	000b883a 	mov	r5,zero
   213e0:	01001a04 	movi	r4,104
   213e4:	00222000 	call	22200 <MipiBridgeRegWrite>
	MipiBridgeRegWrite(MIPI_REG_FrmErrCnt,0x0000); // clear error
   213e8:	000b883a 	mov	r5,zero
   213ec:	01002004 	movi	r4,128
   213f0:	00222000 	call	22200 <MipiBridgeRegWrite>
	MipiBridgeRegWrite(MIPI_REG_MDLErrCnt, 0x0000); // clear error
   213f4:	000b883a 	mov	r5,zero
   213f8:	01002404 	movi	r4,144
   213fc:	00222000 	call	22200 <MipiBridgeRegWrite>

  	MipiBridgeRegWrite(0x0082,0x00);
   21400:	000b883a 	mov	r5,zero
   21404:	01002084 	movi	r4,130
   21408:	00222000 	call	22200 <MipiBridgeRegWrite>
  	MipiBridgeRegWrite(0x0084,0x00);
   2140c:	000b883a 	mov	r5,zero
   21410:	01002104 	movi	r4,132
   21414:	00222000 	call	22200 <MipiBridgeRegWrite>
  	MipiBridgeRegWrite(0x0086,0x00);
   21418:	000b883a 	mov	r5,zero
   2141c:	01002184 	movi	r4,134
   21420:	00222000 	call	22200 <MipiBridgeRegWrite>
  	MipiBridgeRegWrite(0x0088,0x00);
   21424:	000b883a 	mov	r5,zero
   21428:	01002204 	movi	r4,136
   2142c:	00222000 	call	22200 <MipiBridgeRegWrite>
  	MipiBridgeRegWrite(0x008A,0x00);
   21430:	000b883a 	mov	r5,zero
   21434:	01002284 	movi	r4,138
   21438:	00222000 	call	22200 <MipiBridgeRegWrite>
  	MipiBridgeRegWrite(0x008C,0x00);
   2143c:	000b883a 	mov	r5,zero
   21440:	01002304 	movi	r4,140
   21444:	00222000 	call	22200 <MipiBridgeRegWrite>
  	MipiBridgeRegWrite(0x008E,0x00);
   21448:	000b883a 	mov	r5,zero
   2144c:	01002384 	movi	r4,142
   21450:	00222000 	call	22200 <MipiBridgeRegWrite>
  	MipiBridgeRegWrite(0x0090,0x00);
   21454:	000b883a 	mov	r5,zero
   21458:	01002404 	movi	r4,144
   2145c:	00222000 	call	22200 <MipiBridgeRegWrite>
}
   21460:	0001883a 	nop
   21464:	e037883a 	mov	sp,fp
   21468:	dfc00117 	ldw	ra,4(sp)
   2146c:	df000017 	ldw	fp,0(sp)
   21470:	dec00204 	addi	sp,sp,8
   21474:	f800283a 	ret

00021478 <mipi_show_error_info>:

void mipi_show_error_info(void){
   21478:	defff904 	addi	sp,sp,-28
   2147c:	dfc00615 	stw	ra,24(sp)
   21480:	df000515 	stw	fp,20(sp)
   21484:	df000504 	addi	fp,sp,20

	alt_u16 PHY_status, SCI_status, MDLSynErr, FrmErrCnt, MDLErrCnt;

	PHY_status = MipiBridgeRegRead(MIPI_REG_PHYSta);
   21488:	01001884 	movi	r4,98
   2148c:	00222700 	call	22270 <MipiBridgeRegRead>
   21490:	e0bfff8d 	sth	r2,-2(fp)
	SCI_status = MipiBridgeRegRead(MIPI_REG_CSIStatus);
   21494:	01001904 	movi	r4,100
   21498:	00222700 	call	22270 <MipiBridgeRegRead>
   2149c:	e0bfff0d 	sth	r2,-4(fp)
	MDLSynErr = MipiBridgeRegRead(MIPI_REG_MDLSynErr);
   214a0:	01001a04 	movi	r4,104
   214a4:	00222700 	call	22270 <MipiBridgeRegRead>
   214a8:	e0bffe8d 	sth	r2,-6(fp)
	FrmErrCnt = MipiBridgeRegRead(MIPI_REG_FrmErrCnt);
   214ac:	01002004 	movi	r4,128
   214b0:	00222700 	call	22270 <MipiBridgeRegRead>
   214b4:	e0bffe0d 	sth	r2,-8(fp)
	MDLErrCnt = MipiBridgeRegRead(MIPI_REG_MDLErrCnt);
   214b8:	01002404 	movi	r4,144
   214bc:	00222700 	call	22270 <MipiBridgeRegRead>
   214c0:	e0bffd8d 	sth	r2,-10(fp)
	printf("PHY_status=%xh, CSI_status=%xh, MDLSynErr=%xh, FrmErrCnt=%xh, MDLErrCnt=%xh\r\n", PHY_status, SCI_status, MDLSynErr,FrmErrCnt, MDLErrCnt);
   214c4:	e13fff8b 	ldhu	r4,-2(fp)
   214c8:	e17fff0b 	ldhu	r5,-4(fp)
   214cc:	e1bffe8b 	ldhu	r6,-6(fp)
   214d0:	e0bffe0b 	ldhu	r2,-8(fp)
   214d4:	e0fffd8b 	ldhu	r3,-10(fp)
   214d8:	d8c00115 	stw	r3,4(sp)
   214dc:	d8800015 	stw	r2,0(sp)
   214e0:	300f883a 	mov	r7,r6
   214e4:	280d883a 	mov	r6,r5
   214e8:	200b883a 	mov	r5,r4
   214ec:	010000f4 	movhi	r4,3
   214f0:	21115904 	addi	r4,r4,17764
   214f4:	00243ec0 	call	243ec <printf>
}
   214f8:	0001883a 	nop
   214fc:	e037883a 	mov	sp,fp
   21500:	dfc00117 	ldw	ra,4(sp)
   21504:	df000017 	ldw	fp,0(sp)
   21508:	dec00204 	addi	sp,sp,8
   2150c:	f800283a 	ret

00021510 <mipi_show_error_info_more>:

void mipi_show_error_info_more(void){
   21510:	defffe04 	addi	sp,sp,-8
   21514:	dfc00115 	stw	ra,4(sp)
   21518:	df000015 	stw	fp,0(sp)
   2151c:	d839883a 	mov	fp,sp
    printf("FrmErrCnt = %d\n",MipiBridgeRegRead(0x0080));
   21520:	01002004 	movi	r4,128
   21524:	00222700 	call	22270 <MipiBridgeRegRead>
   21528:	10bfffcc 	andi	r2,r2,65535
   2152c:	100b883a 	mov	r5,r2
   21530:	010000f4 	movhi	r4,3
   21534:	21116d04 	addi	r4,r4,17844
   21538:	00243ec0 	call	243ec <printf>
    printf("CRCErrCnt = %d\n",MipiBridgeRegRead(0x0082));
   2153c:	01002084 	movi	r4,130
   21540:	00222700 	call	22270 <MipiBridgeRegRead>
   21544:	10bfffcc 	andi	r2,r2,65535
   21548:	100b883a 	mov	r5,r2
   2154c:	010000f4 	movhi	r4,3
   21550:	21117104 	addi	r4,r4,17860
   21554:	00243ec0 	call	243ec <printf>
    printf("CorErrCnt = %d\n",MipiBridgeRegRead(0x0084));
   21558:	01002104 	movi	r4,132
   2155c:	00222700 	call	22270 <MipiBridgeRegRead>
   21560:	10bfffcc 	andi	r2,r2,65535
   21564:	100b883a 	mov	r5,r2
   21568:	010000f4 	movhi	r4,3
   2156c:	21117504 	addi	r4,r4,17876
   21570:	00243ec0 	call	243ec <printf>
    printf("HdrErrCnt = %d\n",MipiBridgeRegRead(0x0086));
   21574:	01002184 	movi	r4,134
   21578:	00222700 	call	22270 <MipiBridgeRegRead>
   2157c:	10bfffcc 	andi	r2,r2,65535
   21580:	100b883a 	mov	r5,r2
   21584:	010000f4 	movhi	r4,3
   21588:	21117904 	addi	r4,r4,17892
   2158c:	00243ec0 	call	243ec <printf>
    printf("EIDErrCnt = %d\n",MipiBridgeRegRead(0x0088));
   21590:	01002204 	movi	r4,136
   21594:	00222700 	call	22270 <MipiBridgeRegRead>
   21598:	10bfffcc 	andi	r2,r2,65535
   2159c:	100b883a 	mov	r5,r2
   215a0:	010000f4 	movhi	r4,3
   215a4:	21117d04 	addi	r4,r4,17908
   215a8:	00243ec0 	call	243ec <printf>
    printf("CtlErrCnt = %d\n",MipiBridgeRegRead(0x008A));
   215ac:	01002284 	movi	r4,138
   215b0:	00222700 	call	22270 <MipiBridgeRegRead>
   215b4:	10bfffcc 	andi	r2,r2,65535
   215b8:	100b883a 	mov	r5,r2
   215bc:	010000f4 	movhi	r4,3
   215c0:	21118104 	addi	r4,r4,17924
   215c4:	00243ec0 	call	243ec <printf>
    printf("SoTErrCnt = %d\n",MipiBridgeRegRead(0x008C));
   215c8:	01002304 	movi	r4,140
   215cc:	00222700 	call	22270 <MipiBridgeRegRead>
   215d0:	10bfffcc 	andi	r2,r2,65535
   215d4:	100b883a 	mov	r5,r2
   215d8:	010000f4 	movhi	r4,3
   215dc:	21118504 	addi	r4,r4,17940
   215e0:	00243ec0 	call	243ec <printf>
    printf("SynErrCnt = %d\n",MipiBridgeRegRead(0x008E));
   215e4:	01002384 	movi	r4,142
   215e8:	00222700 	call	22270 <MipiBridgeRegRead>
   215ec:	10bfffcc 	andi	r2,r2,65535
   215f0:	100b883a 	mov	r5,r2
   215f4:	010000f4 	movhi	r4,3
   215f8:	21118904 	addi	r4,r4,17956
   215fc:	00243ec0 	call	243ec <printf>
    printf("MDLErrCnt = %d\n",MipiBridgeRegRead(0x0090));
   21600:	01002404 	movi	r4,144
   21604:	00222700 	call	22270 <MipiBridgeRegRead>
   21608:	10bfffcc 	andi	r2,r2,65535
   2160c:	100b883a 	mov	r5,r2
   21610:	010000f4 	movhi	r4,3
   21614:	21118d04 	addi	r4,r4,17972
   21618:	00243ec0 	call	243ec <printf>
    printf("FIFOSTATUS = %d\n",MipiBridgeRegRead(0x00F8));
   2161c:	01003e04 	movi	r4,248
   21620:	00222700 	call	22270 <MipiBridgeRegRead>
   21624:	10bfffcc 	andi	r2,r2,65535
   21628:	100b883a 	mov	r5,r2
   2162c:	010000f4 	movhi	r4,3
   21630:	21119104 	addi	r4,r4,17988
   21634:	00243ec0 	call	243ec <printf>
    printf("DataType = 0x%04x\n",MipiBridgeRegRead(0x006A));
   21638:	01001a84 	movi	r4,106
   2163c:	00222700 	call	22270 <MipiBridgeRegRead>
   21640:	10bfffcc 	andi	r2,r2,65535
   21644:	100b883a 	mov	r5,r2
   21648:	010000f4 	movhi	r4,3
   2164c:	21119604 	addi	r4,r4,18008
   21650:	00243ec0 	call	243ec <printf>
    printf("CSIPktLen = %d\n",MipiBridgeRegRead(0x006E));
   21654:	01001b84 	movi	r4,110
   21658:	00222700 	call	22270 <MipiBridgeRegRead>
   2165c:	10bfffcc 	andi	r2,r2,65535
   21660:	100b883a 	mov	r5,r2
   21664:	010000f4 	movhi	r4,3
   21668:	21119b04 	addi	r4,r4,18028
   2166c:	00243ec0 	call	243ec <printf>
}
   21670:	0001883a 	nop
   21674:	e037883a 	mov	sp,fp
   21678:	dfc00117 	ldw	ra,4(sp)
   2167c:	df000017 	ldw	fp,0(sp)
   21680:	dec00204 	addi	sp,sp,8
   21684:	f800283a 	ret

00021688 <MIPI_Init>:



bool MIPI_Init(void){
   21688:	defffd04 	addi	sp,sp,-12
   2168c:	dfc00215 	stw	ra,8(sp)
   21690:	df000115 	stw	fp,4(sp)
   21694:	df000104 	addi	fp,sp,4
	bool bSuccess;


	bSuccess = oc_i2c_init_ex(I2C_OPENCORES_MIPI_BASE, 50*1000*1000,400*1000); //I2C: 400K
   21698:	018001b4 	movhi	r6,6
   2169c:	3186a004 	addi	r6,r6,6784
   216a0:	0140bef4 	movhi	r5,763
   216a4:	297c2004 	addi	r5,r5,-3968
   216a8:	01000134 	movhi	r4,4
   216ac:	21041804 	addi	r4,r4,4192
   216b0:	00203840 	call	20384 <oc_i2c_init_ex>
   216b4:	e0bfff15 	stw	r2,-4(fp)
	if (!bSuccess)
   216b8:	e0bfff17 	ldw	r2,-4(fp)
   216bc:	1000031e 	bne	r2,zero,216cc <MIPI_Init+0x44>
		printf("failed to init MIPI- Bridge i2c\r\n");
   216c0:	010000f4 	movhi	r4,3
   216c4:	21119f04 	addi	r4,r4,18044
   216c8:	00245140 	call	24514 <puts>

    usleep(50*1000);
   216cc:	0130d414 	movui	r4,50000
   216d0:	0031d640 	call	31d64 <usleep>
    MipiBridgeInit();
   216d4:	00222e80 	call	222e8 <MipiBridgeInit>

    usleep(500*1000);
   216d8:	01000234 	movhi	r4,8
   216dc:	21284804 	addi	r4,r4,-24288
   216e0:	0031d640 	call	31d64 <usleep>

//	bSuccess = oc_i2c_init_ex(I2C_OPENCORES_CAMERA_BASE, 50*1000*1000,400*1000); //I2C: 400K
//	if (!bSuccess)
//		printf("failed to init MIPI- Camera i2c\r\n");

    MipiCameraInit();
   216e4:	0022ab00 	call	22ab0 <MipiCameraInit>
    MIPI_BIN_LEVEL(DEFAULT_LEVEL);
   216e8:	010000c4 	movi	r4,3
   216ec:	00228f00 	call	228f0 <MIPI_BIN_LEVEL>
//    OV8865_FOCUS_Move_to(340);

//    oc_i2c_uninit(I2C_OPENCORES_CAMERA_BASE);  // Release I2C bus , due to two I2C master shared!


 	usleep(1000);
   216f0:	0100fa04 	movi	r4,1000
   216f4:	0031d640 	call	31d64 <usleep>


//    oc_i2c_uninit(I2C_OPENCORES_MIPI_BASE);

	return bSuccess;
   216f8:	e0bfff17 	ldw	r2,-4(fp)
}
   216fc:	e037883a 	mov	sp,fp
   21700:	dfc00117 	ldw	ra,4(sp)
   21704:	df000017 	ldw	fp,0(sp)
   21708:	dec00204 	addi	sp,sp,8
   2170c:	f800283a 	ret

00021710 <NAVIGATION>:

char NAVIGATION(int word, int * top_1, int * top_3, int * bottom_1, int * bottom_3, FILE* ser) {
   21710:	deffed04 	addi	sp,sp,-76
   21714:	dfc01215 	stw	ra,72(sp)
   21718:	df001115 	stw	fp,68(sp)
   2171c:	df001104 	addi	fp,sp,68
   21720:	e13ff215 	stw	r4,-56(fp)
   21724:	e17ff115 	stw	r5,-60(fp)
   21728:	e1bff015 	stw	r6,-64(fp)
   2172c:	e1ffef15 	stw	r7,-68(fp)
	int id = word >> 28;
   21730:	e0bff217 	ldw	r2,-56(fp)
   21734:	1005d73a 	srai	r2,r2,28
   21738:	e0bffe15 	stw	r2,-8(fp)
	int left_1, right_1, left_3, right_3;
	int gradient_l, gradient_r;
	char dir;
	dir = '*';
   2173c:	00800a84 	movi	r2,42
   21740:	e0bfffc5 	stb	r2,-1(fp)

	//to get word[10:0]
	alt_u32 tmp = word << 21;
   21744:	e0bff217 	ldw	r2,-56(fp)
   21748:	1004957a 	slli	r2,r2,21
   2174c:	e0bffd15 	stw	r2,-12(fp)
	int data_1 = tmp >> 21;
   21750:	e0bffd17 	ldw	r2,-12(fp)
   21754:	1004d57a 	srli	r2,r2,21
   21758:	e0bffc15 	stw	r2,-16(fp)

	//to get word[26:16]
	alt_u32 tmp1 = word << 5;
   2175c:	e0bff217 	ldw	r2,-56(fp)
   21760:	1004917a 	slli	r2,r2,5
   21764:	e0bffb15 	stw	r2,-20(fp)
	int data_2 = tmp1 >> 21;
   21768:	e0bffb17 	ldw	r2,-20(fp)
   2176c:	1004d57a 	srli	r2,r2,21
   21770:	e0bffa15 	stw	r2,-24(fp)

	int x_1, x_2;

	if (id == 6){//word 2
   21774:	e0bffe17 	ldw	r2,-8(fp)
   21778:	10800198 	cmpnei	r2,r2,6
   2177c:	10000b1e 	bne	r2,zero,217ac <NAVIGATION+0x9c>
		//data1 is right_min
		
		if ((data_1==640) | (data_2==0)){
   21780:	e0bffc17 	ldw	r2,-16(fp)
   21784:	1080a020 	cmpeqi	r2,r2,640
   21788:	1007883a 	mov	r3,r2
   2178c:	e0bffa17 	ldw	r2,-24(fp)
   21790:	1005003a 	cmpeq	r2,r2,zero
   21794:	1884b03a 	or	r2,r3,r2
   21798:	10803fcc 	andi	r2,r2,255
   2179c:	1000ad26 	beq	r2,zero,21a54 <NAVIGATION+0x344>
			dir = 'c';
   217a0:	008018c4 	movi	r2,99
   217a4:	e0bfffc5 	stb	r2,-1(fp)
   217a8:	0000aa06 	br	21a54 <NAVIGATION+0x344>
		// }
		//printf("%03x %03x ", x_1, x_2);
		//printf("%03x %03x ", data_1, data_2);
	}

	else if (id == 1){//word 3
   217ac:	e0bffe17 	ldw	r2,-8(fp)
   217b0:	10800058 	cmpnei	r2,r2,1
   217b4:	1000161e 	bne	r2,zero,21810 <NAVIGATION+0x100>
		if (data_1 > 440){
   217b8:	e0bffc17 	ldw	r2,-16(fp)
   217bc:	10806e50 	cmplti	r2,r2,441
   217c0:	1000101e 	bne	r2,zero,21804 <NAVIGATION+0xf4>
			dir = 's';
   217c4:	00801cc4 	movi	r2,115
   217c8:	e0bfffc5 	stb	r2,-1(fp)
			int encode = 5;
   217cc:	00800144 	movi	r2,5
   217d0:	e0bff315 	stw	r2,-52(fp)
			//printf("%c ", dir);
			if (fwrite(&encode, 1, 1, ser) != 1)
   217d4:	e0bff304 	addi	r2,fp,-52
   217d8:	e1c00317 	ldw	r7,12(fp)
   217dc:	01800044 	movi	r6,1
   217e0:	01400044 	movi	r5,1
   217e4:	1009883a 	mov	r4,r2
   217e8:	00237740 	call	23774 <fwrite>
   217ec:	10800060 	cmpeqi	r2,r2,1
   217f0:	1000981e 	bne	r2,zero,21a54 <NAVIGATION+0x344>
    	 	   printf("Error writing to UART");
   217f4:	010000f4 	movhi	r4,3
   217f8:	2111a804 	addi	r4,r4,18080
   217fc:	00243ec0 	call	243ec <printf>
   21800:	00009406 	br	21a54 <NAVIGATION+0x344>
		}
		else {
			dir = '1';
   21804:	00800c44 	movi	r2,49
   21808:	e0bfffc5 	stb	r2,-1(fp)
   2180c:	00009106 	br	21a54 <NAVIGATION+0x344>
		}
		//printf("%c ", dir);
	}

	else if (id == 2){//word 4
   21810:	e0bffe17 	ldw	r2,-8(fp)
   21814:	10800098 	cmpnei	r2,r2,2
   21818:	1000101e 	bne	r2,zero,2185c <NAVIGATION+0x14c>
		* top_1 = data_2;
   2181c:	e0bff117 	ldw	r2,-60(fp)
   21820:	e0fffa17 	ldw	r3,-24(fp)
   21824:	10c00015 	stw	r3,0(r2)
		* bottom_1 = data_1;
   21828:	e0bfef17 	ldw	r2,-68(fp)
   2182c:	e0fffc17 	ldw	r3,-16(fp)
   21830:	10c00015 	stw	r3,0(r2)
		if (* bottom_1 > 440) {
   21834:	e0bfef17 	ldw	r2,-68(fp)
   21838:	10800017 	ldw	r2,0(r2)
   2183c:	10806e50 	cmplti	r2,r2,441
   21840:	1000031e 	bne	r2,zero,21850 <NAVIGATION+0x140>
			dir = 's';
   21844:	00801cc4 	movi	r2,115
   21848:	e0bfffc5 	stb	r2,-1(fp)
   2184c:	00008106 	br	21a54 <NAVIGATION+0x344>
			//printf("%c ", dir);
		}
		else{
			dir = '2';
   21850:	00800c84 	movi	r2,50
   21854:	e0bfffc5 	stb	r2,-1(fp)
   21858:	00007e06 	br	21a54 <NAVIGATION+0x344>
		}
		//printf("%c ", dir);
	}

	else if (id == 3){//word 5
   2185c:	e0bffe17 	ldw	r2,-8(fp)
   21860:	108000d8 	cmpnei	r2,r2,3
   21864:	1000331e 	bne	r2,zero,21934 <NAVIGATION+0x224>
		right_1 = data_2;
   21868:	e0bffa17 	ldw	r2,-24(fp)
   2186c:	e0bff615 	stw	r2,-40(fp)
		left_1 = data_1;
   21870:	e0bffc17 	ldw	r2,-16(fp)
   21874:	e0bff515 	stw	r2,-44(fp)
		gradient_l = ((*bottom_1)-(*top_1))*16/(right_1-left_1);
   21878:	e0bfef17 	ldw	r2,-68(fp)
   2187c:	10c00017 	ldw	r3,0(r2)
   21880:	e0bff117 	ldw	r2,-60(fp)
   21884:	10800017 	ldw	r2,0(r2)
   21888:	1885c83a 	sub	r2,r3,r2
   2188c:	1008913a 	slli	r4,r2,4
   21890:	e0fff617 	ldw	r3,-40(fp)
   21894:	e0bff517 	ldw	r2,-44(fp)
   21898:	1885c83a 	sub	r2,r3,r2
   2189c:	100b883a 	mov	r5,r2
   218a0:	0022f280 	call	22f28 <__divsi3>
   218a4:	e0bff415 	stw	r2,-48(fp)
		if ((gradient_l < 0.1*16)) {
   218a8:	e0bff417 	ldw	r2,-48(fp)
   218ac:	10800088 	cmpgei	r2,r2,2
   218b0:	1000031e 	bne	r2,zero,218c0 <NAVIGATION+0x1b0>
			dir = 's';
   218b4:	00801cc4 	movi	r2,115
   218b8:	e0bfffc5 	stb	r2,-1(fp)
   218bc:	00001806 	br	21920 <NAVIGATION+0x210>
			//printf("%c ", dir);
		}
		else if ((gradient_l > 0.2*16) & (gradient_l < 0.75*16)) {
   218c0:	e0bff417 	ldw	r2,-48(fp)
   218c4:	10800108 	cmpgei	r2,r2,4
   218c8:	1007883a 	mov	r3,r2
   218cc:	e0bff417 	ldw	r2,-48(fp)
   218d0:	10800310 	cmplti	r2,r2,12
   218d4:	1884703a 	and	r2,r3,r2
   218d8:	10803fcc 	andi	r2,r2,255
   218dc:	10000326 	beq	r2,zero,218ec <NAVIGATION+0x1dc>
			dir = 'r';
   218e0:	00801c84 	movi	r2,114
   218e4:	e0bfffc5 	stb	r2,-1(fp)
   218e8:	00000d06 	br	21920 <NAVIGATION+0x210>
			//printf("%c ", dir);
		}
		else if ((gradient_l > 0.74*16) & (gradient_l < 2.32*16)) {
   218ec:	e0bff417 	ldw	r2,-48(fp)
   218f0:	10800308 	cmpgei	r2,r2,12
   218f4:	1007883a 	mov	r3,r2
   218f8:	e0bff417 	ldw	r2,-48(fp)
   218fc:	10800990 	cmplti	r2,r2,38
   21900:	1884703a 	and	r2,r3,r2
   21904:	10803fcc 	andi	r2,r2,255
   21908:	10000326 	beq	r2,zero,21918 <NAVIGATION+0x208>
			dir = 'f';
   2190c:	00801984 	movi	r2,102
   21910:	e0bfffc5 	stb	r2,-1(fp)
   21914:	00000206 	br	21920 <NAVIGATION+0x210>
			//printf("%c ", dir);
		}
		else {
			dir = '3';
   21918:	00800cc4 	movi	r2,51
   2191c:	e0bfffc5 	stb	r2,-1(fp)
		}
		printf("%06x ", gradient_l);
   21920:	e17ff417 	ldw	r5,-48(fp)
   21924:	010000f4 	movhi	r4,3
   21928:	2111ae04 	addi	r4,r4,18104
   2192c:	00243ec0 	call	243ec <printf>
   21930:	00004806 	br	21a54 <NAVIGATION+0x344>
	}

	else if (id==4){//word 6
   21934:	e0bffe17 	ldw	r2,-8(fp)
   21938:	10800118 	cmpnei	r2,r2,4
   2193c:	1000101e 	bne	r2,zero,21980 <NAVIGATION+0x270>
		* top_3 = data_2;
   21940:	e0bff017 	ldw	r2,-64(fp)
   21944:	e0fffa17 	ldw	r3,-24(fp)
   21948:	10c00015 	stw	r3,0(r2)
		* bottom_3 = data_1;
   2194c:	e0800217 	ldw	r2,8(fp)
   21950:	e0fffc17 	ldw	r3,-16(fp)
   21954:	10c00015 	stw	r3,0(r2)
		if (* bottom_3 > 440) {
   21958:	e0800217 	ldw	r2,8(fp)
   2195c:	10800017 	ldw	r2,0(r2)
   21960:	10806e50 	cmplti	r2,r2,441
   21964:	1000031e 	bne	r2,zero,21974 <NAVIGATION+0x264>
			dir = 's';
   21968:	00801cc4 	movi	r2,115
   2196c:	e0bfffc5 	stb	r2,-1(fp)
   21970:	00003806 	br	21a54 <NAVIGATION+0x344>
			//printf("%c ", dir);
		}
		else {
			dir = '4';
   21974:	00800d04 	movi	r2,52
   21978:	e0bfffc5 	stb	r2,-1(fp)
   2197c:	00003506 	br	21a54 <NAVIGATION+0x344>
		}
		//printf("%c ", dir);
	}

	else if (id==5){//word 7
   21980:	e0bffe17 	ldw	r2,-8(fp)
   21984:	10800158 	cmpnei	r2,r2,5
   21988:	1000321e 	bne	r2,zero,21a54 <NAVIGATION+0x344>
		right_3 = data_1;
   2198c:	e0bffc17 	ldw	r2,-16(fp)
   21990:	e0bff915 	stw	r2,-28(fp)
		left_3 = data_2;
   21994:	e0bffa17 	ldw	r2,-24(fp)
   21998:	e0bff815 	stw	r2,-32(fp)
		gradient_r = ((*bottom_3)-(*top_3))*16/(right_3-left_3);
   2199c:	e0800217 	ldw	r2,8(fp)
   219a0:	10c00017 	ldw	r3,0(r2)
   219a4:	e0bff017 	ldw	r2,-64(fp)
   219a8:	10800017 	ldw	r2,0(r2)
   219ac:	1885c83a 	sub	r2,r3,r2
   219b0:	1008913a 	slli	r4,r2,4
   219b4:	e0fff917 	ldw	r3,-28(fp)
   219b8:	e0bff817 	ldw	r2,-32(fp)
   219bc:	1885c83a 	sub	r2,r3,r2
   219c0:	100b883a 	mov	r5,r2
   219c4:	0022f280 	call	22f28 <__divsi3>
   219c8:	e0bff715 	stw	r2,-36(fp)
		if ((gradient_r < 0.1*16)) {
   219cc:	e0bff717 	ldw	r2,-36(fp)
   219d0:	10800088 	cmpgei	r2,r2,2
   219d4:	1000031e 	bne	r2,zero,219e4 <NAVIGATION+0x2d4>
			dir = 's';
   219d8:	00801cc4 	movi	r2,115
   219dc:	e0bfffc5 	stb	r2,-1(fp)
   219e0:	00001806 	br	21a44 <NAVIGATION+0x334>
			//printf("%c ", dir);
		}
		else if ((gradient_r > 0.2*16) & (gradient_r < 0.75*16)) {
   219e4:	e0bff717 	ldw	r2,-36(fp)
   219e8:	10800108 	cmpgei	r2,r2,4
   219ec:	1007883a 	mov	r3,r2
   219f0:	e0bff717 	ldw	r2,-36(fp)
   219f4:	10800310 	cmplti	r2,r2,12
   219f8:	1884703a 	and	r2,r3,r2
   219fc:	10803fcc 	andi	r2,r2,255
   21a00:	10000326 	beq	r2,zero,21a10 <NAVIGATION+0x300>
			dir = 'l';
   21a04:	00801b04 	movi	r2,108
   21a08:	e0bfffc5 	stb	r2,-1(fp)
   21a0c:	00000d06 	br	21a44 <NAVIGATION+0x334>
			//printf("%c ", dir);
		}
		else if ((gradient_r > 0.74*16) & (gradient_r < 2.32*16)) {
   21a10:	e0bff717 	ldw	r2,-36(fp)
   21a14:	10800308 	cmpgei	r2,r2,12
   21a18:	1007883a 	mov	r3,r2
   21a1c:	e0bff717 	ldw	r2,-36(fp)
   21a20:	10800990 	cmplti	r2,r2,38
   21a24:	1884703a 	and	r2,r3,r2
   21a28:	10803fcc 	andi	r2,r2,255
   21a2c:	10000326 	beq	r2,zero,21a3c <NAVIGATION+0x32c>
			dir = 'f';
   21a30:	00801984 	movi	r2,102
   21a34:	e0bfffc5 	stb	r2,-1(fp)
   21a38:	00000206 	br	21a44 <NAVIGATION+0x334>
			//printf("%c ", dir);
		}
		else {
			dir = '5';
   21a3c:	00800d44 	movi	r2,53
   21a40:	e0bfffc5 	stb	r2,-1(fp)
		}
		//printf("%c ", dir);
		printf("%06x ", gradient_r);
   21a44:	e17ff717 	ldw	r5,-36(fp)
   21a48:	010000f4 	movhi	r4,3
   21a4c:	2111ae04 	addi	r4,r4,18104
   21a50:	00243ec0 	call	243ec <printf>
	// 		int encode = 4;
	// 		if (fwrite(&encode, 1, 1, ser) != 1)
    // 		   printf("Error writing to UART");
	// 	}
	// }
	return dir;
   21a54:	e0bfffc3 	ldbu	r2,-1(fp)
}
   21a58:	e037883a 	mov	sp,fp
   21a5c:	dfc00117 	ldw	ra,4(sp)
   21a60:	df000017 	ldw	fp,0(sp)
   21a64:	dec00204 	addi	sp,sp,8
   21a68:	f800283a 	ret

00021a6c <main>:




int main()
{
   21a6c:	deffee04 	addi	sp,sp,-72
   21a70:	dfc01115 	stw	ra,68(sp)
   21a74:	df001015 	stw	fp,64(sp)
   21a78:	df001004 	addi	fp,sp,64

	fcntl(STDIN_FILENO, F_SETFL, O_NONBLOCK);
   21a7c:	01900004 	movi	r6,16384
   21a80:	01400104 	movi	r5,4
   21a84:	0009883a 	mov	r4,zero
   21a88:	00310080 	call	31008 <fcntl>

  printf("DE10-LITE D8M VGA Demo\n");
   21a8c:	010000f4 	movhi	r4,3
   21a90:	2111b004 	addi	r4,r4,18112
   21a94:	00245140 	call	24514 <puts>
  printf("Imperial College EEE2 Project version\n");
   21a98:	010000f4 	movhi	r4,3
   21a9c:	2111b604 	addi	r4,r4,18136
   21aa0:	00245140 	call	24514 <puts>
  IOWR(MIPI_PWDN_N_BASE, 0x00, 0x00);
   21aa4:	0007883a 	mov	r3,zero
   21aa8:	00800134 	movhi	r2,4
   21aac:	10c42035 	stwio	r3,4224(r2)
  IOWR(MIPI_RESET_N_BASE, 0x00, 0x00);
   21ab0:	0007883a 	mov	r3,zero
   21ab4:	00800134 	movhi	r2,4
   21ab8:	10c42435 	stwio	r3,4240(r2)

  usleep(2000);
   21abc:	0101f404 	movi	r4,2000
   21ac0:	0031d640 	call	31d64 <usleep>
  IOWR(MIPI_PWDN_N_BASE, 0x00, 0xFF);
   21ac4:	00c03fc4 	movi	r3,255
   21ac8:	00800134 	movhi	r2,4
   21acc:	10c42035 	stwio	r3,4224(r2)
  usleep(2000);
   21ad0:	0101f404 	movi	r4,2000
   21ad4:	0031d640 	call	31d64 <usleep>
  IOWR(MIPI_RESET_N_BASE, 0x00, 0xFF);
   21ad8:	00c03fc4 	movi	r3,255
   21adc:	00800134 	movhi	r2,4
   21ae0:	10c42435 	stwio	r3,4240(r2)

  printf("Image Processor ID: %x\n",IORD(0x42000,EEE_IMGPROC_ID));
   21ae4:	00800134 	movhi	r2,4
   21ae8:	10880237 	ldwio	r2,8200(r2)
   21aec:	100b883a 	mov	r5,r2
   21af0:	010000f4 	movhi	r4,3
   21af4:	2111c004 	addi	r4,r4,18176
   21af8:	00243ec0 	call	243ec <printf>
  //printf("Image Processor ID: %x\n",IORD(EEE_IMGPROC_0_BASE,EEE_IMGPROC_ID)); //Don't know why this doesn't work - definition is in system.h in BSP


  usleep(2000);
   21afc:	0101f404 	movi	r4,2000
   21b00:	0031d640 	call	31d64 <usleep>


  // MIPI Init
   if (!MIPI_Init()){
   21b04:	00216880 	call	21688 <MIPI_Init>
   21b08:	1000041e 	bne	r2,zero,21b1c <main+0xb0>
	  printf("MIPI_Init Init failed!\r\n");
   21b0c:	010000f4 	movhi	r4,3
   21b10:	2111c604 	addi	r4,r4,18200
   21b14:	00245140 	call	24514 <puts>
   21b18:	00000306 	br	21b28 <main+0xbc>
  }else{
	  printf("MIPI_Init Init successfully!\r\n");
   21b1c:	010000f4 	movhi	r4,3
   21b20:	2111cc04 	addi	r4,r4,18224
   21b24:	00245140 	call	24514 <puts>
  }

//   while(1){
 	    mipi_clear_error();
   21b28:	00213c00 	call	213c0 <mipi_clear_error>
	 	usleep(50*1000);
   21b2c:	0130d414 	movui	r4,50000
   21b30:	0031d640 	call	31d64 <usleep>
 	    mipi_clear_error();
   21b34:	00213c00 	call	213c0 <mipi_clear_error>
	 	usleep(1000*1000);
   21b38:	010003f4 	movhi	r4,15
   21b3c:	21109004 	addi	r4,r4,16960
   21b40:	0031d640 	call	31d64 <usleep>
	    mipi_show_error_info();
   21b44:	00214780 	call	21478 <mipi_show_error_info>
//	    mipi_show_error_info_more();
	    printf("\n");
   21b48:	01000284 	movi	r4,10
   21b4c:	002442c0 	call	2442c <putchar>




    //////////////////////////////////////////////////////////
        alt_u16 bin_level = DEFAULT_LEVEL;
   21b50:	008000c4 	movi	r2,3
   21b54:	e0bfff8d 	sth	r2,-2(fp)
        alt_u8  manual_focus_step = 10;
   21b58:	00800284 	movi	r2,10
   21b5c:	e0bffd45 	stb	r2,-11(fp)
        alt_u16  current_focus = 300;
   21b60:	00804b04 	movi	r2,300
   21b64:	e0bfff0d 	sth	r2,-4(fp)
    	int boundingBoxColour = 0;
   21b68:	e03ffc15 	stw	zero,-16(fp)
    	alt_u32 exposureTime = EXPOSURE_INIT;
   21b6c:	00bfffd4 	movui	r2,65535
   21b70:	e0bffe15 	stw	r2,-8(fp)
    	alt_u16 gain = GAIN_INIT;
   21b74:	00804004 	movi	r2,256
   21b78:	e0bffd8d 	sth	r2,-10(fp)
		int top_1, top_3, bottom_1, bottom_3;
		top_1 = 0;
   21b7c:	e03ff615 	stw	zero,-40(fp)
		top_3 = 0;
   21b80:	e03ff515 	stw	zero,-44(fp)
		bottom_1 = 0;
   21b84:	e03ff415 	stw	zero,-48(fp)
		bottom_3 = 0;
   21b88:	e03ff315 	stw	zero,-52(fp)
		char word_1, word_2, word_3, word_4, word_5, word_6, word_7;

        OV8865SetExposure(exposureTime);
   21b8c:	e13ffe17 	ldw	r4,-8(fp)
   21b90:	00226840 	call	22684 <OV8865SetExposure>
        OV8865SetGain(gain);
   21b94:	e0bffd8b 	ldhu	r2,-10(fp)
   21b98:	1009883a 	mov	r4,r2
   21b9c:	00227680 	call	22768 <OV8865SetGain>
        Focus_Init();
   21ba0:	00210380 	call	21038 <Focus_Init>

        FILE* ser = fopen("/dev/uart_0", "rb+");
   21ba4:	014000f4 	movhi	r5,3
   21ba8:	2951d404 	addi	r5,r5,18256
   21bac:	010000f4 	movhi	r4,3
   21bb0:	2111d504 	addi	r4,r4,18260
   21bb4:	00231d40 	call	231d4 <fopen>
   21bb8:	e0bffb15 	stw	r2,-20(fp)
        if(ser){
   21bbc:	e0bffb17 	ldw	r2,-20(fp)
   21bc0:	10000426 	beq	r2,zero,21bd4 <main+0x168>
        	printf("Opened UART\n");
   21bc4:	010000f4 	movhi	r4,3
   21bc8:	2111d804 	addi	r4,r4,18272
   21bcc:	00245140 	call	24514 <puts>
   21bd0:	00000506 	br	21be8 <main+0x17c>
        } else {
        	printf("Failed to open UART\n");
   21bd4:	010000f4 	movhi	r4,3
   21bd8:	2111db04 	addi	r4,r4,18284
   21bdc:	00245140 	call	24514 <puts>
        	while (1);
   21be0:	0001883a 	nop
   21be4:	003ffe06 	br	21be0 <main+0x174>
        }

  while(1){

       // touch KEY0 to trigger Auto focus
	   if((IORD(KEY_BASE,0)&0x03) == 0x02){
   21be8:	00800134 	movhi	r2,4
   21bec:	10842837 	ldwio	r2,4256(r2)
   21bf0:	108000cc 	andi	r2,r2,3
   21bf4:	10800098 	cmpnei	r2,r2,2
   21bf8:	1000041e 	bne	r2,zero,21c0c <main+0x1a0>

    	   current_focus = Focus_Window(320,240);
   21bfc:	01403c04 	movi	r5,240
   21c00:	01005004 	movi	r4,320
   21c04:	002113c0 	call	2113c <Focus_Window>
   21c08:	e0bfff0d 	sth	r2,-4(fp)
       }
	   // touch KEY1 to ZOOM
	         if((IORD(KEY_BASE,0)&0x03) == 0x01){
   21c0c:	00800134 	movhi	r2,4
   21c10:	10842837 	ldwio	r2,4256(r2)
   21c14:	108000cc 	andi	r2,r2,3
   21c18:	10800058 	cmpnei	r2,r2,1
   21c1c:	1000f21e 	bne	r2,zero,21fe8 <main+0x57c>
	      	   if(bin_level == 3 )bin_level = 1;
   21c20:	e0bfff8b 	ldhu	r2,-2(fp)
   21c24:	108000d8 	cmpnei	r2,r2,3
   21c28:	1000031e 	bne	r2,zero,21c38 <main+0x1cc>
   21c2c:	00800044 	movi	r2,1
   21c30:	e0bfff8d 	sth	r2,-2(fp)
   21c34:	00000306 	br	21c44 <main+0x1d8>
	      	   else bin_level ++;
   21c38:	e0bfff8b 	ldhu	r2,-2(fp)
   21c3c:	10800044 	addi	r2,r2,1
   21c40:	e0bfff8d 	sth	r2,-2(fp)
	      	   printf("set bin level to %d\n",bin_level);
   21c44:	e0bfff8b 	ldhu	r2,-2(fp)
   21c48:	100b883a 	mov	r5,r2
   21c4c:	010000f4 	movhi	r4,3
   21c50:	2111e004 	addi	r4,r4,18304
   21c54:	00243ec0 	call	243ec <printf>
	      	   MIPI_BIN_LEVEL(bin_level);
   21c58:	e0bfff8b 	ldhu	r2,-2(fp)
   21c5c:	10803fcc 	andi	r2,r2,255
   21c60:	1009883a 	mov	r4,r2
   21c64:	00228f00 	call	228f0 <MIPI_BIN_LEVEL>
	      	 	usleep(500000);
   21c68:	01000234 	movhi	r4,8
   21c6c:	21284804 	addi	r4,r4,-24288
   21c70:	0031d640 	call	31d64 <usleep>
       }
	#endif

       //Read messages from the image processor and print them on the terminal
	   
       while ((IORD(0x42000,EEE_IMGPROC_STATUS)>>8) & 0xff) { 	//Find out if there are words to read
   21c74:	0000dc06 	br	21fe8 <main+0x57c>
		   int word;
    	   while(1){
			word = IORD(0x42000,EEE_IMGPROC_MSG);
   21c78:	00800134 	movhi	r2,4
   21c7c:	10880137 	ldwio	r2,8196(r2)
   21c80:	e0bff915 	stw	r2,-28(fp)
			if ((word>>28)==0) {
   21c84:	e0bff917 	ldw	r2,-28(fp)
   21c88:	1005d73a 	srai	r2,r2,28
   21c8c:	103ffa1e 	bne	r2,zero,21c78 <main+0x20c>
		        word_1 = NAVIGATION(word, & top_1, & top_3, & bottom_1, & bottom_3, ser);
   21c90:	e17ff404 	addi	r5,fp,-48
   21c94:	e13ff504 	addi	r4,fp,-44
   21c98:	e0fff604 	addi	r3,fp,-40
   21c9c:	e0bffb17 	ldw	r2,-20(fp)
   21ca0:	d8800115 	stw	r2,4(sp)
   21ca4:	e0bff304 	addi	r2,fp,-52
   21ca8:	d8800015 	stw	r2,0(sp)
   21cac:	280f883a 	mov	r7,r5
   21cb0:	200d883a 	mov	r6,r4
   21cb4:	180b883a 	mov	r5,r3
   21cb8:	e13ff917 	ldw	r4,-28(fp)
   21cbc:	00217100 	call	21710 <NAVIGATION>
   21cc0:	e0bff8c5 	stb	r2,-29(fp)
				printf("%c ", word_1);
   21cc4:	e0bff8c7 	ldb	r2,-29(fp)
   21cc8:	100b883a 	mov	r5,r2
   21ccc:	010000f4 	movhi	r4,3
   21cd0:	2111e604 	addi	r4,r4,18328
   21cd4:	00243ec0 	call	243ec <printf>
				break;
			}
		   }

		   while(1){
			if ((IORD(0x42000,EEE_IMGPROC_STATUS)>>8) & 0xff) {
   21cd8:	00800134 	movhi	r2,4
   21cdc:	10880037 	ldwio	r2,8192(r2)
   21ce0:	1005d23a 	srai	r2,r2,8
   21ce4:	10803fcc 	andi	r2,r2,255
   21ce8:	103ffb26 	beq	r2,zero,21cd8 <main+0x26c>
				word = IORD(0x42000,EEE_IMGPROC_MSG); 			//Get next word from message buffer
   21cec:	00800134 	movhi	r2,4
   21cf0:	10880137 	ldwio	r2,8196(r2)
   21cf4:	e0bff915 	stw	r2,-28(fp)
		        word_2 = NAVIGATION(word, & top_1, & top_3, & bottom_1, & bottom_3, ser);
   21cf8:	e17ff404 	addi	r5,fp,-48
   21cfc:	e13ff504 	addi	r4,fp,-44
   21d00:	e0fff604 	addi	r3,fp,-40
   21d04:	e0bffb17 	ldw	r2,-20(fp)
   21d08:	d8800115 	stw	r2,4(sp)
   21d0c:	e0bff304 	addi	r2,fp,-52
   21d10:	d8800015 	stw	r2,0(sp)
   21d14:	280f883a 	mov	r7,r5
   21d18:	200d883a 	mov	r6,r4
   21d1c:	180b883a 	mov	r5,r3
   21d20:	e13ff917 	ldw	r4,-28(fp)
   21d24:	00217100 	call	21710 <NAVIGATION>
   21d28:	e0bff885 	stb	r2,-30(fp)
				printf("%c ", word_2);
   21d2c:	e0bff887 	ldb	r2,-30(fp)
   21d30:	100b883a 	mov	r5,r2
   21d34:	010000f4 	movhi	r4,3
   21d38:	2111e604 	addi	r4,r4,18328
   21d3c:	00243ec0 	call	243ec <printf>
				break;
			}
		   }

		   while(1){
			if ((IORD(0x42000,EEE_IMGPROC_STATUS)>>8) & 0xff) {
   21d40:	00800134 	movhi	r2,4
   21d44:	10880037 	ldwio	r2,8192(r2)
   21d48:	1005d23a 	srai	r2,r2,8
   21d4c:	10803fcc 	andi	r2,r2,255
   21d50:	103ffb26 	beq	r2,zero,21d40 <main+0x2d4>
				word = IORD(0x42000,EEE_IMGPROC_MSG); 			//Get next word from message buffer
   21d54:	00800134 	movhi	r2,4
   21d58:	10880137 	ldwio	r2,8196(r2)
   21d5c:	e0bff915 	stw	r2,-28(fp)
		        word_3 = NAVIGATION(word, & top_1, & top_3, & bottom_1, & bottom_3, ser);
   21d60:	e17ff404 	addi	r5,fp,-48
   21d64:	e13ff504 	addi	r4,fp,-44
   21d68:	e0fff604 	addi	r3,fp,-40
   21d6c:	e0bffb17 	ldw	r2,-20(fp)
   21d70:	d8800115 	stw	r2,4(sp)
   21d74:	e0bff304 	addi	r2,fp,-52
   21d78:	d8800015 	stw	r2,0(sp)
   21d7c:	280f883a 	mov	r7,r5
   21d80:	200d883a 	mov	r6,r4
   21d84:	180b883a 	mov	r5,r3
   21d88:	e13ff917 	ldw	r4,-28(fp)
   21d8c:	00217100 	call	21710 <NAVIGATION>
   21d90:	e0bff845 	stb	r2,-31(fp)
				printf("%c ", word_3);
   21d94:	e0bff847 	ldb	r2,-31(fp)
   21d98:	100b883a 	mov	r5,r2
   21d9c:	010000f4 	movhi	r4,3
   21da0:	2111e604 	addi	r4,r4,18328
   21da4:	00243ec0 	call	243ec <printf>
				break;
			}
		   }

		   while(1){
			if ((IORD(0x42000,EEE_IMGPROC_STATUS)>>8) & 0xff) {
   21da8:	00800134 	movhi	r2,4
   21dac:	10880037 	ldwio	r2,8192(r2)
   21db0:	1005d23a 	srai	r2,r2,8
   21db4:	10803fcc 	andi	r2,r2,255
   21db8:	103ffb26 	beq	r2,zero,21da8 <main+0x33c>
				word = IORD(0x42000,EEE_IMGPROC_MSG); 			//Get next word from message buffer
   21dbc:	00800134 	movhi	r2,4
   21dc0:	10880137 	ldwio	r2,8196(r2)
   21dc4:	e0bff915 	stw	r2,-28(fp)
		        word_4 = NAVIGATION(word, & top_1, & top_3, & bottom_1, & bottom_3, ser);
   21dc8:	e17ff404 	addi	r5,fp,-48
   21dcc:	e13ff504 	addi	r4,fp,-44
   21dd0:	e0fff604 	addi	r3,fp,-40
   21dd4:	e0bffb17 	ldw	r2,-20(fp)
   21dd8:	d8800115 	stw	r2,4(sp)
   21ddc:	e0bff304 	addi	r2,fp,-52
   21de0:	d8800015 	stw	r2,0(sp)
   21de4:	280f883a 	mov	r7,r5
   21de8:	200d883a 	mov	r6,r4
   21dec:	180b883a 	mov	r5,r3
   21df0:	e13ff917 	ldw	r4,-28(fp)
   21df4:	00217100 	call	21710 <NAVIGATION>
   21df8:	e0bff805 	stb	r2,-32(fp)
				printf("%c ", word_4);
   21dfc:	e0bff807 	ldb	r2,-32(fp)
   21e00:	100b883a 	mov	r5,r2
   21e04:	010000f4 	movhi	r4,3
   21e08:	2111e604 	addi	r4,r4,18328
   21e0c:	00243ec0 	call	243ec <printf>
				break;
			}
		   }

		   while(1){
			if ((IORD(0x42000,EEE_IMGPROC_STATUS)>>8) & 0xff) {
   21e10:	00800134 	movhi	r2,4
   21e14:	10880037 	ldwio	r2,8192(r2)
   21e18:	1005d23a 	srai	r2,r2,8
   21e1c:	10803fcc 	andi	r2,r2,255
   21e20:	103ffb26 	beq	r2,zero,21e10 <main+0x3a4>
				word = IORD(0x42000,EEE_IMGPROC_MSG); 			//Get next word from message buffer
   21e24:	00800134 	movhi	r2,4
   21e28:	10880137 	ldwio	r2,8196(r2)
   21e2c:	e0bff915 	stw	r2,-28(fp)
		        word_5 = NAVIGATION(word, & top_1, & top_3, & bottom_1, & bottom_3, ser);
   21e30:	e17ff404 	addi	r5,fp,-48
   21e34:	e13ff504 	addi	r4,fp,-44
   21e38:	e0fff604 	addi	r3,fp,-40
   21e3c:	e0bffb17 	ldw	r2,-20(fp)
   21e40:	d8800115 	stw	r2,4(sp)
   21e44:	e0bff304 	addi	r2,fp,-52
   21e48:	d8800015 	stw	r2,0(sp)
   21e4c:	280f883a 	mov	r7,r5
   21e50:	200d883a 	mov	r6,r4
   21e54:	180b883a 	mov	r5,r3
   21e58:	e13ff917 	ldw	r4,-28(fp)
   21e5c:	00217100 	call	21710 <NAVIGATION>
   21e60:	e0bff7c5 	stb	r2,-33(fp)
				printf("%c ", word_5);
   21e64:	e0bff7c7 	ldb	r2,-33(fp)
   21e68:	100b883a 	mov	r5,r2
   21e6c:	010000f4 	movhi	r4,3
   21e70:	2111e604 	addi	r4,r4,18328
   21e74:	00243ec0 	call	243ec <printf>
				break;
			}
		   }

		   while(1){
			if ((IORD(0x42000,EEE_IMGPROC_STATUS)>>8) & 0xff) {
   21e78:	00800134 	movhi	r2,4
   21e7c:	10880037 	ldwio	r2,8192(r2)
   21e80:	1005d23a 	srai	r2,r2,8
   21e84:	10803fcc 	andi	r2,r2,255
   21e88:	103ffb26 	beq	r2,zero,21e78 <main+0x40c>
				word = IORD(0x42000,EEE_IMGPROC_MSG); 			//Get next word from message buffer
   21e8c:	00800134 	movhi	r2,4
   21e90:	10880137 	ldwio	r2,8196(r2)
   21e94:	e0bff915 	stw	r2,-28(fp)
		        word_6 = NAVIGATION(word, & top_1, & top_3, & bottom_1, & bottom_3, ser);
   21e98:	e17ff404 	addi	r5,fp,-48
   21e9c:	e13ff504 	addi	r4,fp,-44
   21ea0:	e0fff604 	addi	r3,fp,-40
   21ea4:	e0bffb17 	ldw	r2,-20(fp)
   21ea8:	d8800115 	stw	r2,4(sp)
   21eac:	e0bff304 	addi	r2,fp,-52
   21eb0:	d8800015 	stw	r2,0(sp)
   21eb4:	280f883a 	mov	r7,r5
   21eb8:	200d883a 	mov	r6,r4
   21ebc:	180b883a 	mov	r5,r3
   21ec0:	e13ff917 	ldw	r4,-28(fp)
   21ec4:	00217100 	call	21710 <NAVIGATION>
   21ec8:	e0bff785 	stb	r2,-34(fp)
				printf("%c ", word_6);
   21ecc:	e0bff787 	ldb	r2,-34(fp)
   21ed0:	100b883a 	mov	r5,r2
   21ed4:	010000f4 	movhi	r4,3
   21ed8:	2111e604 	addi	r4,r4,18328
   21edc:	00243ec0 	call	243ec <printf>
				break;
			}
		   }

		   while(1){
			if ((IORD(0x42000,EEE_IMGPROC_STATUS)>>8) & 0xff) {
   21ee0:	00800134 	movhi	r2,4
   21ee4:	10880037 	ldwio	r2,8192(r2)
   21ee8:	1005d23a 	srai	r2,r2,8
   21eec:	10803fcc 	andi	r2,r2,255
   21ef0:	103ffb26 	beq	r2,zero,21ee0 <main+0x474>
				word = IORD(0x42000,EEE_IMGPROC_MSG); 			//Get next word from message buffer
   21ef4:	00800134 	movhi	r2,4
   21ef8:	10880137 	ldwio	r2,8196(r2)
   21efc:	e0bff915 	stw	r2,-28(fp)
		        word_7 = NAVIGATION(word, & top_1, & top_3, & bottom_1, & bottom_3, ser);
   21f00:	e17ff404 	addi	r5,fp,-48
   21f04:	e13ff504 	addi	r4,fp,-44
   21f08:	e0fff604 	addi	r3,fp,-40
   21f0c:	e0bffb17 	ldw	r2,-20(fp)
   21f10:	d8800115 	stw	r2,4(sp)
   21f14:	e0bff304 	addi	r2,fp,-52
   21f18:	d8800015 	stw	r2,0(sp)
   21f1c:	280f883a 	mov	r7,r5
   21f20:	200d883a 	mov	r6,r4
   21f24:	180b883a 	mov	r5,r3
   21f28:	e13ff917 	ldw	r4,-28(fp)
   21f2c:	00217100 	call	21710 <NAVIGATION>
   21f30:	e0bff745 	stb	r2,-35(fp)
				printf("%c \n", word_7);
   21f34:	e0bff747 	ldb	r2,-35(fp)
   21f38:	100b883a 	mov	r5,r2
   21f3c:	010000f4 	movhi	r4,3
   21f40:	2111e704 	addi	r4,r4,18332
   21f44:	00243ec0 	call	243ec <printf>
				break;
   21f48:	0001883a 	nop
		//    if (word_2 == 'c') {//check node
		// 	encode = 9;
		// 	fwrite(&encode, 1, 1, ser);
		//    }

		   if (word_3 == 's' & word_4 == 's' & word_6 == 's'){//stop moving forward
   21f4c:	e0bff847 	ldb	r2,-31(fp)
   21f50:	10801ce0 	cmpeqi	r2,r2,115
   21f54:	1007883a 	mov	r3,r2
   21f58:	e0bff807 	ldb	r2,-32(fp)
   21f5c:	10801ce0 	cmpeqi	r2,r2,115
   21f60:	1884703a 	and	r2,r3,r2
   21f64:	10c03fcc 	andi	r3,r2,255
   21f68:	e0bff787 	ldb	r2,-34(fp)
   21f6c:	10801ce0 	cmpeqi	r2,r2,115
   21f70:	10803fcc 	andi	r2,r2,255
   21f74:	1884703a 	and	r2,r3,r2
   21f78:	10000e26 	beq	r2,zero,21fb4 <main+0x548>
			encode = 5;
   21f7c:	00800144 	movi	r2,5
   21f80:	e0bff215 	stw	r2,-56(fp)
			//printf("%c ", word_3);
			if (fwrite(&encode, 1, 1, ser) != 1)
   21f84:	e0bff204 	addi	r2,fp,-56
   21f88:	e1fffb17 	ldw	r7,-20(fp)
   21f8c:	01800044 	movi	r6,1
   21f90:	01400044 	movi	r5,1
   21f94:	1009883a 	mov	r4,r2
   21f98:	00237740 	call	23774 <fwrite>
   21f9c:	10800060 	cmpeqi	r2,r2,1
   21fa0:	1000111e 	bne	r2,zero,21fe8 <main+0x57c>
    	 	   printf("Error writing to UART");
   21fa4:	010000f4 	movhi	r4,3
   21fa8:	2111a804 	addi	r4,r4,18080
   21fac:	00243ec0 	call	243ec <printf>
   21fb0:	00000d06 	br	21fe8 <main+0x57c>
		   }
		   else{
			encode = 1;
   21fb4:	00800044 	movi	r2,1
   21fb8:	e0bff215 	stw	r2,-56(fp)
			//printf("%c ", word_3);
			if (fwrite(&encode, 1, 1, ser) != 1)
   21fbc:	e0bff204 	addi	r2,fp,-56
   21fc0:	e1fffb17 	ldw	r7,-20(fp)
   21fc4:	01800044 	movi	r6,1
   21fc8:	01400044 	movi	r5,1
   21fcc:	1009883a 	mov	r4,r2
   21fd0:	00237740 	call	23774 <fwrite>
   21fd4:	10800060 	cmpeqi	r2,r2,1
   21fd8:	1000031e 	bne	r2,zero,21fe8 <main+0x57c>
    	 	   printf("Error writing to UART");
   21fdc:	010000f4 	movhi	r4,3
   21fe0:	2111a804 	addi	r4,r4,18080
   21fe4:	00243ec0 	call	243ec <printf>
       while ((IORD(0x42000,EEE_IMGPROC_STATUS)>>8) & 0xff) { 	//Find out if there are words to read
   21fe8:	00800134 	movhi	r2,4
   21fec:	10880037 	ldwio	r2,8192(r2)
   21ff0:	1005d23a 	srai	r2,r2,8
   21ff4:	10803fcc 	andi	r2,r2,255
   21ff8:	103f1f1e 	bne	r2,zero,21c78 <main+0x20c>
       //Update the bounding box colour
       //boundingBoxColour = ((boundingBoxColour + 1) & 0xff);
       //IOWR(0x42000, EEE_IMGPROC_BBCOL, (boundingBoxColour << 8) | (0xff - boundingBoxColour));

       //Process input commands
       int in = getchar();
   21ffc:	00238500 	call	23850 <getchar>
   22000:	e0bffa15 	stw	r2,-24(fp)
       switch (in) {
   22004:	e0bffa17 	ldw	r2,-24(fp)
   22008:	10bfe704 	addi	r2,r2,-100
   2200c:	10c00468 	cmpgeui	r3,r2,17
   22010:	1800651e 	bne	r3,zero,221a8 <main+0x73c>
   22014:	100690ba 	slli	r3,r2,2
   22018:	008000b4 	movhi	r2,2
   2201c:	1885883a 	add	r2,r3,r2
   22020:	10880a17 	ldw	r2,8232(r2)
   22024:	1000683a 	jmp	r2
   22028:	00022094 	movui	zero,2178
   2202c:	0002206c 	andhi	zero,zero,2177
   22030:	00022164 	muli	zero,zero,2181
   22034:	000220ec 	andhi	zero,zero,2179
   22038:	000221a8 	cmpgeui	zero,zero,2182
   2203c:	000221a8 	cmpgeui	zero,zero,2182
   22040:	000221a8 	cmpgeui	zero,zero,2182
   22044:	000221a8 	cmpgeui	zero,zero,2182
   22048:	000221a8 	cmpgeui	zero,zero,2182
   2204c:	000221a8 	cmpgeui	zero,zero,2182
   22050:	000221a8 	cmpgeui	zero,zero,2182
   22054:	000221a8 	cmpgeui	zero,zero,2182
   22058:	000221a8 	cmpgeui	zero,zero,2182
   2205c:	000221a8 	cmpgeui	zero,zero,2182
   22060:	0002211c 	xori	zero,zero,2180
   22064:	000221a8 	cmpgeui	zero,zero,2182
   22068:	000220bc 	xorhi	zero,zero,2178
       	   case 'e': {
       		   exposureTime += EXPOSURE_STEP;
   2206c:	e0bffe17 	ldw	r2,-8(fp)
   22070:	10804004 	addi	r2,r2,256
   22074:	e0bffe15 	stw	r2,-8(fp)
       		   OV8865SetExposure(exposureTime);
   22078:	e13ffe17 	ldw	r4,-8(fp)
   2207c:	00226840 	call	22684 <OV8865SetExposure>
       		   printf("\nExposure = %x ", exposureTime);
   22080:	e17ffe17 	ldw	r5,-8(fp)
   22084:	010000f4 	movhi	r4,3
   22088:	2111e904 	addi	r4,r4,18340
   2208c:	00243ec0 	call	243ec <printf>
       	   	   break;}
   22090:	00004506 	br	221a8 <main+0x73c>
       	   case 'd': {
       		   exposureTime -= EXPOSURE_STEP;
   22094:	e0bffe17 	ldw	r2,-8(fp)
   22098:	10bfc004 	addi	r2,r2,-256
   2209c:	e0bffe15 	stw	r2,-8(fp)
       		   OV8865SetExposure(exposureTime);
   220a0:	e13ffe17 	ldw	r4,-8(fp)
   220a4:	00226840 	call	22684 <OV8865SetExposure>
       		   printf("\nExposure = %x ", exposureTime);
   220a8:	e17ffe17 	ldw	r5,-8(fp)
   220ac:	010000f4 	movhi	r4,3
   220b0:	2111e904 	addi	r4,r4,18340
   220b4:	00243ec0 	call	243ec <printf>
       	   	   break;}
   220b8:	00003b06 	br	221a8 <main+0x73c>
       	   case 't': {
       		   gain += GAIN_STEP;
   220bc:	e0bffd8b 	ldhu	r2,-10(fp)
   220c0:	10801004 	addi	r2,r2,64
   220c4:	e0bffd8d 	sth	r2,-10(fp)
       		   OV8865SetGain(gain);
   220c8:	e0bffd8b 	ldhu	r2,-10(fp)
   220cc:	1009883a 	mov	r4,r2
   220d0:	00227680 	call	22768 <OV8865SetGain>
       		   printf("\nGain = %x ", gain);
   220d4:	e0bffd8b 	ldhu	r2,-10(fp)
   220d8:	100b883a 	mov	r5,r2
   220dc:	010000f4 	movhi	r4,3
   220e0:	2111ed04 	addi	r4,r4,18356
   220e4:	00243ec0 	call	243ec <printf>
       	   	   break;}
   220e8:	00002f06 	br	221a8 <main+0x73c>
       	   case 'g': {
       		   gain -= GAIN_STEP;
   220ec:	e0bffd8b 	ldhu	r2,-10(fp)
   220f0:	10bff004 	addi	r2,r2,-64
   220f4:	e0bffd8d 	sth	r2,-10(fp)
       		   OV8865SetGain(gain);
   220f8:	e0bffd8b 	ldhu	r2,-10(fp)
   220fc:	1009883a 	mov	r4,r2
   22100:	00227680 	call	22768 <OV8865SetGain>
       		   printf("\nGain = %x ", gain);
   22104:	e0bffd8b 	ldhu	r2,-10(fp)
   22108:	100b883a 	mov	r5,r2
   2210c:	010000f4 	movhi	r4,3
   22110:	2111ed04 	addi	r4,r4,18356
   22114:	00243ec0 	call	243ec <printf>
       	   	   break;}
   22118:	00002306 	br	221a8 <main+0x73c>
       	   case 'r': {
        	   current_focus += manual_focus_step;
   2211c:	e0bffd43 	ldbu	r2,-11(fp)
   22120:	e0ffff0b 	ldhu	r3,-4(fp)
   22124:	1885883a 	add	r2,r3,r2
   22128:	e0bfff0d 	sth	r2,-4(fp)
        	   if(current_focus >1023) current_focus = 1023;
   2212c:	e0bfff0b 	ldhu	r2,-4(fp)
   22130:	10810030 	cmpltui	r2,r2,1024
   22134:	1000021e 	bne	r2,zero,22140 <main+0x6d4>
   22138:	0080ffc4 	movi	r2,1023
   2213c:	e0bfff0d 	sth	r2,-4(fp)
        	   OV8865_FOCUS_Move_to(current_focus);
   22140:	e0bfff0b 	ldhu	r2,-4(fp)
   22144:	1009883a 	mov	r4,r2
   22148:	00225b40 	call	225b4 <OV8865_FOCUS_Move_to>
        	   printf("\nFocus = %x ",current_focus);
   2214c:	e0bfff0b 	ldhu	r2,-4(fp)
   22150:	100b883a 	mov	r5,r2
   22154:	010000f4 	movhi	r4,3
   22158:	2111f004 	addi	r4,r4,18368
   2215c:	00243ec0 	call	243ec <printf>
       	   	   break;}
   22160:	00001106 	br	221a8 <main+0x73c>
       	   case 'f': {
        	   if(current_focus > manual_focus_step) current_focus -= manual_focus_step;
   22164:	e0fffd43 	ldbu	r3,-11(fp)
   22168:	e0bfff0b 	ldhu	r2,-4(fp)
   2216c:	18ffffcc 	andi	r3,r3,65535
   22170:	1880042e 	bgeu	r3,r2,22184 <main+0x718>
   22174:	e0bffd43 	ldbu	r2,-11(fp)
   22178:	e0ffff0b 	ldhu	r3,-4(fp)
   2217c:	1885c83a 	sub	r2,r3,r2
   22180:	e0bfff0d 	sth	r2,-4(fp)
        	   OV8865_FOCUS_Move_to(current_focus);
   22184:	e0bfff0b 	ldhu	r2,-4(fp)
   22188:	1009883a 	mov	r4,r2
   2218c:	00225b40 	call	225b4 <OV8865_FOCUS_Move_to>
        	   printf("\nFocus = %x ",current_focus);
   22190:	e0bfff0b 	ldhu	r2,-4(fp)
   22194:	100b883a 	mov	r5,r2
   22198:	010000f4 	movhi	r4,3
   2219c:	2111f004 	addi	r4,r4,18368
   221a0:	00243ec0 	call	243ec <printf>
       	   	   break;}
   221a4:	0001883a 	nop
       }


	   //Main loop delay
	   usleep(10000);
   221a8:	0109c404 	movi	r4,10000
   221ac:	0031d640 	call	31d64 <usleep>
  while(1){
   221b0:	003e8d06 	br	21be8 <main+0x17c>

000221b4 <nSWAP16>:
	{0x0004,0x8047} // Configuration Control Register

};


alt_u16 nSWAP16(alt_u16 x){
   221b4:	defffd04 	addi	sp,sp,-12
   221b8:	df000215 	stw	fp,8(sp)
   221bc:	df000204 	addi	fp,sp,8
   221c0:	2005883a 	mov	r2,r4
   221c4:	e0bffe0d 	sth	r2,-8(fp)
	alt_u16 y;
	//y =  (((x) >> 8) & 0xff) | (((x) & 0xff) << 8);

//	y = x;
	y = (x >> 8) & 0x00ff;
   221c8:	e0bffe0b 	ldhu	r2,-8(fp)
   221cc:	1004d23a 	srli	r2,r2,8
   221d0:	e0bfff8d 	sth	r2,-2(fp)
	y |= (x << 8) & 0xff00;
   221d4:	e0bffe0b 	ldhu	r2,-8(fp)
   221d8:	1004923a 	slli	r2,r2,8
   221dc:	1007883a 	mov	r3,r2
   221e0:	e0bfff8b 	ldhu	r2,-2(fp)
   221e4:	1884b03a 	or	r2,r3,r2
   221e8:	e0bfff8d 	sth	r2,-2(fp)
	return y;
   221ec:	e0bfff8b 	ldhu	r2,-2(fp)
}
   221f0:	e037883a 	mov	sp,fp
   221f4:	df000017 	ldw	fp,0(sp)
   221f8:	dec00104 	addi	sp,sp,4
   221fc:	f800283a 	ret

00022200 <MipiBridgeRegWrite>:


void MipiBridgeRegWrite(alt_u16 Addr, alt_u16 Value){
   22200:	defffa04 	addi	sp,sp,-24
   22204:	dfc00515 	stw	ra,20(sp)
   22208:	df000415 	stw	fp,16(sp)
   2220c:	df000404 	addi	fp,sp,16
   22210:	2005883a 	mov	r2,r4
   22214:	2807883a 	mov	r3,r5
   22218:	e0bffe0d 	sth	r2,-8(fp)
   2221c:	1805883a 	mov	r2,r3
   22220:	e0bffd0d 	sth	r2,-12(fp)
	const alt_u8 device_address = MIPI_BRIDGE_I2C_ADDR;
   22224:	00800704 	movi	r2,28
   22228:	e0bfffc5 	stb	r2,-1(fp)
	OC_I2CL_Write(I2C_OPENCORES_MIPI_BASE, device_address, Addr, (alt_u8 *)&Value, sizeof(Value));
   2222c:	e0ffffc3 	ldbu	r3,-1(fp)
   22230:	e13ffe0b 	ldhu	r4,-8(fp)
   22234:	e17ffd04 	addi	r5,fp,-12
   22238:	00800084 	movi	r2,2
   2223c:	d8800015 	stw	r2,0(sp)
   22240:	280f883a 	mov	r7,r5
   22244:	200d883a 	mov	r6,r4
   22248:	180b883a 	mov	r5,r3
   2224c:	01000134 	movhi	r4,4
   22250:	21041804 	addi	r4,r4,4192
   22254:	0020ba00 	call	20ba0 <OC_I2CL_Write>
}
   22258:	0001883a 	nop
   2225c:	e037883a 	mov	sp,fp
   22260:	dfc00117 	ldw	ra,4(sp)
   22264:	df000017 	ldw	fp,0(sp)
   22268:	dec00204 	addi	sp,sp,8
   2226c:	f800283a 	ret

00022270 <MipiBridgeRegRead>:

alt_u16 MipiBridgeRegRead(alt_u16 Addr){
   22270:	defffa04 	addi	sp,sp,-24
   22274:	dfc00515 	stw	ra,20(sp)
   22278:	df000415 	stw	fp,16(sp)
   2227c:	df000404 	addi	fp,sp,16
   22280:	2005883a 	mov	r2,r4
   22284:	e0bffd0d 	sth	r2,-12(fp)
	alt_u16 Value,tValue;
	const alt_u8 device_address = MIPI_BRIDGE_I2C_ADDR;
   22288:	00800704 	movi	r2,28
   2228c:	e0bfffc5 	stb	r2,-1(fp)

	OC_I2CL_Read(I2C_OPENCORES_MIPI_BASE,device_address, Addr,(alt_u8 *)&Value,sizeof(Value));
   22290:	e0ffffc3 	ldbu	r3,-1(fp)
   22294:	e13ffd0b 	ldhu	r4,-12(fp)
   22298:	e17ffe84 	addi	r5,fp,-6
   2229c:	00800084 	movi	r2,2
   222a0:	d8800015 	stw	r2,0(sp)
   222a4:	280f883a 	mov	r7,r5
   222a8:	200d883a 	mov	r6,r4
   222ac:	180b883a 	mov	r5,r3
   222b0:	01000134 	movhi	r4,4
   222b4:	21041804 	addi	r4,r4,4192
   222b8:	0020db40 	call	20db4 <OC_I2CL_Read>

	tValue = nSWAP16(Value);
   222bc:	e0bffe8b 	ldhu	r2,-6(fp)
   222c0:	10bfffcc 	andi	r2,r2,65535
   222c4:	1009883a 	mov	r4,r2
   222c8:	00221b40 	call	221b4 <nSWAP16>
   222cc:	e0bfff0d 	sth	r2,-4(fp)

	return (tValue);
   222d0:	e0bfff0b 	ldhu	r2,-4(fp)
}
   222d4:	e037883a 	mov	sp,fp
   222d8:	dfc00117 	ldw	ra,4(sp)
   222dc:	df000017 	ldw	fp,0(sp)
   222e0:	dec00204 	addi	sp,sp,8
   222e4:	f800283a 	ret

000222e8 <MipiBridgeInit>:




void MipiBridgeInit(void){
   222e8:	defffb04 	addi	sp,sp,-20
   222ec:	dfc00415 	stw	ra,16(sp)
   222f0:	df000315 	stw	fp,12(sp)
   222f4:	df000304 	addi	fp,sp,12

	alt_u16 data;
    int i, num;

	printf("\nStart MipiBridgeInit!\n");
   222f8:	010000f4 	movhi	r4,3
   222fc:	2111f404 	addi	r4,r4,18384
   22300:	00245140 	call	24514 <puts>

	data = MipiBridgeRegRead(0x0000); // read chip and revision id;
   22304:	0009883a 	mov	r4,zero
   22308:	00222700 	call	22270 <MipiBridgeRegRead>
   2230c:	e0bffe8d 	sth	r2,-6(fp)

	printf("Chip and Revision ID is 0x%04xh(expected: 0x4401);\n",data);
   22310:	e0bffe8b 	ldhu	r2,-6(fp)
   22314:	100b883a 	mov	r5,r2
   22318:	010000f4 	movhi	r4,3
   2231c:	2111fa04 	addi	r4,r4,18408
   22320:	00243ec0 	call	243ec <printf>


    num = sizeof(MipiBridgeReg)/sizeof(MipiBridgeReg[0]);
   22324:	00800344 	movi	r2,13
   22328:	e0bffd15 	stw	r2,-12(fp)

    for(i=0;i<num;i++){
   2232c:	e03fff15 	stw	zero,-4(fp)
   22330:	00002306 	br	223c0 <MipiBridgeInit+0xd8>
   	 if (MipiBridgeReg[i].Addr == 0xFFFF)   usleep(MipiBridgeReg[i].Data*1000);
   22334:	e0bfff17 	ldw	r2,-4(fp)
   22338:	100690ba 	slli	r3,r2,2
   2233c:	008000f4 	movhi	r2,3
   22340:	1885883a 	add	r2,r3,r2
   22344:	1093c90b 	ldhu	r2,20260(r2)
   22348:	10ffffcc 	andi	r3,r2,65535
   2234c:	00bfffd4 	movui	r2,65535
   22350:	18800a1e 	bne	r3,r2,2237c <MipiBridgeInit+0x94>
   22354:	e0bfff17 	ldw	r2,-4(fp)
   22358:	100690ba 	slli	r3,r2,2
   2235c:	008000f4 	movhi	r2,3
   22360:	1885883a 	add	r2,r3,r2
   22364:	1093c98b 	ldhu	r2,20262(r2)
   22368:	10bfffcc 	andi	r2,r2,65535
   2236c:	1080fa24 	muli	r2,r2,1000
   22370:	1009883a 	mov	r4,r2
   22374:	0031d640 	call	31d64 <usleep>
   22378:	00000e06 	br	223b4 <MipiBridgeInit+0xcc>
        else MipiBridgeRegWrite(MipiBridgeReg[i].Addr,  MipiBridgeReg[i].Data);
   2237c:	e0bfff17 	ldw	r2,-4(fp)
   22380:	100690ba 	slli	r3,r2,2
   22384:	008000f4 	movhi	r2,3
   22388:	1885883a 	add	r2,r3,r2
   2238c:	1093c90b 	ldhu	r2,20260(r2)
   22390:	113fffcc 	andi	r4,r2,65535
   22394:	e0bfff17 	ldw	r2,-4(fp)
   22398:	100690ba 	slli	r3,r2,2
   2239c:	008000f4 	movhi	r2,3
   223a0:	1885883a 	add	r2,r3,r2
   223a4:	1093c98b 	ldhu	r2,20262(r2)
   223a8:	10bfffcc 	andi	r2,r2,65535
   223ac:	100b883a 	mov	r5,r2
   223b0:	00222000 	call	22200 <MipiBridgeRegWrite>
    for(i=0;i<num;i++){
   223b4:	e0bfff17 	ldw	r2,-4(fp)
   223b8:	10800044 	addi	r2,r2,1
   223bc:	e0bfff15 	stw	r2,-4(fp)
   223c0:	e0ffff17 	ldw	r3,-4(fp)
   223c4:	e0bffd17 	ldw	r2,-12(fp)
   223c8:	18bfda16 	blt	r3,r2,22334 <MipiBridgeInit+0x4c>
//     MipiBridgeRegWrite(0x005A,((cap<<6) + (HsRxRs<<4) + ClkDly_data));
//     MipiBridgeRegWrite(0x005C,((cap<<6) + (HsRxRs<<4) + ClkDly_data));
//     MipiBridgeRegWrite(0x005E,((cap<<6) + (HsRxRs<<4) + ClkDly_data));
//

    printf("End MipiBridgeInit!\n\n");
   223cc:	010000f4 	movhi	r4,3
   223d0:	21120704 	addi	r4,r4,18460
   223d4:	00245140 	call	24514 <puts>

}
   223d8:	0001883a 	nop
   223dc:	e037883a 	mov	sp,fp
   223e0:	dfc00117 	ldw	ra,4(sp)
   223e4:	df000017 	ldw	fp,0(sp)
   223e8:	dec00204 	addi	sp,sp,8
   223ec:	f800283a 	ret

000223f0 <OV8865_read_cmos_sensor_8>:
   };




alt_u8 OV8865_read_cmos_sensor_8(alt_u16 Addr){
   223f0:	defffb04 	addi	sp,sp,-20
   223f4:	dfc00415 	stw	ra,16(sp)
   223f8:	df000315 	stw	fp,12(sp)
   223fc:	df000304 	addi	fp,sp,12
   22400:	2005883a 	mov	r2,r4
   22404:	e0bffe0d 	sth	r2,-8(fp)
	const alt_u8 device_address = MIPI_I2C_ADDR;
   22408:	00801b04 	movi	r2,108
   2240c:	e0bfffc5 	stb	r2,-1(fp)
	alt_u8 Value;

	//OC_I2CL_Write(I2C_OPENCORES_CAMERA_BASE, device_address, SWAP16(Addr), (alt_u8 *)&Value, sizeof(Value));
	OC_I2CL_Read(I2C_OPENCORES_CAMERA_BASE, device_address, Addr, (alt_u8 *)&Value, sizeof(Value));
   22410:	e0ffffc3 	ldbu	r3,-1(fp)
   22414:	e13ffe0b 	ldhu	r4,-8(fp)
   22418:	e17fff84 	addi	r5,fp,-2
   2241c:	00800044 	movi	r2,1
   22420:	d8800015 	stw	r2,0(sp)
   22424:	280f883a 	mov	r7,r5
   22428:	200d883a 	mov	r6,r4
   2242c:	180b883a 	mov	r5,r3
   22430:	01000134 	movhi	r4,4
   22434:	21041004 	addi	r4,r4,4160
   22438:	0020db40 	call	20db4 <OC_I2CL_Read>

	return (Value);
   2243c:	e0bfff83 	ldbu	r2,-2(fp)
}
   22440:	e037883a 	mov	sp,fp
   22444:	dfc00117 	ldw	ra,4(sp)
   22448:	df000017 	ldw	fp,0(sp)
   2244c:	dec00204 	addi	sp,sp,8
   22450:	f800283a 	ret

00022454 <OV8865_write_cmos_sensor_8>:


void OV8865_write_cmos_sensor_8(alt_u16 Addr, alt_u8 Value){
   22454:	defffa04 	addi	sp,sp,-24
   22458:	dfc00515 	stw	ra,20(sp)
   2245c:	df000415 	stw	fp,16(sp)
   22460:	df000404 	addi	fp,sp,16
   22464:	2005883a 	mov	r2,r4
   22468:	2807883a 	mov	r3,r5
   2246c:	e0bffe0d 	sth	r2,-8(fp)
   22470:	1805883a 	mov	r2,r3
   22474:	e0bffd05 	stb	r2,-12(fp)
	const alt_u8 device_address = MIPI_I2C_ADDR;
   22478:	00801b04 	movi	r2,108
   2247c:	e0bfffc5 	stb	r2,-1(fp)
	//OC_I2CL_Write(I2C_OPENCORES_CAMERA_BASE, device_address, SWAP16(Addr), (alt_u8 *)&Value, sizeof(Value));
	OC_I2CL_Write(I2C_OPENCORES_CAMERA_BASE, device_address, Addr, (alt_u8 *)&Value, sizeof(Value));
   22480:	e0ffffc3 	ldbu	r3,-1(fp)
   22484:	e13ffe0b 	ldhu	r4,-8(fp)
   22488:	e17ffd04 	addi	r5,fp,-12
   2248c:	00800044 	movi	r2,1
   22490:	d8800015 	stw	r2,0(sp)
   22494:	280f883a 	mov	r7,r5
   22498:	200d883a 	mov	r6,r4
   2249c:	180b883a 	mov	r5,r3
   224a0:	01000134 	movhi	r4,4
   224a4:	21041004 	addi	r4,r4,4160
   224a8:	0020ba00 	call	20ba0 <OC_I2CL_Write>
}
   224ac:	0001883a 	nop
   224b0:	e037883a 	mov	sp,fp
   224b4:	dfc00117 	ldw	ra,4(sp)
   224b8:	df000017 	ldw	fp,0(sp)
   224bc:	dec00204 	addi	sp,sp,8
   224c0:	f800283a 	ret

000224c4 <OV8865_write_AF>:


void OV8865_write_AF(alt_u8 msb, alt_u8 lsb){
   224c4:	defffa04 	addi	sp,sp,-24
   224c8:	dfc00515 	stw	ra,20(sp)
   224cc:	df000415 	stw	fp,16(sp)
   224d0:	df000404 	addi	fp,sp,16
   224d4:	2005883a 	mov	r2,r4
   224d8:	2807883a 	mov	r3,r5
   224dc:	e0bffe05 	stb	r2,-8(fp)
   224e0:	1805883a 	mov	r2,r3
   224e4:	e0bffd05 	stb	r2,-12(fp)
	// VCM149C
	const alt_u8 device_address = MIPI_AF_I2C_ADDR;
   224e8:	00800604 	movi	r2,24
   224ec:	e0bfffc5 	stb	r2,-1(fp)
	OC_I2C_Write(I2C_OPENCORES_CAMERA_BASE, device_address, msb, (alt_u8 *)&lsb, sizeof(lsb));
   224f0:	e0ffffc3 	ldbu	r3,-1(fp)
   224f4:	e13ffe03 	ldbu	r4,-8(fp)
   224f8:	e17ffd04 	addi	r5,fp,-12
   224fc:	00800044 	movi	r2,1
   22500:	d8800015 	stw	r2,0(sp)
   22504:	280f883a 	mov	r7,r5
   22508:	200d883a 	mov	r6,r4
   2250c:	180b883a 	mov	r5,r3
   22510:	01000134 	movhi	r4,4
   22514:	21041004 	addi	r4,r4,4160
   22518:	00206300 	call	20630 <OC_I2C_Write>
}
   2251c:	0001883a 	nop
   22520:	e037883a 	mov	sp,fp
   22524:	dfc00117 	ldw	ra,4(sp)
   22528:	df000017 	ldw	fp,0(sp)
   2252c:	dec00204 	addi	sp,sp,8
   22530:	f800283a 	ret

00022534 <OV8865_read_AF>:

void OV8865_read_AF(void){
   22534:	defffb04 	addi	sp,sp,-20
   22538:	dfc00415 	stw	ra,16(sp)
   2253c:	df000315 	stw	fp,12(sp)
   22540:	df000304 	addi	fp,sp,12
	// VCM149C
	const alt_u8 device_address = MIPI_AF_I2C_ADDR;
   22544:	00800604 	movi	r2,24
   22548:	e0bfffc5 	stb	r2,-1(fp)
	alt_u8 szData8[2];
	bool bSuccess;

		bSuccess = OC_I2C_Read_Continue(I2C_OPENCORES_CAMERA_BASE, device_address, szData8, sizeof(szData8));
   2254c:	e0bfffc3 	ldbu	r2,-1(fp)
   22550:	e0fffd84 	addi	r3,fp,-10
   22554:	01c00084 	movi	r7,2
   22558:	180d883a 	mov	r6,r3
   2255c:	100b883a 	mov	r5,r2
   22560:	01000134 	movhi	r4,4
   22564:	21041004 	addi	r4,r4,4160
   22568:	0020a680 	call	20a68 <OC_I2C_Read_Continue>
   2256c:	e0bffe15 	stw	r2,-8(fp)
		if (bSuccess)
   22570:	e0bffe17 	ldw	r2,-8(fp)
   22574:	10000926 	beq	r2,zero,2259c <OV8865_read_AF+0x68>
			printf("Read MSB=%xh, LSB=%xh\r\n", szData8[0], szData8[1]);
   22578:	e0bffd83 	ldbu	r2,-10(fp)
   2257c:	10803fcc 	andi	r2,r2,255
   22580:	e0fffdc3 	ldbu	r3,-9(fp)
   22584:	18c03fcc 	andi	r3,r3,255
   22588:	180d883a 	mov	r6,r3
   2258c:	100b883a 	mov	r5,r2
   22590:	010000f4 	movhi	r4,3
   22594:	21120d04 	addi	r4,r4,18484
   22598:	00243ec0 	call	243ec <printf>
}
   2259c:	0001883a 	nop
   225a0:	e037883a 	mov	sp,fp
   225a4:	dfc00117 	ldw	ra,4(sp)
   225a8:	df000017 	ldw	fp,0(sp)
   225ac:	dec00204 	addi	sp,sp,8
   225b0:	f800283a 	ret

000225b4 <OV8865_FOCUS_Move_to>:

void OV8865_FOCUS_Move_to(alt_u16 a_u2MovePosition)
{
   225b4:	defffb04 	addi	sp,sp,-20
   225b8:	dfc00415 	stw	ra,16(sp)
   225bc:	df000315 	stw	fp,12(sp)
   225c0:	df000304 	addi	fp,sp,12
   225c4:	2005883a 	mov	r2,r4
   225c8:	e0bffd0d 	sth	r2,-12(fp)
  if (a_u2MovePosition > 1023)   {a_u2MovePosition = 1023;}
   225cc:	e0bffd0b 	ldhu	r2,-12(fp)
   225d0:	10810030 	cmpltui	r2,r2,1024
   225d4:	1000021e 	bne	r2,zero,225e0 <OV8865_FOCUS_Move_to+0x2c>
   225d8:	0080ffc4 	movi	r2,1023
   225dc:	e0bffd0d 	sth	r2,-12(fp)
  if (a_u2MovePosition < 0)     {a_u2MovePosition = 0;}
  int bSuccess;

  Focus_Released(); // waiting for VCM release I2C bus
   225e0:	00213040 	call	21304 <Focus_Released>

	bSuccess = oc_i2c_init_ex(I2C_OPENCORES_CAMERA_BASE, 50*1000*1000,400*1000); //I2C: 400K
   225e4:	018001b4 	movhi	r6,6
   225e8:	3186a004 	addi	r6,r6,6784
   225ec:	0140bef4 	movhi	r5,763
   225f0:	297c2004 	addi	r5,r5,-3968
   225f4:	01000134 	movhi	r4,4
   225f8:	21041004 	addi	r4,r4,4160
   225fc:	00203840 	call	20384 <oc_i2c_init_ex>
   22600:	e0bfff15 	stw	r2,-4(fp)
	if (!bSuccess)
   22604:	e0bfff17 	ldw	r2,-4(fp)
   22608:	1000031e 	bne	r2,zero,22618 <OV8865_FOCUS_Move_to+0x64>
		printf("failed to init MIPI- Camera i2c\r\n");
   2260c:	010000f4 	movhi	r4,3
   22610:	21121304 	addi	r4,r4,18508
   22614:	00245140 	call	24514 <puts>

	//printf("Manual set focus to %d\r\n",a_u2MovePosition);
  alt_u8 msb,lsb;
  msb = (a_u2MovePosition >> 4)&0x00FF;
   22618:	e0bffd0b 	ldhu	r2,-12(fp)
   2261c:	1004d13a 	srli	r2,r2,4
   22620:	e0bffec5 	stb	r2,-5(fp)
  lsb = (a_u2MovePosition << 4 )&0x00F0;
   22624:	e0bffd0b 	ldhu	r2,-12(fp)
   22628:	1004913a 	slli	r2,r2,4
   2262c:	e0bffe85 	stb	r2,-6(fp)
  lsb += 0x06;
   22630:	e0bffe83 	ldbu	r2,-6(fp)
   22634:	10800184 	addi	r2,r2,6
   22638:	e0bffe85 	stb	r2,-6(fp)
//	printf("Write MSB=%xh, LSB=%xh\r\n", msb, lsb);
	OV8865_write_AF(msb, lsb+0x6);
   2263c:	e0fffec3 	ldbu	r3,-5(fp)
   22640:	e0bffe83 	ldbu	r2,-6(fp)
   22644:	10800184 	addi	r2,r2,6
   22648:	10803fcc 	andi	r2,r2,255
   2264c:	100b883a 	mov	r5,r2
   22650:	1809883a 	mov	r4,r3
   22654:	00224c40 	call	224c4 <OV8865_write_AF>
	usleep(1000);
   22658:	0100fa04 	movi	r4,1000
   2265c:	0031d640 	call	31d64 <usleep>
//	OV8865_read_AF();

	oc_i2c_uninit(I2C_OPENCORES_CAMERA_BASE);  // Release I2C bus , due to two I2C master shared!
   22660:	01000134 	movhi	r4,4
   22664:	21041004 	addi	r4,r4,4160
   22668:	00204c00 	call	204c0 <oc_i2c_uninit>

}
   2266c:	0001883a 	nop
   22670:	e037883a 	mov	sp,fp
   22674:	dfc00117 	ldw	ra,4(sp)
   22678:	df000017 	ldw	fp,0(sp)
   2267c:	dec00204 	addi	sp,sp,8
   22680:	f800283a 	ret

00022684 <OV8865SetExposure>:

void OV8865SetExposure(alt_u32 exposure){
   22684:	defffc04 	addi	sp,sp,-16
   22688:	dfc00315 	stw	ra,12(sp)
   2268c:	df000215 	stw	fp,8(sp)
   22690:	df000204 	addi	fp,sp,8
   22694:	e13ffe15 	stw	r4,-8(fp)

	Focus_Released(); // waiting for VCM release I2C bus
   22698:	00213040 	call	21304 <Focus_Released>

	int bSuccess = oc_i2c_init_ex(I2C_OPENCORES_CAMERA_BASE, 50*1000*1000,400*1000); //I2C: 400K
   2269c:	018001b4 	movhi	r6,6
   226a0:	3186a004 	addi	r6,r6,6784
   226a4:	0140bef4 	movhi	r5,763
   226a8:	297c2004 	addi	r5,r5,-3968
   226ac:	01000134 	movhi	r4,4
   226b0:	21041004 	addi	r4,r4,4160
   226b4:	00203840 	call	20384 <oc_i2c_init_ex>
   226b8:	e0bfff15 	stw	r2,-4(fp)
	if (!bSuccess)
   226bc:	e0bfff17 	ldw	r2,-4(fp)
   226c0:	1000031e 	bne	r2,zero,226d0 <OV8865SetExposure+0x4c>
		printf("failed to init MIPI- Camera i2c\r\n");
   226c4:	010000f4 	movhi	r4,3
   226c8:	21121304 	addi	r4,r4,18508
   226cc:	00245140 	call	24514 <puts>

	if (exposure > 0xFFFFF) exposure = 0xFFFFF;
   226d0:	e0fffe17 	ldw	r3,-8(fp)
   226d4:	00800434 	movhi	r2,16
   226d8:	18800336 	bltu	r3,r2,226e8 <OV8865SetExposure+0x64>
   226dc:	00800434 	movhi	r2,16
   226e0:	10bfffc4 	addi	r2,r2,-1
   226e4:	e0bffe15 	stw	r2,-8(fp)
	if (exposure < 0x20) exposure = 0x20;
   226e8:	e0bffe17 	ldw	r2,-8(fp)
   226ec:	10800828 	cmpgeui	r2,r2,32
   226f0:	1000021e 	bne	r2,zero,226fc <OV8865SetExposure+0x78>
   226f4:	00800804 	movi	r2,32
   226f8:	e0bffe15 	stw	r2,-8(fp)

	OV8865_write_cmos_sensor_8(0x3500, (exposure >> 16) & 0x0F);
   226fc:	e0bffe17 	ldw	r2,-8(fp)
   22700:	1004d43a 	srli	r2,r2,16
   22704:	10803fcc 	andi	r2,r2,255
   22708:	108003cc 	andi	r2,r2,15
   2270c:	100b883a 	mov	r5,r2
   22710:	010d4004 	movi	r4,13568
   22714:	00224540 	call	22454 <OV8865_write_cmos_sensor_8>
	OV8865_write_cmos_sensor_8(0x3501, (exposure >> 8) & 0xFF);
   22718:	e0bffe17 	ldw	r2,-8(fp)
   2271c:	1004d23a 	srli	r2,r2,8
   22720:	10803fcc 	andi	r2,r2,255
   22724:	100b883a 	mov	r5,r2
   22728:	010d4044 	movi	r4,13569
   2272c:	00224540 	call	22454 <OV8865_write_cmos_sensor_8>
	OV8865_write_cmos_sensor_8(0x3502, exposure & 0xFF);
   22730:	e0bffe17 	ldw	r2,-8(fp)
   22734:	10803fcc 	andi	r2,r2,255
   22738:	100b883a 	mov	r5,r2
   2273c:	010d4084 	movi	r4,13570
   22740:	00224540 	call	22454 <OV8865_write_cmos_sensor_8>


	oc_i2c_uninit(I2C_OPENCORES_CAMERA_BASE);
   22744:	01000134 	movhi	r4,4
   22748:	21041004 	addi	r4,r4,4160
   2274c:	00204c00 	call	204c0 <oc_i2c_uninit>
}
   22750:	0001883a 	nop
   22754:	e037883a 	mov	sp,fp
   22758:	dfc00117 	ldw	ra,4(sp)
   2275c:	df000017 	ldw	fp,0(sp)
   22760:	dec00204 	addi	sp,sp,8
   22764:	f800283a 	ret

00022768 <OV8865SetGain>:

void OV8865SetGain(alt_u16 gain){
   22768:	defffc04 	addi	sp,sp,-16
   2276c:	dfc00315 	stw	ra,12(sp)
   22770:	df000215 	stw	fp,8(sp)
   22774:	df000204 	addi	fp,sp,8
   22778:	2005883a 	mov	r2,r4
   2277c:	e0bffe0d 	sth	r2,-8(fp)

	Focus_Released(); // waiting for VCM release I2C bus
   22780:	00213040 	call	21304 <Focus_Released>

	int bSuccess = oc_i2c_init_ex(I2C_OPENCORES_CAMERA_BASE, 50*1000*1000,400*1000); //I2C: 400K
   22784:	018001b4 	movhi	r6,6
   22788:	3186a004 	addi	r6,r6,6784
   2278c:	0140bef4 	movhi	r5,763
   22790:	297c2004 	addi	r5,r5,-3968
   22794:	01000134 	movhi	r4,4
   22798:	21041004 	addi	r4,r4,4160
   2279c:	00203840 	call	20384 <oc_i2c_init_ex>
   227a0:	e0bfff15 	stw	r2,-4(fp)
	if (!bSuccess)
   227a4:	e0bfff17 	ldw	r2,-4(fp)
   227a8:	1000031e 	bne	r2,zero,227b8 <OV8865SetGain+0x50>
		printf("failed to init MIPI- Camera i2c\r\n");
   227ac:	010000f4 	movhi	r4,3
   227b0:	21121304 	addi	r4,r4,18508
   227b4:	00245140 	call	24514 <puts>

	if (gain > 0x7FF) gain = 0x7FF;
   227b8:	e0bffe0b 	ldhu	r2,-8(fp)
   227bc:	10820030 	cmpltui	r2,r2,2048
   227c0:	1000021e 	bne	r2,zero,227cc <OV8865SetGain+0x64>
   227c4:	0081ffc4 	movi	r2,2047
   227c8:	e0bffe0d 	sth	r2,-8(fp)
	if (gain < 0x080) gain = 0x080;
   227cc:	e0bffe0b 	ldhu	r2,-8(fp)
   227d0:	10802028 	cmpgeui	r2,r2,128
   227d4:	1000021e 	bne	r2,zero,227e0 <OV8865SetGain+0x78>
   227d8:	00802004 	movi	r2,128
   227dc:	e0bffe0d 	sth	r2,-8(fp)

	OV8865_write_cmos_sensor_8(0x3508, (gain >> 8) & 0x0F);
   227e0:	e0bffe0b 	ldhu	r2,-8(fp)
   227e4:	1004d23a 	srli	r2,r2,8
   227e8:	10803fcc 	andi	r2,r2,255
   227ec:	108003cc 	andi	r2,r2,15
   227f0:	100b883a 	mov	r5,r2
   227f4:	010d4204 	movi	r4,13576
   227f8:	00224540 	call	22454 <OV8865_write_cmos_sensor_8>
	OV8865_write_cmos_sensor_8(0x3509, gain & 0xFF);
   227fc:	e0bffe0b 	ldhu	r2,-8(fp)
   22800:	10803fcc 	andi	r2,r2,255
   22804:	100b883a 	mov	r5,r2
   22808:	010d4244 	movi	r4,13577
   2280c:	00224540 	call	22454 <OV8865_write_cmos_sensor_8>


	oc_i2c_uninit(I2C_OPENCORES_CAMERA_BASE);
   22810:	01000134 	movhi	r4,4
   22814:	21041004 	addi	r4,r4,4160
   22818:	00204c00 	call	204c0 <oc_i2c_uninit>
}
   2281c:	0001883a 	nop
   22820:	e037883a 	mov	sp,fp
   22824:	dfc00117 	ldw	ra,4(sp)
   22828:	df000017 	ldw	fp,0(sp)
   2282c:	dec00204 	addi	sp,sp,8
   22830:	f800283a 	ret

00022834 <OV8865ReadExposure>:

alt_u32 OV8865ReadExposure(){
   22834:	defffb04 	addi	sp,sp,-20
   22838:	dfc00415 	stw	ra,16(sp)
   2283c:	df000315 	stw	fp,12(sp)
   22840:	dc000215 	stw	r16,8(sp)
   22844:	df000304 	addi	fp,sp,12

	alt_u32 exposure;

	Focus_Released(); // waiting for VCM release I2C bus
   22848:	00213040 	call	21304 <Focus_Released>

	int bSuccess = oc_i2c_init_ex(I2C_OPENCORES_CAMERA_BASE, 50*1000*1000,400*1000); //I2C: 400K
   2284c:	018001b4 	movhi	r6,6
   22850:	3186a004 	addi	r6,r6,6784
   22854:	0140bef4 	movhi	r5,763
   22858:	297c2004 	addi	r5,r5,-3968
   2285c:	01000134 	movhi	r4,4
   22860:	21041004 	addi	r4,r4,4160
   22864:	00203840 	call	20384 <oc_i2c_init_ex>
   22868:	e0bffe15 	stw	r2,-8(fp)
	if (!bSuccess)
   2286c:	e0bffe17 	ldw	r2,-8(fp)
   22870:	1000031e 	bne	r2,zero,22880 <OV8865ReadExposure+0x4c>
		printf("failed to init MIPI- Camera i2c\r\n");
   22874:	010000f4 	movhi	r4,3
   22878:	21121304 	addi	r4,r4,18508
   2287c:	00245140 	call	24514 <puts>

	exposure = OV8865_read_cmos_sensor_8(0x3500);
   22880:	010d4004 	movi	r4,13568
   22884:	00223f00 	call	223f0 <OV8865_read_cmos_sensor_8>
   22888:	10803fcc 	andi	r2,r2,255
   2288c:	e0bffd15 	stw	r2,-12(fp)
	exposure = (exposure <<8) | OV8865_read_cmos_sensor_8(0x3501);
   22890:	e0bffd17 	ldw	r2,-12(fp)
   22894:	1020923a 	slli	r16,r2,8
   22898:	010d4044 	movi	r4,13569
   2289c:	00223f00 	call	223f0 <OV8865_read_cmos_sensor_8>
   228a0:	10803fcc 	andi	r2,r2,255
   228a4:	8084b03a 	or	r2,r16,r2
   228a8:	e0bffd15 	stw	r2,-12(fp)
	exposure = (exposure <<8) | OV8865_read_cmos_sensor_8(0x3502);
   228ac:	e0bffd17 	ldw	r2,-12(fp)
   228b0:	1020923a 	slli	r16,r2,8
   228b4:	010d4084 	movi	r4,13570
   228b8:	00223f00 	call	223f0 <OV8865_read_cmos_sensor_8>
   228bc:	10803fcc 	andi	r2,r2,255
   228c0:	8084b03a 	or	r2,r16,r2
   228c4:	e0bffd15 	stw	r2,-12(fp)

	oc_i2c_uninit(I2C_OPENCORES_CAMERA_BASE);
   228c8:	01000134 	movhi	r4,4
   228cc:	21041004 	addi	r4,r4,4160
   228d0:	00204c00 	call	204c0 <oc_i2c_uninit>

	return exposure;
   228d4:	e0bffd17 	ldw	r2,-12(fp)
}
   228d8:	e6ffff04 	addi	sp,fp,-4
   228dc:	dfc00217 	ldw	ra,8(sp)
   228e0:	df000117 	ldw	fp,4(sp)
   228e4:	dc000017 	ldw	r16,0(sp)
   228e8:	dec00304 	addi	sp,sp,12
   228ec:	f800283a 	ret

000228f0 <MIPI_BIN_LEVEL>:




//ZOOM
void MIPI_BIN_LEVEL(alt_u8 level){
   228f0:	defffc04 	addi	sp,sp,-16
   228f4:	dfc00315 	stw	ra,12(sp)
   228f8:	df000215 	stw	fp,8(sp)
   228fc:	df000204 	addi	fp,sp,8
   22900:	2005883a 	mov	r2,r4
   22904:	e0bffe05 	stb	r2,-8(fp)
	if(level <= 1) level = 1;
   22908:	e0bffe03 	ldbu	r2,-8(fp)
   2290c:	108000a8 	cmpgeui	r2,r2,2
   22910:	1000021e 	bne	r2,zero,2291c <MIPI_BIN_LEVEL+0x2c>
   22914:	00800044 	movi	r2,1
   22918:	e0bffe05 	stb	r2,-8(fp)
	if(level >= 3) level = 3;
   2291c:	e0bffe03 	ldbu	r2,-8(fp)
   22920:	108000f0 	cmpltui	r2,r2,3
   22924:	1000021e 	bne	r2,zero,22930 <MIPI_BIN_LEVEL+0x40>
   22928:	008000c4 	movi	r2,3
   2292c:	e0bffe05 	stb	r2,-8(fp)

	  Focus_Released(); // waiting for VCM release I2C bus
   22930:	00213040 	call	21304 <Focus_Released>

	  int bSuccess;
		bSuccess = oc_i2c_init_ex(I2C_OPENCORES_CAMERA_BASE, 50*1000*1000,400*1000); //I2C: 400K
   22934:	018001b4 	movhi	r6,6
   22938:	3186a004 	addi	r6,r6,6784
   2293c:	0140bef4 	movhi	r5,763
   22940:	297c2004 	addi	r5,r5,-3968
   22944:	01000134 	movhi	r4,4
   22948:	21041004 	addi	r4,r4,4160
   2294c:	00203840 	call	20384 <oc_i2c_init_ex>
   22950:	e0bfff15 	stw	r2,-4(fp)
		if (!bSuccess)
   22954:	e0bfff17 	ldw	r2,-4(fp)
   22958:	1000031e 	bne	r2,zero,22968 <MIPI_BIN_LEVEL+0x78>
			printf("failed to init MIPI- Camera i2c\r\n");
   2295c:	010000f4 	movhi	r4,3
   22960:	21121304 	addi	r4,r4,18508
   22964:	00245140 	call	24514 <puts>


	OV8865_write_cmos_sensor_8(0x0100, 0x00);
   22968:	000b883a 	mov	r5,zero
   2296c:	01004004 	movi	r4,256
   22970:	00224540 	call	22454 <OV8865_write_cmos_sensor_8>

	if(level == 1){
   22974:	e0bffe03 	ldbu	r2,-8(fp)
   22978:	10800058 	cmpnei	r2,r2,1
   2297c:	1000131e 	bne	r2,zero,229cc <MIPI_BIN_LEVEL+0xdc>

		OV8865_write_cmos_sensor_8(0x3814, 0x01);
   22980:	01400044 	movi	r5,1
   22984:	010e0504 	movi	r4,14356
   22988:	00224540 	call	22454 <OV8865_write_cmos_sensor_8>
		OV8865_write_cmos_sensor_8(0x3815, 0x01);
   2298c:	01400044 	movi	r5,1
   22990:	010e0544 	movi	r4,14357
   22994:	00224540 	call	22454 <OV8865_write_cmos_sensor_8>
		OV8865_write_cmos_sensor_8(0x382a, 0x01);
   22998:	01400044 	movi	r5,1
   2299c:	010e0a84 	movi	r4,14378
   229a0:	00224540 	call	22454 <OV8865_write_cmos_sensor_8>
		OV8865_write_cmos_sensor_8(0x382b, 0x01);
   229a4:	01400044 	movi	r5,1
   229a8:	010e0ac4 	movi	r4,14379
   229ac:	00224540 	call	22454 <OV8865_write_cmos_sensor_8>

		OV8865_write_cmos_sensor_8(0x3830, 8);
   229b0:	01400204 	movi	r5,8
   229b4:	010e0c04 	movi	r4,14384
   229b8:	00224540 	call	22454 <OV8865_write_cmos_sensor_8>
		OV8865_write_cmos_sensor_8(0x3836, 2);
   229bc:	01400084 	movi	r5,2
   229c0:	010e0d84 	movi	r4,14390
   229c4:	00224540 	call	22454 <OV8865_write_cmos_sensor_8>
   229c8:	00002b06 	br	22a78 <MIPI_BIN_LEVEL+0x188>
	}
	else if(level == 2){
   229cc:	e0bffe03 	ldbu	r2,-8(fp)
   229d0:	10800098 	cmpnei	r2,r2,2
   229d4:	1000131e 	bne	r2,zero,22a24 <MIPI_BIN_LEVEL+0x134>

		OV8865_write_cmos_sensor_8(0x3814, 0x03);
   229d8:	014000c4 	movi	r5,3
   229dc:	010e0504 	movi	r4,14356
   229e0:	00224540 	call	22454 <OV8865_write_cmos_sensor_8>
		OV8865_write_cmos_sensor_8(0x3815, 0x01);
   229e4:	01400044 	movi	r5,1
   229e8:	010e0544 	movi	r4,14357
   229ec:	00224540 	call	22454 <OV8865_write_cmos_sensor_8>
		OV8865_write_cmos_sensor_8(0x382a, 0x03);
   229f0:	014000c4 	movi	r5,3
   229f4:	010e0a84 	movi	r4,14378
   229f8:	00224540 	call	22454 <OV8865_write_cmos_sensor_8>
		OV8865_write_cmos_sensor_8(0x382b, 0x01);
   229fc:	01400044 	movi	r5,1
   22a00:	010e0ac4 	movi	r4,14379
   22a04:	00224540 	call	22454 <OV8865_write_cmos_sensor_8>

		OV8865_write_cmos_sensor_8(0x3830, 4);
   22a08:	01400104 	movi	r5,4
   22a0c:	010e0c04 	movi	r4,14384
   22a10:	00224540 	call	22454 <OV8865_write_cmos_sensor_8>
		OV8865_write_cmos_sensor_8(0x3836, 1);
   22a14:	01400044 	movi	r5,1
   22a18:	010e0d84 	movi	r4,14390
   22a1c:	00224540 	call	22454 <OV8865_write_cmos_sensor_8>
   22a20:	00001506 	br	22a78 <MIPI_BIN_LEVEL+0x188>

	}
	else if(level == 3){
   22a24:	e0bffe03 	ldbu	r2,-8(fp)
   22a28:	108000d8 	cmpnei	r2,r2,3
   22a2c:	1000121e 	bne	r2,zero,22a78 <MIPI_BIN_LEVEL+0x188>

		OV8865_write_cmos_sensor_8(0x3814, 0x07);
   22a30:	014001c4 	movi	r5,7
   22a34:	010e0504 	movi	r4,14356
   22a38:	00224540 	call	22454 <OV8865_write_cmos_sensor_8>
		OV8865_write_cmos_sensor_8(0x3815, 0x01);
   22a3c:	01400044 	movi	r5,1
   22a40:	010e0544 	movi	r4,14357
   22a44:	00224540 	call	22454 <OV8865_write_cmos_sensor_8>
		OV8865_write_cmos_sensor_8(0x382a, 0x07);
   22a48:	014001c4 	movi	r5,7
   22a4c:	010e0a84 	movi	r4,14378
   22a50:	00224540 	call	22454 <OV8865_write_cmos_sensor_8>
		OV8865_write_cmos_sensor_8(0x382b, 0x01);
   22a54:	01400044 	movi	r5,1
   22a58:	010e0ac4 	movi	r4,14379
   22a5c:	00224540 	call	22454 <OV8865_write_cmos_sensor_8>

		OV8865_write_cmos_sensor_8(0x3830, 8);
   22a60:	01400204 	movi	r5,8
   22a64:	010e0c04 	movi	r4,14384
   22a68:	00224540 	call	22454 <OV8865_write_cmos_sensor_8>
		OV8865_write_cmos_sensor_8(0x3836, 2);
   22a6c:	01400084 	movi	r5,2
   22a70:	010e0d84 	movi	r4,14390
   22a74:	00224540 	call	22454 <OV8865_write_cmos_sensor_8>
	}
    usleep(10000);
   22a78:	0109c404 	movi	r4,10000
   22a7c:	0031d640 	call	31d64 <usleep>
	OV8865_write_cmos_sensor_8(0x0100, 0x01);
   22a80:	01400044 	movi	r5,1
   22a84:	01004004 	movi	r4,256
   22a88:	00224540 	call	22454 <OV8865_write_cmos_sensor_8>

	oc_i2c_uninit(I2C_OPENCORES_CAMERA_BASE);  // Release I2C bus , due to two I2C master shared!
   22a8c:	01000134 	movhi	r4,4
   22a90:	21041004 	addi	r4,r4,4160
   22a94:	00204c00 	call	204c0 <oc_i2c_uninit>

}
   22a98:	0001883a 	nop
   22a9c:	e037883a 	mov	sp,fp
   22aa0:	dfc00117 	ldw	ra,4(sp)
   22aa4:	df000017 	ldw	fp,0(sp)
   22aa8:	dec00204 	addi	sp,sp,8
   22aac:	f800283a 	ret

00022ab0 <MipiCameraInit>:
//		OV8865_write_cmos_sensor_8(0x0100, 0x01);
//}


void MipiCameraInit(void)
{
   22ab0:	defffb04 	addi	sp,sp,-20
   22ab4:	dfc00415 	stw	ra,16(sp)
   22ab8:	df000315 	stw	fp,12(sp)
   22abc:	df000304 	addi	fp,sp,12

    int i, num;
    int bSuccess;

    Focus_Released(); // waiting for VCM release I2C bus
   22ac0:	00213040 	call	21304 <Focus_Released>


		bSuccess = oc_i2c_init_ex(I2C_OPENCORES_CAMERA_BASE, 50*1000*1000,400*1000); //I2C: 400K
   22ac4:	018001b4 	movhi	r6,6
   22ac8:	3186a004 	addi	r6,r6,6784
   22acc:	0140bef4 	movhi	r5,763
   22ad0:	297c2004 	addi	r5,r5,-3968
   22ad4:	01000134 	movhi	r4,4
   22ad8:	21041004 	addi	r4,r4,4160
   22adc:	00203840 	call	20384 <oc_i2c_init_ex>
   22ae0:	e0bffe15 	stw	r2,-8(fp)
		if (!bSuccess)
   22ae4:	e0bffe17 	ldw	r2,-8(fp)
   22ae8:	1000031e 	bne	r2,zero,22af8 <MipiCameraInit+0x48>
			printf("failed to init MIPI- Camera i2c\r\n");
   22aec:	010000f4 	movhi	r4,3
   22af0:	21121304 	addi	r4,r4,18508
   22af4:	00245140 	call	24514 <puts>
//        usleep(10000);
//    }
//


	 OV8865DB("\nStart MipiCameraInit -OV8865!\r\n");
   22af8:	010000f4 	movhi	r4,3
   22afc:	21121c04 	addi	r4,r4,18544
   22b00:	00245140 	call	24514 <puts>
	 OV8865DB("Write Read Test!\n");
   22b04:	010000f4 	movhi	r4,3
   22b08:	21122404 	addi	r4,r4,18576
   22b0c:	00245140 	call	24514 <puts>

	    for(i=0;i<10;i++){
   22b10:	e03fff15 	stw	zero,-4(fp)
   22b14:	00001406 	br	22b68 <MipiCameraInit+0xb8>
	       OV8865_write_cmos_sensor_8(0x3809,i);
   22b18:	e0bfff17 	ldw	r2,-4(fp)
   22b1c:	10803fcc 	andi	r2,r2,255
   22b20:	100b883a 	mov	r5,r2
   22b24:	010e0244 	movi	r4,14345
   22b28:	00224540 	call	22454 <OV8865_write_cmos_sensor_8>
	      usleep(100);
   22b2c:	01001904 	movi	r4,100
   22b30:	0031d640 	call	31d64 <usleep>
	        printf("%d (%d)\n",OV8865_read_cmos_sensor_8(0x3809),i);
   22b34:	010e0244 	movi	r4,14345
   22b38:	00223f00 	call	223f0 <OV8865_read_cmos_sensor_8>
   22b3c:	10803fcc 	andi	r2,r2,255
   22b40:	e1bfff17 	ldw	r6,-4(fp)
   22b44:	100b883a 	mov	r5,r2
   22b48:	010000f4 	movhi	r4,3
   22b4c:	21122904 	addi	r4,r4,18596
   22b50:	00243ec0 	call	243ec <printf>
	      usleep(100);
   22b54:	01001904 	movi	r4,100
   22b58:	0031d640 	call	31d64 <usleep>
	    for(i=0;i<10;i++){
   22b5c:	e0bfff17 	ldw	r2,-4(fp)
   22b60:	10800044 	addi	r2,r2,1
   22b64:	e0bfff15 	stw	r2,-4(fp)
   22b68:	e0bfff17 	ldw	r2,-4(fp)
   22b6c:	10800290 	cmplti	r2,r2,10
   22b70:	103fe91e 	bne	r2,zero,22b18 <MipiCameraInit+0x68>
	    }
	 num = sizeof(MipiCameraReg)/sizeof(MipiCameraReg[0]);
   22b74:	00804f84 	movi	r2,318
   22b78:	e0bffd15 	stw	r2,-12(fp)
     for(i=0;i<num;i++){
   22b7c:	e03fff15 	stw	zero,-4(fp)
   22b80:	00003306 	br	22c50 <MipiCameraInit+0x1a0>

    	 if (MipiCameraReg[i].Type == TIME_DELAY)   usleep(MipiCameraReg[i].Data*100);
   22b84:	e0bfff17 	ldw	r2,-4(fp)
   22b88:	10c001a4 	muli	r3,r2,6
   22b8c:	008000f4 	movhi	r2,3
   22b90:	1885883a 	add	r2,r3,r2
   22b94:	1093d603 	ldbu	r2,20312(r2)
   22b98:	10803fcc 	andi	r2,r2,255
   22b9c:	108000d8 	cmpnei	r2,r2,3
   22ba0:	10000a1e 	bne	r2,zero,22bcc <MipiCameraInit+0x11c>
   22ba4:	e0bfff17 	ldw	r2,-4(fp)
   22ba8:	10c001a4 	muli	r3,r2,6
   22bac:	008000f4 	movhi	r2,3
   22bb0:	1885883a 	add	r2,r3,r2
   22bb4:	1093d703 	ldbu	r2,20316(r2)
   22bb8:	10803fcc 	andi	r2,r2,255
   22bbc:	10801924 	muli	r2,r2,100
   22bc0:	1009883a 	mov	r4,r2
   22bc4:	0031d640 	call	31d64 <usleep>
   22bc8:	00001e06 	br	22c44 <MipiCameraInit+0x194>
    	 else if(MipiCameraReg[i].Type == END_OF_SCRIPT)   break;
   22bcc:	e0bfff17 	ldw	r2,-4(fp)
   22bd0:	10c001a4 	muli	r3,r2,6
   22bd4:	008000f4 	movhi	r2,3
   22bd8:	1885883a 	add	r2,r3,r2
   22bdc:	1093d603 	ldbu	r2,20312(r2)
   22be0:	10803fcc 	andi	r2,r2,255
   22be4:	10800118 	cmpnei	r2,r2,4
   22be8:	10001d26 	beq	r2,zero,22c60 <MipiCameraInit+0x1b0>
    	 else if(MipiCameraReg[i].Type == 0x6c)   OV8865_write_cmos_sensor_8(MipiCameraReg[i].Addr, MipiCameraReg[i].Data);
   22bec:	e0bfff17 	ldw	r2,-4(fp)
   22bf0:	10c001a4 	muli	r3,r2,6
   22bf4:	008000f4 	movhi	r2,3
   22bf8:	1885883a 	add	r2,r3,r2
   22bfc:	1093d603 	ldbu	r2,20312(r2)
   22c00:	10803fcc 	andi	r2,r2,255
   22c04:	10801b18 	cmpnei	r2,r2,108
   22c08:	10000e1e 	bne	r2,zero,22c44 <MipiCameraInit+0x194>
   22c0c:	e0bfff17 	ldw	r2,-4(fp)
   22c10:	10c001a4 	muli	r3,r2,6
   22c14:	008000f4 	movhi	r2,3
   22c18:	1885883a 	add	r2,r3,r2
   22c1c:	1093d68b 	ldhu	r2,20314(r2)
   22c20:	113fffcc 	andi	r4,r2,65535
   22c24:	e0bfff17 	ldw	r2,-4(fp)
   22c28:	10c001a4 	muli	r3,r2,6
   22c2c:	008000f4 	movhi	r2,3
   22c30:	1885883a 	add	r2,r3,r2
   22c34:	1093d703 	ldbu	r2,20316(r2)
   22c38:	10803fcc 	andi	r2,r2,255
   22c3c:	100b883a 	mov	r5,r2
   22c40:	00224540 	call	22454 <OV8865_write_cmos_sensor_8>
     for(i=0;i<num;i++){
   22c44:	e0bfff17 	ldw	r2,-4(fp)
   22c48:	10800044 	addi	r2,r2,1
   22c4c:	e0bfff15 	stw	r2,-4(fp)
   22c50:	e0ffff17 	ldw	r3,-4(fp)
   22c54:	e0bffd17 	ldw	r2,-12(fp)
   22c58:	18bfca16 	blt	r3,r2,22b84 <MipiCameraInit+0xd4>
   22c5c:	00000106 	br	22c64 <MipiCameraInit+0x1b4>
    	 else if(MipiCameraReg[i].Type == END_OF_SCRIPT)   break;
   22c60:	0001883a 	nop
     }


 	oc_i2c_uninit(I2C_OPENCORES_CAMERA_BASE);  // Release I2C bus , due to two I2C master shared!
   22c64:	01000134 	movhi	r4,4
   22c68:	21041004 	addi	r4,r4,4160
   22c6c:	00204c00 	call	204c0 <oc_i2c_uninit>



	 OV8865DB("\nEnd MipiCameraInit! -OV8865!\r\n\n");
   22c70:	010000f4 	movhi	r4,3
   22c74:	21122c04 	addi	r4,r4,18608
   22c78:	00245140 	call	24514 <puts>

}
   22c7c:	0001883a 	nop
   22c80:	e037883a 	mov	sp,fp
   22c84:	dfc00117 	ldw	ra,4(sp)
   22c88:	df000017 	ldw	fp,0(sp)
   22c8c:	dec00204 	addi	sp,sp,8
   22c90:	f800283a 	ret

00022c94 <QUEUE_New>:
#include "queue.h"




QUEUE_STRUCT* QUEUE_New(int nQueueNum){
   22c94:	defffb04 	addi	sp,sp,-20
   22c98:	dfc00415 	stw	ra,16(sp)
   22c9c:	df000315 	stw	fp,12(sp)
   22ca0:	df000304 	addi	fp,sp,12
   22ca4:	e13ffd15 	stw	r4,-12(fp)
    int nSize;
    QUEUE_STRUCT *pQueue;
    nSize = sizeof(QUEUE_STRUCT)+nQueueNum*sizeof(alt_u32);
   22ca8:	e0bffd17 	ldw	r2,-12(fp)
   22cac:	10800144 	addi	r2,r2,5
   22cb0:	100490ba 	slli	r2,r2,2
   22cb4:	e0bfff15 	stw	r2,-4(fp)
    pQueue = (QUEUE_STRUCT *)malloc(nSize);
   22cb8:	e0bfff17 	ldw	r2,-4(fp)
   22cbc:	1009883a 	mov	r4,r2
   22cc0:	0023a8c0 	call	23a8c <malloc>
   22cc4:	e0bffe15 	stw	r2,-8(fp)
    memset((void *)pQueue, 0, nSize);
   22cc8:	e0bfff17 	ldw	r2,-4(fp)
   22ccc:	100d883a 	mov	r6,r2
   22cd0:	000b883a 	mov	r5,zero
   22cd4:	e13ffe17 	ldw	r4,-8(fp)
   22cd8:	00242600 	call	24260 <memset>
    pQueue->num = nQueueNum;
   22cdc:	e0fffd17 	ldw	r3,-12(fp)
   22ce0:	e0bffe17 	ldw	r2,-8(fp)
   22ce4:	10c00015 	stw	r3,0(r2)
    return pQueue;
   22ce8:	e0bffe17 	ldw	r2,-8(fp)
}
   22cec:	e037883a 	mov	sp,fp
   22cf0:	dfc00117 	ldw	ra,4(sp)
   22cf4:	df000017 	ldw	fp,0(sp)
   22cf8:	dec00204 	addi	sp,sp,8
   22cfc:	f800283a 	ret

00022d00 <QUEUE_Delete>:

void QUEUE_Delete(QUEUE_STRUCT *pQueue){
   22d00:	defffd04 	addi	sp,sp,-12
   22d04:	dfc00215 	stw	ra,8(sp)
   22d08:	df000115 	stw	fp,4(sp)
   22d0c:	df000104 	addi	fp,sp,4
   22d10:	e13fff15 	stw	r4,-4(fp)
    free(pQueue);
   22d14:	e13fff17 	ldw	r4,-4(fp)
   22d18:	0023a9c0 	call	23a9c <free>
}
   22d1c:	0001883a 	nop
   22d20:	e037883a 	mov	sp,fp
   22d24:	dfc00117 	ldw	ra,4(sp)
   22d28:	df000017 	ldw	fp,0(sp)
   22d2c:	dec00204 	addi	sp,sp,8
   22d30:	f800283a 	ret

00022d34 <QUEUE_IsEmpty>:

bool QUEUE_IsEmpty(QUEUE_STRUCT *pQueue){
   22d34:	defffe04 	addi	sp,sp,-8
   22d38:	df000115 	stw	fp,4(sp)
   22d3c:	df000104 	addi	fp,sp,4
   22d40:	e13fff15 	stw	r4,-4(fp)
    if (pQueue->front == pQueue->rear)
   22d44:	e0bfff17 	ldw	r2,-4(fp)
   22d48:	10c00117 	ldw	r3,4(r2)
   22d4c:	e0bfff17 	ldw	r2,-4(fp)
   22d50:	10800217 	ldw	r2,8(r2)
   22d54:	1880021e 	bne	r3,r2,22d60 <QUEUE_IsEmpty+0x2c>
        return TRUE;
   22d58:	00800044 	movi	r2,1
   22d5c:	00000106 	br	22d64 <QUEUE_IsEmpty+0x30>
    return FALSE;
   22d60:	0005883a 	mov	r2,zero
}
   22d64:	e037883a 	mov	sp,fp
   22d68:	df000017 	ldw	fp,0(sp)
   22d6c:	dec00104 	addi	sp,sp,4
   22d70:	f800283a 	ret

00022d74 <QUEUE_IsFull>:

bool QUEUE_IsFull(QUEUE_STRUCT *pQueue){
   22d74:	defffd04 	addi	sp,sp,-12
   22d78:	dfc00215 	stw	ra,8(sp)
   22d7c:	df000115 	stw	fp,4(sp)
   22d80:	df000104 	addi	fp,sp,4
   22d84:	e13fff15 	stw	r4,-4(fp)
    if (((pQueue->front+1)%pQueue->num) == pQueue->rear)
   22d88:	e0bfff17 	ldw	r2,-4(fp)
   22d8c:	10800117 	ldw	r2,4(r2)
   22d90:	10c00044 	addi	r3,r2,1
   22d94:	e0bfff17 	ldw	r2,-4(fp)
   22d98:	10800017 	ldw	r2,0(r2)
   22d9c:	100b883a 	mov	r5,r2
   22da0:	1809883a 	mov	r4,r3
   22da4:	00230800 	call	23080 <__umodsi3>
   22da8:	1007883a 	mov	r3,r2
   22dac:	e0bfff17 	ldw	r2,-4(fp)
   22db0:	10800217 	ldw	r2,8(r2)
   22db4:	1880021e 	bne	r3,r2,22dc0 <QUEUE_IsFull+0x4c>
        return TRUE;
   22db8:	00800044 	movi	r2,1
   22dbc:	00000106 	br	22dc4 <QUEUE_IsFull+0x50>
    return FALSE;
   22dc0:	0005883a 	mov	r2,zero
}
   22dc4:	e037883a 	mov	sp,fp
   22dc8:	dfc00117 	ldw	ra,4(sp)
   22dcc:	df000017 	ldw	fp,0(sp)
   22dd0:	dec00204 	addi	sp,sp,8
   22dd4:	f800283a 	ret

00022dd8 <QUEUE_Push>:

bool QUEUE_Push(QUEUE_STRUCT *pQueue, alt_u32 data32){
   22dd8:	defffc04 	addi	sp,sp,-16
   22ddc:	dfc00315 	stw	ra,12(sp)
   22de0:	df000215 	stw	fp,8(sp)
   22de4:	df000204 	addi	fp,sp,8
   22de8:	e13fff15 	stw	r4,-4(fp)
   22dec:	e17ffe15 	stw	r5,-8(fp)
    if (QUEUE_IsFull(pQueue))
   22df0:	e13fff17 	ldw	r4,-4(fp)
   22df4:	0022d740 	call	22d74 <QUEUE_IsFull>
   22df8:	10000226 	beq	r2,zero,22e04 <QUEUE_Push+0x2c>
        return FALSE;
   22dfc:	0005883a 	mov	r2,zero
   22e00:	00001406 	br	22e54 <QUEUE_Push+0x7c>
    pQueue->data[pQueue->front] = data32;
   22e04:	e0bfff17 	ldw	r2,-4(fp)
   22e08:	10800117 	ldw	r2,4(r2)
   22e0c:	e0ffff17 	ldw	r3,-4(fp)
   22e10:	108000c4 	addi	r2,r2,3
   22e14:	100490ba 	slli	r2,r2,2
   22e18:	1885883a 	add	r2,r3,r2
   22e1c:	e0fffe17 	ldw	r3,-8(fp)
   22e20:	10c00015 	stw	r3,0(r2)
    pQueue->front = (pQueue->front+1)%pQueue->num;        
   22e24:	e0bfff17 	ldw	r2,-4(fp)
   22e28:	10800117 	ldw	r2,4(r2)
   22e2c:	10c00044 	addi	r3,r2,1
   22e30:	e0bfff17 	ldw	r2,-4(fp)
   22e34:	10800017 	ldw	r2,0(r2)
   22e38:	100b883a 	mov	r5,r2
   22e3c:	1809883a 	mov	r4,r3
   22e40:	00230800 	call	23080 <__umodsi3>
   22e44:	1007883a 	mov	r3,r2
   22e48:	e0bfff17 	ldw	r2,-4(fp)
   22e4c:	10c00115 	stw	r3,4(r2)
    return TRUE;
   22e50:	00800044 	movi	r2,1
}
   22e54:	e037883a 	mov	sp,fp
   22e58:	dfc00117 	ldw	ra,4(sp)
   22e5c:	df000017 	ldw	fp,0(sp)
   22e60:	dec00204 	addi	sp,sp,8
   22e64:	f800283a 	ret

00022e68 <QUEUE_Pop>:

alt_u32 QUEUE_Pop(QUEUE_STRUCT *pQueue){
   22e68:	defffc04 	addi	sp,sp,-16
   22e6c:	dfc00315 	stw	ra,12(sp)
   22e70:	df000215 	stw	fp,8(sp)
   22e74:	df000204 	addi	fp,sp,8
   22e78:	e13ffe15 	stw	r4,-8(fp)
    alt_u32 data32;
    if (QUEUE_IsEmpty(pQueue))
   22e7c:	e13ffe17 	ldw	r4,-8(fp)
   22e80:	0022d340 	call	22d34 <QUEUE_IsEmpty>
   22e84:	10000226 	beq	r2,zero,22e90 <QUEUE_Pop+0x28>
        return 0;
   22e88:	0005883a 	mov	r2,zero
   22e8c:	00001406 	br	22ee0 <QUEUE_Pop+0x78>
    data32 = pQueue->data[pQueue->rear];
   22e90:	e0bffe17 	ldw	r2,-8(fp)
   22e94:	10800217 	ldw	r2,8(r2)
   22e98:	e0fffe17 	ldw	r3,-8(fp)
   22e9c:	108000c4 	addi	r2,r2,3
   22ea0:	100490ba 	slli	r2,r2,2
   22ea4:	1885883a 	add	r2,r3,r2
   22ea8:	10800017 	ldw	r2,0(r2)
   22eac:	e0bfff15 	stw	r2,-4(fp)
    pQueue->rear = (pQueue->rear+1)%pQueue->num;        
   22eb0:	e0bffe17 	ldw	r2,-8(fp)
   22eb4:	10800217 	ldw	r2,8(r2)
   22eb8:	10c00044 	addi	r3,r2,1
   22ebc:	e0bffe17 	ldw	r2,-8(fp)
   22ec0:	10800017 	ldw	r2,0(r2)
   22ec4:	100b883a 	mov	r5,r2
   22ec8:	1809883a 	mov	r4,r3
   22ecc:	00230800 	call	23080 <__umodsi3>
   22ed0:	1007883a 	mov	r3,r2
   22ed4:	e0bffe17 	ldw	r2,-8(fp)
   22ed8:	10c00215 	stw	r3,8(r2)
    return data32;
   22edc:	e0bfff17 	ldw	r2,-4(fp)
}
   22ee0:	e037883a 	mov	sp,fp
   22ee4:	dfc00117 	ldw	ra,4(sp)
   22ee8:	df000017 	ldw	fp,0(sp)
   22eec:	dec00204 	addi	sp,sp,8
   22ef0:	f800283a 	ret

00022ef4 <QUEUE_Empty>:

void QUEUE_Empty(QUEUE_STRUCT *pQueue){
   22ef4:	defffe04 	addi	sp,sp,-8
   22ef8:	df000115 	stw	fp,4(sp)
   22efc:	df000104 	addi	fp,sp,4
   22f00:	e13fff15 	stw	r4,-4(fp)
    pQueue->front = 0;
   22f04:	e0bfff17 	ldw	r2,-4(fp)
   22f08:	10000115 	stw	zero,4(r2)
    pQueue->rear = 0;
   22f0c:	e0bfff17 	ldw	r2,-4(fp)
   22f10:	10000215 	stw	zero,8(r2)
}
   22f14:	0001883a 	nop
   22f18:	e037883a 	mov	sp,fp
   22f1c:	df000017 	ldw	fp,0(sp)
   22f20:	dec00104 	addi	sp,sp,4
   22f24:	f800283a 	ret

00022f28 <__divsi3>:
   22f28:	20001a16 	blt	r4,zero,22f94 <__divsi3+0x6c>
   22f2c:	000f883a 	mov	r7,zero
   22f30:	2800020e 	bge	r5,zero,22f3c <__divsi3+0x14>
   22f34:	014bc83a 	sub	r5,zero,r5
   22f38:	39c0005c 	xori	r7,r7,1
   22f3c:	200d883a 	mov	r6,r4
   22f40:	00c00044 	movi	r3,1
   22f44:	2900092e 	bgeu	r5,r4,22f6c <__divsi3+0x44>
   22f48:	00800804 	movi	r2,32
   22f4c:	00c00044 	movi	r3,1
   22f50:	00000106 	br	22f58 <__divsi3+0x30>
   22f54:	10001226 	beq	r2,zero,22fa0 <__divsi3+0x78>
   22f58:	294b883a 	add	r5,r5,r5
   22f5c:	10bfffc4 	addi	r2,r2,-1
   22f60:	18c7883a 	add	r3,r3,r3
   22f64:	293ffb36 	bltu	r5,r4,22f54 <__divsi3+0x2c>
   22f68:	18000d26 	beq	r3,zero,22fa0 <__divsi3+0x78>
   22f6c:	0005883a 	mov	r2,zero
   22f70:	31400236 	bltu	r6,r5,22f7c <__divsi3+0x54>
   22f74:	314dc83a 	sub	r6,r6,r5
   22f78:	10c4b03a 	or	r2,r2,r3
   22f7c:	1806d07a 	srli	r3,r3,1
   22f80:	280ad07a 	srli	r5,r5,1
   22f84:	183ffa1e 	bne	r3,zero,22f70 <__divsi3+0x48>
   22f88:	38000126 	beq	r7,zero,22f90 <__divsi3+0x68>
   22f8c:	0085c83a 	sub	r2,zero,r2
   22f90:	f800283a 	ret
   22f94:	0109c83a 	sub	r4,zero,r4
   22f98:	01c00044 	movi	r7,1
   22f9c:	003fe406 	br	22f30 <__divsi3+0x8>
   22fa0:	0005883a 	mov	r2,zero
   22fa4:	003ff806 	br	22f88 <__divsi3+0x60>

00022fa8 <__modsi3>:
   22fa8:	20001716 	blt	r4,zero,23008 <__modsi3+0x60>
   22fac:	000f883a 	mov	r7,zero
   22fb0:	2005883a 	mov	r2,r4
   22fb4:	2800010e 	bge	r5,zero,22fbc <__modsi3+0x14>
   22fb8:	014bc83a 	sub	r5,zero,r5
   22fbc:	00c00044 	movi	r3,1
   22fc0:	2900092e 	bgeu	r5,r4,22fe8 <__modsi3+0x40>
   22fc4:	01800804 	movi	r6,32
   22fc8:	00c00044 	movi	r3,1
   22fcc:	00000106 	br	22fd4 <__modsi3+0x2c>
   22fd0:	30001026 	beq	r6,zero,23014 <__modsi3+0x6c>
   22fd4:	294b883a 	add	r5,r5,r5
   22fd8:	31bfffc4 	addi	r6,r6,-1
   22fdc:	18c7883a 	add	r3,r3,r3
   22fe0:	293ffb36 	bltu	r5,r4,22fd0 <__modsi3+0x28>
   22fe4:	18000b26 	beq	r3,zero,23014 <__modsi3+0x6c>
   22fe8:	1806d07a 	srli	r3,r3,1
   22fec:	11400136 	bltu	r2,r5,22ff4 <__modsi3+0x4c>
   22ff0:	1145c83a 	sub	r2,r2,r5
   22ff4:	280ad07a 	srli	r5,r5,1
   22ff8:	183ffb1e 	bne	r3,zero,22fe8 <__modsi3+0x40>
   22ffc:	38000126 	beq	r7,zero,23004 <__modsi3+0x5c>
   23000:	0085c83a 	sub	r2,zero,r2
   23004:	f800283a 	ret
   23008:	0109c83a 	sub	r4,zero,r4
   2300c:	01c00044 	movi	r7,1
   23010:	003fe706 	br	22fb0 <__modsi3+0x8>
   23014:	2005883a 	mov	r2,r4
   23018:	003ff806 	br	22ffc <__modsi3+0x54>

0002301c <__udivsi3>:
   2301c:	200d883a 	mov	r6,r4
   23020:	2900152e 	bgeu	r5,r4,23078 <__udivsi3+0x5c>
   23024:	28001416 	blt	r5,zero,23078 <__udivsi3+0x5c>
   23028:	00800804 	movi	r2,32
   2302c:	00c00044 	movi	r3,1
   23030:	00000206 	br	2303c <__udivsi3+0x20>
   23034:	10000e26 	beq	r2,zero,23070 <__udivsi3+0x54>
   23038:	28000416 	blt	r5,zero,2304c <__udivsi3+0x30>
   2303c:	294b883a 	add	r5,r5,r5
   23040:	10bfffc4 	addi	r2,r2,-1
   23044:	18c7883a 	add	r3,r3,r3
   23048:	293ffa36 	bltu	r5,r4,23034 <__udivsi3+0x18>
   2304c:	18000826 	beq	r3,zero,23070 <__udivsi3+0x54>
   23050:	0005883a 	mov	r2,zero
   23054:	31400236 	bltu	r6,r5,23060 <__udivsi3+0x44>
   23058:	314dc83a 	sub	r6,r6,r5
   2305c:	10c4b03a 	or	r2,r2,r3
   23060:	1806d07a 	srli	r3,r3,1
   23064:	280ad07a 	srli	r5,r5,1
   23068:	183ffa1e 	bne	r3,zero,23054 <__udivsi3+0x38>
   2306c:	f800283a 	ret
   23070:	0005883a 	mov	r2,zero
   23074:	f800283a 	ret
   23078:	00c00044 	movi	r3,1
   2307c:	003ff406 	br	23050 <__udivsi3+0x34>

00023080 <__umodsi3>:
   23080:	2005883a 	mov	r2,r4
   23084:	2900132e 	bgeu	r5,r4,230d4 <__umodsi3+0x54>
   23088:	28001216 	blt	r5,zero,230d4 <__umodsi3+0x54>
   2308c:	01800804 	movi	r6,32
   23090:	00c00044 	movi	r3,1
   23094:	00000206 	br	230a0 <__umodsi3+0x20>
   23098:	30000c26 	beq	r6,zero,230cc <__umodsi3+0x4c>
   2309c:	28000416 	blt	r5,zero,230b0 <__umodsi3+0x30>
   230a0:	294b883a 	add	r5,r5,r5
   230a4:	31bfffc4 	addi	r6,r6,-1
   230a8:	18c7883a 	add	r3,r3,r3
   230ac:	293ffa36 	bltu	r5,r4,23098 <__umodsi3+0x18>
   230b0:	18000626 	beq	r3,zero,230cc <__umodsi3+0x4c>
   230b4:	1806d07a 	srli	r3,r3,1
   230b8:	11400136 	bltu	r2,r5,230c0 <__umodsi3+0x40>
   230bc:	1145c83a 	sub	r2,r2,r5
   230c0:	280ad07a 	srli	r5,r5,1
   230c4:	183ffb1e 	bne	r3,zero,230b4 <__umodsi3+0x34>
   230c8:	f800283a 	ret
   230cc:	2005883a 	mov	r2,r4
   230d0:	f800283a 	ret
   230d4:	00c00044 	movi	r3,1
   230d8:	003ff606 	br	230b4 <__umodsi3+0x34>

000230dc <_fopen_r>:
   230dc:	defffa04 	addi	sp,sp,-24
   230e0:	3007883a 	mov	r3,r6
   230e4:	dcc00415 	stw	r19,16(sp)
   230e8:	d80d883a 	mov	r6,sp
   230ec:	2827883a 	mov	r19,r5
   230f0:	180b883a 	mov	r5,r3
   230f4:	dc800315 	stw	r18,12(sp)
   230f8:	dfc00515 	stw	ra,20(sp)
   230fc:	dc400215 	stw	r17,8(sp)
   23100:	dc000115 	stw	r16,4(sp)
   23104:	2025883a 	mov	r18,r4
   23108:	00290040 	call	29004 <__sflags>
   2310c:	10002f26 	beq	r2,zero,231cc <_fopen_r+0xf0>
   23110:	9009883a 	mov	r4,r18
   23114:	1023883a 	mov	r17,r2
   23118:	0028e740 	call	28e74 <__sfp>
   2311c:	1021883a 	mov	r16,r2
   23120:	10002a26 	beq	r2,zero,231cc <_fopen_r+0xf0>
   23124:	d9800017 	ldw	r6,0(sp)
   23128:	01c06d84 	movi	r7,438
   2312c:	980b883a 	mov	r5,r19
   23130:	9009883a 	mov	r4,r18
   23134:	00243580 	call	24358 <_open_r>
   23138:	10002116 	blt	r2,zero,231c0 <_fopen_r+0xe4>
   2313c:	1004943a 	slli	r2,r2,16
   23140:	89ffffcc 	andi	r7,r17,65535
   23144:	018000b4 	movhi	r6,2
   23148:	014000b4 	movhi	r5,2
   2314c:	010000b4 	movhi	r4,2
   23150:	00c000b4 	movhi	r3,2
   23154:	3884b03a 	or	r2,r7,r2
   23158:	3191d404 	addi	r6,r6,18256
   2315c:	2951eb04 	addi	r5,r5,18348
   23160:	21120b04 	addi	r4,r4,18476
   23164:	18d22204 	addi	r3,r3,18568
   23168:	80800315 	stw	r2,12(r16)
   2316c:	84000715 	stw	r16,28(r16)
   23170:	81800815 	stw	r6,32(r16)
   23174:	81400915 	stw	r5,36(r16)
   23178:	81000a15 	stw	r4,40(r16)
   2317c:	80c00b15 	stw	r3,44(r16)
   23180:	8c40400c 	andi	r17,r17,256
   23184:	8800081e 	bne	r17,zero,231a8 <_fopen_r+0xcc>
   23188:	8005883a 	mov	r2,r16
   2318c:	dfc00517 	ldw	ra,20(sp)
   23190:	dcc00417 	ldw	r19,16(sp)
   23194:	dc800317 	ldw	r18,12(sp)
   23198:	dc400217 	ldw	r17,8(sp)
   2319c:	dc000117 	ldw	r16,4(sp)
   231a0:	dec00604 	addi	sp,sp,24
   231a4:	f800283a 	ret
   231a8:	01c00084 	movi	r7,2
   231ac:	000d883a 	mov	r6,zero
   231b0:	800b883a 	mov	r5,r16
   231b4:	9009883a 	mov	r4,r18
   231b8:	00231ec0 	call	231ec <_fseek_r>
   231bc:	003ff206 	br	23188 <_fopen_r+0xac>
   231c0:	0028fcc0 	call	28fcc <__sfp_lock_acquire>
   231c4:	8000030d 	sth	zero,12(r16)
   231c8:	0028fd00 	call	28fd0 <__sfp_lock_release>
   231cc:	0021883a 	mov	r16,zero
   231d0:	003fed06 	br	23188 <_fopen_r+0xac>

000231d4 <fopen>:
   231d4:	00c000f4 	movhi	r3,3
   231d8:	2005883a 	mov	r2,r4
   231dc:	191cd017 	ldw	r4,29504(r3)
   231e0:	280d883a 	mov	r6,r5
   231e4:	100b883a 	mov	r5,r2
   231e8:	00230dc1 	jmpi	230dc <_fopen_r>

000231ec <_fseek_r>:
   231ec:	002320c1 	jmpi	2320c <_fseeko_r>

000231f0 <fseek>:
   231f0:	00c000f4 	movhi	r3,3
   231f4:	2005883a 	mov	r2,r4
   231f8:	191cd017 	ldw	r4,29504(r3)
   231fc:	300f883a 	mov	r7,r6
   23200:	280d883a 	mov	r6,r5
   23204:	100b883a 	mov	r5,r2
   23208:	002320c1 	jmpi	2320c <_fseeko_r>

0002320c <_fseeko_r>:
   2320c:	deffe504 	addi	sp,sp,-108
   23210:	dd401715 	stw	r21,92(sp)
   23214:	dcc01515 	stw	r19,84(sp)
   23218:	dc401315 	stw	r17,76(sp)
   2321c:	dc001215 	stw	r16,72(sp)
   23220:	dfc01a15 	stw	ra,104(sp)
   23224:	ddc01915 	stw	r23,100(sp)
   23228:	dd801815 	stw	r22,96(sp)
   2322c:	dd001615 	stw	r20,88(sp)
   23230:	dc801415 	stw	r18,80(sp)
   23234:	2023883a 	mov	r17,r4
   23238:	2821883a 	mov	r16,r5
   2323c:	3027883a 	mov	r19,r6
   23240:	382b883a 	mov	r21,r7
   23244:	20000226 	beq	r4,zero,23250 <_fseeko_r+0x44>
   23248:	20800e17 	ldw	r2,56(r4)
   2324c:	10000f26 	beq	r2,zero,2328c <_fseeko_r+0x80>
   23250:	8080030b 	ldhu	r2,12(r16)
   23254:	1080420c 	andi	r2,r2,264
   23258:	10804218 	cmpnei	r2,r2,264
   2325c:	10001026 	beq	r2,zero,232a0 <_fseeko_r+0x94>
   23260:	85000a17 	ldw	r20,40(r16)
   23264:	a000f026 	beq	r20,zero,23628 <_fseeko_r+0x41c>
   23268:	a8800060 	cmpeqi	r2,r21,1
   2326c:	1000491e 	bne	r2,zero,23394 <_fseeko_r+0x188>
   23270:	04bfff44 	movi	r18,-3
   23274:	aca4703a 	and	r18,r21,r18
   23278:	90000d26 	beq	r18,zero,232b0 <_fseeko_r+0xa4>
   2327c:	00800584 	movi	r2,22
   23280:	88800015 	stw	r2,0(r17)
   23284:	00bfffc4 	movi	r2,-1
   23288:	00003706 	br	23368 <_fseeko_r+0x15c>
   2328c:	0028fbc0 	call	28fbc <__sinit>
   23290:	8080030b 	ldhu	r2,12(r16)
   23294:	1080420c 	andi	r2,r2,264
   23298:	10804218 	cmpnei	r2,r2,264
   2329c:	103ff01e 	bne	r2,zero,23260 <_fseeko_r+0x54>
   232a0:	800b883a 	mov	r5,r16
   232a4:	8809883a 	mov	r4,r17
   232a8:	0028ba40 	call	28ba4 <_fflush_r>
   232ac:	003fec06 	br	23260 <_fseeko_r+0x54>
   232b0:	81000417 	ldw	r4,16(r16)
   232b4:	002f883a 	mov	r23,zero
   232b8:	20005226 	beq	r4,zero,23404 <_fseeko_r+0x1f8>
   232bc:	8080030b 	ldhu	r2,12(r16)
   232c0:	10c2068c 	andi	r3,r2,2074
   232c4:	1800071e 	bne	r3,zero,232e4 <_fseeko_r+0xd8>
   232c8:	10c1000c 	andi	r3,r2,1024
   232cc:	1800601e 	bne	r3,zero,23450 <_fseeko_r+0x244>
   232d0:	00c000b4 	movhi	r3,2
   232d4:	18d20b04 	addi	r3,r3,18476
   232d8:	a0c04e26 	beq	r20,r3,23414 <_fseeko_r+0x208>
   232dc:	10820014 	ori	r2,r2,2048
   232e0:	8080030d 	sth	r2,12(r16)
   232e4:	800b883a 	mov	r5,r16
   232e8:	8809883a 	mov	r4,r17
   232ec:	0028ba40 	call	28ba4 <_fflush_r>
   232f0:	103fe41e 	bne	r2,zero,23284 <_fseeko_r+0x78>
   232f4:	81400717 	ldw	r5,28(r16)
   232f8:	a80f883a 	mov	r7,r21
   232fc:	980d883a 	mov	r6,r19
   23300:	8809883a 	mov	r4,r17
   23304:	a03ee83a 	callr	r20
   23308:	10bfffe0 	cmpeqi	r2,r2,-1
   2330c:	103fdd1e 	bne	r2,zero,23284 <_fseeko_r+0x78>
   23310:	81400c17 	ldw	r5,48(r16)
   23314:	28000526 	beq	r5,zero,2332c <_fseeko_r+0x120>
   23318:	80801004 	addi	r2,r16,64
   2331c:	28800226 	beq	r5,r2,23328 <_fseeko_r+0x11c>
   23320:	8809883a 	mov	r4,r17
   23324:	00291e00 	call	291e0 <_free_r>
   23328:	80000c15 	stw	zero,48(r16)
   2332c:	8080030b 	ldhu	r2,12(r16)
   23330:	80c00417 	ldw	r3,16(r16)
   23334:	80000115 	stw	zero,4(r16)
   23338:	10bdf7cc 	andi	r2,r2,63455
   2333c:	80c00015 	stw	r3,0(r16)
   23340:	8080030d 	sth	r2,12(r16)
   23344:	80001705 	stb	zero,92(r16)
   23348:	80001745 	stb	zero,93(r16)
   2334c:	80001785 	stb	zero,94(r16)
   23350:	800017c5 	stb	zero,95(r16)
   23354:	80001805 	stb	zero,96(r16)
   23358:	80001845 	stb	zero,97(r16)
   2335c:	80001885 	stb	zero,98(r16)
   23360:	800018c5 	stb	zero,99(r16)
   23364:	0005883a 	mov	r2,zero
   23368:	dfc01a17 	ldw	ra,104(sp)
   2336c:	ddc01917 	ldw	r23,100(sp)
   23370:	dd801817 	ldw	r22,96(sp)
   23374:	dd401717 	ldw	r21,92(sp)
   23378:	dd001617 	ldw	r20,88(sp)
   2337c:	dcc01517 	ldw	r19,84(sp)
   23380:	dc801417 	ldw	r18,80(sp)
   23384:	dc401317 	ldw	r17,76(sp)
   23388:	dc001217 	ldw	r16,72(sp)
   2338c:	dec01b04 	addi	sp,sp,108
   23390:	f800283a 	ret
   23394:	800b883a 	mov	r5,r16
   23398:	8809883a 	mov	r4,r17
   2339c:	0028ba40 	call	28ba4 <_fflush_r>
   233a0:	8080030b 	ldhu	r2,12(r16)
   233a4:	10c4000c 	andi	r3,r2,4096
   233a8:	1800651e 	bne	r3,zero,23540 <_fseeko_r+0x334>
   233ac:	81400717 	ldw	r5,28(r16)
   233b0:	01c00044 	movi	r7,1
   233b4:	000d883a 	mov	r6,zero
   233b8:	8809883a 	mov	r4,r17
   233bc:	a03ee83a 	callr	r20
   233c0:	1025883a 	mov	r18,r2
   233c4:	10bfffd8 	cmpnei	r2,r2,-1
   233c8:	103fae26 	beq	r2,zero,23284 <_fseeko_r+0x78>
   233cc:	8080030b 	ldhu	r2,12(r16)
   233d0:	81000417 	ldw	r4,16(r16)
   233d4:	10c0010c 	andi	r3,r2,4
   233d8:	18005d26 	beq	r3,zero,23550 <_fseeko_r+0x344>
   233dc:	80c00117 	ldw	r3,4(r16)
   233e0:	80800c17 	ldw	r2,48(r16)
   233e4:	90e5c83a 	sub	r18,r18,r3
   233e8:	10000226 	beq	r2,zero,233f4 <_fseeko_r+0x1e8>
   233ec:	81800f17 	ldw	r6,60(r16)
   233f0:	91a5c83a 	sub	r18,r18,r6
   233f4:	9ca7883a 	add	r19,r19,r18
   233f8:	05c00044 	movi	r23,1
   233fc:	002b883a 	mov	r21,zero
   23400:	203fae1e 	bne	r4,zero,232bc <_fseeko_r+0xb0>
   23404:	800b883a 	mov	r5,r16
   23408:	8809883a 	mov	r4,r17
   2340c:	00238600 	call	23860 <__smakebuf_r>
   23410:	003faa06 	br	232bc <_fseeko_r+0xb0>
   23414:	8140038f 	ldh	r5,14(r16)
   23418:	283fb016 	blt	r5,zero,232dc <_fseeko_r+0xd0>
   2341c:	d80d883a 	mov	r6,sp
   23420:	8809883a 	mov	r4,r17
   23424:	00236500 	call	23650 <_fstat_r>
   23428:	10006d1e 	bne	r2,zero,235e0 <_fseeko_r+0x3d4>
   2342c:	d8c00117 	ldw	r3,4(sp)
   23430:	01200014 	movui	r4,32768
   23434:	8080030b 	ldhu	r2,12(r16)
   23438:	18fc000c 	andi	r3,r3,61440
   2343c:	193fa71e 	bne	r3,r4,232dc <_fseeko_r+0xd0>
   23440:	10810014 	ori	r2,r2,1024
   23444:	00c10004 	movi	r3,1024
   23448:	80c01315 	stw	r3,76(r16)
   2344c:	8080030d 	sth	r2,12(r16)
   23450:	a800461e 	bne	r21,zero,2356c <_fseeko_r+0x360>
   23454:	982d883a 	mov	r22,r19
   23458:	b8004c1e 	bne	r23,zero,2358c <_fseeko_r+0x380>
   2345c:	8080030b 	ldhu	r2,12(r16)
   23460:	1084000c 	andi	r2,r2,4096
   23464:	10005626 	beq	r2,zero,235c0 <_fseeko_r+0x3b4>
   23468:	80801417 	ldw	r2,80(r16)
   2346c:	80c00117 	ldw	r3,4(r16)
   23470:	81400c17 	ldw	r5,48(r16)
   23474:	1809883a 	mov	r4,r3
   23478:	10e5c83a 	sub	r18,r2,r3
   2347c:	28004926 	beq	r5,zero,235a4 <_fseeko_r+0x398>
   23480:	81800f17 	ldw	r6,60(r16)
   23484:	91a5c83a 	sub	r18,r18,r6
   23488:	80800e17 	ldw	r2,56(r16)
   2348c:	81c00417 	ldw	r7,16(r16)
   23490:	90c7883a 	add	r3,r18,r3
   23494:	11c5c83a 	sub	r2,r2,r7
   23498:	1887c83a 	sub	r3,r3,r2
   2349c:	1185883a 	add	r2,r2,r6
   234a0:	b0c00216 	blt	r22,r3,234ac <_fseeko_r+0x2a0>
   234a4:	1889883a 	add	r4,r3,r2
   234a8:	b1004f36 	bltu	r22,r4,235e8 <_fseeko_r+0x3dc>
   234ac:	84801317 	ldw	r18,76(r16)
   234b0:	81400717 	ldw	r5,28(r16)
   234b4:	000f883a 	mov	r7,zero
   234b8:	04a5c83a 	sub	r18,zero,r18
   234bc:	95a4703a 	and	r18,r18,r22
   234c0:	900d883a 	mov	r6,r18
   234c4:	8809883a 	mov	r4,r17
   234c8:	a03ee83a 	callr	r20
   234cc:	10bfffe0 	cmpeqi	r2,r2,-1
   234d0:	103f841e 	bne	r2,zero,232e4 <_fseeko_r+0xd8>
   234d4:	80800417 	ldw	r2,16(r16)
   234d8:	81400c17 	ldw	r5,48(r16)
   234dc:	80000115 	stw	zero,4(r16)
   234e0:	80800015 	stw	r2,0(r16)
   234e4:	28000526 	beq	r5,zero,234fc <_fseeko_r+0x2f0>
   234e8:	80801004 	addi	r2,r16,64
   234ec:	28800226 	beq	r5,r2,234f8 <_fseeko_r+0x2ec>
   234f0:	8809883a 	mov	r4,r17
   234f4:	00291e00 	call	291e0 <_free_r>
   234f8:	80000c15 	stw	zero,48(r16)
   234fc:	8080030b 	ldhu	r2,12(r16)
   23500:	b4afc83a 	sub	r23,r22,r18
   23504:	10bff7cc 	andi	r2,r2,65503
   23508:	8080030d 	sth	r2,12(r16)
   2350c:	b4bf8d26 	beq	r22,r18,23344 <_fseeko_r+0x138>
   23510:	800b883a 	mov	r5,r16
   23514:	8809883a 	mov	r4,r17
   23518:	00245400 	call	24540 <__srefill_r>
   2351c:	103f711e 	bne	r2,zero,232e4 <_fseeko_r+0xd8>
   23520:	80800117 	ldw	r2,4(r16)
   23524:	15ff6f36 	bltu	r2,r23,232e4 <_fseeko_r+0xd8>
   23528:	80c00017 	ldw	r3,0(r16)
   2352c:	15c5c83a 	sub	r2,r2,r23
   23530:	80800115 	stw	r2,4(r16)
   23534:	1dc5883a 	add	r2,r3,r23
   23538:	80800015 	stw	r2,0(r16)
   2353c:	003f8106 	br	23344 <_fseeko_r+0x138>
   23540:	10c0010c 	andi	r3,r2,4
   23544:	84801417 	ldw	r18,80(r16)
   23548:	81000417 	ldw	r4,16(r16)
   2354c:	183fa31e 	bne	r3,zero,233dc <_fseeko_r+0x1d0>
   23550:	1080020c 	andi	r2,r2,8
   23554:	103fa726 	beq	r2,zero,233f4 <_fseeko_r+0x1e8>
   23558:	80800017 	ldw	r2,0(r16)
   2355c:	103fa526 	beq	r2,zero,233f4 <_fseeko_r+0x1e8>
   23560:	1105c83a 	sub	r2,r2,r4
   23564:	90a5883a 	add	r18,r18,r2
   23568:	003fa206 	br	233f4 <_fseeko_r+0x1e8>
   2356c:	8140038f 	ldh	r5,14(r16)
   23570:	d80d883a 	mov	r6,sp
   23574:	8809883a 	mov	r4,r17
   23578:	00236500 	call	23650 <_fstat_r>
   2357c:	103f591e 	bne	r2,zero,232e4 <_fseeko_r+0xd8>
   23580:	dd800417 	ldw	r22,16(sp)
   23584:	9dad883a 	add	r22,r19,r22
   23588:	b83fb426 	beq	r23,zero,2345c <_fseeko_r+0x250>
   2358c:	81400c17 	ldw	r5,48(r16)
   23590:	28000326 	beq	r5,zero,235a0 <_fseeko_r+0x394>
   23594:	80c00117 	ldw	r3,4(r16)
   23598:	81800f17 	ldw	r6,60(r16)
   2359c:	003fba06 	br	23488 <_fseeko_r+0x27c>
   235a0:	81000117 	ldw	r4,4(r16)
   235a4:	80800017 	ldw	r2,0(r16)
   235a8:	81c00417 	ldw	r7,16(r16)
   235ac:	000b883a 	mov	r5,zero
   235b0:	11c5c83a 	sub	r2,r2,r7
   235b4:	9087c83a 	sub	r3,r18,r2
   235b8:	2085883a 	add	r2,r4,r2
   235bc:	003fb806 	br	234a0 <_fseeko_r+0x294>
   235c0:	81400717 	ldw	r5,28(r16)
   235c4:	01c00044 	movi	r7,1
   235c8:	000d883a 	mov	r6,zero
   235cc:	8809883a 	mov	r4,r17
   235d0:	a03ee83a 	callr	r20
   235d4:	10ffffe0 	cmpeqi	r3,r2,-1
   235d8:	183fa426 	beq	r3,zero,2346c <_fseeko_r+0x260>
   235dc:	003f4106 	br	232e4 <_fseeko_r+0xd8>
   235e0:	8080030b 	ldhu	r2,12(r16)
   235e4:	003f3d06 	br	232dc <_fseeko_r+0xd0>
   235e8:	b0c7c83a 	sub	r3,r22,r3
   235ec:	38cf883a 	add	r7,r7,r3
   235f0:	10c5c83a 	sub	r2,r2,r3
   235f4:	81c00015 	stw	r7,0(r16)
   235f8:	80800115 	stw	r2,4(r16)
   235fc:	28000526 	beq	r5,zero,23614 <_fseeko_r+0x408>
   23600:	80801004 	addi	r2,r16,64
   23604:	28800226 	beq	r5,r2,23610 <_fseeko_r+0x404>
   23608:	8809883a 	mov	r4,r17
   2360c:	00291e00 	call	291e0 <_free_r>
   23610:	80000c15 	stw	zero,48(r16)
   23614:	80c0030b 	ldhu	r3,12(r16)
   23618:	80001705 	stb	zero,92(r16)
   2361c:	18fff7cc 	andi	r3,r3,65503
   23620:	80c0030d 	sth	r3,12(r16)
   23624:	003f4806 	br	23348 <_fseeko_r+0x13c>
   23628:	00800744 	movi	r2,29
   2362c:	88800015 	stw	r2,0(r17)
   23630:	003f1406 	br	23284 <_fseeko_r+0x78>

00023634 <fseeko>:
   23634:	00c000f4 	movhi	r3,3
   23638:	2005883a 	mov	r2,r4
   2363c:	191cd017 	ldw	r4,29504(r3)
   23640:	300f883a 	mov	r7,r6
   23644:	280d883a 	mov	r6,r5
   23648:	100b883a 	mov	r5,r2
   2364c:	002320c1 	jmpi	2320c <_fseeko_r>

00023650 <_fstat_r>:
   23650:	2807883a 	mov	r3,r5
   23654:	defffe04 	addi	sp,sp,-8
   23658:	dc000015 	stw	r16,0(sp)
   2365c:	00800134 	movhi	r2,4
   23660:	300b883a 	mov	r5,r6
   23664:	2021883a 	mov	r16,r4
   23668:	1809883a 	mov	r4,r3
   2366c:	dfc00115 	stw	ra,4(sp)
   23670:	1025f115 	stw	zero,-26684(r2)
   23674:	00311680 	call	31168 <fstat>
   23678:	10ffffd8 	cmpnei	r3,r2,-1
   2367c:	18000426 	beq	r3,zero,23690 <_fstat_r+0x40>
   23680:	dfc00117 	ldw	ra,4(sp)
   23684:	dc000017 	ldw	r16,0(sp)
   23688:	dec00204 	addi	sp,sp,8
   2368c:	f800283a 	ret
   23690:	00c00134 	movhi	r3,4
   23694:	18e5f117 	ldw	r3,-26684(r3)
   23698:	183ff926 	beq	r3,zero,23680 <_fstat_r+0x30>
   2369c:	80c00015 	stw	r3,0(r16)
   236a0:	dfc00117 	ldw	ra,4(sp)
   236a4:	dc000017 	ldw	r16,0(sp)
   236a8:	dec00204 	addi	sp,sp,8
   236ac:	f800283a 	ret

000236b0 <_fwrite_r>:
   236b0:	defff604 	addi	sp,sp,-40
   236b4:	dcc00815 	stw	r19,32(sp)
   236b8:	39a7383a 	mul	r19,r7,r6
   236bc:	00800044 	movi	r2,1
   236c0:	dc800715 	stw	r18,28(sp)
   236c4:	dc400615 	stw	r17,24(sp)
   236c8:	dc000515 	stw	r16,20(sp)
   236cc:	d9400015 	stw	r5,0(sp)
   236d0:	dfc00915 	stw	ra,36(sp)
   236d4:	dcc00115 	stw	r19,4(sp)
   236d8:	dcc00415 	stw	r19,16(sp)
   236dc:	dec00215 	stw	sp,8(sp)
   236e0:	d8800315 	stw	r2,12(sp)
   236e4:	d9400a17 	ldw	r5,40(sp)
   236e8:	3025883a 	mov	r18,r6
   236ec:	3821883a 	mov	r16,r7
   236f0:	2023883a 	mov	r17,r4
   236f4:	20000226 	beq	r4,zero,23700 <_fwrite_r+0x50>
   236f8:	20800e17 	ldw	r2,56(r4)
   236fc:	10001826 	beq	r2,zero,23760 <_fwrite_r+0xb0>
   23700:	2880030b 	ldhu	r2,12(r5)
   23704:	10c8000c 	andi	r3,r2,8192
   23708:	1800061e 	bne	r3,zero,23724 <_fwrite_r+0x74>
   2370c:	28c01917 	ldw	r3,100(r5)
   23710:	0137ffc4 	movi	r4,-8193
   23714:	10880014 	ori	r2,r2,8192
   23718:	1906703a 	and	r3,r3,r4
   2371c:	2880030d 	sth	r2,12(r5)
   23720:	28c01915 	stw	r3,100(r5)
   23724:	d9800204 	addi	r6,sp,8
   23728:	8809883a 	mov	r4,r17
   2372c:	00294e80 	call	294e8 <__sfvwrite_r>
   23730:	10000e26 	beq	r2,zero,2376c <_fwrite_r+0xbc>
   23734:	d9000417 	ldw	r4,16(sp)
   23738:	900b883a 	mov	r5,r18
   2373c:	9909c83a 	sub	r4,r19,r4
   23740:	002301c0 	call	2301c <__udivsi3>
   23744:	dfc00917 	ldw	ra,36(sp)
   23748:	dcc00817 	ldw	r19,32(sp)
   2374c:	dc800717 	ldw	r18,28(sp)
   23750:	dc400617 	ldw	r17,24(sp)
   23754:	dc000517 	ldw	r16,20(sp)
   23758:	dec00a04 	addi	sp,sp,40
   2375c:	f800283a 	ret
   23760:	0028fbc0 	call	28fbc <__sinit>
   23764:	d9400a17 	ldw	r5,40(sp)
   23768:	003fe506 	br	23700 <_fwrite_r+0x50>
   2376c:	8005883a 	mov	r2,r16
   23770:	003ff406 	br	23744 <_fwrite_r+0x94>

00023774 <fwrite>:
   23774:	defff504 	addi	sp,sp,-44
   23778:	008000f4 	movhi	r2,3
   2377c:	dcc00915 	stw	r19,36(sp)
   23780:	29a7383a 	mul	r19,r5,r6
   23784:	dc800815 	stw	r18,32(sp)
   23788:	149cd017 	ldw	r18,29504(r2)
   2378c:	d8800104 	addi	r2,sp,4
   23790:	d8800315 	stw	r2,12(sp)
   23794:	00800044 	movi	r2,1
   23798:	dc400715 	stw	r17,28(sp)
   2379c:	dc000615 	stw	r16,24(sp)
   237a0:	dfc00a15 	stw	ra,40(sp)
   237a4:	d9000115 	stw	r4,4(sp)
   237a8:	dcc00215 	stw	r19,8(sp)
   237ac:	dcc00515 	stw	r19,20(sp)
   237b0:	d8800415 	stw	r2,16(sp)
   237b4:	2823883a 	mov	r17,r5
   237b8:	3021883a 	mov	r16,r6
   237bc:	380b883a 	mov	r5,r7
   237c0:	90000226 	beq	r18,zero,237cc <fwrite+0x58>
   237c4:	90800e17 	ldw	r2,56(r18)
   237c8:	10001826 	beq	r2,zero,2382c <fwrite+0xb8>
   237cc:	2880030b 	ldhu	r2,12(r5)
   237d0:	10c8000c 	andi	r3,r2,8192
   237d4:	1800061e 	bne	r3,zero,237f0 <fwrite+0x7c>
   237d8:	28c01917 	ldw	r3,100(r5)
   237dc:	0137ffc4 	movi	r4,-8193
   237e0:	10880014 	ori	r2,r2,8192
   237e4:	1906703a 	and	r3,r3,r4
   237e8:	2880030d 	sth	r2,12(r5)
   237ec:	28c01915 	stw	r3,100(r5)
   237f0:	d9800304 	addi	r6,sp,12
   237f4:	9009883a 	mov	r4,r18
   237f8:	00294e80 	call	294e8 <__sfvwrite_r>
   237fc:	10001026 	beq	r2,zero,23840 <fwrite+0xcc>
   23800:	d9000517 	ldw	r4,20(sp)
   23804:	880b883a 	mov	r5,r17
   23808:	9909c83a 	sub	r4,r19,r4
   2380c:	002301c0 	call	2301c <__udivsi3>
   23810:	dfc00a17 	ldw	ra,40(sp)
   23814:	dcc00917 	ldw	r19,36(sp)
   23818:	dc800817 	ldw	r18,32(sp)
   2381c:	dc400717 	ldw	r17,28(sp)
   23820:	dc000617 	ldw	r16,24(sp)
   23824:	dec00b04 	addi	sp,sp,44
   23828:	f800283a 	ret
   2382c:	9009883a 	mov	r4,r18
   23830:	d9c00015 	stw	r7,0(sp)
   23834:	0028fbc0 	call	28fbc <__sinit>
   23838:	d9400017 	ldw	r5,0(sp)
   2383c:	003fe306 	br	237cc <fwrite+0x58>
   23840:	8005883a 	mov	r2,r16
   23844:	003ff206 	br	23810 <fwrite+0x9c>

00023848 <_getchar_r>:
   23848:	21400117 	ldw	r5,4(r4)
   2384c:	0029acc1 	jmpi	29acc <_getc_r>

00023850 <getchar>:
   23850:	008000f4 	movhi	r2,3
   23854:	111cd017 	ldw	r4,29504(r2)
   23858:	21400117 	ldw	r5,4(r4)
   2385c:	0029acc1 	jmpi	29acc <_getc_r>

00023860 <__smakebuf_r>:
   23860:	2880030b 	ldhu	r2,12(r5)
   23864:	deffe804 	addi	sp,sp,-96
   23868:	dc001215 	stw	r16,72(sp)
   2386c:	dfc01715 	stw	ra,92(sp)
   23870:	dd001615 	stw	r20,88(sp)
   23874:	dcc01515 	stw	r19,84(sp)
   23878:	dc801415 	stw	r18,80(sp)
   2387c:	dc401315 	stw	r17,76(sp)
   23880:	10c0008c 	andi	r3,r2,2
   23884:	2821883a 	mov	r16,r5
   23888:	18000d26 	beq	r3,zero,238c0 <__smakebuf_r+0x60>
   2388c:	288010c4 	addi	r2,r5,67
   23890:	28800015 	stw	r2,0(r5)
   23894:	28800415 	stw	r2,16(r5)
   23898:	00800044 	movi	r2,1
   2389c:	28800515 	stw	r2,20(r5)
   238a0:	dfc01717 	ldw	ra,92(sp)
   238a4:	dd001617 	ldw	r20,88(sp)
   238a8:	dcc01517 	ldw	r19,84(sp)
   238ac:	dc801417 	ldw	r18,80(sp)
   238b0:	dc401317 	ldw	r17,76(sp)
   238b4:	dc001217 	ldw	r16,72(sp)
   238b8:	dec01804 	addi	sp,sp,96
   238bc:	f800283a 	ret
   238c0:	2940038f 	ldh	r5,14(r5)
   238c4:	2023883a 	mov	r17,r4
   238c8:	28002816 	blt	r5,zero,2396c <__smakebuf_r+0x10c>
   238cc:	d80d883a 	mov	r6,sp
   238d0:	00236500 	call	23650 <_fstat_r>
   238d4:	10002416 	blt	r2,zero,23968 <__smakebuf_r+0x108>
   238d8:	d8800117 	ldw	r2,4(sp)
   238dc:	10bc000c 	andi	r2,r2,61440
   238e0:	10880018 	cmpnei	r2,r2,8192
   238e4:	1000421e 	bne	r2,zero,239f0 <__smakebuf_r+0x190>
   238e8:	8140038f 	ldh	r5,14(r16)
   238ec:	8809883a 	mov	r4,r17
   238f0:	0029bd80 	call	29bd8 <_isatty_r>
   238f4:	10000826 	beq	r2,zero,23918 <__smakebuf_r+0xb8>
   238f8:	8080030b 	ldhu	r2,12(r16)
   238fc:	80c010c4 	addi	r3,r16,67
   23900:	80c00015 	stw	r3,0(r16)
   23904:	10800054 	ori	r2,r2,1
   23908:	8080030d 	sth	r2,12(r16)
   2390c:	00800044 	movi	r2,1
   23910:	80c00415 	stw	r3,16(r16)
   23914:	80800515 	stw	r2,20(r16)
   23918:	04c00044 	movi	r19,1
   2391c:	05010004 	movi	r20,1024
   23920:	04820004 	movi	r18,2048
   23924:	a00b883a 	mov	r5,r20
   23928:	8809883a 	mov	r4,r17
   2392c:	0023aac0 	call	23aac <_malloc_r>
   23930:	10001726 	beq	r2,zero,23990 <__smakebuf_r+0x130>
   23934:	80c0030b 	ldhu	r3,12(r16)
   23938:	010000f4 	movhi	r4,3
   2393c:	21232404 	addi	r4,r4,-29552
   23940:	89000f15 	stw	r4,60(r17)
   23944:	18c02014 	ori	r3,r3,128
   23948:	80c0030d 	sth	r3,12(r16)
   2394c:	80800015 	stw	r2,0(r16)
   23950:	80800415 	stw	r2,16(r16)
   23954:	85000515 	stw	r20,20(r16)
   23958:	98001d1e 	bne	r19,zero,239d0 <__smakebuf_r+0x170>
   2395c:	90e4b03a 	or	r18,r18,r3
   23960:	8480030d 	sth	r18,12(r16)
   23964:	003fce06 	br	238a0 <__smakebuf_r+0x40>
   23968:	8080030b 	ldhu	r2,12(r16)
   2396c:	1080200c 	andi	r2,r2,128
   23970:	0027883a 	mov	r19,zero
   23974:	10001326 	beq	r2,zero,239c4 <__smakebuf_r+0x164>
   23978:	05001004 	movi	r20,64
   2397c:	a00b883a 	mov	r5,r20
   23980:	8809883a 	mov	r4,r17
   23984:	0025883a 	mov	r18,zero
   23988:	0023aac0 	call	23aac <_malloc_r>
   2398c:	103fe91e 	bne	r2,zero,23934 <__smakebuf_r+0xd4>
   23990:	8080030b 	ldhu	r2,12(r16)
   23994:	10c0800c 	andi	r3,r2,512
   23998:	183fc11e 	bne	r3,zero,238a0 <__smakebuf_r+0x40>
   2399c:	00ffff04 	movi	r3,-4
   239a0:	10c4703a 	and	r2,r2,r3
   239a4:	10800094 	ori	r2,r2,2
   239a8:	80c010c4 	addi	r3,r16,67
   239ac:	8080030d 	sth	r2,12(r16)
   239b0:	00800044 	movi	r2,1
   239b4:	80c00015 	stw	r3,0(r16)
   239b8:	80c00415 	stw	r3,16(r16)
   239bc:	80800515 	stw	r2,20(r16)
   239c0:	003fb706 	br	238a0 <__smakebuf_r+0x40>
   239c4:	05010004 	movi	r20,1024
   239c8:	0025883a 	mov	r18,zero
   239cc:	003fd506 	br	23924 <__smakebuf_r+0xc4>
   239d0:	8140038f 	ldh	r5,14(r16)
   239d4:	8809883a 	mov	r4,r17
   239d8:	0029bd80 	call	29bd8 <_isatty_r>
   239dc:	80c0030b 	ldhu	r3,12(r16)
   239e0:	103fde26 	beq	r2,zero,2395c <__smakebuf_r+0xfc>
   239e4:	18ffff0c 	andi	r3,r3,65532
   239e8:	18c00054 	ori	r3,r3,1
   239ec:	003fdb06 	br	2395c <__smakebuf_r+0xfc>
   239f0:	0027883a 	mov	r19,zero
   239f4:	05010004 	movi	r20,1024
   239f8:	04820004 	movi	r18,2048
   239fc:	003fc906 	br	23924 <__smakebuf_r+0xc4>

00023a00 <__swhatbuf_r>:
   23a00:	deffea04 	addi	sp,sp,-88
   23a04:	dc001215 	stw	r16,72(sp)
   23a08:	2821883a 	mov	r16,r5
   23a0c:	2940038f 	ldh	r5,14(r5)
   23a10:	dc801415 	stw	r18,80(sp)
   23a14:	dc401315 	stw	r17,76(sp)
   23a18:	dfc01515 	stw	ra,84(sp)
   23a1c:	3023883a 	mov	r17,r6
   23a20:	3825883a 	mov	r18,r7
   23a24:	28001016 	blt	r5,zero,23a68 <__swhatbuf_r+0x68>
   23a28:	d80d883a 	mov	r6,sp
   23a2c:	00236500 	call	23650 <_fstat_r>
   23a30:	10000d16 	blt	r2,zero,23a68 <__swhatbuf_r+0x68>
   23a34:	d8c00117 	ldw	r3,4(sp)
   23a38:	01010004 	movi	r4,1024
   23a3c:	00820004 	movi	r2,2048
   23a40:	18fc000c 	andi	r3,r3,61440
   23a44:	18c80020 	cmpeqi	r3,r3,8192
   23a48:	90c00015 	stw	r3,0(r18)
   23a4c:	89000015 	stw	r4,0(r17)
   23a50:	dfc01517 	ldw	ra,84(sp)
   23a54:	dc801417 	ldw	r18,80(sp)
   23a58:	dc401317 	ldw	r17,76(sp)
   23a5c:	dc001217 	ldw	r16,72(sp)
   23a60:	dec01604 	addi	sp,sp,88
   23a64:	f800283a 	ret
   23a68:	8080030b 	ldhu	r2,12(r16)
   23a6c:	0007883a 	mov	r3,zero
   23a70:	1080200c 	andi	r2,r2,128
   23a74:	10000326 	beq	r2,zero,23a84 <__swhatbuf_r+0x84>
   23a78:	01001004 	movi	r4,64
   23a7c:	0005883a 	mov	r2,zero
   23a80:	003ff106 	br	23a48 <__swhatbuf_r+0x48>
   23a84:	01010004 	movi	r4,1024
   23a88:	003fef06 	br	23a48 <__swhatbuf_r+0x48>

00023a8c <malloc>:
   23a8c:	008000f4 	movhi	r2,3
   23a90:	200b883a 	mov	r5,r4
   23a94:	111cd017 	ldw	r4,29504(r2)
   23a98:	0023aac1 	jmpi	23aac <_malloc_r>

00023a9c <free>:
   23a9c:	008000f4 	movhi	r2,3
   23aa0:	200b883a 	mov	r5,r4
   23aa4:	111cd017 	ldw	r4,29504(r2)
   23aa8:	00291e01 	jmpi	291e0 <_free_r>

00023aac <_malloc_r>:
   23aac:	defff604 	addi	sp,sp,-40
   23ab0:	dc400115 	stw	r17,4(sp)
   23ab4:	2c4002c4 	addi	r17,r5,11
   23ab8:	dc800215 	stw	r18,8(sp)
   23abc:	dfc00915 	stw	ra,36(sp)
   23ac0:	df000815 	stw	fp,32(sp)
   23ac4:	ddc00715 	stw	r23,28(sp)
   23ac8:	dd800615 	stw	r22,24(sp)
   23acc:	dd400515 	stw	r21,20(sp)
   23ad0:	dd000415 	stw	r20,16(sp)
   23ad4:	dcc00315 	stw	r19,12(sp)
   23ad8:	dc000015 	stw	r16,0(sp)
   23adc:	888005e8 	cmpgeui	r2,r17,23
   23ae0:	2025883a 	mov	r18,r4
   23ae4:	1000261e 	bne	r2,zero,23b80 <_malloc_r+0xd4>
   23ae8:	29400468 	cmpgeui	r5,r5,17
   23aec:	28008d1e 	bne	r5,zero,23d24 <_malloc_r+0x278>
   23af0:	00316bc0 	call	316bc <__malloc_lock>
   23af4:	04400404 	movi	r17,16
   23af8:	00800604 	movi	r2,24
   23afc:	01c00084 	movi	r7,2
   23b00:	04c000f4 	movhi	r19,3
   23b04:	9cd6bc04 	addi	r19,r19,23280
   23b08:	9885883a 	add	r2,r19,r2
   23b0c:	14000117 	ldw	r16,4(r2)
   23b10:	10fffe04 	addi	r3,r2,-8
   23b14:	80c0cb26 	beq	r16,r3,23e44 <_malloc_r+0x398>
   23b18:	80800117 	ldw	r2,4(r16)
   23b1c:	81000317 	ldw	r4,12(r16)
   23b20:	00ffff04 	movi	r3,-4
   23b24:	10c4703a 	and	r2,r2,r3
   23b28:	81400217 	ldw	r5,8(r16)
   23b2c:	8085883a 	add	r2,r16,r2
   23b30:	10c00117 	ldw	r3,4(r2)
   23b34:	29000315 	stw	r4,12(r5)
   23b38:	21400215 	stw	r5,8(r4)
   23b3c:	18c00054 	ori	r3,r3,1
   23b40:	10c00115 	stw	r3,4(r2)
   23b44:	9009883a 	mov	r4,r18
   23b48:	00316e00 	call	316e0 <__malloc_unlock>
   23b4c:	80800204 	addi	r2,r16,8
   23b50:	dfc00917 	ldw	ra,36(sp)
   23b54:	df000817 	ldw	fp,32(sp)
   23b58:	ddc00717 	ldw	r23,28(sp)
   23b5c:	dd800617 	ldw	r22,24(sp)
   23b60:	dd400517 	ldw	r21,20(sp)
   23b64:	dd000417 	ldw	r20,16(sp)
   23b68:	dcc00317 	ldw	r19,12(sp)
   23b6c:	dc800217 	ldw	r18,8(sp)
   23b70:	dc400117 	ldw	r17,4(sp)
   23b74:	dc000017 	ldw	r16,0(sp)
   23b78:	dec00a04 	addi	sp,sp,40
   23b7c:	f800283a 	ret
   23b80:	00bffe04 	movi	r2,-8
   23b84:	88a2703a 	and	r17,r17,r2
   23b88:	88006616 	blt	r17,zero,23d24 <_malloc_r+0x278>
   23b8c:	89406536 	bltu	r17,r5,23d24 <_malloc_r+0x278>
   23b90:	00316bc0 	call	316bc <__malloc_lock>
   23b94:	88807e28 	cmpgeui	r2,r17,504
   23b98:	1000ef26 	beq	r2,zero,23f58 <_malloc_r+0x4ac>
   23b9c:	8804d27a 	srli	r2,r17,9
   23ba0:	10006426 	beq	r2,zero,23d34 <_malloc_r+0x288>
   23ba4:	10c00168 	cmpgeui	r3,r2,5
   23ba8:	1800c31e 	bne	r3,zero,23eb8 <_malloc_r+0x40c>
   23bac:	8804d1ba 	srli	r2,r17,6
   23bb0:	11c00e44 	addi	r7,r2,57
   23bb4:	380890fa 	slli	r4,r7,3
   23bb8:	12000e04 	addi	r8,r2,56
   23bbc:	04c000f4 	movhi	r19,3
   23bc0:	9cd6bc04 	addi	r19,r19,23280
   23bc4:	9909883a 	add	r4,r19,r4
   23bc8:	24000117 	ldw	r16,4(r4)
   23bcc:	213ffe04 	addi	r4,r4,-8
   23bd0:	24000b26 	beq	r4,r16,23c00 <_malloc_r+0x154>
   23bd4:	01bfff04 	movi	r6,-4
   23bd8:	00000306 	br	23be8 <_malloc_r+0x13c>
   23bdc:	1800970e 	bge	r3,zero,23e3c <_malloc_r+0x390>
   23be0:	84000317 	ldw	r16,12(r16)
   23be4:	24000626 	beq	r4,r16,23c00 <_malloc_r+0x154>
   23be8:	80800117 	ldw	r2,4(r16)
   23bec:	1184703a 	and	r2,r2,r6
   23bf0:	1447c83a 	sub	r3,r2,r17
   23bf4:	19400408 	cmpgei	r5,r3,16
   23bf8:	283ff826 	beq	r5,zero,23bdc <_malloc_r+0x130>
   23bfc:	400f883a 	mov	r7,r8
   23c00:	9c000417 	ldw	r16,16(r19)
   23c04:	024000f4 	movhi	r9,3
   23c08:	4a56be04 	addi	r9,r9,23288
   23c0c:	82407f26 	beq	r16,r9,23e0c <_malloc_r+0x360>
   23c10:	80800117 	ldw	r2,4(r16)
   23c14:	00ffff04 	movi	r3,-4
   23c18:	10c4703a 	and	r2,r2,r3
   23c1c:	1447c83a 	sub	r3,r2,r17
   23c20:	19000410 	cmplti	r4,r3,16
   23c24:	2000cf26 	beq	r4,zero,23f64 <_malloc_r+0x4b8>
   23c28:	9a400515 	stw	r9,20(r19)
   23c2c:	9a400415 	stw	r9,16(r19)
   23c30:	1800c10e 	bge	r3,zero,23f38 <_malloc_r+0x48c>
   23c34:	10c08028 	cmpgeui	r3,r2,512
   23c38:	99400117 	ldw	r5,4(r19)
   23c3c:	1800851e 	bne	r3,zero,23e54 <_malloc_r+0x3a8>
   23c40:	1006d0fa 	srli	r3,r2,3
   23c44:	1008d17a 	srli	r4,r2,5
   23c48:	18800044 	addi	r2,r3,1
   23c4c:	100490fa 	slli	r2,r2,3
   23c50:	00c00044 	movi	r3,1
   23c54:	1906983a 	sll	r3,r3,r4
   23c58:	9885883a 	add	r2,r19,r2
   23c5c:	11000017 	ldw	r4,0(r2)
   23c60:	28cab03a 	or	r5,r5,r3
   23c64:	10fffe04 	addi	r3,r2,-8
   23c68:	80c00315 	stw	r3,12(r16)
   23c6c:	81000215 	stw	r4,8(r16)
   23c70:	99400115 	stw	r5,4(r19)
   23c74:	14000015 	stw	r16,0(r2)
   23c78:	24000315 	stw	r16,12(r4)
   23c7c:	3805d0ba 	srai	r2,r7,2
   23c80:	01000044 	movi	r4,1
   23c84:	2088983a 	sll	r4,r4,r2
   23c88:	29002e36 	bltu	r5,r4,23d44 <_malloc_r+0x298>
   23c8c:	2144703a 	and	r2,r4,r5
   23c90:	10000a1e 	bne	r2,zero,23cbc <_malloc_r+0x210>
   23c94:	2109883a 	add	r4,r4,r4
   23c98:	00bfff04 	movi	r2,-4
   23c9c:	3884703a 	and	r2,r7,r2
   23ca0:	2146703a 	and	r3,r4,r5
   23ca4:	11c00104 	addi	r7,r2,4
   23ca8:	1800041e 	bne	r3,zero,23cbc <_malloc_r+0x210>
   23cac:	2109883a 	add	r4,r4,r4
   23cb0:	2144703a 	and	r2,r4,r5
   23cb4:	39c00104 	addi	r7,r7,4
   23cb8:	103ffc26 	beq	r2,zero,23cac <_malloc_r+0x200>
   23cbc:	02bfff04 	movi	r10,-4
   23cc0:	381690fa 	slli	r11,r7,3
   23cc4:	3819883a 	mov	r12,r7
   23cc8:	9ad7883a 	add	r11,r19,r11
   23ccc:	5811883a 	mov	r8,r11
   23cd0:	40800317 	ldw	r2,12(r8)
   23cd4:	40808126 	beq	r8,r2,23edc <_malloc_r+0x430>
   23cd8:	10c00117 	ldw	r3,4(r2)
   23cdc:	1021883a 	mov	r16,r2
   23ce0:	10800317 	ldw	r2,12(r2)
   23ce4:	1a86703a 	and	r3,r3,r10
   23ce8:	1c4bc83a 	sub	r5,r3,r17
   23cec:	29800410 	cmplti	r6,r5,16
   23cf0:	30007f26 	beq	r6,zero,23ef0 <_malloc_r+0x444>
   23cf4:	283ff716 	blt	r5,zero,23cd4 <_malloc_r+0x228>
   23cf8:	80c7883a 	add	r3,r16,r3
   23cfc:	19400117 	ldw	r5,4(r3)
   23d00:	81800217 	ldw	r6,8(r16)
   23d04:	9009883a 	mov	r4,r18
   23d08:	29400054 	ori	r5,r5,1
   23d0c:	19400115 	stw	r5,4(r3)
   23d10:	30800315 	stw	r2,12(r6)
   23d14:	11800215 	stw	r6,8(r2)
   23d18:	00316e00 	call	316e0 <__malloc_unlock>
   23d1c:	80800204 	addi	r2,r16,8
   23d20:	003f8b06 	br	23b50 <_malloc_r+0xa4>
   23d24:	00800304 	movi	r2,12
   23d28:	90800015 	stw	r2,0(r18)
   23d2c:	0005883a 	mov	r2,zero
   23d30:	003f8706 	br	23b50 <_malloc_r+0xa4>
   23d34:	01008004 	movi	r4,512
   23d38:	01c01004 	movi	r7,64
   23d3c:	02000fc4 	movi	r8,63
   23d40:	003f9e06 	br	23bbc <_malloc_r+0x110>
   23d44:	9c000217 	ldw	r16,8(r19)
   23d48:	00bfff04 	movi	r2,-4
   23d4c:	80c00117 	ldw	r3,4(r16)
   23d50:	18aa703a 	and	r21,r3,r2
   23d54:	ac400336 	bltu	r21,r17,23d64 <_malloc_r+0x2b8>
   23d58:	ac47c83a 	sub	r3,r21,r17
   23d5c:	18800408 	cmpgei	r2,r3,16
   23d60:	10002c1e 	bne	r2,zero,23e14 <_malloc_r+0x368>
   23d64:	008000f4 	movhi	r2,3
   23d68:	109cd117 	ldw	r2,29508(r2)
   23d6c:	00c00134 	movhi	r3,4
   23d70:	1d25f417 	ldw	r20,-26672(r3)
   23d74:	10bfffd8 	cmpnei	r2,r2,-1
   23d78:	856f883a 	add	r23,r16,r21
   23d7c:	8d29883a 	add	r20,r17,r20
   23d80:	1000e726 	beq	r2,zero,24120 <_malloc_r+0x674>
   23d84:	a50403c4 	addi	r20,r20,4111
   23d88:	00bc0004 	movi	r2,-4096
   23d8c:	a0a8703a 	and	r20,r20,r2
   23d90:	a00b883a 	mov	r5,r20
   23d94:	9009883a 	mov	r4,r18
   23d98:	00246f80 	call	246f8 <_sbrk_r>
   23d9c:	102d883a 	mov	r22,r2
   23da0:	10bfffd8 	cmpnei	r2,r2,-1
   23da4:	10008426 	beq	r2,zero,23fb8 <_malloc_r+0x50c>
   23da8:	b5c08236 	bltu	r22,r23,23fb4 <_malloc_r+0x508>
   23dac:	00800134 	movhi	r2,4
   23db0:	1125fe17 	ldw	r4,-26632(r2)
   23db4:	a109883a 	add	r4,r20,r4
   23db8:	1125fe15 	stw	r4,-26632(r2)
   23dbc:	2007883a 	mov	r3,r4
   23dc0:	bd80a51e 	bne	r23,r22,24058 <_malloc_r+0x5ac>
   23dc4:	b083ffcc 	andi	r2,r22,4095
   23dc8:	1000a31e 	bne	r2,zero,24058 <_malloc_r+0x5ac>
   23dcc:	9d800217 	ldw	r22,8(r19)
   23dd0:	ad07883a 	add	r3,r21,r20
   23dd4:	18c00054 	ori	r3,r3,1
   23dd8:	b0c00115 	stw	r3,4(r22)
   23ddc:	00800134 	movhi	r2,4
   23de0:	10a5f317 	ldw	r2,-26676(r2)
   23de4:	1100022e 	bgeu	r2,r4,23df0 <_malloc_r+0x344>
   23de8:	00800134 	movhi	r2,4
   23dec:	1125f315 	stw	r4,-26676(r2)
   23df0:	00800134 	movhi	r2,4
   23df4:	10a5f217 	ldw	r2,-26680(r2)
   23df8:	1100022e 	bgeu	r2,r4,23e04 <_malloc_r+0x358>
   23dfc:	00800134 	movhi	r2,4
   23e00:	1125f215 	stw	r4,-26680(r2)
   23e04:	b021883a 	mov	r16,r22
   23e08:	00006d06 	br	23fc0 <_malloc_r+0x514>
   23e0c:	99400117 	ldw	r5,4(r19)
   23e10:	003f9a06 	br	23c7c <_malloc_r+0x1d0>
   23e14:	88800054 	ori	r2,r17,1
   23e18:	80800115 	stw	r2,4(r16)
   23e1c:	8463883a 	add	r17,r16,r17
   23e20:	9c400215 	stw	r17,8(r19)
   23e24:	18c00054 	ori	r3,r3,1
   23e28:	88c00115 	stw	r3,4(r17)
   23e2c:	9009883a 	mov	r4,r18
   23e30:	00316e00 	call	316e0 <__malloc_unlock>
   23e34:	80800204 	addi	r2,r16,8
   23e38:	003f4506 	br	23b50 <_malloc_r+0xa4>
   23e3c:	81000317 	ldw	r4,12(r16)
   23e40:	003f3906 	br	23b28 <_malloc_r+0x7c>
   23e44:	14000317 	ldw	r16,12(r2)
   23e48:	143f331e 	bne	r2,r16,23b18 <_malloc_r+0x6c>
   23e4c:	39c00084 	addi	r7,r7,2
   23e50:	003f6b06 	br	23c00 <_malloc_r+0x154>
   23e54:	1006d27a 	srli	r3,r2,9
   23e58:	19000168 	cmpgeui	r4,r3,5
   23e5c:	20005026 	beq	r4,zero,23fa0 <_malloc_r+0x4f4>
   23e60:	19000568 	cmpgeui	r4,r3,21
   23e64:	2000c01e 	bne	r4,zero,24168 <_malloc_r+0x6bc>
   23e68:	19801704 	addi	r6,r3,92
   23e6c:	300c90fa 	slli	r6,r6,3
   23e70:	190016c4 	addi	r4,r3,91
   23e74:	998d883a 	add	r6,r19,r6
   23e78:	30c00017 	ldw	r3,0(r6)
   23e7c:	31bffe04 	addi	r6,r6,-8
   23e80:	30c0a926 	beq	r6,r3,24128 <_malloc_r+0x67c>
   23e84:	023fff04 	movi	r8,-4
   23e88:	00000206 	br	23e94 <_malloc_r+0x3e8>
   23e8c:	18c00217 	ldw	r3,8(r3)
   23e90:	30c00326 	beq	r6,r3,23ea0 <_malloc_r+0x3f4>
   23e94:	19000117 	ldw	r4,4(r3)
   23e98:	2208703a 	and	r4,r4,r8
   23e9c:	113ffb36 	bltu	r2,r4,23e8c <_malloc_r+0x3e0>
   23ea0:	19800317 	ldw	r6,12(r3)
   23ea4:	81800315 	stw	r6,12(r16)
   23ea8:	80c00215 	stw	r3,8(r16)
   23eac:	34000215 	stw	r16,8(r6)
   23eb0:	1c000315 	stw	r16,12(r3)
   23eb4:	003f7106 	br	23c7c <_malloc_r+0x1d0>
   23eb8:	10c00568 	cmpgeui	r3,r2,21
   23ebc:	18004926 	beq	r3,zero,23fe4 <_malloc_r+0x538>
   23ec0:	10c01568 	cmpgeui	r3,r2,85
   23ec4:	1800af1e 	bne	r3,zero,24184 <_malloc_r+0x6d8>
   23ec8:	8804d33a 	srli	r2,r17,12
   23ecc:	11c01bc4 	addi	r7,r2,111
   23ed0:	380890fa 	slli	r4,r7,3
   23ed4:	12001b84 	addi	r8,r2,110
   23ed8:	003f3806 	br	23bbc <_malloc_r+0x110>
   23edc:	63000044 	addi	r12,r12,1
   23ee0:	608000cc 	andi	r2,r12,3
   23ee4:	42000204 	addi	r8,r8,8
   23ee8:	103f791e 	bne	r2,zero,23cd0 <_malloc_r+0x224>
   23eec:	00004406 	br	24000 <_malloc_r+0x554>
   23ef0:	81000217 	ldw	r4,8(r16)
   23ef4:	89800054 	ori	r6,r17,1
   23ef8:	81800115 	stw	r6,4(r16)
   23efc:	20800315 	stw	r2,12(r4)
   23f00:	11000215 	stw	r4,8(r2)
   23f04:	8463883a 	add	r17,r16,r17
   23f08:	9c400515 	stw	r17,20(r19)
   23f0c:	9c400415 	stw	r17,16(r19)
   23f10:	28800054 	ori	r2,r5,1
   23f14:	88800115 	stw	r2,4(r17)
   23f18:	8a400315 	stw	r9,12(r17)
   23f1c:	8a400215 	stw	r9,8(r17)
   23f20:	80c7883a 	add	r3,r16,r3
   23f24:	19400015 	stw	r5,0(r3)
   23f28:	9009883a 	mov	r4,r18
   23f2c:	00316e00 	call	316e0 <__malloc_unlock>
   23f30:	80800204 	addi	r2,r16,8
   23f34:	003f0606 	br	23b50 <_malloc_r+0xa4>
   23f38:	8085883a 	add	r2,r16,r2
   23f3c:	10c00117 	ldw	r3,4(r2)
   23f40:	9009883a 	mov	r4,r18
   23f44:	18c00054 	ori	r3,r3,1
   23f48:	10c00115 	stw	r3,4(r2)
   23f4c:	00316e00 	call	316e0 <__malloc_unlock>
   23f50:	80800204 	addi	r2,r16,8
   23f54:	003efe06 	br	23b50 <_malloc_r+0xa4>
   23f58:	880ed0fa 	srli	r7,r17,3
   23f5c:	88800204 	addi	r2,r17,8
   23f60:	003ee706 	br	23b00 <_malloc_r+0x54>
   23f64:	89000054 	ori	r4,r17,1
   23f68:	81000115 	stw	r4,4(r16)
   23f6c:	8463883a 	add	r17,r16,r17
   23f70:	9c400515 	stw	r17,20(r19)
   23f74:	9c400415 	stw	r17,16(r19)
   23f78:	19000054 	ori	r4,r3,1
   23f7c:	89000115 	stw	r4,4(r17)
   23f80:	8085883a 	add	r2,r16,r2
   23f84:	8a400315 	stw	r9,12(r17)
   23f88:	8a400215 	stw	r9,8(r17)
   23f8c:	10c00015 	stw	r3,0(r2)
   23f90:	9009883a 	mov	r4,r18
   23f94:	00316e00 	call	316e0 <__malloc_unlock>
   23f98:	80800204 	addi	r2,r16,8
   23f9c:	003eec06 	br	23b50 <_malloc_r+0xa4>
   23fa0:	1006d1ba 	srli	r3,r2,6
   23fa4:	19800e44 	addi	r6,r3,57
   23fa8:	300c90fa 	slli	r6,r6,3
   23fac:	19000e04 	addi	r4,r3,56
   23fb0:	003fb006 	br	23e74 <_malloc_r+0x3c8>
   23fb4:	84c02426 	beq	r16,r19,24048 <_malloc_r+0x59c>
   23fb8:	9c000217 	ldw	r16,8(r19)
   23fbc:	80c00117 	ldw	r3,4(r16)
   23fc0:	00bfff04 	movi	r2,-4
   23fc4:	1884703a 	and	r2,r3,r2
   23fc8:	1447c83a 	sub	r3,r2,r17
   23fcc:	14400236 	bltu	r2,r17,23fd8 <_malloc_r+0x52c>
   23fd0:	18800408 	cmpgei	r2,r3,16
   23fd4:	103f8f1e 	bne	r2,zero,23e14 <_malloc_r+0x368>
   23fd8:	9009883a 	mov	r4,r18
   23fdc:	00316e00 	call	316e0 <__malloc_unlock>
   23fe0:	003f5206 	br	23d2c <_malloc_r+0x280>
   23fe4:	11c01704 	addi	r7,r2,92
   23fe8:	380890fa 	slli	r4,r7,3
   23fec:	120016c4 	addi	r8,r2,91
   23ff0:	003ef206 	br	23bbc <_malloc_r+0x110>
   23ff4:	58800217 	ldw	r2,8(r11)
   23ff8:	39ffffc4 	addi	r7,r7,-1
   23ffc:	12c0961e 	bne	r2,r11,24258 <_malloc_r+0x7ac>
   24000:	388000cc 	andi	r2,r7,3
   24004:	5afffe04 	addi	r11,r11,-8
   24008:	103ffa1e 	bne	r2,zero,23ff4 <_malloc_r+0x548>
   2400c:	98c00117 	ldw	r3,4(r19)
   24010:	0104303a 	nor	r2,zero,r4
   24014:	10c4703a 	and	r2,r2,r3
   24018:	98800115 	stw	r2,4(r19)
   2401c:	2109883a 	add	r4,r4,r4
   24020:	113f4836 	bltu	r2,r4,23d44 <_malloc_r+0x298>
   24024:	203f4726 	beq	r4,zero,23d44 <_malloc_r+0x298>
   24028:	2086703a 	and	r3,r4,r2
   2402c:	1800041e 	bne	r3,zero,24040 <_malloc_r+0x594>
   24030:	2109883a 	add	r4,r4,r4
   24034:	2086703a 	and	r3,r4,r2
   24038:	63000104 	addi	r12,r12,4
   2403c:	183ffc26 	beq	r3,zero,24030 <_malloc_r+0x584>
   24040:	600f883a 	mov	r7,r12
   24044:	003f1e06 	br	23cc0 <_malloc_r+0x214>
   24048:	00800134 	movhi	r2,4
   2404c:	10e5fe17 	ldw	r3,-26632(r2)
   24050:	a0c7883a 	add	r3,r20,r3
   24054:	10e5fe15 	stw	r3,-26632(r2)
   24058:	008000f4 	movhi	r2,3
   2405c:	109cd117 	ldw	r2,29508(r2)
   24060:	10bfffd8 	cmpnei	r2,r2,-1
   24064:	10004e26 	beq	r2,zero,241a0 <_malloc_r+0x6f4>
   24068:	b5c5c83a 	sub	r2,r22,r23
   2406c:	10c5883a 	add	r2,r2,r3
   24070:	00c00134 	movhi	r3,4
   24074:	18a5fe15 	stw	r2,-26632(r3)
   24078:	b70001cc 	andi	fp,r22,7
   2407c:	e0003026 	beq	fp,zero,24140 <_malloc_r+0x694>
   24080:	b72dc83a 	sub	r22,r22,fp
   24084:	b5800204 	addi	r22,r22,8
   24088:	01040204 	movi	r4,4104
   2408c:	2709c83a 	sub	r4,r4,fp
   24090:	b529883a 	add	r20,r22,r20
   24094:	2509c83a 	sub	r4,r4,r20
   24098:	25c3ffcc 	andi	r23,r4,4095
   2409c:	b80b883a 	mov	r5,r23
   240a0:	9009883a 	mov	r4,r18
   240a4:	00246f80 	call	246f8 <_sbrk_r>
   240a8:	10ffffe0 	cmpeqi	r3,r2,-1
   240ac:	1800501e 	bne	r3,zero,241f0 <_malloc_r+0x744>
   240b0:	1585c83a 	sub	r2,r2,r22
   240b4:	15e9883a 	add	r20,r2,r23
   240b8:	00800134 	movhi	r2,4
   240bc:	10a5fe17 	ldw	r2,-26632(r2)
   240c0:	9d800215 	stw	r22,8(r19)
   240c4:	a0c00054 	ori	r3,r20,1
   240c8:	b889883a 	add	r4,r23,r2
   240cc:	00800134 	movhi	r2,4
   240d0:	1125fe15 	stw	r4,-26632(r2)
   240d4:	b0c00115 	stw	r3,4(r22)
   240d8:	84ff4026 	beq	r16,r19,23ddc <_malloc_r+0x330>
   240dc:	a8800428 	cmpgeui	r2,r21,16
   240e0:	10003226 	beq	r2,zero,241ac <_malloc_r+0x700>
   240e4:	80800117 	ldw	r2,4(r16)
   240e8:	017ffe04 	movi	r5,-8
   240ec:	a8fffd04 	addi	r3,r21,-12
   240f0:	1946703a 	and	r3,r3,r5
   240f4:	1080004c 	andi	r2,r2,1
   240f8:	10c4b03a 	or	r2,r2,r3
   240fc:	80800115 	stw	r2,4(r16)
   24100:	01400144 	movi	r5,5
   24104:	80c5883a 	add	r2,r16,r3
   24108:	11400115 	stw	r5,4(r2)
   2410c:	11400215 	stw	r5,8(r2)
   24110:	18c00428 	cmpgeui	r3,r3,16
   24114:	18003b1e 	bne	r3,zero,24204 <_malloc_r+0x758>
   24118:	b0c00117 	ldw	r3,4(r22)
   2411c:	003f2f06 	br	23ddc <_malloc_r+0x330>
   24120:	a5000404 	addi	r20,r20,16
   24124:	003f1a06 	br	23d90 <_malloc_r+0x2e4>
   24128:	2009d0ba 	srai	r4,r4,2
   2412c:	00800044 	movi	r2,1
   24130:	1104983a 	sll	r2,r2,r4
   24134:	288ab03a 	or	r5,r5,r2
   24138:	99400115 	stw	r5,4(r19)
   2413c:	003f5906 	br	23ea4 <_malloc_r+0x3f8>
   24140:	b509883a 	add	r4,r22,r20
   24144:	0109c83a 	sub	r4,zero,r4
   24148:	25c3ffcc 	andi	r23,r4,4095
   2414c:	b80b883a 	mov	r5,r23
   24150:	9009883a 	mov	r4,r18
   24154:	00246f80 	call	246f8 <_sbrk_r>
   24158:	10ffffe0 	cmpeqi	r3,r2,-1
   2415c:	183fd426 	beq	r3,zero,240b0 <_malloc_r+0x604>
   24160:	002f883a 	mov	r23,zero
   24164:	003fd406 	br	240b8 <_malloc_r+0x60c>
   24168:	19001568 	cmpgeui	r4,r3,85
   2416c:	2000121e 	bne	r4,zero,241b8 <_malloc_r+0x70c>
   24170:	1006d33a 	srli	r3,r2,12
   24174:	19801bc4 	addi	r6,r3,111
   24178:	300c90fa 	slli	r6,r6,3
   2417c:	19001b84 	addi	r4,r3,110
   24180:	003f3c06 	br	23e74 <_malloc_r+0x3c8>
   24184:	10c05568 	cmpgeui	r3,r2,341
   24188:	1800121e 	bne	r3,zero,241d4 <_malloc_r+0x728>
   2418c:	8804d3fa 	srli	r2,r17,15
   24190:	11c01e04 	addi	r7,r2,120
   24194:	380890fa 	slli	r4,r7,3
   24198:	12001dc4 	addi	r8,r2,119
   2419c:	003e8706 	br	23bbc <_malloc_r+0x110>
   241a0:	008000f4 	movhi	r2,3
   241a4:	159cd115 	stw	r22,29508(r2)
   241a8:	003fb306 	br	24078 <_malloc_r+0x5cc>
   241ac:	00800044 	movi	r2,1
   241b0:	b0800115 	stw	r2,4(r22)
   241b4:	003f8806 	br	23fd8 <_malloc_r+0x52c>
   241b8:	19005568 	cmpgeui	r4,r3,341
   241bc:	2000181e 	bne	r4,zero,24220 <_malloc_r+0x774>
   241c0:	1006d3fa 	srli	r3,r2,15
   241c4:	19801e04 	addi	r6,r3,120
   241c8:	300c90fa 	slli	r6,r6,3
   241cc:	19001dc4 	addi	r4,r3,119
   241d0:	003f2806 	br	23e74 <_malloc_r+0x3c8>
   241d4:	10815568 	cmpgeui	r2,r2,1365
   241d8:	1000181e 	bne	r2,zero,2423c <_malloc_r+0x790>
   241dc:	8804d4ba 	srli	r2,r17,18
   241e0:	11c01f44 	addi	r7,r2,125
   241e4:	380890fa 	slli	r4,r7,3
   241e8:	12001f04 	addi	r8,r2,124
   241ec:	003e7306 	br	23bbc <_malloc_r+0x110>
   241f0:	e73ffe04 	addi	fp,fp,-8
   241f4:	a729883a 	add	r20,r20,fp
   241f8:	a5a9c83a 	sub	r20,r20,r22
   241fc:	002f883a 	mov	r23,zero
   24200:	003fad06 	br	240b8 <_malloc_r+0x60c>
   24204:	9009883a 	mov	r4,r18
   24208:	81400204 	addi	r5,r16,8
   2420c:	00291e00 	call	291e0 <_free_r>
   24210:	00800134 	movhi	r2,4
   24214:	9d800217 	ldw	r22,8(r19)
   24218:	1125fe17 	ldw	r4,-26632(r2)
   2421c:	003fbe06 	br	24118 <_malloc_r+0x66c>
   24220:	18c15568 	cmpgeui	r3,r3,1365
   24224:	1800091e 	bne	r3,zero,2424c <_malloc_r+0x7a0>
   24228:	1006d4ba 	srli	r3,r2,18
   2422c:	19801f44 	addi	r6,r3,125
   24230:	300c90fa 	slli	r6,r6,3
   24234:	19001f04 	addi	r4,r3,124
   24238:	003f0e06 	br	23e74 <_malloc_r+0x3c8>
   2423c:	0100fe04 	movi	r4,1016
   24240:	01c01fc4 	movi	r7,127
   24244:	02001f84 	movi	r8,126
   24248:	003e5c06 	br	23bbc <_malloc_r+0x110>
   2424c:	0180fe04 	movi	r6,1016
   24250:	01001f84 	movi	r4,126
   24254:	003f0706 	br	23e74 <_malloc_r+0x3c8>
   24258:	98800117 	ldw	r2,4(r19)
   2425c:	003f6f06 	br	2401c <_malloc_r+0x570>

00024260 <memset>:
   24260:	20c000cc 	andi	r3,r4,3
   24264:	2005883a 	mov	r2,r4
   24268:	18003626 	beq	r3,zero,24344 <memset+0xe4>
   2426c:	31ffffc4 	addi	r7,r6,-1
   24270:	30003226 	beq	r6,zero,2433c <memset+0xdc>
   24274:	2811883a 	mov	r8,r5
   24278:	2007883a 	mov	r3,r4
   2427c:	00000306 	br	2428c <memset+0x2c>
   24280:	39ffffc4 	addi	r7,r7,-1
   24284:	39bfffe0 	cmpeqi	r6,r7,-1
   24288:	30002c1e 	bne	r6,zero,2433c <memset+0xdc>
   2428c:	18c00044 	addi	r3,r3,1
   24290:	198000cc 	andi	r6,r3,3
   24294:	1a3fffc5 	stb	r8,-1(r3)
   24298:	303ff91e 	bne	r6,zero,24280 <memset+0x20>
   2429c:	39000128 	cmpgeui	r4,r7,4
   242a0:	20002126 	beq	r4,zero,24328 <memset+0xc8>
   242a4:	02004074 	movhi	r8,257
   242a8:	29803fcc 	andi	r6,r5,255
   242ac:	42004044 	addi	r8,r8,257
   242b0:	39000430 	cmpltui	r4,r7,16
   242b4:	320d383a 	mul	r6,r6,r8
   242b8:	2000251e 	bne	r4,zero,24350 <memset+0xf0>
   242bc:	393ffc04 	addi	r4,r7,-16
   242c0:	2008d13a 	srli	r4,r4,4
   242c4:	21000044 	addi	r4,r4,1
   242c8:	2008913a 	slli	r4,r4,4
   242cc:	1909883a 	add	r4,r3,r4
   242d0:	19800015 	stw	r6,0(r3)
   242d4:	19800115 	stw	r6,4(r3)
   242d8:	19800215 	stw	r6,8(r3)
   242dc:	19800315 	stw	r6,12(r3)
   242e0:	18c00404 	addi	r3,r3,16
   242e4:	193ffa1e 	bne	r3,r4,242d0 <memset+0x70>
   242e8:	3a00030c 	andi	r8,r7,12
   242ec:	39c003cc 	andi	r7,r7,15
   242f0:	40000d26 	beq	r8,zero,24328 <memset+0xc8>
   242f4:	2007883a 	mov	r3,r4
   242f8:	21d3883a 	add	r9,r4,r7
   242fc:	18c00104 	addi	r3,r3,4
   24300:	48d1c83a 	sub	r8,r9,r3
   24304:	42000128 	cmpgeui	r8,r8,4
   24308:	19bfff15 	stw	r6,-4(r3)
   2430c:	403ffb1e 	bne	r8,zero,242fc <memset+0x9c>
   24310:	38ffff04 	addi	r3,r7,-4
   24314:	1806d0ba 	srli	r3,r3,2
   24318:	39c000cc 	andi	r7,r7,3
   2431c:	18c00044 	addi	r3,r3,1
   24320:	180690ba 	slli	r3,r3,2
   24324:	20c7883a 	add	r3,r4,r3
   24328:	38000526 	beq	r7,zero,24340 <memset+0xe0>
   2432c:	19cf883a 	add	r7,r3,r7
   24330:	18c00044 	addi	r3,r3,1
   24334:	197fffc5 	stb	r5,-1(r3)
   24338:	38fffd1e 	bne	r7,r3,24330 <memset+0xd0>
   2433c:	f800283a 	ret
   24340:	f800283a 	ret
   24344:	2007883a 	mov	r3,r4
   24348:	300f883a 	mov	r7,r6
   2434c:	003fd306 	br	2429c <memset+0x3c>
   24350:	1809883a 	mov	r4,r3
   24354:	003fe706 	br	242f4 <memset+0x94>

00024358 <_open_r>:
   24358:	2807883a 	mov	r3,r5
   2435c:	defffe04 	addi	sp,sp,-8
   24360:	dc000015 	stw	r16,0(sp)
   24364:	300b883a 	mov	r5,r6
   24368:	00800134 	movhi	r2,4
   2436c:	380d883a 	mov	r6,r7
   24370:	2021883a 	mov	r16,r4
   24374:	1809883a 	mov	r4,r3
   24378:	dfc00115 	stw	ra,4(sp)
   2437c:	1025f115 	stw	zero,-26684(r2)
   24380:	00317f80 	call	317f8 <open>
   24384:	10ffffd8 	cmpnei	r3,r2,-1
   24388:	18000426 	beq	r3,zero,2439c <_open_r+0x44>
   2438c:	dfc00117 	ldw	ra,4(sp)
   24390:	dc000017 	ldw	r16,0(sp)
   24394:	dec00204 	addi	sp,sp,8
   24398:	f800283a 	ret
   2439c:	00c00134 	movhi	r3,4
   243a0:	18e5f117 	ldw	r3,-26684(r3)
   243a4:	183ff926 	beq	r3,zero,2438c <_open_r+0x34>
   243a8:	80c00015 	stw	r3,0(r16)
   243ac:	dfc00117 	ldw	ra,4(sp)
   243b0:	dc000017 	ldw	r16,0(sp)
   243b4:	dec00204 	addi	sp,sp,8
   243b8:	f800283a 	ret

000243bc <_printf_r>:
   243bc:	defffd04 	addi	sp,sp,-12
   243c0:	2805883a 	mov	r2,r5
   243c4:	dfc00015 	stw	ra,0(sp)
   243c8:	d9800115 	stw	r6,4(sp)
   243cc:	d9c00215 	stw	r7,8(sp)
   243d0:	21400217 	ldw	r5,8(r4)
   243d4:	d9c00104 	addi	r7,sp,4
   243d8:	100d883a 	mov	r6,r2
   243dc:	00249280 	call	24928 <___vfprintf_internal_r>
   243e0:	dfc00017 	ldw	ra,0(sp)
   243e4:	dec00304 	addi	sp,sp,12
   243e8:	f800283a 	ret

000243ec <printf>:
   243ec:	defffc04 	addi	sp,sp,-16
   243f0:	dfc00015 	stw	ra,0(sp)
   243f4:	d9400115 	stw	r5,4(sp)
   243f8:	d9800215 	stw	r6,8(sp)
   243fc:	d9c00315 	stw	r7,12(sp)
   24400:	008000f4 	movhi	r2,3
   24404:	109cd017 	ldw	r2,29504(r2)
   24408:	200b883a 	mov	r5,r4
   2440c:	d9800104 	addi	r6,sp,4
   24410:	11000217 	ldw	r4,8(r2)
   24414:	0026cd00 	call	26cd0 <__vfprintf_internal>
   24418:	dfc00017 	ldw	ra,0(sp)
   2441c:	dec00404 	addi	sp,sp,16
   24420:	f800283a 	ret

00024424 <_putchar_r>:
   24424:	21800217 	ldw	r6,8(r4)
   24428:	002b1001 	jmpi	2b100 <_putc_r>

0002442c <putchar>:
   2442c:	008000f4 	movhi	r2,3
   24430:	109cd017 	ldw	r2,29504(r2)
   24434:	200b883a 	mov	r5,r4
   24438:	11800217 	ldw	r6,8(r2)
   2443c:	1009883a 	mov	r4,r2
   24440:	002b1001 	jmpi	2b100 <_putc_r>

00024444 <_puts_r>:
   24444:	defff504 	addi	sp,sp,-44
   24448:	dc000815 	stw	r16,32(sp)
   2444c:	2021883a 	mov	r16,r4
   24450:	2809883a 	mov	r4,r5
   24454:	dc400915 	stw	r17,36(sp)
   24458:	dfc00a15 	stw	ra,40(sp)
   2445c:	2823883a 	mov	r17,r5
   24460:	00248900 	call	24890 <strlen>
   24464:	11000044 	addi	r4,r2,1
   24468:	d8800515 	stw	r2,20(sp)
   2446c:	00800044 	movi	r2,1
   24470:	00c000f4 	movhi	r3,3
   24474:	d8800715 	stw	r2,28(sp)
   24478:	d8800404 	addi	r2,sp,16
   2447c:	18d23404 	addi	r3,r3,18640
   24480:	d8800115 	stw	r2,4(sp)
   24484:	00800084 	movi	r2,2
   24488:	dc400415 	stw	r17,16(sp)
   2448c:	d8c00615 	stw	r3,24(sp)
   24490:	d9000315 	stw	r4,12(sp)
   24494:	d8800215 	stw	r2,8(sp)
   24498:	81400217 	ldw	r5,8(r16)
   2449c:	80000226 	beq	r16,zero,244a8 <_puts_r+0x64>
   244a0:	80800e17 	ldw	r2,56(r16)
   244a4:	10001426 	beq	r2,zero,244f8 <_puts_r+0xb4>
   244a8:	2880030b 	ldhu	r2,12(r5)
   244ac:	10c8000c 	andi	r3,r2,8192
   244b0:	1800061e 	bne	r3,zero,244cc <_puts_r+0x88>
   244b4:	28c01917 	ldw	r3,100(r5)
   244b8:	0137ffc4 	movi	r4,-8193
   244bc:	10880014 	ori	r2,r2,8192
   244c0:	1906703a 	and	r3,r3,r4
   244c4:	2880030d 	sth	r2,12(r5)
   244c8:	28c01915 	stw	r3,100(r5)
   244cc:	d9800104 	addi	r6,sp,4
   244d0:	8009883a 	mov	r4,r16
   244d4:	00294e80 	call	294e8 <__sfvwrite_r>
   244d8:	1007883a 	mov	r3,r2
   244dc:	00800284 	movi	r2,10
   244e0:	18000a1e 	bne	r3,zero,2450c <_puts_r+0xc8>
   244e4:	dfc00a17 	ldw	ra,40(sp)
   244e8:	dc400917 	ldw	r17,36(sp)
   244ec:	dc000817 	ldw	r16,32(sp)
   244f0:	dec00b04 	addi	sp,sp,44
   244f4:	f800283a 	ret
   244f8:	8009883a 	mov	r4,r16
   244fc:	d9400015 	stw	r5,0(sp)
   24500:	0028fbc0 	call	28fbc <__sinit>
   24504:	d9400017 	ldw	r5,0(sp)
   24508:	003fe706 	br	244a8 <_puts_r+0x64>
   2450c:	00bfffc4 	movi	r2,-1
   24510:	003ff406 	br	244e4 <_puts_r+0xa0>

00024514 <puts>:
   24514:	008000f4 	movhi	r2,3
   24518:	200b883a 	mov	r5,r4
   2451c:	111cd017 	ldw	r4,29504(r2)
   24520:	00244441 	jmpi	24444 <_puts_r>

00024524 <lflush>:
   24524:	2080030b 	ldhu	r2,12(r4)
   24528:	1080024c 	andi	r2,r2,9
   2452c:	10800258 	cmpnei	r2,r2,9
   24530:	10000226 	beq	r2,zero,2453c <lflush+0x18>
   24534:	0005883a 	mov	r2,zero
   24538:	f800283a 	ret
   2453c:	0028c041 	jmpi	28c04 <fflush>

00024540 <__srefill_r>:
   24540:	defffc04 	addi	sp,sp,-16
   24544:	dc400115 	stw	r17,4(sp)
   24548:	dc000015 	stw	r16,0(sp)
   2454c:	dfc00315 	stw	ra,12(sp)
   24550:	dc800215 	stw	r18,8(sp)
   24554:	2023883a 	mov	r17,r4
   24558:	2821883a 	mov	r16,r5
   2455c:	20000226 	beq	r4,zero,24568 <__srefill_r+0x28>
   24560:	20800e17 	ldw	r2,56(r4)
   24564:	10003726 	beq	r2,zero,24644 <__srefill_r+0x104>
   24568:	8080030b 	ldhu	r2,12(r16)
   2456c:	10c8000c 	andi	r3,r2,8192
   24570:	1800071e 	bne	r3,zero,24590 <__srefill_r+0x50>
   24574:	80c01917 	ldw	r3,100(r16)
   24578:	11080014 	ori	r4,r2,8192
   2457c:	00b7ffc4 	movi	r2,-8193
   24580:	1886703a 	and	r3,r3,r2
   24584:	8100030d 	sth	r4,12(r16)
   24588:	2005883a 	mov	r2,r4
   2458c:	80c01915 	stw	r3,100(r16)
   24590:	80000115 	stw	zero,4(r16)
   24594:	10c0080c 	andi	r3,r2,32
   24598:	18004c1e 	bne	r3,zero,246cc <__srefill_r+0x18c>
   2459c:	10c0010c 	andi	r3,r2,4
   245a0:	18001b1e 	bne	r3,zero,24610 <__srefill_r+0xd0>
   245a4:	10c0040c 	andi	r3,r2,16
   245a8:	18004a26 	beq	r3,zero,246d4 <__srefill_r+0x194>
   245ac:	10c0020c 	andi	r3,r2,8
   245b0:	1800351e 	bne	r3,zero,24688 <__srefill_r+0x148>
   245b4:	10800114 	ori	r2,r2,4
   245b8:	8080030d 	sth	r2,12(r16)
   245bc:	80800417 	ldw	r2,16(r16)
   245c0:	10003a26 	beq	r2,zero,246ac <__srefill_r+0x16c>
   245c4:	8480030b 	ldhu	r18,12(r16)
   245c8:	908000cc 	andi	r2,r18,3
   245cc:	10001f1e 	bne	r2,zero,2464c <__srefill_r+0x10c>
   245d0:	81800417 	ldw	r6,16(r16)
   245d4:	80800817 	ldw	r2,32(r16)
   245d8:	81c00517 	ldw	r7,20(r16)
   245dc:	81400717 	ldw	r5,28(r16)
   245e0:	81800015 	stw	r6,0(r16)
   245e4:	8809883a 	mov	r4,r17
   245e8:	103ee83a 	callr	r2
   245ec:	80800115 	stw	r2,4(r16)
   245f0:	0080320e 	bge	zero,r2,246bc <__srefill_r+0x17c>
   245f4:	0005883a 	mov	r2,zero
   245f8:	dfc00317 	ldw	ra,12(sp)
   245fc:	dc800217 	ldw	r18,8(sp)
   24600:	dc400117 	ldw	r17,4(sp)
   24604:	dc000017 	ldw	r16,0(sp)
   24608:	dec00404 	addi	sp,sp,16
   2460c:	f800283a 	ret
   24610:	81400c17 	ldw	r5,48(r16)
   24614:	283fe926 	beq	r5,zero,245bc <__srefill_r+0x7c>
   24618:	80801004 	addi	r2,r16,64
   2461c:	28800226 	beq	r5,r2,24628 <__srefill_r+0xe8>
   24620:	8809883a 	mov	r4,r17
   24624:	00291e00 	call	291e0 <_free_r>
   24628:	80800f17 	ldw	r2,60(r16)
   2462c:	80000c15 	stw	zero,48(r16)
   24630:	80800115 	stw	r2,4(r16)
   24634:	103fe126 	beq	r2,zero,245bc <__srefill_r+0x7c>
   24638:	80800e17 	ldw	r2,56(r16)
   2463c:	80800015 	stw	r2,0(r16)
   24640:	003fec06 	br	245f4 <__srefill_r+0xb4>
   24644:	0028fbc0 	call	28fbc <__sinit>
   24648:	003fc706 	br	24568 <__srefill_r+0x28>
   2464c:	008000f4 	movhi	r2,3
   24650:	111ccf17 	ldw	r4,29500(r2)
   24654:	014000b4 	movhi	r5,2
   24658:	00800044 	movi	r2,1
   2465c:	8080030d 	sth	r2,12(r16)
   24660:	29514904 	addi	r5,r5,17700
   24664:	002998c0 	call	2998c <_fwalk>
   24668:	9080024c 	andi	r2,r18,9
   2466c:	8480030d 	sth	r18,12(r16)
   24670:	10800258 	cmpnei	r2,r2,9
   24674:	103fd61e 	bne	r2,zero,245d0 <__srefill_r+0x90>
   24678:	800b883a 	mov	r5,r16
   2467c:	8809883a 	mov	r4,r17
   24680:	002899c0 	call	2899c <__sflush_r>
   24684:	003fd206 	br	245d0 <__srefill_r+0x90>
   24688:	800b883a 	mov	r5,r16
   2468c:	8809883a 	mov	r4,r17
   24690:	0028ba40 	call	28ba4 <_fflush_r>
   24694:	10000d1e 	bne	r2,zero,246cc <__srefill_r+0x18c>
   24698:	8080030b 	ldhu	r2,12(r16)
   2469c:	80000215 	stw	zero,8(r16)
   246a0:	80000615 	stw	zero,24(r16)
   246a4:	10bffdcc 	andi	r2,r2,65527
   246a8:	003fc206 	br	245b4 <__srefill_r+0x74>
   246ac:	800b883a 	mov	r5,r16
   246b0:	8809883a 	mov	r4,r17
   246b4:	00238600 	call	23860 <__smakebuf_r>
   246b8:	003fc206 	br	245c4 <__srefill_r+0x84>
   246bc:	80c0030b 	ldhu	r3,12(r16)
   246c0:	1000091e 	bne	r2,zero,246e8 <__srefill_r+0x1a8>
   246c4:	18c00814 	ori	r3,r3,32
   246c8:	80c0030d 	sth	r3,12(r16)
   246cc:	00bfffc4 	movi	r2,-1
   246d0:	003fc906 	br	245f8 <__srefill_r+0xb8>
   246d4:	00c00244 	movi	r3,9
   246d8:	88c00015 	stw	r3,0(r17)
   246dc:	10801014 	ori	r2,r2,64
   246e0:	8080030d 	sth	r2,12(r16)
   246e4:	003ff906 	br	246cc <__srefill_r+0x18c>
   246e8:	18c01014 	ori	r3,r3,64
   246ec:	80000115 	stw	zero,4(r16)
   246f0:	80c0030d 	sth	r3,12(r16)
   246f4:	003ff506 	br	246cc <__srefill_r+0x18c>

000246f8 <_sbrk_r>:
   246f8:	defffe04 	addi	sp,sp,-8
   246fc:	dc000015 	stw	r16,0(sp)
   24700:	00800134 	movhi	r2,4
   24704:	2021883a 	mov	r16,r4
   24708:	2809883a 	mov	r4,r5
   2470c:	dfc00115 	stw	ra,4(sp)
   24710:	1025f115 	stw	zero,-26684(r2)
   24714:	0031adc0 	call	31adc <sbrk>
   24718:	10ffffd8 	cmpnei	r3,r2,-1
   2471c:	18000426 	beq	r3,zero,24730 <_sbrk_r+0x38>
   24720:	dfc00117 	ldw	ra,4(sp)
   24724:	dc000017 	ldw	r16,0(sp)
   24728:	dec00204 	addi	sp,sp,8
   2472c:	f800283a 	ret
   24730:	00c00134 	movhi	r3,4
   24734:	18e5f117 	ldw	r3,-26684(r3)
   24738:	183ff926 	beq	r3,zero,24720 <_sbrk_r+0x28>
   2473c:	80c00015 	stw	r3,0(r16)
   24740:	dfc00117 	ldw	ra,4(sp)
   24744:	dc000017 	ldw	r16,0(sp)
   24748:	dec00204 	addi	sp,sp,8
   2474c:	f800283a 	ret

00024750 <__sread>:
   24750:	defffe04 	addi	sp,sp,-8
   24754:	dc000015 	stw	r16,0(sp)
   24758:	2821883a 	mov	r16,r5
   2475c:	2940038f 	ldh	r5,14(r5)
   24760:	dfc00115 	stw	ra,4(sp)
   24764:	002b2ac0 	call	2b2ac <_read_r>
   24768:	10000716 	blt	r2,zero,24788 <__sread+0x38>
   2476c:	80c01417 	ldw	r3,80(r16)
   24770:	1887883a 	add	r3,r3,r2
   24774:	80c01415 	stw	r3,80(r16)
   24778:	dfc00117 	ldw	ra,4(sp)
   2477c:	dc000017 	ldw	r16,0(sp)
   24780:	dec00204 	addi	sp,sp,8
   24784:	f800283a 	ret
   24788:	80c0030b 	ldhu	r3,12(r16)
   2478c:	18fbffcc 	andi	r3,r3,61439
   24790:	80c0030d 	sth	r3,12(r16)
   24794:	dfc00117 	ldw	ra,4(sp)
   24798:	dc000017 	ldw	r16,0(sp)
   2479c:	dec00204 	addi	sp,sp,8
   247a0:	f800283a 	ret

000247a4 <__seofread>:
   247a4:	0005883a 	mov	r2,zero
   247a8:	f800283a 	ret

000247ac <__swrite>:
   247ac:	2880030b 	ldhu	r2,12(r5)
   247b0:	defffb04 	addi	sp,sp,-20
   247b4:	dcc00315 	stw	r19,12(sp)
   247b8:	dc800215 	stw	r18,8(sp)
   247bc:	dc400115 	stw	r17,4(sp)
   247c0:	dc000015 	stw	r16,0(sp)
   247c4:	dfc00415 	stw	ra,16(sp)
   247c8:	10c0400c 	andi	r3,r2,256
   247cc:	2821883a 	mov	r16,r5
   247d0:	2023883a 	mov	r17,r4
   247d4:	3025883a 	mov	r18,r6
   247d8:	3827883a 	mov	r19,r7
   247dc:	18000d1e 	bne	r3,zero,24814 <__swrite+0x68>
   247e0:	8140038f 	ldh	r5,14(r16)
   247e4:	10bbffcc 	andi	r2,r2,61439
   247e8:	980f883a 	mov	r7,r19
   247ec:	900d883a 	mov	r6,r18
   247f0:	8809883a 	mov	r4,r17
   247f4:	8080030d 	sth	r2,12(r16)
   247f8:	dfc00417 	ldw	ra,16(sp)
   247fc:	dcc00317 	ldw	r19,12(sp)
   24800:	dc800217 	ldw	r18,8(sp)
   24804:	dc400117 	ldw	r17,4(sp)
   24808:	dc000017 	ldw	r16,0(sp)
   2480c:	dec00504 	addi	sp,sp,20
   24810:	0026db01 	jmpi	26db0 <_write_r>
   24814:	2940038f 	ldh	r5,14(r5)
   24818:	01c00084 	movi	r7,2
   2481c:	000d883a 	mov	r6,zero
   24820:	0029c500 	call	29c50 <_lseek_r>
   24824:	8080030b 	ldhu	r2,12(r16)
   24828:	003fed06 	br	247e0 <__swrite+0x34>

0002482c <__sseek>:
   2482c:	defffe04 	addi	sp,sp,-8
   24830:	dc000015 	stw	r16,0(sp)
   24834:	2821883a 	mov	r16,r5
   24838:	2940038f 	ldh	r5,14(r5)
   2483c:	dfc00115 	stw	ra,4(sp)
   24840:	0029c500 	call	29c50 <_lseek_r>
   24844:	10ffffd8 	cmpnei	r3,r2,-1
   24848:	18000826 	beq	r3,zero,2486c <__sseek+0x40>
   2484c:	80c0030b 	ldhu	r3,12(r16)
   24850:	80801415 	stw	r2,80(r16)
   24854:	18c40014 	ori	r3,r3,4096
   24858:	80c0030d 	sth	r3,12(r16)
   2485c:	dfc00117 	ldw	ra,4(sp)
   24860:	dc000017 	ldw	r16,0(sp)
   24864:	dec00204 	addi	sp,sp,8
   24868:	f800283a 	ret
   2486c:	80c0030b 	ldhu	r3,12(r16)
   24870:	18fbffcc 	andi	r3,r3,61439
   24874:	80c0030d 	sth	r3,12(r16)
   24878:	dfc00117 	ldw	ra,4(sp)
   2487c:	dc000017 	ldw	r16,0(sp)
   24880:	dec00204 	addi	sp,sp,8
   24884:	f800283a 	ret

00024888 <__sclose>:
   24888:	2940038f 	ldh	r5,14(r5)
   2488c:	0026f601 	jmpi	26f60 <_close_r>

00024890 <strlen>:
   24890:	208000cc 	andi	r2,r4,3
   24894:	10000926 	beq	r2,zero,248bc <strlen+0x2c>
   24898:	2005883a 	mov	r2,r4
   2489c:	00000306 	br	248ac <strlen+0x1c>
   248a0:	10800044 	addi	r2,r2,1
   248a4:	10c000cc 	andi	r3,r2,3
   248a8:	18000526 	beq	r3,zero,248c0 <strlen+0x30>
   248ac:	10c00007 	ldb	r3,0(r2)
   248b0:	183ffb1e 	bne	r3,zero,248a0 <strlen+0x10>
   248b4:	1105c83a 	sub	r2,r2,r4
   248b8:	f800283a 	ret
   248bc:	2005883a 	mov	r2,r4
   248c0:	11400017 	ldw	r5,0(r2)
   248c4:	01ffbff4 	movhi	r7,65279
   248c8:	39ffbfc4 	addi	r7,r7,-257
   248cc:	29c7883a 	add	r3,r5,r7
   248d0:	01a02074 	movhi	r6,32897
   248d4:	014a303a 	nor	r5,zero,r5
   248d8:	1946703a 	and	r3,r3,r5
   248dc:	31a02004 	addi	r6,r6,-32640
   248e0:	1986703a 	and	r3,r3,r6
   248e4:	1800071e 	bne	r3,zero,24904 <strlen+0x74>
   248e8:	11400117 	ldw	r5,4(r2)
   248ec:	10800104 	addi	r2,r2,4
   248f0:	29c7883a 	add	r3,r5,r7
   248f4:	014a303a 	nor	r5,zero,r5
   248f8:	1946703a 	and	r3,r3,r5
   248fc:	1986703a 	and	r3,r3,r6
   24900:	183ff926 	beq	r3,zero,248e8 <strlen+0x58>
   24904:	10c00007 	ldb	r3,0(r2)
   24908:	183fea26 	beq	r3,zero,248b4 <strlen+0x24>
   2490c:	10c00047 	ldb	r3,1(r2)
   24910:	10800044 	addi	r2,r2,1
   24914:	183fe726 	beq	r3,zero,248b4 <strlen+0x24>
   24918:	10c00047 	ldb	r3,1(r2)
   2491c:	10800044 	addi	r2,r2,1
   24920:	183ffa1e 	bne	r3,zero,2490c <strlen+0x7c>
   24924:	003fe306 	br	248b4 <strlen+0x24>

00024928 <___vfprintf_internal_r>:
   24928:	deffbc04 	addi	sp,sp,-272
   2492c:	dfc04315 	stw	ra,268(sp)
   24930:	dc803c15 	stw	r18,240(sp)
   24934:	dc003a15 	stw	r16,232(sp)
   24938:	d9000515 	stw	r4,20(sp)
   2493c:	2021883a 	mov	r16,r4
   24940:	d9400415 	stw	r5,16(sp)
   24944:	3025883a 	mov	r18,r6
   24948:	d9c00715 	stw	r7,28(sp)
   2494c:	df004215 	stw	fp,264(sp)
   24950:	ddc04115 	stw	r23,260(sp)
   24954:	dd804015 	stw	r22,256(sp)
   24958:	dd403f15 	stw	r21,252(sp)
   2495c:	dd003e15 	stw	r20,248(sp)
   24960:	dcc03d15 	stw	r19,244(sp)
   24964:	dc403b15 	stw	r17,236(sp)
   24968:	0029c380 	call	29c38 <_localeconv_r>
   2496c:	10800017 	ldw	r2,0(r2)
   24970:	1009883a 	mov	r4,r2
   24974:	d8800d15 	stw	r2,52(sp)
   24978:	00248900 	call	24890 <strlen>
   2497c:	d8800c15 	stw	r2,48(sp)
   24980:	80000226 	beq	r16,zero,2498c <___vfprintf_internal_r+0x64>
   24984:	80800e17 	ldw	r2,56(r16)
   24988:	10022b26 	beq	r2,zero,25238 <___vfprintf_internal_r+0x910>
   2498c:	d9400417 	ldw	r5,16(sp)
   24990:	2880030b 	ldhu	r2,12(r5)
   24994:	10c8000c 	andi	r3,r2,8192
   24998:	1800071e 	bne	r3,zero,249b8 <___vfprintf_internal_r+0x90>
   2499c:	28c01917 	ldw	r3,100(r5)
   249a0:	11080014 	ori	r4,r2,8192
   249a4:	00b7ffc4 	movi	r2,-8193
   249a8:	1886703a 	and	r3,r3,r2
   249ac:	2900030d 	sth	r4,12(r5)
   249b0:	2005883a 	mov	r2,r4
   249b4:	28c01915 	stw	r3,100(r5)
   249b8:	10c0020c 	andi	r3,r2,8
   249bc:	1800f626 	beq	r3,zero,24d98 <___vfprintf_internal_r+0x470>
   249c0:	d8c00417 	ldw	r3,16(sp)
   249c4:	18c00417 	ldw	r3,16(r3)
   249c8:	1800f326 	beq	r3,zero,24d98 <___vfprintf_internal_r+0x470>
   249cc:	1080068c 	andi	r2,r2,26
   249d0:	10800298 	cmpnei	r2,r2,10
   249d4:	1000f926 	beq	r2,zero,24dbc <___vfprintf_internal_r+0x494>
   249d8:	dc402a04 	addi	r17,sp,168
   249dc:	04c000f4 	movhi	r19,3
   249e0:	9029883a 	mov	r20,r18
   249e4:	dc401d15 	stw	r17,116(sp)
   249e8:	d8001f15 	stw	zero,124(sp)
   249ec:	d8001e15 	stw	zero,120(sp)
   249f0:	d8000915 	stw	zero,36(sp)
   249f4:	d8000a15 	stw	zero,40(sp)
   249f8:	d8000b15 	stw	zero,44(sp)
   249fc:	d8000e15 	stw	zero,56(sp)
   24a00:	d8001115 	stw	zero,68(sp)
   24a04:	d8000615 	stw	zero,24(sp)
   24a08:	9cd24604 	addi	r19,r19,18712
   24a0c:	8825883a 	mov	r18,r17
   24a10:	a0800007 	ldb	r2,0(r20)
   24a14:	1000cd26 	beq	r2,zero,24d4c <___vfprintf_internal_r+0x424>
   24a18:	a021883a 	mov	r16,r20
   24a1c:	00000306 	br	24a2c <___vfprintf_internal_r+0x104>
   24a20:	80800047 	ldb	r2,1(r16)
   24a24:	84000044 	addi	r16,r16,1
   24a28:	10015126 	beq	r2,zero,24f70 <___vfprintf_internal_r+0x648>
   24a2c:	10800958 	cmpnei	r2,r2,37
   24a30:	103ffb1e 	bne	r2,zero,24a20 <___vfprintf_internal_r+0xf8>
   24a34:	852fc83a 	sub	r23,r16,r20
   24a38:	85014f1e 	bne	r16,r20,24f78 <___vfprintf_internal_r+0x650>
   24a3c:	80800003 	ldbu	r2,0(r16)
   24a40:	10803fcc 	andi	r2,r2,255
   24a44:	1080201c 	xori	r2,r2,128
   24a48:	10bfe004 	addi	r2,r2,-128
   24a4c:	1000bf26 	beq	r2,zero,24d4c <___vfprintf_internal_r+0x424>
   24a50:	82c00047 	ldb	r11,1(r16)
   24a54:	85000044 	addi	r20,r16,1
   24a58:	d8001645 	stb	zero,89(sp)
   24a5c:	023fffc4 	movi	r8,-1
   24a60:	0021883a 	mov	r16,zero
   24a64:	001b883a 	mov	r13,zero
   24a68:	a5000044 	addi	r20,r20,1
   24a6c:	5839883a 	mov	fp,r11
   24a70:	e0bff804 	addi	r2,fp,-32
   24a74:	10c01668 	cmpgeui	r3,r2,89
   24a78:	18006a1e 	bne	r3,zero,24c24 <___vfprintf_internal_r+0x2fc>
   24a7c:	100490ba 	slli	r2,r2,2
   24a80:	00c000b4 	movhi	r3,2
   24a84:	10c7883a 	add	r3,r2,r3
   24a88:	1892a417 	ldw	r2,19088(r3)
   24a8c:	1000683a 	jmp	r2
   24a90:	00025308 	cmpgei	zero,zero,2380
   24a94:	00024c24 	muli	zero,zero,2352
   24a98:	00024c24 	muli	zero,zero,2352
   24a9c:	000252fc 	xorhi	zero,zero,2379
   24aa0:	00024c24 	muli	zero,zero,2352
   24aa4:	00024c24 	muli	zero,zero,2352
   24aa8:	00024c24 	muli	zero,zero,2352
   24aac:	00024c24 	muli	zero,zero,2352
   24ab0:	00024c24 	muli	zero,zero,2352
   24ab4:	00024c24 	muli	zero,zero,2352
   24ab8:	00025278 	rdprs	zero,zero,2377
   24abc:	000252ec 	andhi	zero,zero,2379
   24ac0:	00024c24 	muli	zero,zero,2352
   24ac4:	00025290 	cmplti	zero,zero,2378
   24ac8:	0002529c 	xori	zero,zero,2378
   24acc:	00024c24 	muli	zero,zero,2352
   24ad0:	000252e0 	cmpeqi	zero,zero,2379
   24ad4:	00024bf4 	movhi	zero,2351
   24ad8:	00024bf4 	movhi	zero,2351
   24adc:	00024bf4 	movhi	zero,2351
   24ae0:	00024bf4 	movhi	zero,2351
   24ae4:	00024bf4 	movhi	zero,2351
   24ae8:	00024bf4 	movhi	zero,2351
   24aec:	00024bf4 	movhi	zero,2351
   24af0:	00024bf4 	movhi	zero,2351
   24af4:	00024bf4 	movhi	zero,2351
   24af8:	00024c24 	muli	zero,zero,2352
   24afc:	00024c24 	muli	zero,zero,2352
   24b00:	00024c24 	muli	zero,zero,2352
   24b04:	00024c24 	muli	zero,zero,2352
   24b08:	00024c24 	muli	zero,zero,2352
   24b0c:	00024c24 	muli	zero,zero,2352
   24b10:	00024c24 	muli	zero,zero,2352
   24b14:	00024c24 	muli	zero,zero,2352
   24b18:	00024c24 	muli	zero,zero,2352
   24b1c:	00024c24 	muli	zero,zero,2352
   24b20:	00024e08 	cmpgei	zero,zero,2360
   24b24:	000250a4 	muli	zero,zero,2370
   24b28:	00024c24 	muli	zero,zero,2352
   24b2c:	000250a4 	muli	zero,zero,2370
   24b30:	00024c24 	muli	zero,zero,2352
   24b34:	00024c24 	muli	zero,zero,2352
   24b38:	00024c24 	muli	zero,zero,2352
   24b3c:	00024c24 	muli	zero,zero,2352
   24b40:	00025354 	movui	zero,2381
   24b44:	00024c24 	muli	zero,zero,2352
   24b48:	00024c24 	muli	zero,zero,2352
   24b4c:	00024e70 	cmpltui	zero,zero,2361
   24b50:	00024c24 	muli	zero,zero,2352
   24b54:	00024c24 	muli	zero,zero,2352
   24b58:	00024c24 	muli	zero,zero,2352
   24b5c:	00024c24 	muli	zero,zero,2352
   24b60:	00024c24 	muli	zero,zero,2352
   24b64:	00024e98 	cmpnei	zero,zero,2362
   24b68:	00024c24 	muli	zero,zero,2352
   24b6c:	00024c24 	muli	zero,zero,2352
   24b70:	00025ee0 	cmpeqi	zero,zero,2427
   24b74:	00024c24 	muli	zero,zero,2352
   24b78:	00024c24 	muli	zero,zero,2352
   24b7c:	00024c24 	muli	zero,zero,2352
   24b80:	00024c24 	muli	zero,zero,2352
   24b84:	00024c24 	muli	zero,zero,2352
   24b88:	00024c24 	muli	zero,zero,2352
   24b8c:	00024c24 	muli	zero,zero,2352
   24b90:	00024c24 	muli	zero,zero,2352
   24b94:	00024c24 	muli	zero,zero,2352
   24b98:	00024c24 	muli	zero,zero,2352
   24b9c:	0002536c 	andhi	zero,zero,2381
   24ba0:	00024e0c 	andi	zero,zero,2360
   24ba4:	000250a4 	muli	zero,zero,2370
   24ba8:	000250a4 	muli	zero,zero,2370
   24bac:	000250a4 	muli	zero,zero,2370
   24bb0:	00025360 	cmpeqi	zero,zero,2381
   24bb4:	00024e0c 	andi	zero,zero,2360
   24bb8:	00024c24 	muli	zero,zero,2352
   24bbc:	00024c24 	muli	zero,zero,2352
   24bc0:	0002532c 	andhi	zero,zero,2380
   24bc4:	00024c24 	muli	zero,zero,2352
   24bc8:	00025428 	cmpgeui	zero,zero,2384
   24bcc:	00024e74 	movhi	zero,2361
   24bd0:	000253f0 	cmpltui	zero,zero,2383
   24bd4:	000253e4 	muli	zero,zero,2383
   24bd8:	00024c24 	muli	zero,zero,2352
   24bdc:	00025394 	movui	zero,2382
   24be0:	00024c24 	muli	zero,zero,2352
   24be4:	00024e9c 	xori	zero,zero,2362
   24be8:	00024c24 	muli	zero,zero,2352
   24bec:	00024c24 	muli	zero,zero,2352
   24bf0:	00025f50 	cmplti	zero,zero,2429
   24bf4:	0021883a 	mov	r16,zero
   24bf8:	e0bff404 	addi	r2,fp,-48
   24bfc:	a7000007 	ldb	fp,0(r20)
   24c00:	840002a4 	muli	r16,r16,10
   24c04:	a5000044 	addi	r20,r20,1
   24c08:	1421883a 	add	r16,r2,r16
   24c0c:	e0bff404 	addi	r2,fp,-48
   24c10:	10c002b0 	cmpltui	r3,r2,10
   24c14:	183ff91e 	bne	r3,zero,24bfc <___vfprintf_internal_r+0x2d4>
   24c18:	e0bff804 	addi	r2,fp,-32
   24c1c:	10c01668 	cmpgeui	r3,r2,89
   24c20:	183f9626 	beq	r3,zero,24a7c <___vfprintf_internal_r+0x154>
   24c24:	e0004926 	beq	fp,zero,24d4c <___vfprintf_internal_r+0x424>
   24c28:	df002005 	stb	fp,128(sp)
   24c2c:	d8001645 	stb	zero,89(sp)
   24c30:	03000044 	movi	r12,1
   24c34:	01c00044 	movi	r7,1
   24c38:	dd402004 	addi	r21,sp,128
   24c3c:	6807883a 	mov	r3,r13
   24c40:	0011883a 	mov	r8,zero
   24c44:	d8000815 	stw	zero,32(sp)
   24c48:	1b80008c 	andi	r14,r3,2
   24c4c:	70000126 	beq	r14,zero,24c54 <___vfprintf_internal_r+0x32c>
   24c50:	63000084 	addi	r12,r12,2
   24c54:	1b40210c 	andi	r13,r3,132
   24c58:	6800021e 	bne	r13,zero,24c64 <___vfprintf_internal_r+0x33c>
   24c5c:	832dc83a 	sub	r22,r16,r12
   24c60:	05832916 	blt	zero,r22,25908 <___vfprintf_internal_r+0xfe0>
   24c64:	d8801647 	ldb	r2,89(sp)
   24c68:	dd801f17 	ldw	r22,124(sp)
   24c6c:	10000c26 	beq	r2,zero,24ca0 <___vfprintf_internal_r+0x378>
   24c70:	d8801e17 	ldw	r2,120(sp)
   24c74:	d9001644 	addi	r4,sp,89
   24c78:	b5800044 	addi	r22,r22,1
   24c7c:	10800044 	addi	r2,r2,1
   24c80:	91000015 	stw	r4,0(r18)
   24c84:	01000044 	movi	r4,1
   24c88:	d8801e15 	stw	r2,120(sp)
   24c8c:	91000115 	stw	r4,4(r18)
   24c90:	dd801f15 	stw	r22,124(sp)
   24c94:	10800208 	cmpgei	r2,r2,8
   24c98:	10037b1e 	bne	r2,zero,25a88 <___vfprintf_internal_r+0x1160>
   24c9c:	94800204 	addi	r18,r18,8
   24ca0:	70000c26 	beq	r14,zero,24cd4 <___vfprintf_internal_r+0x3ac>
   24ca4:	d8801e17 	ldw	r2,120(sp)
   24ca8:	d9001684 	addi	r4,sp,90
   24cac:	b5800084 	addi	r22,r22,2
   24cb0:	10800044 	addi	r2,r2,1
   24cb4:	91000015 	stw	r4,0(r18)
   24cb8:	01000084 	movi	r4,2
   24cbc:	d8801e15 	stw	r2,120(sp)
   24cc0:	91000115 	stw	r4,4(r18)
   24cc4:	dd801f15 	stw	r22,124(sp)
   24cc8:	10800208 	cmpgei	r2,r2,8
   24ccc:	1003821e 	bne	r2,zero,25ad8 <___vfprintf_internal_r+0x11b0>
   24cd0:	94800204 	addi	r18,r18,8
   24cd4:	6b402018 	cmpnei	r13,r13,128
   24cd8:	68023426 	beq	r13,zero,255ac <___vfprintf_internal_r+0xc84>
   24cdc:	41efc83a 	sub	r23,r8,r7
   24ce0:	05c27416 	blt	zero,r23,256b4 <___vfprintf_internal_r+0xd8c>
   24ce4:	1880400c 	andi	r2,r3,256
   24ce8:	1001db1e 	bne	r2,zero,25458 <___vfprintf_internal_r+0xb30>
   24cec:	d8801e17 	ldw	r2,120(sp)
   24cf0:	3d89883a 	add	r4,r7,r22
   24cf4:	95400015 	stw	r21,0(r18)
   24cf8:	10800044 	addi	r2,r2,1
   24cfc:	d8801e15 	stw	r2,120(sp)
   24d00:	91c00115 	stw	r7,4(r18)
   24d04:	d9001f15 	stw	r4,124(sp)
   24d08:	10800208 	cmpgei	r2,r2,8
   24d0c:	1003521e 	bne	r2,zero,25a58 <___vfprintf_internal_r+0x1130>
   24d10:	94800204 	addi	r18,r18,8
   24d14:	18c0010c 	andi	r3,r3,4
   24d18:	18000226 	beq	r3,zero,24d24 <___vfprintf_internal_r+0x3fc>
   24d1c:	8339c83a 	sub	fp,r16,r12
   24d20:	0700ac16 	blt	zero,fp,24fd4 <___vfprintf_internal_r+0x6ac>
   24d24:	8300010e 	bge	r16,r12,24d2c <___vfprintf_internal_r+0x404>
   24d28:	6021883a 	mov	r16,r12
   24d2c:	d8800617 	ldw	r2,24(sp)
   24d30:	1405883a 	add	r2,r2,r16
   24d34:	d8800615 	stw	r2,24(sp)
   24d38:	2002b01e 	bne	r4,zero,257fc <___vfprintf_internal_r+0xed4>
   24d3c:	a0800007 	ldb	r2,0(r20)
   24d40:	d8001e15 	stw	zero,120(sp)
   24d44:	8825883a 	mov	r18,r17
   24d48:	103f331e 	bne	r2,zero,24a18 <___vfprintf_internal_r+0xf0>
   24d4c:	d8801f17 	ldw	r2,124(sp)
   24d50:	10063b1e 	bne	r2,zero,26640 <___vfprintf_internal_r+0x1d18>
   24d54:	d8800417 	ldw	r2,16(sp)
   24d58:	1080030b 	ldhu	r2,12(r2)
   24d5c:	1080100c 	andi	r2,r2,64
   24d60:	10075f1e 	bne	r2,zero,26ae0 <___vfprintf_internal_r+0x21b8>
   24d64:	d8800617 	ldw	r2,24(sp)
   24d68:	dfc04317 	ldw	ra,268(sp)
   24d6c:	df004217 	ldw	fp,264(sp)
   24d70:	ddc04117 	ldw	r23,260(sp)
   24d74:	dd804017 	ldw	r22,256(sp)
   24d78:	dd403f17 	ldw	r21,252(sp)
   24d7c:	dd003e17 	ldw	r20,248(sp)
   24d80:	dcc03d17 	ldw	r19,244(sp)
   24d84:	dc803c17 	ldw	r18,240(sp)
   24d88:	dc403b17 	ldw	r17,236(sp)
   24d8c:	dc003a17 	ldw	r16,232(sp)
   24d90:	dec04404 	addi	sp,sp,272
   24d94:	f800283a 	ret
   24d98:	d9400417 	ldw	r5,16(sp)
   24d9c:	d9000517 	ldw	r4,20(sp)
   24da0:	0026e140 	call	26e14 <__swsetup_r>
   24da4:	10074e1e 	bne	r2,zero,26ae0 <___vfprintf_internal_r+0x21b8>
   24da8:	d8800417 	ldw	r2,16(sp)
   24dac:	1080030b 	ldhu	r2,12(r2)
   24db0:	1080068c 	andi	r2,r2,26
   24db4:	10800298 	cmpnei	r2,r2,10
   24db8:	103f071e 	bne	r2,zero,249d8 <___vfprintf_internal_r+0xb0>
   24dbc:	d8800417 	ldw	r2,16(sp)
   24dc0:	1080038f 	ldh	r2,14(r2)
   24dc4:	103f0416 	blt	r2,zero,249d8 <___vfprintf_internal_r+0xb0>
   24dc8:	d9c00717 	ldw	r7,28(sp)
   24dcc:	d9400417 	ldw	r5,16(sp)
   24dd0:	d9000517 	ldw	r4,20(sp)
   24dd4:	900d883a 	mov	r6,r18
   24dd8:	dfc04317 	ldw	ra,268(sp)
   24ddc:	df004217 	ldw	fp,264(sp)
   24de0:	ddc04117 	ldw	r23,260(sp)
   24de4:	dd804017 	ldw	r22,256(sp)
   24de8:	dd403f17 	ldw	r21,252(sp)
   24dec:	dd003e17 	ldw	r20,248(sp)
   24df0:	dcc03d17 	ldw	r19,244(sp)
   24df4:	dc803c17 	ldw	r18,240(sp)
   24df8:	dc403b17 	ldw	r17,236(sp)
   24dfc:	dc003a17 	ldw	r16,232(sp)
   24e00:	dec04404 	addi	sp,sp,272
   24e04:	0026cec1 	jmpi	26cec <__sbprintf>
   24e08:	6b400414 	ori	r13,r13,16
   24e0c:	6880080c 	andi	r2,r13,32
   24e10:	1000dc26 	beq	r2,zero,25184 <___vfprintf_internal_r+0x85c>
   24e14:	d8c00717 	ldw	r3,28(sp)
   24e18:	18800117 	ldw	r2,4(r3)
   24e1c:	1d800017 	ldw	r22,0(r3)
   24e20:	18c00204 	addi	r3,r3,8
   24e24:	d8c00715 	stw	r3,28(sp)
   24e28:	102f883a 	mov	r23,r2
   24e2c:	1000e316 	blt	r2,zero,251bc <___vfprintf_internal_r+0x894>
   24e30:	40bfffd8 	cmpnei	r2,r8,-1
   24e34:	d9001643 	ldbu	r4,89(sp)
   24e38:	10010626 	beq	r2,zero,25254 <___vfprintf_internal_r+0x92c>
   24e3c:	00ffdfc4 	movi	r3,-129
   24e40:	b5c4b03a 	or	r2,r22,r23
   24e44:	68c6703a 	and	r3,r13,r3
   24e48:	1001011e 	bne	r2,zero,25250 <___vfprintf_internal_r+0x928>
   24e4c:	00800044 	movi	r2,1
   24e50:	4002531e 	bne	r8,zero,257a0 <___vfprintf_internal_r+0xe78>
   24e54:	1003ad1e 	bne	r2,zero,25d0c <___vfprintf_internal_r+0x13e4>
   24e58:	69c0004c 	andi	r7,r13,1
   24e5c:	3803f626 	beq	r7,zero,25e38 <___vfprintf_internal_r+0x1510>
   24e60:	00800c04 	movi	r2,48
   24e64:	d88029c5 	stb	r2,167(sp)
   24e68:	dd4029c4 	addi	r21,sp,167
   24e6c:	00003606 	br	24f48 <___vfprintf_internal_r+0x620>
   24e70:	6b400414 	ori	r13,r13,16
   24e74:	6880080c 	andi	r2,r13,32
   24e78:	1000e326 	beq	r2,zero,25208 <___vfprintf_internal_r+0x8e0>
   24e7c:	d8c00717 	ldw	r3,28(sp)
   24e80:	0005883a 	mov	r2,zero
   24e84:	1d800017 	ldw	r22,0(r3)
   24e88:	1dc00117 	ldw	r23,4(r3)
   24e8c:	18c00204 	addi	r3,r3,8
   24e90:	d8c00715 	stw	r3,28(sp)
   24e94:	00000906 	br	24ebc <___vfprintf_internal_r+0x594>
   24e98:	6b400414 	ori	r13,r13,16
   24e9c:	6880080c 	andi	r2,r13,32
   24ea0:	1000cd26 	beq	r2,zero,251d8 <___vfprintf_internal_r+0x8b0>
   24ea4:	d8c00717 	ldw	r3,28(sp)
   24ea8:	00800044 	movi	r2,1
   24eac:	1d800017 	ldw	r22,0(r3)
   24eb0:	1dc00117 	ldw	r23,4(r3)
   24eb4:	18c00204 	addi	r3,r3,8
   24eb8:	d8c00715 	stw	r3,28(sp)
   24ebc:	0009883a 	mov	r4,zero
   24ec0:	d9001645 	stb	r4,89(sp)
   24ec4:	40ffffe0 	cmpeqi	r3,r8,-1
   24ec8:	1800051e 	bne	r3,zero,24ee0 <___vfprintf_internal_r+0x5b8>
   24ecc:	00ffdfc4 	movi	r3,-129
   24ed0:	b5cab03a 	or	r5,r22,r23
   24ed4:	68c6703a 	and	r3,r13,r3
   24ed8:	283fdd26 	beq	r5,zero,24e50 <___vfprintf_internal_r+0x528>
   24edc:	181b883a 	mov	r13,r3
   24ee0:	10c00060 	cmpeqi	r3,r2,1
   24ee4:	1800db1e 	bne	r3,zero,25254 <___vfprintf_internal_r+0x92c>
   24ee8:	108000a0 	cmpeqi	r2,r2,2
   24eec:	1002331e 	bne	r2,zero,257bc <___vfprintf_internal_r+0xe94>
   24ef0:	882b883a 	mov	r21,r17
   24ef4:	b006d0fa 	srli	r3,r22,3
   24ef8:	b80c977a 	slli	r6,r23,29
   24efc:	b82ed0fa 	srli	r23,r23,3
   24f00:	b58001cc 	andi	r22,r22,7
   24f04:	b0800c04 	addi	r2,r22,48
   24f08:	30ecb03a 	or	r22,r6,r3
   24f0c:	a8bfffc5 	stb	r2,-1(r21)
   24f10:	b5c6b03a 	or	r3,r22,r23
   24f14:	a80b883a 	mov	r5,r21
   24f18:	ad7fffc4 	addi	r21,r21,-1
   24f1c:	183ff51e 	bne	r3,zero,24ef4 <___vfprintf_internal_r+0x5cc>
   24f20:	68c0004c 	andi	r3,r13,1
   24f24:	18023226 	beq	r3,zero,257f0 <___vfprintf_internal_r+0xec8>
   24f28:	10800c18 	cmpnei	r2,r2,48
   24f2c:	10023026 	beq	r2,zero,257f0 <___vfprintf_internal_r+0xec8>
   24f30:	297fff84 	addi	r5,r5,-2
   24f34:	00800c04 	movi	r2,48
   24f38:	a8bfffc5 	stb	r2,-1(r21)
   24f3c:	894fc83a 	sub	r7,r17,r5
   24f40:	6807883a 	mov	r3,r13
   24f44:	282b883a 	mov	r21,r5
   24f48:	4019883a 	mov	r12,r8
   24f4c:	41c0010e 	bge	r8,r7,24f54 <___vfprintf_internal_r+0x62c>
   24f50:	3819883a 	mov	r12,r7
   24f54:	d8000815 	stw	zero,32(sp)
   24f58:	21003fcc 	andi	r4,r4,255
   24f5c:	2100201c 	xori	r4,r4,128
   24f60:	213fe004 	addi	r4,r4,-128
   24f64:	203f3826 	beq	r4,zero,24c48 <___vfprintf_internal_r+0x320>
   24f68:	63000044 	addi	r12,r12,1
   24f6c:	003f3606 	br	24c48 <___vfprintf_internal_r+0x320>
   24f70:	852fc83a 	sub	r23,r16,r20
   24f74:	853f7526 	beq	r16,r20,24d4c <___vfprintf_internal_r+0x424>
   24f78:	dd801f17 	ldw	r22,124(sp)
   24f7c:	d8801e17 	ldw	r2,120(sp)
   24f80:	95000015 	stw	r20,0(r18)
   24f84:	b5ed883a 	add	r22,r22,r23
   24f88:	10800044 	addi	r2,r2,1
   24f8c:	d8801e15 	stw	r2,120(sp)
   24f90:	95c00115 	stw	r23,4(r18)
   24f94:	dd801f15 	stw	r22,124(sp)
   24f98:	10800208 	cmpgei	r2,r2,8
   24f9c:	1000061e 	bne	r2,zero,24fb8 <___vfprintf_internal_r+0x690>
   24fa0:	94800204 	addi	r18,r18,8
   24fa4:	d8c00617 	ldw	r3,24(sp)
   24fa8:	80800003 	ldbu	r2,0(r16)
   24fac:	1dc7883a 	add	r3,r3,r23
   24fb0:	d8c00615 	stw	r3,24(sp)
   24fb4:	003ea206 	br	24a40 <___vfprintf_internal_r+0x118>
   24fb8:	d9400417 	ldw	r5,16(sp)
   24fbc:	d9000517 	ldw	r4,20(sp)
   24fc0:	d9801d04 	addi	r6,sp,116
   24fc4:	002bae80 	call	2bae8 <__sprint_r>
   24fc8:	103f621e 	bne	r2,zero,24d54 <___vfprintf_internal_r+0x42c>
   24fcc:	8825883a 	mov	r18,r17
   24fd0:	003ff406 	br	24fa4 <___vfprintf_internal_r+0x67c>
   24fd4:	05c000f4 	movhi	r23,3
   24fd8:	e0c00450 	cmplti	r3,fp,17
   24fdc:	d8801e17 	ldw	r2,120(sp)
   24fe0:	bdd24a04 	addi	r23,r23,18728
   24fe4:	18001e1e 	bne	r3,zero,25060 <___vfprintf_internal_r+0x738>
   24fe8:	9007883a 	mov	r3,r18
   24fec:	dd400517 	ldw	r21,20(sp)
   24ff0:	05800404 	movi	r22,16
   24ff4:	6025883a 	mov	r18,r12
   24ff8:	00000406 	br	2500c <___vfprintf_internal_r+0x6e4>
   24ffc:	e73ffc04 	addi	fp,fp,-16
   25000:	e1400448 	cmpgei	r5,fp,17
   25004:	18c00204 	addi	r3,r3,8
   25008:	28001326 	beq	r5,zero,25058 <___vfprintf_internal_r+0x730>
   2500c:	10800044 	addi	r2,r2,1
   25010:	21000404 	addi	r4,r4,16
   25014:	1dc00015 	stw	r23,0(r3)
   25018:	1d800115 	stw	r22,4(r3)
   2501c:	d9001f15 	stw	r4,124(sp)
   25020:	d8801e15 	stw	r2,120(sp)
   25024:	11400208 	cmpgei	r5,r2,8
   25028:	283ff426 	beq	r5,zero,24ffc <___vfprintf_internal_r+0x6d4>
   2502c:	d9400417 	ldw	r5,16(sp)
   25030:	d9801d04 	addi	r6,sp,116
   25034:	a809883a 	mov	r4,r21
   25038:	002bae80 	call	2bae8 <__sprint_r>
   2503c:	103f451e 	bne	r2,zero,24d54 <___vfprintf_internal_r+0x42c>
   25040:	e73ffc04 	addi	fp,fp,-16
   25044:	e1400448 	cmpgei	r5,fp,17
   25048:	d9001f17 	ldw	r4,124(sp)
   2504c:	d8801e17 	ldw	r2,120(sp)
   25050:	8807883a 	mov	r3,r17
   25054:	283fed1e 	bne	r5,zero,2500c <___vfprintf_internal_r+0x6e4>
   25058:	9019883a 	mov	r12,r18
   2505c:	1825883a 	mov	r18,r3
   25060:	10800044 	addi	r2,r2,1
   25064:	2709883a 	add	r4,r4,fp
   25068:	d8801e15 	stw	r2,120(sp)
   2506c:	95c00015 	stw	r23,0(r18)
   25070:	97000115 	stw	fp,4(r18)
   25074:	d9001f15 	stw	r4,124(sp)
   25078:	10800210 	cmplti	r2,r2,8
   2507c:	103f291e 	bne	r2,zero,24d24 <___vfprintf_internal_r+0x3fc>
   25080:	d9400417 	ldw	r5,16(sp)
   25084:	d9000517 	ldw	r4,20(sp)
   25088:	d9801d04 	addi	r6,sp,116
   2508c:	db000815 	stw	r12,32(sp)
   25090:	002bae80 	call	2bae8 <__sprint_r>
   25094:	103f2f1e 	bne	r2,zero,24d54 <___vfprintf_internal_r+0x42c>
   25098:	d9001f17 	ldw	r4,124(sp)
   2509c:	db000817 	ldw	r12,32(sp)
   250a0:	003f2006 	br	24d24 <___vfprintf_internal_r+0x3fc>
   250a4:	d8c00717 	ldw	r3,28(sp)
   250a8:	6880020c 	andi	r2,r13,8
   250ac:	19000204 	addi	r4,r3,8
   250b0:	d9000f15 	stw	r4,60(sp)
   250b4:	1003621e 	bne	r2,zero,25e40 <___vfprintf_internal_r+0x1518>
   250b8:	d8800717 	ldw	r2,28(sp)
   250bc:	10c00017 	ldw	r3,0(r2)
   250c0:	10800117 	ldw	r2,4(r2)
   250c4:	d8c00a15 	stw	r3,40(sp)
   250c8:	d8800b15 	stw	r2,44(sp)
   250cc:	ddc00b17 	ldw	r23,44(sp)
   250d0:	dd800a17 	ldw	r22,40(sp)
   250d4:	00a00034 	movhi	r2,32768
   250d8:	10bfffc4 	addi	r2,r2,-1
   250dc:	b8aa703a 	and	r21,r23,r2
   250e0:	01dffc34 	movhi	r7,32752
   250e4:	01bfffc4 	movi	r6,-1
   250e8:	39ffffc4 	addi	r7,r7,-1
   250ec:	b009883a 	mov	r4,r22
   250f0:	a80b883a 	mov	r5,r21
   250f4:	da000815 	stw	r8,32(sp)
   250f8:	db400715 	stw	r13,28(sp)
   250fc:	0030bec0 	call	30bec <__unorddf2>
   25100:	db400717 	ldw	r13,28(sp)
   25104:	da000817 	ldw	r8,32(sp)
   25108:	10044f1e 	bne	r2,zero,26248 <___vfprintf_internal_r+0x1920>
   2510c:	01dffc34 	movhi	r7,32752
   25110:	01bfffc4 	movi	r6,-1
   25114:	39ffffc4 	addi	r7,r7,-1
   25118:	b009883a 	mov	r4,r22
   2511c:	a80b883a 	mov	r5,r21
   25120:	002fa800 	call	2fa80 <__ledf2>
   25124:	db400717 	ldw	r13,28(sp)
   25128:	da000817 	ldw	r8,32(sp)
   2512c:	0084460e 	bge	zero,r2,26248 <___vfprintf_internal_r+0x1920>
   25130:	000d883a 	mov	r6,zero
   25134:	000f883a 	mov	r7,zero
   25138:	b009883a 	mov	r4,r22
   2513c:	b80b883a 	mov	r5,r23
   25140:	002fa800 	call	2fa80 <__ledf2>
   25144:	db400717 	ldw	r13,28(sp)
   25148:	10052616 	blt	r2,zero,265e4 <___vfprintf_internal_r+0x1cbc>
   2514c:	d9001643 	ldbu	r4,89(sp)
   25150:	e0801210 	cmplti	r2,fp,72
   25154:	1005091e 	bne	r2,zero,2657c <___vfprintf_internal_r+0x1c54>
   25158:	054000f4 	movhi	r21,3
   2515c:	ad523604 	addi	r21,r21,18648
   25160:	d8800f17 	ldw	r2,60(sp)
   25164:	00ffdfc4 	movi	r3,-129
   25168:	68c6703a 	and	r3,r13,r3
   2516c:	d8800715 	stw	r2,28(sp)
   25170:	030000c4 	movi	r12,3
   25174:	01c000c4 	movi	r7,3
   25178:	0011883a 	mov	r8,zero
   2517c:	d8000815 	stw	zero,32(sp)
   25180:	003f7506 	br	24f58 <___vfprintf_internal_r+0x630>
   25184:	d8c00717 	ldw	r3,28(sp)
   25188:	6880040c 	andi	r2,r13,16
   2518c:	1d800017 	ldw	r22,0(r3)
   25190:	18c00104 	addi	r3,r3,4
   25194:	d8c00715 	stw	r3,28(sp)
   25198:	10002a1e 	bne	r2,zero,25244 <___vfprintf_internal_r+0x91c>
   2519c:	6880100c 	andi	r2,r13,64
   251a0:	10002826 	beq	r2,zero,25244 <___vfprintf_internal_r+0x91c>
   251a4:	b5bfffcc 	andi	r22,r22,65535
   251a8:	b5a0001c 	xori	r22,r22,32768
   251ac:	b5a00004 	addi	r22,r22,-32768
   251b0:	b02fd7fa 	srai	r23,r22,31
   251b4:	b805883a 	mov	r2,r23
   251b8:	103f1d0e 	bge	r2,zero,24e30 <___vfprintf_internal_r+0x508>
   251bc:	b004c03a 	cmpne	r2,r22,zero
   251c0:	05efc83a 	sub	r23,zero,r23
   251c4:	b8afc83a 	sub	r23,r23,r2
   251c8:	05adc83a 	sub	r22,zero,r22
   251cc:	01000b44 	movi	r4,45
   251d0:	00800044 	movi	r2,1
   251d4:	003f3a06 	br	24ec0 <___vfprintf_internal_r+0x598>
   251d8:	d8c00717 	ldw	r3,28(sp)
   251dc:	6880040c 	andi	r2,r13,16
   251e0:	1d800017 	ldw	r22,0(r3)
   251e4:	18c00104 	addi	r3,r3,4
   251e8:	d8c00715 	stw	r3,28(sp)
   251ec:	1000031e 	bne	r2,zero,251fc <___vfprintf_internal_r+0x8d4>
   251f0:	6880100c 	andi	r2,r13,64
   251f4:	10000126 	beq	r2,zero,251fc <___vfprintf_internal_r+0x8d4>
   251f8:	b5bfffcc 	andi	r22,r22,65535
   251fc:	002f883a 	mov	r23,zero
   25200:	00800044 	movi	r2,1
   25204:	003f2d06 	br	24ebc <___vfprintf_internal_r+0x594>
   25208:	d8c00717 	ldw	r3,28(sp)
   2520c:	6880040c 	andi	r2,r13,16
   25210:	1d800017 	ldw	r22,0(r3)
   25214:	18c00104 	addi	r3,r3,4
   25218:	d8c00715 	stw	r3,28(sp)
   2521c:	1000031e 	bne	r2,zero,2522c <___vfprintf_internal_r+0x904>
   25220:	6880100c 	andi	r2,r13,64
   25224:	10000126 	beq	r2,zero,2522c <___vfprintf_internal_r+0x904>
   25228:	b5bfffcc 	andi	r22,r22,65535
   2522c:	002f883a 	mov	r23,zero
   25230:	0005883a 	mov	r2,zero
   25234:	003f2106 	br	24ebc <___vfprintf_internal_r+0x594>
   25238:	d9000517 	ldw	r4,20(sp)
   2523c:	0028fbc0 	call	28fbc <__sinit>
   25240:	003dd206 	br	2498c <___vfprintf_internal_r+0x64>
   25244:	b02fd7fa 	srai	r23,r22,31
   25248:	b805883a 	mov	r2,r23
   2524c:	003ef706 	br	24e2c <___vfprintf_internal_r+0x504>
   25250:	181b883a 	mov	r13,r3
   25254:	b803681e 	bne	r23,zero,25ff8 <___vfprintf_internal_r+0x16d0>
   25258:	b08002a8 	cmpgeui	r2,r22,10
   2525c:	1003661e 	bne	r2,zero,25ff8 <___vfprintf_internal_r+0x16d0>
   25260:	b5800c04 	addi	r22,r22,48
   25264:	dd8029c5 	stb	r22,167(sp)
   25268:	6807883a 	mov	r3,r13
   2526c:	01c00044 	movi	r7,1
   25270:	dd4029c4 	addi	r21,sp,167
   25274:	003f3406 	br	24f48 <___vfprintf_internal_r+0x620>
   25278:	d8800717 	ldw	r2,28(sp)
   2527c:	14000017 	ldw	r16,0(r2)
   25280:	10800104 	addi	r2,r2,4
   25284:	8002e90e 	bge	r16,zero,25e2c <___vfprintf_internal_r+0x1504>
   25288:	0421c83a 	sub	r16,zero,r16
   2528c:	d8800715 	stw	r2,28(sp)
   25290:	a2c00007 	ldb	r11,0(r20)
   25294:	6b400114 	ori	r13,r13,4
   25298:	003df306 	br	24a68 <___vfprintf_internal_r+0x140>
   2529c:	a7000007 	ldb	fp,0(r20)
   252a0:	a0c00044 	addi	r3,r20,1
   252a4:	e0800aa0 	cmpeqi	r2,fp,42
   252a8:	10066f1e 	bne	r2,zero,26c68 <___vfprintf_internal_r+0x2340>
   252ac:	e0bff404 	addi	r2,fp,-48
   252b0:	110002b0 	cmpltui	r4,r2,10
   252b4:	1829883a 	mov	r20,r3
   252b8:	0011883a 	mov	r8,zero
   252bc:	203dec26 	beq	r4,zero,24a70 <___vfprintf_internal_r+0x148>
   252c0:	a7000007 	ldb	fp,0(r20)
   252c4:	420002a4 	muli	r8,r8,10
   252c8:	a5000044 	addi	r20,r20,1
   252cc:	4091883a 	add	r8,r8,r2
   252d0:	e0bff404 	addi	r2,fp,-48
   252d4:	10c002b0 	cmpltui	r3,r2,10
   252d8:	183ff91e 	bne	r3,zero,252c0 <___vfprintf_internal_r+0x998>
   252dc:	003de406 	br	24a70 <___vfprintf_internal_r+0x148>
   252e0:	a2c00007 	ldb	r11,0(r20)
   252e4:	6b402014 	ori	r13,r13,128
   252e8:	003ddf06 	br	24a68 <___vfprintf_internal_r+0x140>
   252ec:	00800ac4 	movi	r2,43
   252f0:	a2c00007 	ldb	r11,0(r20)
   252f4:	d8801645 	stb	r2,89(sp)
   252f8:	003ddb06 	br	24a68 <___vfprintf_internal_r+0x140>
   252fc:	a2c00007 	ldb	r11,0(r20)
   25300:	6b400054 	ori	r13,r13,1
   25304:	003dd806 	br	24a68 <___vfprintf_internal_r+0x140>
   25308:	d8801647 	ldb	r2,89(sp)
   2530c:	a7000003 	ldbu	fp,0(r20)
   25310:	10000c1e 	bne	r2,zero,25344 <___vfprintf_internal_r+0xa1c>
   25314:	e2c03fcc 	andi	r11,fp,255
   25318:	00800804 	movi	r2,32
   2531c:	5ac0201c 	xori	r11,r11,128
   25320:	d8801645 	stb	r2,89(sp)
   25324:	5affe004 	addi	r11,r11,-128
   25328:	003dcf06 	br	24a68 <___vfprintf_internal_r+0x140>
   2532c:	a2c00007 	ldb	r11,0(r20)
   25330:	58801b18 	cmpnei	r2,r11,108
   25334:	1002bb1e 	bne	r2,zero,25e24 <___vfprintf_internal_r+0x14fc>
   25338:	a7000043 	ldbu	fp,1(r20)
   2533c:	6b400814 	ori	r13,r13,32
   25340:	a5000044 	addi	r20,r20,1
   25344:	e2c03fcc 	andi	r11,fp,255
   25348:	5ac0201c 	xori	r11,r11,128
   2534c:	5affe004 	addi	r11,r11,-128
   25350:	003dc506 	br	24a68 <___vfprintf_internal_r+0x140>
   25354:	a2c00007 	ldb	r11,0(r20)
   25358:	6b400214 	ori	r13,r13,8
   2535c:	003dc206 	br	24a68 <___vfprintf_internal_r+0x140>
   25360:	a2c00007 	ldb	r11,0(r20)
   25364:	6b401014 	ori	r13,r13,64
   25368:	003dbf06 	br	24a68 <___vfprintf_internal_r+0x140>
   2536c:	d8c00717 	ldw	r3,28(sp)
   25370:	d8001645 	stb	zero,89(sp)
   25374:	03000044 	movi	r12,1
   25378:	18800017 	ldw	r2,0(r3)
   2537c:	18c00104 	addi	r3,r3,4
   25380:	d8c00715 	stw	r3,28(sp)
   25384:	d8802005 	stb	r2,128(sp)
   25388:	01c00044 	movi	r7,1
   2538c:	dd402004 	addi	r21,sp,128
   25390:	003e2a06 	br	24c3c <___vfprintf_internal_r+0x314>
   25394:	d8800717 	ldw	r2,28(sp)
   25398:	d8001645 	stb	zero,89(sp)
   2539c:	15400017 	ldw	r21,0(r2)
   253a0:	15800104 	addi	r22,r2,4
   253a4:	a802e226 	beq	r21,zero,25f30 <___vfprintf_internal_r+0x1608>
   253a8:	db400815 	stw	r13,32(sp)
   253ac:	40bfffe0 	cmpeqi	r2,r8,-1
   253b0:	10046b1e 	bne	r2,zero,26560 <___vfprintf_internal_r+0x1c38>
   253b4:	400d883a 	mov	r6,r8
   253b8:	000b883a 	mov	r5,zero
   253bc:	a809883a 	mov	r4,r21
   253c0:	da000715 	stw	r8,28(sp)
   253c4:	0029cb40 	call	29cb4 <memchr>
   253c8:	da000717 	ldw	r8,28(sp)
   253cc:	db400817 	ldw	r13,32(sp)
   253d0:	1005b126 	beq	r2,zero,26a98 <___vfprintf_internal_r+0x2170>
   253d4:	154fc83a 	sub	r7,r2,r21
   253d8:	3819883a 	mov	r12,r7
   253dc:	dd800715 	stw	r22,28(sp)
   253e0:	003e1606 	br	24c3c <___vfprintf_internal_r+0x314>
   253e4:	a2c00007 	ldb	r11,0(r20)
   253e8:	6b400814 	ori	r13,r13,32
   253ec:	003d9e06 	br	24a68 <___vfprintf_internal_r+0x140>
   253f0:	d8c00717 	ldw	r3,28(sp)
   253f4:	009e0c04 	movi	r2,30768
   253f8:	010000f4 	movhi	r4,3
   253fc:	d880168d 	sth	r2,90(sp)
   25400:	18800104 	addi	r2,r3,4
   25404:	d8800715 	stw	r2,28(sp)
   25408:	20923e04 	addi	r2,r4,18680
   2540c:	d8800e15 	stw	r2,56(sp)
   25410:	1d800017 	ldw	r22,0(r3)
   25414:	002f883a 	mov	r23,zero
   25418:	6b400094 	ori	r13,r13,2
   2541c:	00800084 	movi	r2,2
   25420:	07001e04 	movi	fp,120
   25424:	003ea506 	br	24ebc <___vfprintf_internal_r+0x594>
   25428:	6880080c 	andi	r2,r13,32
   2542c:	10028926 	beq	r2,zero,25e54 <___vfprintf_internal_r+0x152c>
   25430:	d9000617 	ldw	r4,24(sp)
   25434:	d8800717 	ldw	r2,28(sp)
   25438:	2007d7fa 	srai	r3,r4,31
   2543c:	10800017 	ldw	r2,0(r2)
   25440:	11000015 	stw	r4,0(r2)
   25444:	10c00115 	stw	r3,4(r2)
   25448:	d8800717 	ldw	r2,28(sp)
   2544c:	10800104 	addi	r2,r2,4
   25450:	d8800715 	stw	r2,28(sp)
   25454:	003d6e06 	br	24a10 <___vfprintf_internal_r+0xe8>
   25458:	e2c01990 	cmplti	r11,fp,102
   2545c:	5800ed1e 	bne	r11,zero,25814 <___vfprintf_internal_r+0xeec>
   25460:	d9000a17 	ldw	r4,40(sp)
   25464:	d9400b17 	ldw	r5,44(sp)
   25468:	000d883a 	mov	r6,zero
   2546c:	000f883a 	mov	r7,zero
   25470:	db001015 	stw	r12,64(sp)
   25474:	d8c00f15 	stw	r3,60(sp)
   25478:	002f8f00 	call	2f8f0 <__eqdf2>
   2547c:	d8c00f17 	ldw	r3,60(sp)
   25480:	db001017 	ldw	r12,64(sp)
   25484:	1001a61e 	bne	r2,zero,25b20 <___vfprintf_internal_r+0x11f8>
   25488:	d8801e17 	ldw	r2,120(sp)
   2548c:	010000f4 	movhi	r4,3
   25490:	21124504 	addi	r4,r4,18708
   25494:	10800044 	addi	r2,r2,1
   25498:	b5800044 	addi	r22,r22,1
   2549c:	91000015 	stw	r4,0(r18)
   254a0:	01000044 	movi	r4,1
   254a4:	d8801e15 	stw	r2,120(sp)
   254a8:	91000115 	stw	r4,4(r18)
   254ac:	dd801f15 	stw	r22,124(sp)
   254b0:	10800208 	cmpgei	r2,r2,8
   254b4:	1003c41e 	bne	r2,zero,263c8 <___vfprintf_internal_r+0x1aa0>
   254b8:	94800204 	addi	r18,r18,8
   254bc:	d8801717 	ldw	r2,92(sp)
   254c0:	d9000917 	ldw	r4,36(sp)
   254c4:	11000416 	blt	r2,r4,254d8 <___vfprintf_internal_r+0xbb0>
   254c8:	1880004c 	andi	r2,r3,1
   254cc:	1000021e 	bne	r2,zero,254d8 <___vfprintf_internal_r+0xbb0>
   254d0:	b009883a 	mov	r4,r22
   254d4:	003e0f06 	br	24d14 <___vfprintf_internal_r+0x3ec>
   254d8:	d8800d17 	ldw	r2,52(sp)
   254dc:	d9400c17 	ldw	r5,48(sp)
   254e0:	90800015 	stw	r2,0(r18)
   254e4:	d8801e17 	ldw	r2,120(sp)
   254e8:	2d89883a 	add	r4,r5,r22
   254ec:	91400115 	stw	r5,4(r18)
   254f0:	10800044 	addi	r2,r2,1
   254f4:	d8801e15 	stw	r2,120(sp)
   254f8:	d9001f15 	stw	r4,124(sp)
   254fc:	10800208 	cmpgei	r2,r2,8
   25500:	10026b1e 	bne	r2,zero,25eb0 <___vfprintf_internal_r+0x1588>
   25504:	94800204 	addi	r18,r18,8
   25508:	d8800917 	ldw	r2,36(sp)
   2550c:	15ffffc4 	addi	r23,r2,-1
   25510:	05fe000e 	bge	zero,r23,24d14 <___vfprintf_internal_r+0x3ec>
   25514:	058000f4 	movhi	r22,3
   25518:	b9400450 	cmplti	r5,r23,17
   2551c:	d8801e17 	ldw	r2,120(sp)
   25520:	b5924604 	addi	r22,r22,18712
   25524:	2801441e 	bne	r5,zero,25a38 <___vfprintf_internal_r+0x1110>
   25528:	900d883a 	mov	r6,r18
   2552c:	980b883a 	mov	r5,r19
   25530:	1825883a 	mov	r18,r3
   25534:	b02b883a 	mov	r21,r22
   25538:	8027883a 	mov	r19,r16
   2553c:	a02d883a 	mov	r22,r20
   25540:	b821883a 	mov	r16,r23
   25544:	07000404 	movi	fp,16
   25548:	6029883a 	mov	r20,r12
   2554c:	282f883a 	mov	r23,r5
   25550:	3007883a 	mov	r3,r6
   25554:	00000406 	br	25568 <___vfprintf_internal_r+0xc40>
   25558:	18c00204 	addi	r3,r3,8
   2555c:	843ffc04 	addi	r16,r16,-16
   25560:	81400448 	cmpgei	r5,r16,17
   25564:	28012a26 	beq	r5,zero,25a10 <___vfprintf_internal_r+0x10e8>
   25568:	10800044 	addi	r2,r2,1
   2556c:	21000404 	addi	r4,r4,16
   25570:	1d400015 	stw	r21,0(r3)
   25574:	1f000115 	stw	fp,4(r3)
   25578:	d9001f15 	stw	r4,124(sp)
   2557c:	d8801e15 	stw	r2,120(sp)
   25580:	11400208 	cmpgei	r5,r2,8
   25584:	283ff426 	beq	r5,zero,25558 <___vfprintf_internal_r+0xc30>
   25588:	d9400417 	ldw	r5,16(sp)
   2558c:	d9000517 	ldw	r4,20(sp)
   25590:	d9801d04 	addi	r6,sp,116
   25594:	002bae80 	call	2bae8 <__sprint_r>
   25598:	103dee1e 	bne	r2,zero,24d54 <___vfprintf_internal_r+0x42c>
   2559c:	d9001f17 	ldw	r4,124(sp)
   255a0:	d8801e17 	ldw	r2,120(sp)
   255a4:	8807883a 	mov	r3,r17
   255a8:	003fec06 	br	2555c <___vfprintf_internal_r+0xc34>
   255ac:	832fc83a 	sub	r23,r16,r12
   255b0:	05fdca0e 	bge	zero,r23,24cdc <___vfprintf_internal_r+0x3b4>
   255b4:	b009883a 	mov	r4,r22
   255b8:	b9400450 	cmplti	r5,r23,17
   255bc:	058000f4 	movhi	r22,3
   255c0:	d8801e17 	ldw	r2,120(sp)
   255c4:	b5924604 	addi	r22,r22,18712
   255c8:	28002e1e 	bne	r5,zero,25684 <___vfprintf_internal_r+0xd5c>
   255cc:	d8c00f15 	stw	r3,60(sp)
   255d0:	dc001015 	stw	r16,64(sp)
   255d4:	9007883a 	mov	r3,r18
   255d8:	b821883a 	mov	r16,r23
   255dc:	b025883a 	mov	r18,r22
   255e0:	982f883a 	mov	r23,r19
   255e4:	a02d883a 	mov	r22,r20
   255e8:	03400404 	movi	r13,16
   255ec:	da001215 	stw	r8,72(sp)
   255f0:	6029883a 	mov	r20,r12
   255f4:	3827883a 	mov	r19,r7
   255f8:	00000406 	br	2560c <___vfprintf_internal_r+0xce4>
   255fc:	843ffc04 	addi	r16,r16,-16
   25600:	81400448 	cmpgei	r5,r16,17
   25604:	18c00204 	addi	r3,r3,8
   25608:	28001426 	beq	r5,zero,2565c <___vfprintf_internal_r+0xd34>
   2560c:	10800044 	addi	r2,r2,1
   25610:	21000404 	addi	r4,r4,16
   25614:	1c800015 	stw	r18,0(r3)
   25618:	1b400115 	stw	r13,4(r3)
   2561c:	d9001f15 	stw	r4,124(sp)
   25620:	d8801e15 	stw	r2,120(sp)
   25624:	11400208 	cmpgei	r5,r2,8
   25628:	283ff426 	beq	r5,zero,255fc <___vfprintf_internal_r+0xcd4>
   2562c:	d9400417 	ldw	r5,16(sp)
   25630:	d9000517 	ldw	r4,20(sp)
   25634:	d9801d04 	addi	r6,sp,116
   25638:	002bae80 	call	2bae8 <__sprint_r>
   2563c:	103dc51e 	bne	r2,zero,24d54 <___vfprintf_internal_r+0x42c>
   25640:	843ffc04 	addi	r16,r16,-16
   25644:	81400448 	cmpgei	r5,r16,17
   25648:	d9001f17 	ldw	r4,124(sp)
   2564c:	d8801e17 	ldw	r2,120(sp)
   25650:	8807883a 	mov	r3,r17
   25654:	03400404 	movi	r13,16
   25658:	283fec1e 	bne	r5,zero,2560c <___vfprintf_internal_r+0xce4>
   2565c:	980f883a 	mov	r7,r19
   25660:	a019883a 	mov	r12,r20
   25664:	b827883a 	mov	r19,r23
   25668:	b029883a 	mov	r20,r22
   2566c:	802f883a 	mov	r23,r16
   25670:	902d883a 	mov	r22,r18
   25674:	da001217 	ldw	r8,72(sp)
   25678:	1825883a 	mov	r18,r3
   2567c:	dc001017 	ldw	r16,64(sp)
   25680:	d8c00f17 	ldw	r3,60(sp)
   25684:	10800044 	addi	r2,r2,1
   25688:	b909883a 	add	r4,r23,r4
   2568c:	d8801e15 	stw	r2,120(sp)
   25690:	95800015 	stw	r22,0(r18)
   25694:	95c00115 	stw	r23,4(r18)
   25698:	d9001f15 	stw	r4,124(sp)
   2569c:	10800208 	cmpgei	r2,r2,8
   256a0:	1003621e 	bne	r2,zero,2642c <___vfprintf_internal_r+0x1b04>
   256a4:	41efc83a 	sub	r23,r8,r7
   256a8:	94800204 	addi	r18,r18,8
   256ac:	202d883a 	mov	r22,r4
   256b0:	05fd8c0e 	bge	zero,r23,24ce4 <___vfprintf_internal_r+0x3bc>
   256b4:	b9400450 	cmplti	r5,r23,17
   256b8:	d8801e17 	ldw	r2,120(sp)
   256bc:	b009883a 	mov	r4,r22
   256c0:	2803b11e 	bne	r5,zero,26588 <___vfprintf_internal_r+0x1c60>
   256c4:	d8c00f15 	stw	r3,60(sp)
   256c8:	dc001015 	stw	r16,64(sp)
   256cc:	9007883a 	mov	r3,r18
   256d0:	b821883a 	mov	r16,r23
   256d4:	a02d883a 	mov	r22,r20
   256d8:	982f883a 	mov	r23,r19
   256dc:	9825883a 	mov	r18,r19
   256e0:	02000404 	movi	r8,16
   256e4:	6029883a 	mov	r20,r12
   256e8:	3827883a 	mov	r19,r7
   256ec:	00000406 	br	25700 <___vfprintf_internal_r+0xdd8>
   256f0:	843ffc04 	addi	r16,r16,-16
   256f4:	81400448 	cmpgei	r5,r16,17
   256f8:	18c00204 	addi	r3,r3,8
   256fc:	28001426 	beq	r5,zero,25750 <___vfprintf_internal_r+0xe28>
   25700:	10800044 	addi	r2,r2,1
   25704:	21000404 	addi	r4,r4,16
   25708:	1c800015 	stw	r18,0(r3)
   2570c:	1a000115 	stw	r8,4(r3)
   25710:	d9001f15 	stw	r4,124(sp)
   25714:	d8801e15 	stw	r2,120(sp)
   25718:	11400208 	cmpgei	r5,r2,8
   2571c:	283ff426 	beq	r5,zero,256f0 <___vfprintf_internal_r+0xdc8>
   25720:	d9400417 	ldw	r5,16(sp)
   25724:	d9000517 	ldw	r4,20(sp)
   25728:	d9801d04 	addi	r6,sp,116
   2572c:	002bae80 	call	2bae8 <__sprint_r>
   25730:	103d881e 	bne	r2,zero,24d54 <___vfprintf_internal_r+0x42c>
   25734:	843ffc04 	addi	r16,r16,-16
   25738:	81400448 	cmpgei	r5,r16,17
   2573c:	d9001f17 	ldw	r4,124(sp)
   25740:	d8801e17 	ldw	r2,120(sp)
   25744:	8807883a 	mov	r3,r17
   25748:	02000404 	movi	r8,16
   2574c:	283fec1e 	bne	r5,zero,25700 <___vfprintf_internal_r+0xdd8>
   25750:	980f883a 	mov	r7,r19
   25754:	a019883a 	mov	r12,r20
   25758:	9027883a 	mov	r19,r18
   2575c:	b029883a 	mov	r20,r22
   25760:	1825883a 	mov	r18,r3
   25764:	b82d883a 	mov	r22,r23
   25768:	d8c00f17 	ldw	r3,60(sp)
   2576c:	802f883a 	mov	r23,r16
   25770:	dc001017 	ldw	r16,64(sp)
   25774:	10800044 	addi	r2,r2,1
   25778:	b909883a 	add	r4,r23,r4
   2577c:	d8801e15 	stw	r2,120(sp)
   25780:	95800015 	stw	r22,0(r18)
   25784:	95c00115 	stw	r23,4(r18)
   25788:	d9001f15 	stw	r4,124(sp)
   2578c:	10800208 	cmpgei	r2,r2,8
   25790:	10018a1e 	bne	r2,zero,25dbc <___vfprintf_internal_r+0x1494>
   25794:	94800204 	addi	r18,r18,8
   25798:	202d883a 	mov	r22,r4
   2579c:	003d5106 	br	24ce4 <___vfprintf_internal_r+0x3bc>
   257a0:	11400060 	cmpeqi	r5,r2,1
   257a4:	181b883a 	mov	r13,r3
   257a8:	002d883a 	mov	r22,zero
   257ac:	283eac1e 	bne	r5,zero,25260 <___vfprintf_internal_r+0x938>
   257b0:	108000a0 	cmpeqi	r2,r2,2
   257b4:	002f883a 	mov	r23,zero
   257b8:	103dcd26 	beq	r2,zero,24ef0 <___vfprintf_internal_r+0x5c8>
   257bc:	d9400e17 	ldw	r5,56(sp)
   257c0:	882b883a 	mov	r21,r17
   257c4:	b08003cc 	andi	r2,r22,15
   257c8:	b806973a 	slli	r3,r23,28
   257cc:	b02cd13a 	srli	r22,r22,4
   257d0:	2885883a 	add	r2,r5,r2
   257d4:	10800003 	ldbu	r2,0(r2)
   257d8:	b82ed13a 	srli	r23,r23,4
   257dc:	1dacb03a 	or	r22,r3,r22
   257e0:	a8bfffc5 	stb	r2,-1(r21)
   257e4:	b5c4b03a 	or	r2,r22,r23
   257e8:	ad7fffc4 	addi	r21,r21,-1
   257ec:	103ff51e 	bne	r2,zero,257c4 <___vfprintf_internal_r+0xe9c>
   257f0:	8d4fc83a 	sub	r7,r17,r21
   257f4:	6807883a 	mov	r3,r13
   257f8:	003dd306 	br	24f48 <___vfprintf_internal_r+0x620>
   257fc:	d9400417 	ldw	r5,16(sp)
   25800:	d9000517 	ldw	r4,20(sp)
   25804:	d9801d04 	addi	r6,sp,116
   25808:	002bae80 	call	2bae8 <__sprint_r>
   2580c:	103d4b26 	beq	r2,zero,24d3c <___vfprintf_internal_r+0x414>
   25810:	003d5006 	br	24d54 <___vfprintf_internal_r+0x42c>
   25814:	d8800917 	ldw	r2,36(sp)
   25818:	95c00204 	addi	r23,r18,8
   2581c:	10800088 	cmpgei	r2,r2,2
   25820:	10012126 	beq	r2,zero,25ca8 <___vfprintf_internal_r+0x1380>
   25824:	da001e17 	ldw	r8,120(sp)
   25828:	00800044 	movi	r2,1
   2582c:	b5800044 	addi	r22,r22,1
   25830:	42000044 	addi	r8,r8,1
   25834:	90800115 	stw	r2,4(r18)
   25838:	95400015 	stw	r21,0(r18)
   2583c:	dd801f15 	stw	r22,124(sp)
   25840:	da001e15 	stw	r8,120(sp)
   25844:	40800210 	cmplti	r2,r8,8
   25848:	10022a26 	beq	r2,zero,260f4 <___vfprintf_internal_r+0x17cc>
   2584c:	d8800c17 	ldw	r2,48(sp)
   25850:	d9000d17 	ldw	r4,52(sp)
   25854:	42000044 	addi	r8,r8,1
   25858:	15b9883a 	add	fp,r2,r22
   2585c:	b8800115 	stw	r2,4(r23)
   25860:	b9000015 	stw	r4,0(r23)
   25864:	df001f15 	stw	fp,124(sp)
   25868:	da001e15 	stw	r8,120(sp)
   2586c:	40800208 	cmpgei	r2,r8,8
   25870:	10022d1e 	bne	r2,zero,26128 <___vfprintf_internal_r+0x1800>
   25874:	bdc00204 	addi	r23,r23,8
   25878:	d9000a17 	ldw	r4,40(sp)
   2587c:	d9400b17 	ldw	r5,44(sp)
   25880:	000d883a 	mov	r6,zero
   25884:	000f883a 	mov	r7,zero
   25888:	db001015 	stw	r12,64(sp)
   2588c:	d8c00f15 	stw	r3,60(sp)
   25890:	da000815 	stw	r8,32(sp)
   25894:	002f8f00 	call	2f8f0 <__eqdf2>
   25898:	d8c00917 	ldw	r3,36(sp)
   2589c:	da000817 	ldw	r8,32(sp)
   258a0:	db001017 	ldw	r12,64(sp)
   258a4:	1cbfffc4 	addi	r18,r3,-1
   258a8:	d8c00f17 	ldw	r3,60(sp)
   258ac:	10011a26 	beq	r2,zero,25d18 <___vfprintf_internal_r+0x13f0>
   258b0:	aa400044 	addi	r9,r21,1
   258b4:	42000044 	addi	r8,r8,1
   258b8:	e4b9883a 	add	fp,fp,r18
   258bc:	ba400015 	stw	r9,0(r23)
   258c0:	bc800115 	stw	r18,4(r23)
   258c4:	df001f15 	stw	fp,124(sp)
   258c8:	da001e15 	stw	r8,120(sp)
   258cc:	40800208 	cmpgei	r2,r8,8
   258d0:	1002c91e 	bne	r2,zero,263f8 <___vfprintf_internal_r+0x1ad0>
   258d4:	bdc00204 	addi	r23,r23,8
   258d8:	d9401117 	ldw	r5,68(sp)
   258dc:	42000044 	addi	r8,r8,1
   258e0:	d8801904 	addi	r2,sp,100
   258e4:	2f09883a 	add	r4,r5,fp
   258e8:	da001e15 	stw	r8,120(sp)
   258ec:	b8800015 	stw	r2,0(r23)
   258f0:	b9400115 	stw	r5,4(r23)
   258f4:	d9001f15 	stw	r4,124(sp)
   258f8:	42000208 	cmpgei	r8,r8,8
   258fc:	40013d1e 	bne	r8,zero,25df4 <___vfprintf_internal_r+0x14cc>
   25900:	bc800204 	addi	r18,r23,8
   25904:	003d0306 	br	24d14 <___vfprintf_internal_r+0x3ec>
   25908:	05c000f4 	movhi	r23,3
   2590c:	b1400450 	cmplti	r5,r22,17
   25910:	d9001f17 	ldw	r4,124(sp)
   25914:	d8801e17 	ldw	r2,120(sp)
   25918:	bdd24a04 	addi	r23,r23,18728
   2591c:	2800321e 	bne	r5,zero,259e8 <___vfprintf_internal_r+0x10c0>
   25920:	d8c01215 	stw	r3,72(sp)
   25924:	dc001315 	stw	r16,76(sp)
   25928:	9007883a 	mov	r3,r18
   2592c:	b021883a 	mov	r16,r22
   25930:	b825883a 	mov	r18,r23
   25934:	a02d883a 	mov	r22,r20
   25938:	982f883a 	mov	r23,r19
   2593c:	03c00404 	movi	r15,16
   25940:	db800f15 	stw	r14,60(sp)
   25944:	db401015 	stw	r13,64(sp)
   25948:	da001415 	stw	r8,80(sp)
   2594c:	6029883a 	mov	r20,r12
   25950:	3827883a 	mov	r19,r7
   25954:	00000406 	br	25968 <___vfprintf_internal_r+0x1040>
   25958:	843ffc04 	addi	r16,r16,-16
   2595c:	81400448 	cmpgei	r5,r16,17
   25960:	18c00204 	addi	r3,r3,8
   25964:	28001426 	beq	r5,zero,259b8 <___vfprintf_internal_r+0x1090>
   25968:	10800044 	addi	r2,r2,1
   2596c:	21000404 	addi	r4,r4,16
   25970:	1c800015 	stw	r18,0(r3)
   25974:	1bc00115 	stw	r15,4(r3)
   25978:	d9001f15 	stw	r4,124(sp)
   2597c:	d8801e15 	stw	r2,120(sp)
   25980:	11400208 	cmpgei	r5,r2,8
   25984:	283ff426 	beq	r5,zero,25958 <___vfprintf_internal_r+0x1030>
   25988:	d9400417 	ldw	r5,16(sp)
   2598c:	d9000517 	ldw	r4,20(sp)
   25990:	d9801d04 	addi	r6,sp,116
   25994:	002bae80 	call	2bae8 <__sprint_r>
   25998:	103cee1e 	bne	r2,zero,24d54 <___vfprintf_internal_r+0x42c>
   2599c:	843ffc04 	addi	r16,r16,-16
   259a0:	81400448 	cmpgei	r5,r16,17
   259a4:	d9001f17 	ldw	r4,124(sp)
   259a8:	d8801e17 	ldw	r2,120(sp)
   259ac:	8807883a 	mov	r3,r17
   259b0:	03c00404 	movi	r15,16
   259b4:	283fec1e 	bne	r5,zero,25968 <___vfprintf_internal_r+0x1040>
   259b8:	980f883a 	mov	r7,r19
   259bc:	a019883a 	mov	r12,r20
   259c0:	b827883a 	mov	r19,r23
   259c4:	b029883a 	mov	r20,r22
   259c8:	902f883a 	mov	r23,r18
   259cc:	802d883a 	mov	r22,r16
   259d0:	1825883a 	mov	r18,r3
   259d4:	db800f17 	ldw	r14,60(sp)
   259d8:	db401017 	ldw	r13,64(sp)
   259dc:	da001417 	ldw	r8,80(sp)
   259e0:	dc001317 	ldw	r16,76(sp)
   259e4:	d8c01217 	ldw	r3,72(sp)
   259e8:	10800044 	addi	r2,r2,1
   259ec:	b109883a 	add	r4,r22,r4
   259f0:	d8801e15 	stw	r2,120(sp)
   259f4:	95c00015 	stw	r23,0(r18)
   259f8:	95800115 	stw	r22,4(r18)
   259fc:	d9001f15 	stw	r4,124(sp)
   25a00:	10800208 	cmpgei	r2,r2,8
   25a04:	1001d51e 	bne	r2,zero,2615c <___vfprintf_internal_r+0x1834>
   25a08:	94800204 	addi	r18,r18,8
   25a0c:	003c9506 	br	24c64 <___vfprintf_internal_r+0x33c>
   25a10:	180d883a 	mov	r6,r3
   25a14:	b80b883a 	mov	r5,r23
   25a18:	9007883a 	mov	r3,r18
   25a1c:	a019883a 	mov	r12,r20
   25a20:	802f883a 	mov	r23,r16
   25a24:	b029883a 	mov	r20,r22
   25a28:	9821883a 	mov	r16,r19
   25a2c:	a82d883a 	mov	r22,r21
   25a30:	2827883a 	mov	r19,r5
   25a34:	3025883a 	mov	r18,r6
   25a38:	10800044 	addi	r2,r2,1
   25a3c:	95800015 	stw	r22,0(r18)
   25a40:	95c00115 	stw	r23,4(r18)
   25a44:	25c9883a 	add	r4,r4,r23
   25a48:	d8801e15 	stw	r2,120(sp)
   25a4c:	d9001f15 	stw	r4,124(sp)
   25a50:	10800208 	cmpgei	r2,r2,8
   25a54:	103cae26 	beq	r2,zero,24d10 <___vfprintf_internal_r+0x3e8>
   25a58:	d9400417 	ldw	r5,16(sp)
   25a5c:	d9000517 	ldw	r4,20(sp)
   25a60:	d9801d04 	addi	r6,sp,116
   25a64:	db000f15 	stw	r12,60(sp)
   25a68:	d8c00815 	stw	r3,32(sp)
   25a6c:	002bae80 	call	2bae8 <__sprint_r>
   25a70:	103cb81e 	bne	r2,zero,24d54 <___vfprintf_internal_r+0x42c>
   25a74:	d9001f17 	ldw	r4,124(sp)
   25a78:	d8c00817 	ldw	r3,32(sp)
   25a7c:	db000f17 	ldw	r12,60(sp)
   25a80:	8825883a 	mov	r18,r17
   25a84:	003ca306 	br	24d14 <___vfprintf_internal_r+0x3ec>
   25a88:	d9400417 	ldw	r5,16(sp)
   25a8c:	d9000517 	ldw	r4,20(sp)
   25a90:	d9801d04 	addi	r6,sp,116
   25a94:	db001515 	stw	r12,84(sp)
   25a98:	d9c01415 	stw	r7,80(sp)
   25a9c:	da001315 	stw	r8,76(sp)
   25aa0:	d8c01215 	stw	r3,72(sp)
   25aa4:	db401015 	stw	r13,64(sp)
   25aa8:	db800f15 	stw	r14,60(sp)
   25aac:	002bae80 	call	2bae8 <__sprint_r>
   25ab0:	103ca81e 	bne	r2,zero,24d54 <___vfprintf_internal_r+0x42c>
   25ab4:	dd801f17 	ldw	r22,124(sp)
   25ab8:	db001517 	ldw	r12,84(sp)
   25abc:	d9c01417 	ldw	r7,80(sp)
   25ac0:	da001317 	ldw	r8,76(sp)
   25ac4:	d8c01217 	ldw	r3,72(sp)
   25ac8:	db401017 	ldw	r13,64(sp)
   25acc:	db800f17 	ldw	r14,60(sp)
   25ad0:	8825883a 	mov	r18,r17
   25ad4:	003c7206 	br	24ca0 <___vfprintf_internal_r+0x378>
   25ad8:	d9400417 	ldw	r5,16(sp)
   25adc:	d9000517 	ldw	r4,20(sp)
   25ae0:	d9801d04 	addi	r6,sp,116
   25ae4:	db001415 	stw	r12,80(sp)
   25ae8:	d9c01315 	stw	r7,76(sp)
   25aec:	da001215 	stw	r8,72(sp)
   25af0:	d8c01015 	stw	r3,64(sp)
   25af4:	db400f15 	stw	r13,60(sp)
   25af8:	002bae80 	call	2bae8 <__sprint_r>
   25afc:	103c951e 	bne	r2,zero,24d54 <___vfprintf_internal_r+0x42c>
   25b00:	dd801f17 	ldw	r22,124(sp)
   25b04:	db001417 	ldw	r12,80(sp)
   25b08:	d9c01317 	ldw	r7,76(sp)
   25b0c:	da001217 	ldw	r8,72(sp)
   25b10:	d8c01017 	ldw	r3,64(sp)
   25b14:	db400f17 	ldw	r13,60(sp)
   25b18:	8825883a 	mov	r18,r17
   25b1c:	003c6d06 	br	24cd4 <___vfprintf_internal_r+0x3ac>
   25b20:	ddc01717 	ldw	r23,92(sp)
   25b24:	05c1a00e 	bge	zero,r23,261a8 <___vfprintf_internal_r+0x1880>
   25b28:	d8800917 	ldw	r2,36(sp)
   25b2c:	d9000817 	ldw	r4,32(sp)
   25b30:	102f883a 	mov	r23,r2
   25b34:	2080d016 	blt	r4,r2,25e78 <___vfprintf_internal_r+0x1550>
   25b38:	05c00a0e 	bge	zero,r23,25b64 <___vfprintf_internal_r+0x123c>
   25b3c:	d8801e17 	ldw	r2,120(sp)
   25b40:	b5ed883a 	add	r22,r22,r23
   25b44:	95400015 	stw	r21,0(r18)
   25b48:	10800044 	addi	r2,r2,1
   25b4c:	d8801e15 	stw	r2,120(sp)
   25b50:	95c00115 	stw	r23,4(r18)
   25b54:	dd801f15 	stw	r22,124(sp)
   25b58:	10800208 	cmpgei	r2,r2,8
   25b5c:	1003921e 	bne	r2,zero,269a8 <___vfprintf_internal_r+0x2080>
   25b60:	94800204 	addi	r18,r18,8
   25b64:	b800d016 	blt	r23,zero,25ea8 <___vfprintf_internal_r+0x1580>
   25b68:	d8800817 	ldw	r2,32(sp)
   25b6c:	15efc83a 	sub	r23,r2,r23
   25b70:	05c0fb16 	blt	zero,r23,25f60 <___vfprintf_internal_r+0x1638>
   25b74:	ddc01717 	ldw	r23,92(sp)
   25b78:	d9000917 	ldw	r4,36(sp)
   25b7c:	b900c10e 	bge	r23,r4,25e84 <___vfprintf_internal_r+0x155c>
   25b80:	d8800d17 	ldw	r2,52(sp)
   25b84:	d9400c17 	ldw	r5,48(sp)
   25b88:	90800015 	stw	r2,0(r18)
   25b8c:	d8801e17 	ldw	r2,120(sp)
   25b90:	2d89883a 	add	r4,r5,r22
   25b94:	91400115 	stw	r5,4(r18)
   25b98:	10800044 	addi	r2,r2,1
   25b9c:	d8801e15 	stw	r2,120(sp)
   25ba0:	d9001f15 	stw	r4,124(sp)
   25ba4:	10800208 	cmpgei	r2,r2,8
   25ba8:	1003651e 	bne	r2,zero,26940 <___vfprintf_internal_r+0x2018>
   25bac:	94800204 	addi	r18,r18,8
   25bb0:	d8800917 	ldw	r2,36(sp)
   25bb4:	d9400817 	ldw	r5,32(sp)
   25bb8:	15efc83a 	sub	r23,r2,r23
   25bbc:	1179c83a 	sub	fp,r2,r5
   25bc0:	bf00010e 	bge	r23,fp,25bc8 <___vfprintf_internal_r+0x12a0>
   25bc4:	b839883a 	mov	fp,r23
   25bc8:	07000c0e 	bge	zero,fp,25bfc <___vfprintf_internal_r+0x12d4>
   25bcc:	d8800817 	ldw	r2,32(sp)
   25bd0:	2709883a 	add	r4,r4,fp
   25bd4:	97000115 	stw	fp,4(r18)
   25bd8:	a893883a 	add	r9,r21,r2
   25bdc:	d8801e17 	ldw	r2,120(sp)
   25be0:	92400015 	stw	r9,0(r18)
   25be4:	d9001f15 	stw	r4,124(sp)
   25be8:	10800044 	addi	r2,r2,1
   25bec:	d8801e15 	stw	r2,120(sp)
   25bf0:	10800208 	cmpgei	r2,r2,8
   25bf4:	10037b1e 	bne	r2,zero,269e4 <___vfprintf_internal_r+0x20bc>
   25bf8:	94800204 	addi	r18,r18,8
   25bfc:	e005883a 	mov	r2,fp
   25c00:	e000010e 	bge	fp,zero,25c08 <___vfprintf_internal_r+0x12e0>
   25c04:	0005883a 	mov	r2,zero
   25c08:	b8afc83a 	sub	r23,r23,r2
   25c0c:	05fc410e 	bge	zero,r23,24d14 <___vfprintf_internal_r+0x3ec>
   25c10:	058000f4 	movhi	r22,3
   25c14:	b9400450 	cmplti	r5,r23,17
   25c18:	d8801e17 	ldw	r2,120(sp)
   25c1c:	b5924604 	addi	r22,r22,18712
   25c20:	283f851e 	bne	r5,zero,25a38 <___vfprintf_internal_r+0x1110>
   25c24:	980b883a 	mov	r5,r19
   25c28:	d8c00815 	stw	r3,32(sp)
   25c2c:	8027883a 	mov	r19,r16
   25c30:	9007883a 	mov	r3,r18
   25c34:	b821883a 	mov	r16,r23
   25c38:	b025883a 	mov	r18,r22
   25c3c:	dd400517 	ldw	r21,20(sp)
   25c40:	a02d883a 	mov	r22,r20
   25c44:	07000404 	movi	fp,16
   25c48:	6029883a 	mov	r20,r12
   25c4c:	282f883a 	mov	r23,r5
   25c50:	00000406 	br	25c64 <___vfprintf_internal_r+0x133c>
   25c54:	18c00204 	addi	r3,r3,8
   25c58:	843ffc04 	addi	r16,r16,-16
   25c5c:	81400448 	cmpgei	r5,r16,17
   25c60:	28034426 	beq	r5,zero,26974 <___vfprintf_internal_r+0x204c>
   25c64:	10800044 	addi	r2,r2,1
   25c68:	21000404 	addi	r4,r4,16
   25c6c:	1c800015 	stw	r18,0(r3)
   25c70:	1f000115 	stw	fp,4(r3)
   25c74:	d9001f15 	stw	r4,124(sp)
   25c78:	d8801e15 	stw	r2,120(sp)
   25c7c:	11400208 	cmpgei	r5,r2,8
   25c80:	283ff426 	beq	r5,zero,25c54 <___vfprintf_internal_r+0x132c>
   25c84:	d9400417 	ldw	r5,16(sp)
   25c88:	d9801d04 	addi	r6,sp,116
   25c8c:	a809883a 	mov	r4,r21
   25c90:	002bae80 	call	2bae8 <__sprint_r>
   25c94:	103c2f1e 	bne	r2,zero,24d54 <___vfprintf_internal_r+0x42c>
   25c98:	d9001f17 	ldw	r4,124(sp)
   25c9c:	d8801e17 	ldw	r2,120(sp)
   25ca0:	8807883a 	mov	r3,r17
   25ca4:	003fec06 	br	25c58 <___vfprintf_internal_r+0x1330>
   25ca8:	1880004c 	andi	r2,r3,1
   25cac:	103edd1e 	bne	r2,zero,25824 <___vfprintf_internal_r+0xefc>
   25cb0:	da001e17 	ldw	r8,120(sp)
   25cb4:	00800044 	movi	r2,1
   25cb8:	b7000044 	addi	fp,r22,1
   25cbc:	42000044 	addi	r8,r8,1
   25cc0:	90800115 	stw	r2,4(r18)
   25cc4:	95400015 	stw	r21,0(r18)
   25cc8:	df001f15 	stw	fp,124(sp)
   25ccc:	da001e15 	stw	r8,120(sp)
   25cd0:	40800210 	cmplti	r2,r8,8
   25cd4:	103f001e 	bne	r2,zero,258d8 <___vfprintf_internal_r+0xfb0>
   25cd8:	d9400417 	ldw	r5,16(sp)
   25cdc:	d9000517 	ldw	r4,20(sp)
   25ce0:	d9801d04 	addi	r6,sp,116
   25ce4:	db000f15 	stw	r12,60(sp)
   25ce8:	d8c00815 	stw	r3,32(sp)
   25cec:	002bae80 	call	2bae8 <__sprint_r>
   25cf0:	103c181e 	bne	r2,zero,24d54 <___vfprintf_internal_r+0x42c>
   25cf4:	df001f17 	ldw	fp,124(sp)
   25cf8:	da001e17 	ldw	r8,120(sp)
   25cfc:	db000f17 	ldw	r12,60(sp)
   25d00:	d8c00817 	ldw	r3,32(sp)
   25d04:	882f883a 	mov	r23,r17
   25d08:	003ef306 	br	258d8 <___vfprintf_internal_r+0xfb0>
   25d0c:	000f883a 	mov	r7,zero
   25d10:	882b883a 	mov	r21,r17
   25d14:	003c8c06 	br	24f48 <___vfprintf_internal_r+0x620>
   25d18:	d8800917 	ldw	r2,36(sp)
   25d1c:	10800090 	cmplti	r2,r2,2
   25d20:	103eed1e 	bne	r2,zero,258d8 <___vfprintf_internal_r+0xfb0>
   25d24:	d8800917 	ldw	r2,36(sp)
   25d28:	058000f4 	movhi	r22,3
   25d2c:	b5924604 	addi	r22,r22,18712
   25d30:	10800490 	cmplti	r2,r2,18
   25d34:	1002061e 	bne	r2,zero,26550 <___vfprintf_internal_r+0x1c28>
   25d38:	9809883a 	mov	r4,r19
   25d3c:	b805883a 	mov	r2,r23
   25d40:	1827883a 	mov	r19,r3
   25d44:	a02f883a 	mov	r23,r20
   25d48:	e007883a 	mov	r3,fp
   25d4c:	8029883a 	mov	r20,r16
   25d50:	05400404 	movi	r21,16
   25d54:	9021883a 	mov	r16,r18
   25d58:	2039883a 	mov	fp,r4
   25d5c:	b025883a 	mov	r18,r22
   25d60:	602d883a 	mov	r22,r12
   25d64:	00000406 	br	25d78 <___vfprintf_internal_r+0x1450>
   25d68:	10800204 	addi	r2,r2,8
   25d6c:	843ffc04 	addi	r16,r16,-16
   25d70:	81000448 	cmpgei	r4,r16,17
   25d74:	2001ec26 	beq	r4,zero,26528 <___vfprintf_internal_r+0x1c00>
   25d78:	42000044 	addi	r8,r8,1
   25d7c:	18c00404 	addi	r3,r3,16
   25d80:	14800015 	stw	r18,0(r2)
   25d84:	15400115 	stw	r21,4(r2)
   25d88:	d8c01f15 	stw	r3,124(sp)
   25d8c:	da001e15 	stw	r8,120(sp)
   25d90:	41000208 	cmpgei	r4,r8,8
   25d94:	203ff426 	beq	r4,zero,25d68 <___vfprintf_internal_r+0x1440>
   25d98:	d9400417 	ldw	r5,16(sp)
   25d9c:	d9000517 	ldw	r4,20(sp)
   25da0:	d9801d04 	addi	r6,sp,116
   25da4:	002bae80 	call	2bae8 <__sprint_r>
   25da8:	103bea1e 	bne	r2,zero,24d54 <___vfprintf_internal_r+0x42c>
   25dac:	d8c01f17 	ldw	r3,124(sp)
   25db0:	da001e17 	ldw	r8,120(sp)
   25db4:	8805883a 	mov	r2,r17
   25db8:	003fec06 	br	25d6c <___vfprintf_internal_r+0x1444>
   25dbc:	d9400417 	ldw	r5,16(sp)
   25dc0:	d9000517 	ldw	r4,20(sp)
   25dc4:	d9801d04 	addi	r6,sp,116
   25dc8:	db001215 	stw	r12,72(sp)
   25dcc:	d9c01015 	stw	r7,64(sp)
   25dd0:	d8c00f15 	stw	r3,60(sp)
   25dd4:	002bae80 	call	2bae8 <__sprint_r>
   25dd8:	103bde1e 	bne	r2,zero,24d54 <___vfprintf_internal_r+0x42c>
   25ddc:	dd801f17 	ldw	r22,124(sp)
   25de0:	db001217 	ldw	r12,72(sp)
   25de4:	d9c01017 	ldw	r7,64(sp)
   25de8:	d8c00f17 	ldw	r3,60(sp)
   25dec:	8825883a 	mov	r18,r17
   25df0:	003bbc06 	br	24ce4 <___vfprintf_internal_r+0x3bc>
   25df4:	d9400417 	ldw	r5,16(sp)
   25df8:	d9000517 	ldw	r4,20(sp)
   25dfc:	d9801d04 	addi	r6,sp,116
   25e00:	db000f15 	stw	r12,60(sp)
   25e04:	d8c00815 	stw	r3,32(sp)
   25e08:	002bae80 	call	2bae8 <__sprint_r>
   25e0c:	103bd11e 	bne	r2,zero,24d54 <___vfprintf_internal_r+0x42c>
   25e10:	d9001f17 	ldw	r4,124(sp)
   25e14:	db000f17 	ldw	r12,60(sp)
   25e18:	d8c00817 	ldw	r3,32(sp)
   25e1c:	8825883a 	mov	r18,r17
   25e20:	003bbc06 	br	24d14 <___vfprintf_internal_r+0x3ec>
   25e24:	6b400414 	ori	r13,r13,16
   25e28:	003b0f06 	br	24a68 <___vfprintf_internal_r+0x140>
   25e2c:	a2c00007 	ldb	r11,0(r20)
   25e30:	d8800715 	stw	r2,28(sp)
   25e34:	003b0c06 	br	24a68 <___vfprintf_internal_r+0x140>
   25e38:	882b883a 	mov	r21,r17
   25e3c:	003c4206 	br	24f48 <___vfprintf_internal_r+0x620>
   25e40:	18800017 	ldw	r2,0(r3)
   25e44:	d8800a15 	stw	r2,40(sp)
   25e48:	18800117 	ldw	r2,4(r3)
   25e4c:	d8800b15 	stw	r2,44(sp)
   25e50:	003c9e06 	br	250cc <___vfprintf_internal_r+0x7a4>
   25e54:	6880040c 	andi	r2,r13,16
   25e58:	1000921e 	bne	r2,zero,260a4 <___vfprintf_internal_r+0x177c>
   25e5c:	6b40100c 	andi	r13,r13,64
   25e60:	68009026 	beq	r13,zero,260a4 <___vfprintf_internal_r+0x177c>
   25e64:	d8800717 	ldw	r2,28(sp)
   25e68:	d8c00617 	ldw	r3,24(sp)
   25e6c:	10800017 	ldw	r2,0(r2)
   25e70:	10c0000d 	sth	r3,0(r2)
   25e74:	003d7406 	br	25448 <___vfprintf_internal_r+0xb20>
   25e78:	202f883a 	mov	r23,r4
   25e7c:	05ff2f16 	blt	zero,r23,25b3c <___vfprintf_internal_r+0x1214>
   25e80:	003f3806 	br	25b64 <___vfprintf_internal_r+0x123c>
   25e84:	1880004c 	andi	r2,r3,1
   25e88:	103f3d1e 	bne	r2,zero,25b80 <___vfprintf_internal_r+0x1258>
   25e8c:	d8800817 	ldw	r2,32(sp)
   25e90:	25efc83a 	sub	r23,r4,r23
   25e94:	20b9c83a 	sub	fp,r4,r2
   25e98:	b009883a 	mov	r4,r22
   25e9c:	bf3f570e 	bge	r23,fp,25bfc <___vfprintf_internal_r+0x12d4>
   25ea0:	b839883a 	mov	fp,r23
   25ea4:	003f5506 	br	25bfc <___vfprintf_internal_r+0x12d4>
   25ea8:	002f883a 	mov	r23,zero
   25eac:	003f2e06 	br	25b68 <___vfprintf_internal_r+0x1240>
   25eb0:	d9400417 	ldw	r5,16(sp)
   25eb4:	d9000517 	ldw	r4,20(sp)
   25eb8:	d9801d04 	addi	r6,sp,116
   25ebc:	db000f15 	stw	r12,60(sp)
   25ec0:	d8c00815 	stw	r3,32(sp)
   25ec4:	002bae80 	call	2bae8 <__sprint_r>
   25ec8:	103ba21e 	bne	r2,zero,24d54 <___vfprintf_internal_r+0x42c>
   25ecc:	d9001f17 	ldw	r4,124(sp)
   25ed0:	db000f17 	ldw	r12,60(sp)
   25ed4:	d8c00817 	ldw	r3,32(sp)
   25ed8:	8825883a 	mov	r18,r17
   25edc:	003d8a06 	br	25508 <___vfprintf_internal_r+0xbe0>
   25ee0:	008000f4 	movhi	r2,3
   25ee4:	10923904 	addi	r2,r2,18660
   25ee8:	d8800e15 	stw	r2,56(sp)
   25eec:	6880080c 	andi	r2,r13,32
   25ef0:	10007326 	beq	r2,zero,260c0 <___vfprintf_internal_r+0x1798>
   25ef4:	d8800717 	ldw	r2,28(sp)
   25ef8:	15800017 	ldw	r22,0(r2)
   25efc:	15c00117 	ldw	r23,4(r2)
   25f00:	10800204 	addi	r2,r2,8
   25f04:	d8800715 	stw	r2,28(sp)
   25f08:	6880004c 	andi	r2,r13,1
   25f0c:	10006a26 	beq	r2,zero,260b8 <___vfprintf_internal_r+0x1790>
   25f10:	b5c4b03a 	or	r2,r22,r23
   25f14:	10006826 	beq	r2,zero,260b8 <___vfprintf_internal_r+0x1790>
   25f18:	00800c04 	movi	r2,48
   25f1c:	d8801685 	stb	r2,90(sp)
   25f20:	df0016c5 	stb	fp,91(sp)
   25f24:	6b400094 	ori	r13,r13,2
   25f28:	00800084 	movi	r2,2
   25f2c:	003be306 	br	24ebc <___vfprintf_internal_r+0x594>
   25f30:	408001f0 	cmpltui	r2,r8,7
   25f34:	400f883a 	mov	r7,r8
   25f38:	1001bf26 	beq	r2,zero,26638 <___vfprintf_internal_r+0x1d10>
   25f3c:	054000f4 	movhi	r21,3
   25f40:	3819883a 	mov	r12,r7
   25f44:	dd800715 	stw	r22,28(sp)
   25f48:	ad524304 	addi	r21,r21,18700
   25f4c:	003b3b06 	br	24c3c <___vfprintf_internal_r+0x314>
   25f50:	008000f4 	movhi	r2,3
   25f54:	10923e04 	addi	r2,r2,18680
   25f58:	d8800e15 	stw	r2,56(sp)
   25f5c:	003fe306 	br	25eec <___vfprintf_internal_r+0x15c4>
   25f60:	b009883a 	mov	r4,r22
   25f64:	b9400450 	cmplti	r5,r23,17
   25f68:	058000f4 	movhi	r22,3
   25f6c:	d8801e17 	ldw	r2,120(sp)
   25f70:	b5924604 	addi	r22,r22,18712
   25f74:	2801901e 	bne	r5,zero,265b8 <___vfprintf_internal_r+0x1c90>
   25f78:	980b883a 	mov	r5,r19
   25f7c:	d8c00f15 	stw	r3,60(sp)
   25f80:	8027883a 	mov	r19,r16
   25f84:	9007883a 	mov	r3,r18
   25f88:	b821883a 	mov	r16,r23
   25f8c:	b025883a 	mov	r18,r22
   25f90:	07000404 	movi	fp,16
   25f94:	a02d883a 	mov	r22,r20
   25f98:	282f883a 	mov	r23,r5
   25f9c:	6029883a 	mov	r20,r12
   25fa0:	00000406 	br	25fb4 <___vfprintf_internal_r+0x168c>
   25fa4:	18c00204 	addi	r3,r3,8
   25fa8:	843ffc04 	addi	r16,r16,-16
   25fac:	81400448 	cmpgei	r5,r16,17
   25fb0:	28017826 	beq	r5,zero,26594 <___vfprintf_internal_r+0x1c6c>
   25fb4:	10800044 	addi	r2,r2,1
   25fb8:	21000404 	addi	r4,r4,16
   25fbc:	1c800015 	stw	r18,0(r3)
   25fc0:	1f000115 	stw	fp,4(r3)
   25fc4:	d9001f15 	stw	r4,124(sp)
   25fc8:	d8801e15 	stw	r2,120(sp)
   25fcc:	11400208 	cmpgei	r5,r2,8
   25fd0:	283ff426 	beq	r5,zero,25fa4 <___vfprintf_internal_r+0x167c>
   25fd4:	d9400417 	ldw	r5,16(sp)
   25fd8:	d9000517 	ldw	r4,20(sp)
   25fdc:	d9801d04 	addi	r6,sp,116
   25fe0:	002bae80 	call	2bae8 <__sprint_r>
   25fe4:	103b5b1e 	bne	r2,zero,24d54 <___vfprintf_internal_r+0x42c>
   25fe8:	d9001f17 	ldw	r4,124(sp)
   25fec:	d8801e17 	ldw	r2,120(sp)
   25ff0:	8807883a 	mov	r3,r17
   25ff4:	003fec06 	br	25fa8 <___vfprintf_internal_r+0x1680>
   25ff8:	b007883a 	mov	r3,r22
   25ffc:	9805883a 	mov	r2,r19
   26000:	dc000f15 	stw	r16,60(sp)
   26004:	a02d883a 	mov	r22,r20
   26008:	b827883a 	mov	r19,r23
   2600c:	9029883a 	mov	r20,r18
   26010:	db400815 	stw	r13,32(sp)
   26014:	8821883a 	mov	r16,r17
   26018:	da001015 	stw	r8,64(sp)
   2601c:	202b883a 	mov	r21,r4
   26020:	102f883a 	mov	r23,r2
   26024:	1825883a 	mov	r18,r3
   26028:	9009883a 	mov	r4,r18
   2602c:	980b883a 	mov	r5,r19
   26030:	01800284 	movi	r6,10
   26034:	000f883a 	mov	r7,zero
   26038:	002e2940 	call	2e294 <__umoddi3>
   2603c:	10800c04 	addi	r2,r2,48
   26040:	9009883a 	mov	r4,r18
   26044:	980b883a 	mov	r5,r19
   26048:	01800284 	movi	r6,10
   2604c:	000f883a 	mov	r7,zero
   26050:	80bfffc5 	stb	r2,-1(r16)
   26054:	002dd440 	call	2dd44 <__udivdi3>
   26058:	980d883a 	mov	r6,r19
   2605c:	900f883a 	mov	r7,r18
   26060:	843fffc4 	addi	r16,r16,-1
   26064:	1025883a 	mov	r18,r2
   26068:	1827883a 	mov	r19,r3
   2606c:	303fee1e 	bne	r6,zero,26028 <___vfprintf_internal_r+0x1700>
   26070:	39c002a8 	cmpgeui	r7,r7,10
   26074:	383fec1e 	bne	r7,zero,26028 <___vfprintf_internal_r+0x1700>
   26078:	db400817 	ldw	r13,32(sp)
   2607c:	a809883a 	mov	r4,r21
   26080:	802b883a 	mov	r21,r16
   26084:	a025883a 	mov	r18,r20
   26088:	da001017 	ldw	r8,64(sp)
   2608c:	dc000f17 	ldw	r16,60(sp)
   26090:	b029883a 	mov	r20,r22
   26094:	b827883a 	mov	r19,r23
   26098:	8d4fc83a 	sub	r7,r17,r21
   2609c:	6807883a 	mov	r3,r13
   260a0:	003ba906 	br	24f48 <___vfprintf_internal_r+0x620>
   260a4:	d8800717 	ldw	r2,28(sp)
   260a8:	d8c00617 	ldw	r3,24(sp)
   260ac:	10800017 	ldw	r2,0(r2)
   260b0:	10c00015 	stw	r3,0(r2)
   260b4:	003ce406 	br	25448 <___vfprintf_internal_r+0xb20>
   260b8:	00800084 	movi	r2,2
   260bc:	003b7f06 	br	24ebc <___vfprintf_internal_r+0x594>
   260c0:	d8c00717 	ldw	r3,28(sp)
   260c4:	6880040c 	andi	r2,r13,16
   260c8:	1d800017 	ldw	r22,0(r3)
   260cc:	18c00104 	addi	r3,r3,4
   260d0:	d8c00715 	stw	r3,28(sp)
   260d4:	1000051e 	bne	r2,zero,260ec <___vfprintf_internal_r+0x17c4>
   260d8:	6880100c 	andi	r2,r13,64
   260dc:	10000326 	beq	r2,zero,260ec <___vfprintf_internal_r+0x17c4>
   260e0:	b5bfffcc 	andi	r22,r22,65535
   260e4:	002f883a 	mov	r23,zero
   260e8:	003f8706 	br	25f08 <___vfprintf_internal_r+0x15e0>
   260ec:	002f883a 	mov	r23,zero
   260f0:	003f8506 	br	25f08 <___vfprintf_internal_r+0x15e0>
   260f4:	d9400417 	ldw	r5,16(sp)
   260f8:	d9000517 	ldw	r4,20(sp)
   260fc:	d9801d04 	addi	r6,sp,116
   26100:	db000f15 	stw	r12,60(sp)
   26104:	d8c00815 	stw	r3,32(sp)
   26108:	002bae80 	call	2bae8 <__sprint_r>
   2610c:	103b111e 	bne	r2,zero,24d54 <___vfprintf_internal_r+0x42c>
   26110:	dd801f17 	ldw	r22,124(sp)
   26114:	da001e17 	ldw	r8,120(sp)
   26118:	db000f17 	ldw	r12,60(sp)
   2611c:	d8c00817 	ldw	r3,32(sp)
   26120:	882f883a 	mov	r23,r17
   26124:	003dc906 	br	2584c <___vfprintf_internal_r+0xf24>
   26128:	d9400417 	ldw	r5,16(sp)
   2612c:	d9000517 	ldw	r4,20(sp)
   26130:	d9801d04 	addi	r6,sp,116
   26134:	db000f15 	stw	r12,60(sp)
   26138:	d8c00815 	stw	r3,32(sp)
   2613c:	002bae80 	call	2bae8 <__sprint_r>
   26140:	103b041e 	bne	r2,zero,24d54 <___vfprintf_internal_r+0x42c>
   26144:	df001f17 	ldw	fp,124(sp)
   26148:	da001e17 	ldw	r8,120(sp)
   2614c:	db000f17 	ldw	r12,60(sp)
   26150:	d8c00817 	ldw	r3,32(sp)
   26154:	882f883a 	mov	r23,r17
   26158:	003dc706 	br	25878 <___vfprintf_internal_r+0xf50>
   2615c:	d9400417 	ldw	r5,16(sp)
   26160:	d9000517 	ldw	r4,20(sp)
   26164:	d9801d04 	addi	r6,sp,116
   26168:	db001515 	stw	r12,84(sp)
   2616c:	d9c01415 	stw	r7,80(sp)
   26170:	da001315 	stw	r8,76(sp)
   26174:	d8c01215 	stw	r3,72(sp)
   26178:	db401015 	stw	r13,64(sp)
   2617c:	db800f15 	stw	r14,60(sp)
   26180:	002bae80 	call	2bae8 <__sprint_r>
   26184:	103af31e 	bne	r2,zero,24d54 <___vfprintf_internal_r+0x42c>
   26188:	db001517 	ldw	r12,84(sp)
   2618c:	d9c01417 	ldw	r7,80(sp)
   26190:	da001317 	ldw	r8,76(sp)
   26194:	d8c01217 	ldw	r3,72(sp)
   26198:	db401017 	ldw	r13,64(sp)
   2619c:	db800f17 	ldw	r14,60(sp)
   261a0:	8825883a 	mov	r18,r17
   261a4:	003aaf06 	br	24c64 <___vfprintf_internal_r+0x33c>
   261a8:	d8801e17 	ldw	r2,120(sp)
   261ac:	014000f4 	movhi	r5,3
   261b0:	29524504 	addi	r5,r5,18708
   261b4:	10800044 	addi	r2,r2,1
   261b8:	b1000044 	addi	r4,r22,1
   261bc:	91400015 	stw	r5,0(r18)
   261c0:	01400044 	movi	r5,1
   261c4:	d8801e15 	stw	r2,120(sp)
   261c8:	91400115 	stw	r5,4(r18)
   261cc:	d9001f15 	stw	r4,124(sp)
   261d0:	10800208 	cmpgei	r2,r2,8
   261d4:	1001071e 	bne	r2,zero,265f4 <___vfprintf_internal_r+0x1ccc>
   261d8:	94800204 	addi	r18,r18,8
   261dc:	b800a31e 	bne	r23,zero,2646c <___vfprintf_internal_r+0x1b44>
   261e0:	d9400917 	ldw	r5,36(sp)
   261e4:	1880004c 	andi	r2,r3,1
   261e8:	1144b03a 	or	r2,r2,r5
   261ec:	103ac926 	beq	r2,zero,24d14 <___vfprintf_internal_r+0x3ec>
   261f0:	d8800d17 	ldw	r2,52(sp)
   261f4:	d9400c17 	ldw	r5,48(sp)
   261f8:	90800015 	stw	r2,0(r18)
   261fc:	d8801e17 	ldw	r2,120(sp)
   26200:	2909883a 	add	r4,r5,r4
   26204:	91400115 	stw	r5,4(r18)
   26208:	10800044 	addi	r2,r2,1
   2620c:	d9001f15 	stw	r4,124(sp)
   26210:	d8801e15 	stw	r2,120(sp)
   26214:	11400208 	cmpgei	r5,r2,8
   26218:	28010e1e 	bne	r5,zero,26654 <___vfprintf_internal_r+0x1d2c>
   2621c:	94800204 	addi	r18,r18,8
   26220:	d9400917 	ldw	r5,36(sp)
   26224:	10800044 	addi	r2,r2,1
   26228:	d8801e15 	stw	r2,120(sp)
   2622c:	2909883a 	add	r4,r5,r4
   26230:	95400015 	stw	r21,0(r18)
   26234:	91400115 	stw	r5,4(r18)
   26238:	d9001f15 	stw	r4,124(sp)
   2623c:	10800208 	cmpgei	r2,r2,8
   26240:	103ab326 	beq	r2,zero,24d10 <___vfprintf_internal_r+0x3e8>
   26244:	003e0406 	br	25a58 <___vfprintf_internal_r+0x1130>
   26248:	d9000a17 	ldw	r4,40(sp)
   2624c:	d9400b17 	ldw	r5,44(sp)
   26250:	da000815 	stw	r8,32(sp)
   26254:	200d883a 	mov	r6,r4
   26258:	280f883a 	mov	r7,r5
   2625c:	db400715 	stw	r13,28(sp)
   26260:	0030bec0 	call	30bec <__unorddf2>
   26264:	db400717 	ldw	r13,28(sp)
   26268:	da000817 	ldw	r8,32(sp)
   2626c:	10024c1e 	bne	r2,zero,26ba0 <___vfprintf_internal_r+0x2278>
   26270:	057ff7c4 	movi	r21,-33
   26274:	40bfffe0 	cmpeqi	r2,r8,-1
   26278:	e56c703a 	and	r22,fp,r21
   2627c:	1001d71e 	bne	r2,zero,269dc <___vfprintf_internal_r+0x20b4>
   26280:	b08011d8 	cmpnei	r2,r22,71
   26284:	1001c526 	beq	r2,zero,2699c <___vfprintf_internal_r+0x2074>
   26288:	d8800b17 	ldw	r2,44(sp)
   2628c:	68c04014 	ori	r3,r13,256
   26290:	1000e516 	blt	r2,zero,26628 <___vfprintf_internal_r+0x1d00>
   26294:	ddc00b17 	ldw	r23,44(sp)
   26298:	d8000705 	stb	zero,28(sp)
   2629c:	e08019a0 	cmpeqi	r2,fp,102
   262a0:	d8801015 	stw	r2,64(sp)
   262a4:	10017c1e 	bne	r2,zero,26898 <___vfprintf_internal_r+0x1f70>
   262a8:	b0801158 	cmpnei	r2,r22,69
   262ac:	1000f826 	beq	r2,zero,26690 <___vfprintf_internal_r+0x1d68>
   262b0:	d8801b04 	addi	r2,sp,108
   262b4:	d9000517 	ldw	r4,20(sp)
   262b8:	d8800315 	stw	r2,12(sp)
   262bc:	d9400a17 	ldw	r5,40(sp)
   262c0:	d8801804 	addi	r2,sp,96
   262c4:	d8800215 	stw	r2,8(sp)
   262c8:	d8801704 	addi	r2,sp,92
   262cc:	da000015 	stw	r8,0(sp)
   262d0:	d8800115 	stw	r2,4(sp)
   262d4:	01c00084 	movi	r7,2
   262d8:	b80d883a 	mov	r6,r23
   262dc:	d8c01215 	stw	r3,72(sp)
   262e0:	db400915 	stw	r13,36(sp)
   262e4:	da000815 	stw	r8,32(sp)
   262e8:	00271b40 	call	271b4 <_dtoa_r>
   262ec:	e10019e0 	cmpeqi	r4,fp,103
   262f0:	da000817 	ldw	r8,32(sp)
   262f4:	db400917 	ldw	r13,36(sp)
   262f8:	d8c01217 	ldw	r3,72(sp)
   262fc:	102b883a 	mov	r21,r2
   26300:	20010b26 	beq	r4,zero,26730 <___vfprintf_internal_r+0x1e08>
   26304:	6880004c 	andi	r2,r13,1
   26308:	10010b26 	beq	r2,zero,26738 <___vfprintf_internal_r+0x1e10>
   2630c:	aa19883a 	add	r12,r21,r8
   26310:	d9000a17 	ldw	r4,40(sp)
   26314:	000d883a 	mov	r6,zero
   26318:	000f883a 	mov	r7,zero
   2631c:	b80b883a 	mov	r5,r23
   26320:	db001315 	stw	r12,76(sp)
   26324:	da001215 	stw	r8,72(sp)
   26328:	d8c00915 	stw	r3,36(sp)
   2632c:	db400815 	stw	r13,32(sp)
   26330:	002f8f00 	call	2f8f0 <__eqdf2>
   26334:	db400817 	ldw	r13,32(sp)
   26338:	d8c00917 	ldw	r3,36(sp)
   2633c:	da001217 	ldw	r8,72(sp)
   26340:	db001317 	ldw	r12,76(sp)
   26344:	10023326 	beq	r2,zero,26c14 <___vfprintf_internal_r+0x22ec>
   26348:	d8801b17 	ldw	r2,108(sp)
   2634c:	1300062e 	bgeu	r2,r12,26368 <___vfprintf_internal_r+0x1a40>
   26350:	01400c04 	movi	r5,48
   26354:	11000044 	addi	r4,r2,1
   26358:	d9001b15 	stw	r4,108(sp)
   2635c:	11400005 	stb	r5,0(r2)
   26360:	d8801b17 	ldw	r2,108(sp)
   26364:	133ffb36 	bltu	r2,r12,26354 <___vfprintf_internal_r+0x1a2c>
   26368:	d9c01717 	ldw	r7,92(sp)
   2636c:	1545c83a 	sub	r2,r2,r21
   26370:	b10011d8 	cmpnei	r4,r22,71
   26374:	d8800915 	stw	r2,36(sp)
   26378:	d9c00815 	stw	r7,32(sp)
   2637c:	2000f226 	beq	r4,zero,26748 <___vfprintf_internal_r+0x1e20>
   26380:	d8801017 	ldw	r2,64(sp)
   26384:	10021d26 	beq	r2,zero,26bfc <___vfprintf_internal_r+0x22d4>
   26388:	d9000817 	ldw	r4,32(sp)
   2638c:	6880004c 	andi	r2,r13,1
   26390:	1204b03a 	or	r2,r2,r8
   26394:	0102430e 	bge	zero,r4,26ca4 <___vfprintf_internal_r+0x237c>
   26398:	1002221e 	bne	r2,zero,26c24 <___vfprintf_internal_r+0x22fc>
   2639c:	d9c00817 	ldw	r7,32(sp)
   263a0:	3819883a 	mov	r12,r7
   263a4:	07001984 	movi	fp,102
   263a8:	ddc00707 	ldb	r23,28(sp)
   263ac:	b8013526 	beq	r23,zero,26884 <___vfprintf_internal_r+0x1f5c>
   263b0:	00800b44 	movi	r2,45
   263b4:	d8801645 	stb	r2,89(sp)
   263b8:	d8800f17 	ldw	r2,60(sp)
   263bc:	0011883a 	mov	r8,zero
   263c0:	d8800715 	stw	r2,28(sp)
   263c4:	003ae806 	br	24f68 <___vfprintf_internal_r+0x640>
   263c8:	d9400417 	ldw	r5,16(sp)
   263cc:	d9000517 	ldw	r4,20(sp)
   263d0:	d9801d04 	addi	r6,sp,116
   263d4:	db000f15 	stw	r12,60(sp)
   263d8:	d8c00815 	stw	r3,32(sp)
   263dc:	002bae80 	call	2bae8 <__sprint_r>
   263e0:	103a5c1e 	bne	r2,zero,24d54 <___vfprintf_internal_r+0x42c>
   263e4:	dd801f17 	ldw	r22,124(sp)
   263e8:	db000f17 	ldw	r12,60(sp)
   263ec:	d8c00817 	ldw	r3,32(sp)
   263f0:	8825883a 	mov	r18,r17
   263f4:	003c3106 	br	254bc <___vfprintf_internal_r+0xb94>
   263f8:	d9400417 	ldw	r5,16(sp)
   263fc:	d9000517 	ldw	r4,20(sp)
   26400:	d9801d04 	addi	r6,sp,116
   26404:	db000f15 	stw	r12,60(sp)
   26408:	d8c00815 	stw	r3,32(sp)
   2640c:	002bae80 	call	2bae8 <__sprint_r>
   26410:	103a501e 	bne	r2,zero,24d54 <___vfprintf_internal_r+0x42c>
   26414:	df001f17 	ldw	fp,124(sp)
   26418:	da001e17 	ldw	r8,120(sp)
   2641c:	d8c00817 	ldw	r3,32(sp)
   26420:	db000f17 	ldw	r12,60(sp)
   26424:	882f883a 	mov	r23,r17
   26428:	003d2b06 	br	258d8 <___vfprintf_internal_r+0xfb0>
   2642c:	d9400417 	ldw	r5,16(sp)
   26430:	d9000517 	ldw	r4,20(sp)
   26434:	d9801d04 	addi	r6,sp,116
   26438:	db001315 	stw	r12,76(sp)
   2643c:	d9c01215 	stw	r7,72(sp)
   26440:	da001015 	stw	r8,64(sp)
   26444:	d8c00f15 	stw	r3,60(sp)
   26448:	002bae80 	call	2bae8 <__sprint_r>
   2644c:	103a411e 	bne	r2,zero,24d54 <___vfprintf_internal_r+0x42c>
   26450:	dd801f17 	ldw	r22,124(sp)
   26454:	db001317 	ldw	r12,76(sp)
   26458:	d9c01217 	ldw	r7,72(sp)
   2645c:	da001017 	ldw	r8,64(sp)
   26460:	d8c00f17 	ldw	r3,60(sp)
   26464:	8825883a 	mov	r18,r17
   26468:	003a1c06 	br	24cdc <___vfprintf_internal_r+0x3b4>
   2646c:	d8800d17 	ldw	r2,52(sp)
   26470:	d9400c17 	ldw	r5,48(sp)
   26474:	90800015 	stw	r2,0(r18)
   26478:	d8801e17 	ldw	r2,120(sp)
   2647c:	2909883a 	add	r4,r5,r4
   26480:	91400115 	stw	r5,4(r18)
   26484:	10800044 	addi	r2,r2,1
   26488:	d9001f15 	stw	r4,124(sp)
   2648c:	d8801e15 	stw	r2,120(sp)
   26490:	11400208 	cmpgei	r5,r2,8
   26494:	28006f1e 	bne	r5,zero,26654 <___vfprintf_internal_r+0x1d2c>
   26498:	94800204 	addi	r18,r18,8
   2649c:	b83f600e 	bge	r23,zero,26220 <___vfprintf_internal_r+0x18f8>
   264a0:	058000f4 	movhi	r22,3
   264a4:	b97ffc08 	cmpgei	r5,r23,-16
   264a8:	b5924604 	addi	r22,r22,18712
   264ac:	05efc83a 	sub	r23,zero,r23
   264b0:	2801941e 	bne	r5,zero,26b04 <___vfprintf_internal_r+0x21dc>
   264b4:	d8c00815 	stw	r3,32(sp)
   264b8:	07000404 	movi	fp,16
   264bc:	9007883a 	mov	r3,r18
   264c0:	8025883a 	mov	r18,r16
   264c4:	b021883a 	mov	r16,r22
   264c8:	982d883a 	mov	r22,r19
   264cc:	6027883a 	mov	r19,r12
   264d0:	00000406 	br	264e4 <___vfprintf_internal_r+0x1bbc>
   264d4:	18c00204 	addi	r3,r3,8
   264d8:	bdfffc04 	addi	r23,r23,-16
   264dc:	b9400448 	cmpgei	r5,r23,17
   264e0:	28018226 	beq	r5,zero,26aec <___vfprintf_internal_r+0x21c4>
   264e4:	10800044 	addi	r2,r2,1
   264e8:	21000404 	addi	r4,r4,16
   264ec:	1c000015 	stw	r16,0(r3)
   264f0:	1f000115 	stw	fp,4(r3)
   264f4:	d9001f15 	stw	r4,124(sp)
   264f8:	d8801e15 	stw	r2,120(sp)
   264fc:	11400208 	cmpgei	r5,r2,8
   26500:	283ff426 	beq	r5,zero,264d4 <___vfprintf_internal_r+0x1bac>
   26504:	d9400417 	ldw	r5,16(sp)
   26508:	d9000517 	ldw	r4,20(sp)
   2650c:	d9801d04 	addi	r6,sp,116
   26510:	002bae80 	call	2bae8 <__sprint_r>
   26514:	103a0f1e 	bne	r2,zero,24d54 <___vfprintf_internal_r+0x42c>
   26518:	d9001f17 	ldw	r4,124(sp)
   2651c:	d8801e17 	ldw	r2,120(sp)
   26520:	8807883a 	mov	r3,r17
   26524:	003fec06 	br	264d8 <___vfprintf_internal_r+0x1bb0>
   26528:	b019883a 	mov	r12,r22
   2652c:	902d883a 	mov	r22,r18
   26530:	8025883a 	mov	r18,r16
   26534:	a021883a 	mov	r16,r20
   26538:	b829883a 	mov	r20,r23
   2653c:	102f883a 	mov	r23,r2
   26540:	e005883a 	mov	r2,fp
   26544:	1839883a 	mov	fp,r3
   26548:	9807883a 	mov	r3,r19
   2654c:	1027883a 	mov	r19,r2
   26550:	42000044 	addi	r8,r8,1
   26554:	e4b9883a 	add	fp,fp,r18
   26558:	bd800015 	stw	r22,0(r23)
   2655c:	003cd806 	br	258c0 <___vfprintf_internal_r+0xf98>
   26560:	a809883a 	mov	r4,r21
   26564:	00248900 	call	24890 <strlen>
   26568:	db400817 	ldw	r13,32(sp)
   2656c:	100f883a 	mov	r7,r2
   26570:	1019883a 	mov	r12,r2
   26574:	dd800715 	stw	r22,28(sp)
   26578:	0039b006 	br	24c3c <___vfprintf_internal_r+0x314>
   2657c:	054000f4 	movhi	r21,3
   26580:	ad523504 	addi	r21,r21,18644
   26584:	003af606 	br	25160 <___vfprintf_internal_r+0x838>
   26588:	058000f4 	movhi	r22,3
   2658c:	b5924604 	addi	r22,r22,18712
   26590:	003c7806 	br	25774 <___vfprintf_internal_r+0xe4c>
   26594:	a019883a 	mov	r12,r20
   26598:	b029883a 	mov	r20,r22
   2659c:	902d883a 	mov	r22,r18
   265a0:	1825883a 	mov	r18,r3
   265a4:	d8c00f17 	ldw	r3,60(sp)
   265a8:	b80b883a 	mov	r5,r23
   265ac:	802f883a 	mov	r23,r16
   265b0:	9821883a 	mov	r16,r19
   265b4:	2827883a 	mov	r19,r5
   265b8:	10800044 	addi	r2,r2,1
   265bc:	b909883a 	add	r4,r23,r4
   265c0:	d8801e15 	stw	r2,120(sp)
   265c4:	95800015 	stw	r22,0(r18)
   265c8:	95c00115 	stw	r23,4(r18)
   265cc:	d9001f15 	stw	r4,124(sp)
   265d0:	10800208 	cmpgei	r2,r2,8
   265d4:	10004a1e 	bne	r2,zero,26700 <___vfprintf_internal_r+0x1dd8>
   265d8:	94800204 	addi	r18,r18,8
   265dc:	202d883a 	mov	r22,r4
   265e0:	003d6406 	br	25b74 <___vfprintf_internal_r+0x124c>
   265e4:	00800b44 	movi	r2,45
   265e8:	d8801645 	stb	r2,89(sp)
   265ec:	01000b44 	movi	r4,45
   265f0:	003ad706 	br	25150 <___vfprintf_internal_r+0x828>
   265f4:	d9400417 	ldw	r5,16(sp)
   265f8:	d9000517 	ldw	r4,20(sp)
   265fc:	d9801d04 	addi	r6,sp,116
   26600:	db000f15 	stw	r12,60(sp)
   26604:	d8c00815 	stw	r3,32(sp)
   26608:	002bae80 	call	2bae8 <__sprint_r>
   2660c:	1039d11e 	bne	r2,zero,24d54 <___vfprintf_internal_r+0x42c>
   26610:	ddc01717 	ldw	r23,92(sp)
   26614:	d9001f17 	ldw	r4,124(sp)
   26618:	db000f17 	ldw	r12,60(sp)
   2661c:	d8c00817 	ldw	r3,32(sp)
   26620:	8825883a 	mov	r18,r17
   26624:	003eed06 	br	261dc <___vfprintf_internal_r+0x18b4>
   26628:	15e0003c 	xorhi	r23,r2,32768
   2662c:	00800b44 	movi	r2,45
   26630:	d8800705 	stb	r2,28(sp)
   26634:	003f1906 	br	2629c <___vfprintf_internal_r+0x1974>
   26638:	01c00184 	movi	r7,6
   2663c:	003e3f06 	br	25f3c <___vfprintf_internal_r+0x1614>
   26640:	d9400417 	ldw	r5,16(sp)
   26644:	d9000517 	ldw	r4,20(sp)
   26648:	d9801d04 	addi	r6,sp,116
   2664c:	002bae80 	call	2bae8 <__sprint_r>
   26650:	0039c006 	br	24d54 <___vfprintf_internal_r+0x42c>
   26654:	d9400417 	ldw	r5,16(sp)
   26658:	d9000517 	ldw	r4,20(sp)
   2665c:	d9801d04 	addi	r6,sp,116
   26660:	db000f15 	stw	r12,60(sp)
   26664:	d8c00815 	stw	r3,32(sp)
   26668:	002bae80 	call	2bae8 <__sprint_r>
   2666c:	1039b91e 	bne	r2,zero,24d54 <___vfprintf_internal_r+0x42c>
   26670:	ddc01717 	ldw	r23,92(sp)
   26674:	d9001f17 	ldw	r4,124(sp)
   26678:	d8801e17 	ldw	r2,120(sp)
   2667c:	db000f17 	ldw	r12,60(sp)
   26680:	d8c00817 	ldw	r3,32(sp)
   26684:	8825883a 	mov	r18,r17
   26688:	b83ee50e 	bge	r23,zero,26220 <___vfprintf_internal_r+0x18f8>
   2668c:	003f8406 	br	264a0 <___vfprintf_internal_r+0x1b78>
   26690:	d8801b04 	addi	r2,sp,108
   26694:	d8800315 	stw	r2,12(sp)
   26698:	d9400a17 	ldw	r5,40(sp)
   2669c:	d8801804 	addi	r2,sp,96
   266a0:	d9000517 	ldw	r4,20(sp)
   266a4:	d8c01315 	stw	r3,76(sp)
   266a8:	d8800215 	stw	r2,8(sp)
   266ac:	40c00044 	addi	r3,r8,1
   266b0:	d8801704 	addi	r2,sp,92
   266b4:	d8c00015 	stw	r3,0(sp)
   266b8:	d8800115 	stw	r2,4(sp)
   266bc:	01c00084 	movi	r7,2
   266c0:	b80d883a 	mov	r6,r23
   266c4:	db401215 	stw	r13,72(sp)
   266c8:	da000815 	stw	r8,32(sp)
   266cc:	d8c00915 	stw	r3,36(sp)
   266d0:	00271b40 	call	271b4 <_dtoa_r>
   266d4:	da000817 	ldw	r8,32(sp)
   266d8:	db401217 	ldw	r13,72(sp)
   266dc:	d8c01317 	ldw	r3,76(sp)
   266e0:	102b883a 	mov	r21,r2
   266e4:	e08011d8 	cmpnei	r2,fp,71
   266e8:	1001351e 	bne	r2,zero,26bc0 <___vfprintf_internal_r+0x2298>
   266ec:	6880004c 	andi	r2,r13,1
   266f0:	10001126 	beq	r2,zero,26738 <___vfprintf_internal_r+0x1e10>
   266f4:	d8800917 	ldw	r2,36(sp)
   266f8:	a899883a 	add	r12,r21,r2
   266fc:	003f0406 	br	26310 <___vfprintf_internal_r+0x19e8>
   26700:	d9400417 	ldw	r5,16(sp)
   26704:	d9000517 	ldw	r4,20(sp)
   26708:	d9801d04 	addi	r6,sp,116
   2670c:	db001015 	stw	r12,64(sp)
   26710:	d8c00f15 	stw	r3,60(sp)
   26714:	002bae80 	call	2bae8 <__sprint_r>
   26718:	10398e1e 	bne	r2,zero,24d54 <___vfprintf_internal_r+0x42c>
   2671c:	dd801f17 	ldw	r22,124(sp)
   26720:	db001017 	ldw	r12,64(sp)
   26724:	d8c00f17 	ldw	r3,60(sp)
   26728:	8825883a 	mov	r18,r17
   2672c:	003d1106 	br	25b74 <___vfprintf_internal_r+0x124c>
   26730:	da000915 	stw	r8,36(sp)
   26734:	003feb06 	br	266e4 <___vfprintf_internal_r+0x1dbc>
   26738:	d8801b17 	ldw	r2,108(sp)
   2673c:	d9c01717 	ldw	r7,92(sp)
   26740:	1545c83a 	sub	r2,r2,r21
   26744:	d8800915 	stw	r2,36(sp)
   26748:	38bfff48 	cmpgei	r2,r7,-3
   2674c:	d9c00815 	stw	r7,32(sp)
   26750:	1000b31e 	bne	r2,zero,26a20 <___vfprintf_internal_r+0x20f8>
   26754:	e73fff84 	addi	fp,fp,-2
   26758:	397fffc4 	addi	r5,r7,-1
   2675c:	e005883a 	mov	r2,fp
   26760:	01000044 	movi	r4,1
   26764:	21efc83a 	sub	r23,r4,r7
   26768:	01000b44 	movi	r4,45
   2676c:	21003fcc 	andi	r4,r4,255
   26770:	2008923a 	slli	r4,r4,8
   26774:	10803fcc 	andi	r2,r2,255
   26778:	d9401715 	stw	r5,92(sp)
   2677c:	1104b03a 	or	r2,r2,r4
   26780:	d880190d 	sth	r2,100(sp)
   26784:	b8800290 	cmplti	r2,r23,10
   26788:	1000c71e 	bne	r2,zero,26aa8 <___vfprintf_internal_r+0x2180>
   2678c:	dd801cc4 	addi	r22,sp,115
   26790:	9805883a 	mov	r2,r19
   26794:	db400815 	stw	r13,32(sp)
   26798:	b027883a 	mov	r19,r22
   2679c:	d8c01015 	stw	r3,64(sp)
   267a0:	a02d883a 	mov	r22,r20
   267a4:	dc001115 	stw	r16,68(sp)
   267a8:	9029883a 	mov	r20,r18
   267ac:	b825883a 	mov	r18,r23
   267b0:	102f883a 	mov	r23,r2
   267b4:	9009883a 	mov	r4,r18
   267b8:	01400284 	movi	r5,10
   267bc:	0022fa80 	call	22fa8 <__modsi3>
   267c0:	10800c04 	addi	r2,r2,48
   267c4:	9009883a 	mov	r4,r18
   267c8:	01400284 	movi	r5,10
   267cc:	98bfffc5 	stb	r2,-1(r19)
   267d0:	0022f280 	call	22f28 <__divsi3>
   267d4:	91401908 	cmpgei	r5,r18,100
   267d8:	9821883a 	mov	r16,r19
   267dc:	1025883a 	mov	r18,r2
   267e0:	9cffffc4 	addi	r19,r19,-1
   267e4:	283ff31e 	bne	r5,zero,267b4 <___vfprintf_internal_r+0x1e8c>
   267e8:	b805883a 	mov	r2,r23
   267ec:	902f883a 	mov	r23,r18
   267f0:	8009883a 	mov	r4,r16
   267f4:	a025883a 	mov	r18,r20
   267f8:	b029883a 	mov	r20,r22
   267fc:	982d883a 	mov	r22,r19
   26800:	1027883a 	mov	r19,r2
   26804:	b8800c04 	addi	r2,r23,48
   26808:	b0bfffc5 	stb	r2,-1(r22)
   2680c:	217fff84 	addi	r5,r4,-2
   26810:	d8801cc4 	addi	r2,sp,115
   26814:	db400817 	ldw	r13,32(sp)
   26818:	d8c01017 	ldw	r3,64(sp)
   2681c:	dc001117 	ldw	r16,68(sp)
   26820:	28810e2e 	bgeu	r5,r2,26c5c <___vfprintf_internal_r+0x2334>
   26824:	d8801d44 	addi	r2,sp,117
   26828:	112dc83a 	sub	r22,r2,r4
   2682c:	b00d883a 	mov	r6,r22
   26830:	d9001984 	addi	r4,sp,102
   26834:	0029d840 	call	29d84 <memcpy>
   26838:	d8801984 	addi	r2,sp,102
   2683c:	1585883a 	add	r2,r2,r22
   26840:	d9001904 	addi	r4,sp,100
   26844:	db400817 	ldw	r13,32(sp)
   26848:	d8c01017 	ldw	r3,64(sp)
   2684c:	1105c83a 	sub	r2,r2,r4
   26850:	d8801115 	stw	r2,68(sp)
   26854:	d9000917 	ldw	r4,36(sp)
   26858:	d9401117 	ldw	r5,68(sp)
   2685c:	20800088 	cmpgei	r2,r4,2
   26860:	214f883a 	add	r7,r4,r5
   26864:	10009726 	beq	r2,zero,26ac4 <___vfprintf_internal_r+0x219c>
   26868:	d8800c17 	ldw	r2,48(sp)
   2686c:	388f883a 	add	r7,r7,r2
   26870:	3819883a 	mov	r12,r7
   26874:	3800010e 	bge	r7,zero,2687c <___vfprintf_internal_r+0x1f54>
   26878:	0019883a 	mov	r12,zero
   2687c:	d8000815 	stw	zero,32(sp)
   26880:	003ec906 	br	263a8 <___vfprintf_internal_r+0x1a80>
   26884:	d8800f17 	ldw	r2,60(sp)
   26888:	d9001643 	ldbu	r4,89(sp)
   2688c:	0011883a 	mov	r8,zero
   26890:	d8800715 	stw	r2,28(sp)
   26894:	0039b006 	br	24f58 <___vfprintf_internal_r+0x630>
   26898:	d8801b04 	addi	r2,sp,108
   2689c:	d8800315 	stw	r2,12(sp)
   268a0:	d9400a17 	ldw	r5,40(sp)
   268a4:	d8801804 	addi	r2,sp,96
   268a8:	d9000517 	ldw	r4,20(sp)
   268ac:	d8800215 	stw	r2,8(sp)
   268b0:	d8801704 	addi	r2,sp,92
   268b4:	da000015 	stw	r8,0(sp)
   268b8:	d8800115 	stw	r2,4(sp)
   268bc:	01c000c4 	movi	r7,3
   268c0:	b80d883a 	mov	r6,r23
   268c4:	d8c01215 	stw	r3,72(sp)
   268c8:	db400915 	stw	r13,36(sp)
   268cc:	da000815 	stw	r8,32(sp)
   268d0:	00271b40 	call	271b4 <_dtoa_r>
   268d4:	102b883a 	mov	r21,r2
   268d8:	10800007 	ldb	r2,0(r2)
   268dc:	da000817 	ldw	r8,32(sp)
   268e0:	db400917 	ldw	r13,36(sp)
   268e4:	10800c20 	cmpeqi	r2,r2,48
   268e8:	d8c01217 	ldw	r3,72(sp)
   268ec:	10009c1e 	bne	r2,zero,26b60 <___vfprintf_internal_r+0x2238>
   268f0:	d8801717 	ldw	r2,92(sp)
   268f4:	d9000a17 	ldw	r4,40(sp)
   268f8:	1219883a 	add	r12,r2,r8
   268fc:	000d883a 	mov	r6,zero
   26900:	000f883a 	mov	r7,zero
   26904:	b80b883a 	mov	r5,r23
   26908:	d8c01315 	stw	r3,76(sp)
   2690c:	db401215 	stw	r13,72(sp)
   26910:	da000915 	stw	r8,36(sp)
   26914:	db000815 	stw	r12,32(sp)
   26918:	002f8f00 	call	2f8f0 <__eqdf2>
   2691c:	db000817 	ldw	r12,32(sp)
   26920:	da000917 	ldw	r8,36(sp)
   26924:	db401217 	ldw	r13,72(sp)
   26928:	d8c01317 	ldw	r3,76(sp)
   2692c:	10008a1e 	bne	r2,zero,26b58 <___vfprintf_internal_r+0x2230>
   26930:	d8801717 	ldw	r2,92(sp)
   26934:	db000915 	stw	r12,36(sp)
   26938:	d8800815 	stw	r2,32(sp)
   2693c:	003e9206 	br	26388 <___vfprintf_internal_r+0x1a60>
   26940:	d9400417 	ldw	r5,16(sp)
   26944:	d9000517 	ldw	r4,20(sp)
   26948:	d9801d04 	addi	r6,sp,116
   2694c:	db001015 	stw	r12,64(sp)
   26950:	d8c00f15 	stw	r3,60(sp)
   26954:	002bae80 	call	2bae8 <__sprint_r>
   26958:	1038fe1e 	bne	r2,zero,24d54 <___vfprintf_internal_r+0x42c>
   2695c:	ddc01717 	ldw	r23,92(sp)
   26960:	d9001f17 	ldw	r4,124(sp)
   26964:	db001017 	ldw	r12,64(sp)
   26968:	d8c00f17 	ldw	r3,60(sp)
   2696c:	8825883a 	mov	r18,r17
   26970:	003c8f06 	br	25bb0 <___vfprintf_internal_r+0x1288>
   26974:	b80b883a 	mov	r5,r23
   26978:	a019883a 	mov	r12,r20
   2697c:	802f883a 	mov	r23,r16
   26980:	b029883a 	mov	r20,r22
   26984:	9821883a 	mov	r16,r19
   26988:	902d883a 	mov	r22,r18
   2698c:	2827883a 	mov	r19,r5
   26990:	1825883a 	mov	r18,r3
   26994:	d8c00817 	ldw	r3,32(sp)
   26998:	003c2706 	br	25a38 <___vfprintf_internal_r+0x1110>
   2699c:	403e3a1e 	bne	r8,zero,26288 <___vfprintf_internal_r+0x1960>
   269a0:	02000044 	movi	r8,1
   269a4:	003e3806 	br	26288 <___vfprintf_internal_r+0x1960>
   269a8:	d9400417 	ldw	r5,16(sp)
   269ac:	d9000517 	ldw	r4,20(sp)
   269b0:	d9801d04 	addi	r6,sp,116
   269b4:	db001015 	stw	r12,64(sp)
   269b8:	d8c00f15 	stw	r3,60(sp)
   269bc:	002bae80 	call	2bae8 <__sprint_r>
   269c0:	1038e41e 	bne	r2,zero,24d54 <___vfprintf_internal_r+0x42c>
   269c4:	dd801f17 	ldw	r22,124(sp)
   269c8:	db001017 	ldw	r12,64(sp)
   269cc:	d8c00f17 	ldw	r3,60(sp)
   269d0:	8825883a 	mov	r18,r17
   269d4:	b83c640e 	bge	r23,zero,25b68 <___vfprintf_internal_r+0x1240>
   269d8:	003d3306 	br	25ea8 <___vfprintf_internal_r+0x1580>
   269dc:	02000184 	movi	r8,6
   269e0:	003e2906 	br	26288 <___vfprintf_internal_r+0x1960>
   269e4:	d9400417 	ldw	r5,16(sp)
   269e8:	d9000517 	ldw	r4,20(sp)
   269ec:	d9801d04 	addi	r6,sp,116
   269f0:	db000f15 	stw	r12,60(sp)
   269f4:	d8c00815 	stw	r3,32(sp)
   269f8:	002bae80 	call	2bae8 <__sprint_r>
   269fc:	1038d51e 	bne	r2,zero,24d54 <___vfprintf_internal_r+0x42c>
   26a00:	ddc01717 	ldw	r23,92(sp)
   26a04:	d8800917 	ldw	r2,36(sp)
   26a08:	d9001f17 	ldw	r4,124(sp)
   26a0c:	db000f17 	ldw	r12,60(sp)
   26a10:	d8c00817 	ldw	r3,32(sp)
   26a14:	8825883a 	mov	r18,r17
   26a18:	15efc83a 	sub	r23,r2,r23
   26a1c:	003c7706 	br	25bfc <___vfprintf_internal_r+0x12d4>
   26a20:	41c0060e 	bge	r8,r7,26a3c <___vfprintf_internal_r+0x2114>
   26a24:	e73fff84 	addi	fp,fp,-2
   26a28:	3dffffc4 	addi	r23,r7,-1
   26a2c:	e005883a 	mov	r2,fp
   26a30:	b80b883a 	mov	r5,r23
   26a34:	01000ac4 	movi	r4,43
   26a38:	003f4c06 	br	2676c <___vfprintf_internal_r+0x1e44>
   26a3c:	d9000917 	ldw	r4,36(sp)
   26a40:	39000916 	blt	r7,r4,26a68 <___vfprintf_internal_r+0x2140>
   26a44:	6b40004c 	andi	r13,r13,1
   26a48:	68000f26 	beq	r13,zero,26a88 <___vfprintf_internal_r+0x2160>
   26a4c:	d8800817 	ldw	r2,32(sp)
   26a50:	d9000c17 	ldw	r4,48(sp)
   26a54:	110f883a 	add	r7,r2,r4
   26a58:	3819883a 	mov	r12,r7
   26a5c:	38000c16 	blt	r7,zero,26a90 <___vfprintf_internal_r+0x2168>
   26a60:	070019c4 	movi	fp,103
   26a64:	003e5006 	br	263a8 <___vfprintf_internal_r+0x1a80>
   26a68:	d8800917 	ldw	r2,36(sp)
   26a6c:	d9000c17 	ldw	r4,48(sp)
   26a70:	110f883a 	add	r7,r2,r4
   26a74:	d8800817 	ldw	r2,32(sp)
   26a78:	00800316 	blt	zero,r2,26a88 <___vfprintf_internal_r+0x2160>
   26a7c:	d8800817 	ldw	r2,32(sp)
   26a80:	388fc83a 	sub	r7,r7,r2
   26a84:	39c00044 	addi	r7,r7,1
   26a88:	3819883a 	mov	r12,r7
   26a8c:	383ff40e 	bge	r7,zero,26a60 <___vfprintf_internal_r+0x2138>
   26a90:	0019883a 	mov	r12,zero
   26a94:	003ff206 	br	26a60 <___vfprintf_internal_r+0x2138>
   26a98:	4019883a 	mov	r12,r8
   26a9c:	dd800715 	stw	r22,28(sp)
   26aa0:	400f883a 	mov	r7,r8
   26aa4:	00386506 	br	24c3c <___vfprintf_internal_r+0x314>
   26aa8:	b8800c04 	addi	r2,r23,48
   26aac:	01000c04 	movi	r4,48
   26ab0:	d88019c5 	stb	r2,103(sp)
   26ab4:	00800104 	movi	r2,4
   26ab8:	d9001985 	stb	r4,102(sp)
   26abc:	d8801115 	stw	r2,68(sp)
   26ac0:	003f6406 	br	26854 <___vfprintf_internal_r+0x1f2c>
   26ac4:	6880004c 	andi	r2,r13,1
   26ac8:	d8800815 	stw	r2,32(sp)
   26acc:	103f661e 	bne	r2,zero,26868 <___vfprintf_internal_r+0x1f40>
   26ad0:	3819883a 	mov	r12,r7
   26ad4:	383e340e 	bge	r7,zero,263a8 <___vfprintf_internal_r+0x1a80>
   26ad8:	0019883a 	mov	r12,zero
   26adc:	003e3206 	br	263a8 <___vfprintf_internal_r+0x1a80>
   26ae0:	00bfffc4 	movi	r2,-1
   26ae4:	d8800615 	stw	r2,24(sp)
   26ae8:	00389e06 	br	24d64 <___vfprintf_internal_r+0x43c>
   26aec:	9819883a 	mov	r12,r19
   26af0:	b027883a 	mov	r19,r22
   26af4:	802d883a 	mov	r22,r16
   26af8:	9021883a 	mov	r16,r18
   26afc:	1825883a 	mov	r18,r3
   26b00:	d8c00817 	ldw	r3,32(sp)
   26b04:	10800044 	addi	r2,r2,1
   26b08:	25c9883a 	add	r4,r4,r23
   26b0c:	95800015 	stw	r22,0(r18)
   26b10:	95c00115 	stw	r23,4(r18)
   26b14:	d9001f15 	stw	r4,124(sp)
   26b18:	d8801e15 	stw	r2,120(sp)
   26b1c:	11400208 	cmpgei	r5,r2,8
   26b20:	283dbe26 	beq	r5,zero,2621c <___vfprintf_internal_r+0x18f4>
   26b24:	d9400417 	ldw	r5,16(sp)
   26b28:	d9000517 	ldw	r4,20(sp)
   26b2c:	d9801d04 	addi	r6,sp,116
   26b30:	db000f15 	stw	r12,60(sp)
   26b34:	d8c00815 	stw	r3,32(sp)
   26b38:	002bae80 	call	2bae8 <__sprint_r>
   26b3c:	1038851e 	bne	r2,zero,24d54 <___vfprintf_internal_r+0x42c>
   26b40:	d9001f17 	ldw	r4,124(sp)
   26b44:	d8801e17 	ldw	r2,120(sp)
   26b48:	db000f17 	ldw	r12,60(sp)
   26b4c:	d8c00817 	ldw	r3,32(sp)
   26b50:	8825883a 	mov	r18,r17
   26b54:	003db206 	br	26220 <___vfprintf_internal_r+0x18f8>
   26b58:	ab19883a 	add	r12,r21,r12
   26b5c:	003dfa06 	br	26348 <___vfprintf_internal_r+0x1a20>
   26b60:	d9000a17 	ldw	r4,40(sp)
   26b64:	000d883a 	mov	r6,zero
   26b68:	000f883a 	mov	r7,zero
   26b6c:	b80b883a 	mov	r5,r23
   26b70:	da001215 	stw	r8,72(sp)
   26b74:	d8c00915 	stw	r3,36(sp)
   26b78:	db400815 	stw	r13,32(sp)
   26b7c:	002f8f00 	call	2f8f0 <__eqdf2>
   26b80:	db400817 	ldw	r13,32(sp)
   26b84:	d8c00917 	ldw	r3,36(sp)
   26b88:	da001217 	ldw	r8,72(sp)
   26b8c:	103f5826 	beq	r2,zero,268f0 <___vfprintf_internal_r+0x1fc8>
   26b90:	00800044 	movi	r2,1
   26b94:	1205c83a 	sub	r2,r2,r8
   26b98:	d8801715 	stw	r2,92(sp)
   26b9c:	003f5506 	br	268f4 <___vfprintf_internal_r+0x1fcc>
   26ba0:	d8800b17 	ldw	r2,44(sp)
   26ba4:	10002916 	blt	r2,zero,26c4c <___vfprintf_internal_r+0x2324>
   26ba8:	d9001643 	ldbu	r4,89(sp)
   26bac:	e0801210 	cmplti	r2,fp,72
   26bb0:	1000231e 	bne	r2,zero,26c40 <___vfprintf_internal_r+0x2318>
   26bb4:	054000f4 	movhi	r21,3
   26bb8:	ad523804 	addi	r21,r21,18656
   26bbc:	00396806 	br	25160 <___vfprintf_internal_r+0x838>
   26bc0:	d9000a17 	ldw	r4,40(sp)
   26bc4:	000d883a 	mov	r6,zero
   26bc8:	000f883a 	mov	r7,zero
   26bcc:	b80b883a 	mov	r5,r23
   26bd0:	da001315 	stw	r8,76(sp)
   26bd4:	d8c01215 	stw	r3,72(sp)
   26bd8:	db400815 	stw	r13,32(sp)
   26bdc:	002f8f00 	call	2f8f0 <__eqdf2>
   26be0:	db400817 	ldw	r13,32(sp)
   26be4:	d8c01217 	ldw	r3,72(sp)
   26be8:	da001317 	ldw	r8,76(sp)
   26bec:	10002a1e 	bne	r2,zero,26c98 <___vfprintf_internal_r+0x2370>
   26bf0:	b08011e0 	cmpeqi	r2,r22,71
   26bf4:	d9c01717 	ldw	r7,92(sp)
   26bf8:	103ed31e 	bne	r2,zero,26748 <___vfprintf_internal_r+0x1e20>
   26bfc:	397fffc4 	addi	r5,r7,-1
   26c00:	e005883a 	mov	r2,fp
   26c04:	283ed616 	blt	r5,zero,26760 <___vfprintf_internal_r+0x1e38>
   26c08:	282f883a 	mov	r23,r5
   26c0c:	01000ac4 	movi	r4,43
   26c10:	003ed606 	br	2676c <___vfprintf_internal_r+0x1e44>
   26c14:	6545c83a 	sub	r2,r12,r21
   26c18:	d9c01717 	ldw	r7,92(sp)
   26c1c:	d8800915 	stw	r2,36(sp)
   26c20:	003ec906 	br	26748 <___vfprintf_internal_r+0x1e20>
   26c24:	d8800c17 	ldw	r2,48(sp)
   26c28:	208f883a 	add	r7,r4,r2
   26c2c:	3a0f883a 	add	r7,r7,r8
   26c30:	3819883a 	mov	r12,r7
   26c34:	383ddb0e 	bge	r7,zero,263a4 <___vfprintf_internal_r+0x1a7c>
   26c38:	0019883a 	mov	r12,zero
   26c3c:	003dd906 	br	263a4 <___vfprintf_internal_r+0x1a7c>
   26c40:	054000f4 	movhi	r21,3
   26c44:	ad523704 	addi	r21,r21,18652
   26c48:	00394506 	br	25160 <___vfprintf_internal_r+0x838>
   26c4c:	00800b44 	movi	r2,45
   26c50:	d8801645 	stb	r2,89(sp)
   26c54:	01000b44 	movi	r4,45
   26c58:	003fd406 	br	26bac <___vfprintf_internal_r+0x2284>
   26c5c:	00800084 	movi	r2,2
   26c60:	d8801115 	stw	r2,68(sp)
   26c64:	003efb06 	br	26854 <___vfprintf_internal_r+0x1f2c>
   26c68:	d8800717 	ldw	r2,28(sp)
   26c6c:	12000017 	ldw	r8,0(r2)
   26c70:	10800104 	addi	r2,r2,4
   26c74:	4000010e 	bge	r8,zero,26c7c <___vfprintf_internal_r+0x2354>
   26c78:	023fffc4 	movi	r8,-1
   26c7c:	a7000043 	ldbu	fp,1(r20)
   26c80:	d8800715 	stw	r2,28(sp)
   26c84:	1829883a 	mov	r20,r3
   26c88:	e2c03fcc 	andi	r11,fp,255
   26c8c:	5ac0201c 	xori	r11,r11,128
   26c90:	5affe004 	addi	r11,r11,-128
   26c94:	00377406 	br	24a68 <___vfprintf_internal_r+0x140>
   26c98:	d8800917 	ldw	r2,36(sp)
   26c9c:	a899883a 	add	r12,r21,r2
   26ca0:	003da906 	br	26348 <___vfprintf_internal_r+0x1a20>
   26ca4:	1000041e 	bne	r2,zero,26cb8 <___vfprintf_internal_r+0x2390>
   26ca8:	03000044 	movi	r12,1
   26cac:	07001984 	movi	fp,102
   26cb0:	01c00044 	movi	r7,1
   26cb4:	003dbc06 	br	263a8 <___vfprintf_internal_r+0x1a80>
   26cb8:	d8800c17 	ldw	r2,48(sp)
   26cbc:	11c00044 	addi	r7,r2,1
   26cc0:	3a0f883a 	add	r7,r7,r8
   26cc4:	3819883a 	mov	r12,r7
   26cc8:	383db60e 	bge	r7,zero,263a4 <___vfprintf_internal_r+0x1a7c>
   26ccc:	003fda06 	br	26c38 <___vfprintf_internal_r+0x2310>

00026cd0 <__vfprintf_internal>:
   26cd0:	00c000f4 	movhi	r3,3
   26cd4:	2005883a 	mov	r2,r4
   26cd8:	191cd017 	ldw	r4,29504(r3)
   26cdc:	300f883a 	mov	r7,r6
   26ce0:	280d883a 	mov	r6,r5
   26ce4:	100b883a 	mov	r5,r2
   26ce8:	00249281 	jmpi	24928 <___vfprintf_internal_r>

00026cec <__sbprintf>:
   26cec:	28c0038b 	ldhu	r3,14(r5)
   26cf0:	2880030b 	ldhu	r2,12(r5)
   26cf4:	2ac01917 	ldw	r11,100(r5)
   26cf8:	1806943a 	slli	r3,r3,16
   26cfc:	2a800717 	ldw	r10,28(r5)
   26d00:	2a400917 	ldw	r9,36(r5)
   26d04:	defee204 	addi	sp,sp,-1144
   26d08:	10bfff4c 	andi	r2,r2,65533
   26d0c:	10c4b03a 	or	r2,r2,r3
   26d10:	da001a04 	addi	r8,sp,104
   26d14:	00c10004 	movi	r3,1024
   26d18:	dc011a15 	stw	r16,1128(sp)
   26d1c:	2821883a 	mov	r16,r5
   26d20:	d80b883a 	mov	r5,sp
   26d24:	dc811c15 	stw	r18,1136(sp)
   26d28:	dc411b15 	stw	r17,1132(sp)
   26d2c:	dfc11d15 	stw	ra,1140(sp)
   26d30:	2025883a 	mov	r18,r4
   26d34:	dac01915 	stw	r11,100(sp)
   26d38:	d8800315 	stw	r2,12(sp)
   26d3c:	da800715 	stw	r10,28(sp)
   26d40:	da400915 	stw	r9,36(sp)
   26d44:	da000015 	stw	r8,0(sp)
   26d48:	da000415 	stw	r8,16(sp)
   26d4c:	d8c00215 	stw	r3,8(sp)
   26d50:	d8c00515 	stw	r3,20(sp)
   26d54:	d8000615 	stw	zero,24(sp)
   26d58:	00249280 	call	24928 <___vfprintf_internal_r>
   26d5c:	1023883a 	mov	r17,r2
   26d60:	10000d0e 	bge	r2,zero,26d98 <__sbprintf+0xac>
   26d64:	d880030b 	ldhu	r2,12(sp)
   26d68:	1080100c 	andi	r2,r2,64
   26d6c:	10000326 	beq	r2,zero,26d7c <__sbprintf+0x90>
   26d70:	8080030b 	ldhu	r2,12(r16)
   26d74:	10801014 	ori	r2,r2,64
   26d78:	8080030d 	sth	r2,12(r16)
   26d7c:	8805883a 	mov	r2,r17
   26d80:	dfc11d17 	ldw	ra,1140(sp)
   26d84:	dc811c17 	ldw	r18,1136(sp)
   26d88:	dc411b17 	ldw	r17,1132(sp)
   26d8c:	dc011a17 	ldw	r16,1128(sp)
   26d90:	dec11e04 	addi	sp,sp,1144
   26d94:	f800283a 	ret
   26d98:	d80b883a 	mov	r5,sp
   26d9c:	9009883a 	mov	r4,r18
   26da0:	0028ba40 	call	28ba4 <_fflush_r>
   26da4:	103fef26 	beq	r2,zero,26d64 <__sbprintf+0x78>
   26da8:	047fffc4 	movi	r17,-1
   26dac:	003fed06 	br	26d64 <__sbprintf+0x78>

00026db0 <_write_r>:
   26db0:	2807883a 	mov	r3,r5
   26db4:	defffe04 	addi	sp,sp,-8
   26db8:	dc000015 	stw	r16,0(sp)
   26dbc:	300b883a 	mov	r5,r6
   26dc0:	00800134 	movhi	r2,4
   26dc4:	380d883a 	mov	r6,r7
   26dc8:	2021883a 	mov	r16,r4
   26dcc:	1809883a 	mov	r4,r3
   26dd0:	dfc00115 	stw	ra,4(sp)
   26dd4:	1025f115 	stw	zero,-26684(r2)
   26dd8:	0031dd00 	call	31dd0 <write>
   26ddc:	10ffffd8 	cmpnei	r3,r2,-1
   26de0:	18000426 	beq	r3,zero,26df4 <_write_r+0x44>
   26de4:	dfc00117 	ldw	ra,4(sp)
   26de8:	dc000017 	ldw	r16,0(sp)
   26dec:	dec00204 	addi	sp,sp,8
   26df0:	f800283a 	ret
   26df4:	00c00134 	movhi	r3,4
   26df8:	18e5f117 	ldw	r3,-26684(r3)
   26dfc:	183ff926 	beq	r3,zero,26de4 <_write_r+0x34>
   26e00:	80c00015 	stw	r3,0(r16)
   26e04:	dfc00117 	ldw	ra,4(sp)
   26e08:	dc000017 	ldw	r16,0(sp)
   26e0c:	dec00204 	addi	sp,sp,8
   26e10:	f800283a 	ret

00026e14 <__swsetup_r>:
   26e14:	008000f4 	movhi	r2,3
   26e18:	109cd017 	ldw	r2,29504(r2)
   26e1c:	defffd04 	addi	sp,sp,-12
   26e20:	dc400115 	stw	r17,4(sp)
   26e24:	dc000015 	stw	r16,0(sp)
   26e28:	dfc00215 	stw	ra,8(sp)
   26e2c:	2023883a 	mov	r17,r4
   26e30:	2821883a 	mov	r16,r5
   26e34:	10000226 	beq	r2,zero,26e40 <__swsetup_r+0x2c>
   26e38:	10c00e17 	ldw	r3,56(r2)
   26e3c:	18001d26 	beq	r3,zero,26eb4 <__swsetup_r+0xa0>
   26e40:	80c0030b 	ldhu	r3,12(r16)
   26e44:	1880020c 	andi	r2,r3,8
   26e48:	10001f26 	beq	r2,zero,26ec8 <__swsetup_r+0xb4>
   26e4c:	80800417 	ldw	r2,16(r16)
   26e50:	10002626 	beq	r2,zero,26eec <__swsetup_r+0xd8>
   26e54:	1900004c 	andi	r4,r3,1
   26e58:	20000b1e 	bne	r4,zero,26e88 <__swsetup_r+0x74>
   26e5c:	1900008c 	andi	r4,r3,2
   26e60:	20002b1e 	bne	r4,zero,26f10 <__swsetup_r+0xfc>
   26e64:	81000517 	ldw	r4,20(r16)
   26e68:	81000215 	stw	r4,8(r16)
   26e6c:	10000b26 	beq	r2,zero,26e9c <__swsetup_r+0x88>
   26e70:	0005883a 	mov	r2,zero
   26e74:	dfc00217 	ldw	ra,8(sp)
   26e78:	dc400117 	ldw	r17,4(sp)
   26e7c:	dc000017 	ldw	r16,0(sp)
   26e80:	dec00304 	addi	sp,sp,12
   26e84:	f800283a 	ret
   26e88:	81000517 	ldw	r4,20(r16)
   26e8c:	80000215 	stw	zero,8(r16)
   26e90:	0109c83a 	sub	r4,zero,r4
   26e94:	81000615 	stw	r4,24(r16)
   26e98:	103ff51e 	bne	r2,zero,26e70 <__swsetup_r+0x5c>
   26e9c:	1900200c 	andi	r4,r3,128
   26ea0:	203ff426 	beq	r4,zero,26e74 <__swsetup_r+0x60>
   26ea4:	18c01014 	ori	r3,r3,64
   26ea8:	80c0030d 	sth	r3,12(r16)
   26eac:	00bfffc4 	movi	r2,-1
   26eb0:	003ff006 	br	26e74 <__swsetup_r+0x60>
   26eb4:	1009883a 	mov	r4,r2
   26eb8:	0028fbc0 	call	28fbc <__sinit>
   26ebc:	80c0030b 	ldhu	r3,12(r16)
   26ec0:	1880020c 	andi	r2,r3,8
   26ec4:	103fe11e 	bne	r2,zero,26e4c <__swsetup_r+0x38>
   26ec8:	1880040c 	andi	r2,r3,16
   26ecc:	10002026 	beq	r2,zero,26f50 <__swsetup_r+0x13c>
   26ed0:	1880010c 	andi	r2,r3,4
   26ed4:	1000101e 	bne	r2,zero,26f18 <__swsetup_r+0x104>
   26ed8:	80800417 	ldw	r2,16(r16)
   26edc:	19000214 	ori	r4,r3,8
   26ee0:	8100030d 	sth	r4,12(r16)
   26ee4:	2007883a 	mov	r3,r4
   26ee8:	103fda1e 	bne	r2,zero,26e54 <__swsetup_r+0x40>
   26eec:	1900a00c 	andi	r4,r3,640
   26ef0:	21008020 	cmpeqi	r4,r4,512
   26ef4:	203fd71e 	bne	r4,zero,26e54 <__swsetup_r+0x40>
   26ef8:	800b883a 	mov	r5,r16
   26efc:	8809883a 	mov	r4,r17
   26f00:	00238600 	call	23860 <__smakebuf_r>
   26f04:	80c0030b 	ldhu	r3,12(r16)
   26f08:	80800417 	ldw	r2,16(r16)
   26f0c:	003fd106 	br	26e54 <__swsetup_r+0x40>
   26f10:	0009883a 	mov	r4,zero
   26f14:	003fd406 	br	26e68 <__swsetup_r+0x54>
   26f18:	81400c17 	ldw	r5,48(r16)
   26f1c:	28000626 	beq	r5,zero,26f38 <__swsetup_r+0x124>
   26f20:	80801004 	addi	r2,r16,64
   26f24:	28800326 	beq	r5,r2,26f34 <__swsetup_r+0x120>
   26f28:	8809883a 	mov	r4,r17
   26f2c:	00291e00 	call	291e0 <_free_r>
   26f30:	80c0030b 	ldhu	r3,12(r16)
   26f34:	80000c15 	stw	zero,48(r16)
   26f38:	80800417 	ldw	r2,16(r16)
   26f3c:	013ff6c4 	movi	r4,-37
   26f40:	20c6703a 	and	r3,r4,r3
   26f44:	80000115 	stw	zero,4(r16)
   26f48:	80800015 	stw	r2,0(r16)
   26f4c:	003fe306 	br	26edc <__swsetup_r+0xc8>
   26f50:	00800244 	movi	r2,9
   26f54:	88800015 	stw	r2,0(r17)
   26f58:	18c01014 	ori	r3,r3,64
   26f5c:	003fd206 	br	26ea8 <__swsetup_r+0x94>

00026f60 <_close_r>:
   26f60:	defffe04 	addi	sp,sp,-8
   26f64:	dc000015 	stw	r16,0(sp)
   26f68:	00800134 	movhi	r2,4
   26f6c:	2021883a 	mov	r16,r4
   26f70:	2809883a 	mov	r4,r5
   26f74:	dfc00115 	stw	ra,4(sp)
   26f78:	1025f115 	stw	zero,-26684(r2)
   26f7c:	0030e940 	call	30e94 <close>
   26f80:	10ffffd8 	cmpnei	r3,r2,-1
   26f84:	18000426 	beq	r3,zero,26f98 <_close_r+0x38>
   26f88:	dfc00117 	ldw	ra,4(sp)
   26f8c:	dc000017 	ldw	r16,0(sp)
   26f90:	dec00204 	addi	sp,sp,8
   26f94:	f800283a 	ret
   26f98:	00c00134 	movhi	r3,4
   26f9c:	18e5f117 	ldw	r3,-26684(r3)
   26fa0:	183ff926 	beq	r3,zero,26f88 <_close_r+0x28>
   26fa4:	80c00015 	stw	r3,0(r16)
   26fa8:	dfc00117 	ldw	ra,4(sp)
   26fac:	dc000017 	ldw	r16,0(sp)
   26fb0:	dec00204 	addi	sp,sp,8
   26fb4:	f800283a 	ret

00026fb8 <quorem>:
   26fb8:	defff504 	addi	sp,sp,-44
   26fbc:	dc800315 	stw	r18,12(sp)
   26fc0:	20800417 	ldw	r2,16(r4)
   26fc4:	2c800417 	ldw	r18,16(r5)
   26fc8:	dfc00a15 	stw	ra,40(sp)
   26fcc:	df000915 	stw	fp,36(sp)
   26fd0:	ddc00815 	stw	r23,32(sp)
   26fd4:	dd800715 	stw	r22,28(sp)
   26fd8:	dd400615 	stw	r21,24(sp)
   26fdc:	dd000515 	stw	r20,20(sp)
   26fe0:	dcc00415 	stw	r19,16(sp)
   26fe4:	dc400215 	stw	r17,8(sp)
   26fe8:	dc000115 	stw	r16,4(sp)
   26fec:	14806f16 	blt	r2,r18,271ac <quorem+0x1f4>
   26ff0:	94bfffc4 	addi	r18,r18,-1
   26ff4:	902c90ba 	slli	r22,r18,2
   26ff8:	2c000504 	addi	r16,r5,20
   26ffc:	25000504 	addi	r20,r4,20
   27000:	85a7883a 	add	r19,r16,r22
   27004:	9f000017 	ldw	fp,0(r19)
   27008:	a5ad883a 	add	r22,r20,r22
   2700c:	202b883a 	mov	r21,r4
   27010:	b1000017 	ldw	r4,0(r22)
   27014:	e7000044 	addi	fp,fp,1
   27018:	282f883a 	mov	r23,r5
   2701c:	e00b883a 	mov	r5,fp
   27020:	d9000015 	stw	r4,0(sp)
   27024:	002301c0 	call	2301c <__udivsi3>
   27028:	d9000017 	ldw	r4,0(sp)
   2702c:	1023883a 	mov	r17,r2
   27030:	27002a36 	bltu	r4,fp,270dc <quorem+0x124>
   27034:	800f883a 	mov	r7,r16
   27038:	a00d883a 	mov	r6,r20
   2703c:	0013883a 	mov	r9,zero
   27040:	0009883a 	mov	r4,zero
   27044:	38800017 	ldw	r2,0(r7)
   27048:	32000017 	ldw	r8,0(r6)
   2704c:	31800104 	addi	r6,r6,4
   27050:	117fffcc 	andi	r5,r2,65535
   27054:	2c4b383a 	mul	r5,r5,r17
   27058:	1004d43a 	srli	r2,r2,16
   2705c:	40ffffcc 	andi	r3,r8,65535
   27060:	2a4b883a 	add	r5,r5,r9
   27064:	2a7fffcc 	andi	r9,r5,65535
   27068:	1a47c83a 	sub	r3,r3,r9
   2706c:	280ad43a 	srli	r5,r5,16
   27070:	1445383a 	mul	r2,r2,r17
   27074:	1907883a 	add	r3,r3,r4
   27078:	1809d43a 	srai	r4,r3,16
   2707c:	1145883a 	add	r2,r2,r5
   27080:	4010d43a 	srli	r8,r8,16
   27084:	117fffcc 	andi	r5,r2,65535
   27088:	2149c83a 	sub	r4,r4,r5
   2708c:	2209883a 	add	r4,r4,r8
   27090:	200a943a 	slli	r5,r4,16
   27094:	18ffffcc 	andi	r3,r3,65535
   27098:	39c00104 	addi	r7,r7,4
   2709c:	1946b03a 	or	r3,r3,r5
   270a0:	30ffff15 	stw	r3,-4(r6)
   270a4:	1012d43a 	srli	r9,r2,16
   270a8:	2009d43a 	srai	r4,r4,16
   270ac:	99ffe52e 	bgeu	r19,r7,27044 <quorem+0x8c>
   270b0:	b0800017 	ldw	r2,0(r22)
   270b4:	1000091e 	bne	r2,zero,270dc <quorem+0x124>
   270b8:	b5bfff04 	addi	r22,r22,-4
   270bc:	a5800336 	bltu	r20,r22,270cc <quorem+0x114>
   270c0:	00000506 	br	270d8 <quorem+0x120>
   270c4:	94bfffc4 	addi	r18,r18,-1
   270c8:	a580032e 	bgeu	r20,r22,270d8 <quorem+0x120>
   270cc:	b0800017 	ldw	r2,0(r22)
   270d0:	b5bfff04 	addi	r22,r22,-4
   270d4:	103ffb26 	beq	r2,zero,270c4 <quorem+0x10c>
   270d8:	ac800415 	stw	r18,16(r21)
   270dc:	b80b883a 	mov	r5,r23
   270e0:	a809883a 	mov	r4,r21
   270e4:	002a9cc0 	call	2a9cc <__mcmp>
   270e8:	10002316 	blt	r2,zero,27178 <quorem+0x1c0>
   270ec:	a00d883a 	mov	r6,r20
   270f0:	000b883a 	mov	r5,zero
   270f4:	30800017 	ldw	r2,0(r6)
   270f8:	81000017 	ldw	r4,0(r16)
   270fc:	31800104 	addi	r6,r6,4
   27100:	10ffffcc 	andi	r3,r2,65535
   27104:	21ffffcc 	andi	r7,r4,65535
   27108:	19c7c83a 	sub	r3,r3,r7
   2710c:	1947883a 	add	r3,r3,r5
   27110:	180bd43a 	srai	r5,r3,16
   27114:	2008d43a 	srli	r4,r4,16
   27118:	1004d43a 	srli	r2,r2,16
   2711c:	18ffffcc 	andi	r3,r3,65535
   27120:	290bc83a 	sub	r5,r5,r4
   27124:	288b883a 	add	r5,r5,r2
   27128:	2804943a 	slli	r2,r5,16
   2712c:	84000104 	addi	r16,r16,4
   27130:	280bd43a 	srai	r5,r5,16
   27134:	1886b03a 	or	r3,r3,r2
   27138:	30ffff15 	stw	r3,-4(r6)
   2713c:	9c3fed2e 	bgeu	r19,r16,270f4 <quorem+0x13c>
   27140:	900490ba 	slli	r2,r18,2
   27144:	a085883a 	add	r2,r20,r2
   27148:	10c00017 	ldw	r3,0(r2)
   2714c:	1800091e 	bne	r3,zero,27174 <quorem+0x1bc>
   27150:	10bfff04 	addi	r2,r2,-4
   27154:	a0800336 	bltu	r20,r2,27164 <quorem+0x1ac>
   27158:	00000506 	br	27170 <quorem+0x1b8>
   2715c:	94bfffc4 	addi	r18,r18,-1
   27160:	a080032e 	bgeu	r20,r2,27170 <quorem+0x1b8>
   27164:	10c00017 	ldw	r3,0(r2)
   27168:	10bfff04 	addi	r2,r2,-4
   2716c:	183ffb26 	beq	r3,zero,2715c <quorem+0x1a4>
   27170:	ac800415 	stw	r18,16(r21)
   27174:	8c400044 	addi	r17,r17,1
   27178:	8805883a 	mov	r2,r17
   2717c:	dfc00a17 	ldw	ra,40(sp)
   27180:	df000917 	ldw	fp,36(sp)
   27184:	ddc00817 	ldw	r23,32(sp)
   27188:	dd800717 	ldw	r22,28(sp)
   2718c:	dd400617 	ldw	r21,24(sp)
   27190:	dd000517 	ldw	r20,20(sp)
   27194:	dcc00417 	ldw	r19,16(sp)
   27198:	dc800317 	ldw	r18,12(sp)
   2719c:	dc400217 	ldw	r17,8(sp)
   271a0:	dc000117 	ldw	r16,4(sp)
   271a4:	dec00b04 	addi	sp,sp,44
   271a8:	f800283a 	ret
   271ac:	0005883a 	mov	r2,zero
   271b0:	003ff206 	br	2717c <quorem+0x1c4>

000271b4 <_dtoa_r>:
   271b4:	20801017 	ldw	r2,64(r4)
   271b8:	deffe104 	addi	sp,sp,-124
   271bc:	dd401a15 	stw	r21,104(sp)
   271c0:	dc801715 	stw	r18,92(sp)
   271c4:	dc401615 	stw	r17,88(sp)
   271c8:	dc001515 	stw	r16,84(sp)
   271cc:	dfc01e15 	stw	ra,120(sp)
   271d0:	df001d15 	stw	fp,116(sp)
   271d4:	ddc01c15 	stw	r23,112(sp)
   271d8:	dd801b15 	stw	r22,108(sp)
   271dc:	dd001915 	stw	r20,100(sp)
   271e0:	dcc01815 	stw	r19,96(sp)
   271e4:	d9400215 	stw	r5,8(sp)
   271e8:	d9c00115 	stw	r7,4(sp)
   271ec:	dc402117 	ldw	r17,132(sp)
   271f0:	2021883a 	mov	r16,r4
   271f4:	3025883a 	mov	r18,r6
   271f8:	302b883a 	mov	r21,r6
   271fc:	10000826 	beq	r2,zero,27220 <_dtoa_r+0x6c>
   27200:	21801117 	ldw	r6,68(r4)
   27204:	00c00044 	movi	r3,1
   27208:	100b883a 	mov	r5,r2
   2720c:	1986983a 	sll	r3,r3,r6
   27210:	11800115 	stw	r6,4(r2)
   27214:	10c00215 	stw	r3,8(r2)
   27218:	002a0500 	call	2a050 <_Bfree>
   2721c:	80001015 	stw	zero,64(r16)
   27220:	90019316 	blt	r18,zero,27870 <_dtoa_r+0x6bc>
   27224:	88000015 	stw	zero,0(r17)
   27228:	909ffc2c 	andhi	r2,r18,32752
   2722c:	00dffc34 	movhi	r3,32752
   27230:	10c19826 	beq	r2,r3,27894 <_dtoa_r+0x6e0>
   27234:	d9000217 	ldw	r4,8(sp)
   27238:	000d883a 	mov	r6,zero
   2723c:	000f883a 	mov	r7,zero
   27240:	a80b883a 	mov	r5,r21
   27244:	002f8f00 	call	2f8f0 <__eqdf2>
   27248:	1000181e 	bne	r2,zero,272ac <_dtoa_r+0xf8>
   2724c:	d8c02017 	ldw	r3,128(sp)
   27250:	00800044 	movi	r2,1
   27254:	18800015 	stw	r2,0(r3)
   27258:	d8802217 	ldw	r2,136(sp)
   2725c:	10000426 	beq	r2,zero,27270 <_dtoa_r+0xbc>
   27260:	d8c02217 	ldw	r3,136(sp)
   27264:	008000f4 	movhi	r2,3
   27268:	10924544 	addi	r2,r2,18709
   2726c:	18800015 	stw	r2,0(r3)
   27270:	070000f4 	movhi	fp,3
   27274:	e7124504 	addi	fp,fp,18708
   27278:	e005883a 	mov	r2,fp
   2727c:	dfc01e17 	ldw	ra,120(sp)
   27280:	df001d17 	ldw	fp,116(sp)
   27284:	ddc01c17 	ldw	r23,112(sp)
   27288:	dd801b17 	ldw	r22,108(sp)
   2728c:	dd401a17 	ldw	r21,104(sp)
   27290:	dd001917 	ldw	r20,100(sp)
   27294:	dcc01817 	ldw	r19,96(sp)
   27298:	dc801717 	ldw	r18,92(sp)
   2729c:	dc401617 	ldw	r17,88(sp)
   272a0:	dc001517 	ldw	r16,84(sp)
   272a4:	dec01f04 	addi	sp,sp,124
   272a8:	f800283a 	ret
   272ac:	dcc00217 	ldw	r19,8(sp)
   272b0:	d8801304 	addi	r2,sp,76
   272b4:	9022d53a 	srli	r17,r18,20
   272b8:	d8800015 	stw	r2,0(sp)
   272bc:	d9c01404 	addi	r7,sp,80
   272c0:	980b883a 	mov	r5,r19
   272c4:	a80d883a 	mov	r6,r21
   272c8:	8009883a 	mov	r4,r16
   272cc:	002adb40 	call	2adb4 <__d2b>
   272d0:	102f883a 	mov	r23,r2
   272d4:	8801811e 	bne	r17,zero,278dc <_dtoa_r+0x728>
   272d8:	dd001317 	ldw	r20,76(sp)
   272dc:	dc401417 	ldw	r17,80(sp)
   272e0:	a463883a 	add	r17,r20,r17
   272e4:	88810c84 	addi	r2,r17,1074
   272e8:	10c00850 	cmplti	r3,r2,33
   272ec:	1803101e 	bne	r3,zero,27f30 <_dtoa_r+0xd7c>
   272f0:	00c01004 	movi	r3,64
   272f4:	1887c83a 	sub	r3,r3,r2
   272f8:	90c8983a 	sll	r4,r18,r3
   272fc:	d8c00217 	ldw	r3,8(sp)
   27300:	88810484 	addi	r2,r17,1042
   27304:	1884d83a 	srl	r2,r3,r2
   27308:	2088b03a 	or	r4,r4,r2
   2730c:	0030d780 	call	30d78 <__floatunsidf>
   27310:	1009883a 	mov	r4,r2
   27314:	00bf8434 	movhi	r2,65040
   27318:	188b883a 	add	r5,r3,r2
   2731c:	00800044 	movi	r2,1
   27320:	8c7fffc4 	addi	r17,r17,-1
   27324:	d8800915 	stw	r2,36(sp)
   27328:	000d883a 	mov	r6,zero
   2732c:	01cffe34 	movhi	r7,16376
   27330:	00302500 	call	30250 <__subdf3>
   27334:	0198dbf4 	movhi	r6,25455
   27338:	01cff4f4 	movhi	r7,16339
   2733c:	3190d844 	addi	r6,r6,17249
   27340:	39e1e9c4 	addi	r7,r7,-30809
   27344:	1009883a 	mov	r4,r2
   27348:	180b883a 	mov	r5,r3
   2734c:	002fb780 	call	2fb78 <__muldf3>
   27350:	01a2d874 	movhi	r6,35681
   27354:	01cff1f4 	movhi	r7,16327
   27358:	31b22cc4 	addi	r6,r6,-14157
   2735c:	39e28a04 	addi	r7,r7,-30168
   27360:	180b883a 	mov	r5,r3
   27364:	1009883a 	mov	r4,r2
   27368:	002e7a40 	call	2e7a4 <__adddf3>
   2736c:	8809883a 	mov	r4,r17
   27370:	1027883a 	mov	r19,r2
   27374:	1825883a 	mov	r18,r3
   27378:	0030cc00 	call	30cc0 <__floatsidf>
   2737c:	019427f4 	movhi	r6,20639
   27380:	01cff4f4 	movhi	r7,16339
   27384:	319e7ec4 	addi	r6,r6,31227
   27388:	39d104c4 	addi	r7,r7,17427
   2738c:	1009883a 	mov	r4,r2
   27390:	180b883a 	mov	r5,r3
   27394:	002fb780 	call	2fb78 <__muldf3>
   27398:	100d883a 	mov	r6,r2
   2739c:	180f883a 	mov	r7,r3
   273a0:	9809883a 	mov	r4,r19
   273a4:	900b883a 	mov	r5,r18
   273a8:	002e7a40 	call	2e7a4 <__adddf3>
   273ac:	1009883a 	mov	r4,r2
   273b0:	180b883a 	mov	r5,r3
   273b4:	1027883a 	mov	r19,r2
   273b8:	1825883a 	mov	r18,r3
   273bc:	0030c400 	call	30c40 <__fixdfsi>
   273c0:	000d883a 	mov	r6,zero
   273c4:	000f883a 	mov	r7,zero
   273c8:	9809883a 	mov	r4,r19
   273cc:	900b883a 	mov	r5,r18
   273d0:	102d883a 	mov	r22,r2
   273d4:	002fa800 	call	2fa80 <__ledf2>
   273d8:	1002a616 	blt	r2,zero,27e74 <_dtoa_r+0xcc0>
   273dc:	a469c83a 	sub	r20,r20,r17
   273e0:	a0ffffc4 	addi	r3,r20,-1
   273e4:	b08005e8 	cmpgeui	r2,r22,23
   273e8:	d8c00415 	stw	r3,16(sp)
   273ec:	1002981e 	bne	r2,zero,27e50 <_dtoa_r+0xc9c>
   273f0:	b00490fa 	slli	r2,r22,3
   273f4:	02c000f4 	movhi	r11,3
   273f8:	5ad28c04 	addi	r11,r11,18992
   273fc:	5885883a 	add	r2,r11,r2
   27400:	11800017 	ldw	r6,0(r2)
   27404:	11c00117 	ldw	r7,4(r2)
   27408:	d9000217 	ldw	r4,8(sp)
   2740c:	a80b883a 	mov	r5,r21
   27410:	002fa800 	call	2fa80 <__ledf2>
   27414:	1001d60e 	bge	r2,zero,27b70 <_dtoa_r+0x9bc>
   27418:	d8000815 	stw	zero,32(sp)
   2741c:	a0bfffc4 	addi	r2,r20,-1
   27420:	b5bfffc4 	addi	r22,r22,-1
   27424:	10028e16 	blt	r2,zero,27e60 <_dtoa_r+0xcac>
   27428:	d8000515 	stw	zero,20(sp)
   2742c:	b001d30e 	bge	r22,zero,27b7c <_dtoa_r+0x9c8>
   27430:	d8800517 	ldw	r2,20(sp)
   27434:	d8c00117 	ldw	r3,4(sp)
   27438:	dd800615 	stw	r22,24(sp)
   2743c:	1585c83a 	sub	r2,r2,r22
   27440:	d8800515 	stw	r2,20(sp)
   27444:	0585c83a 	sub	r2,zero,r22
   27448:	d8800315 	stw	r2,12(sp)
   2744c:	188002a8 	cmpgeui	r2,r3,10
   27450:	002d883a 	mov	r22,zero
   27454:	1001d11e 	bne	r2,zero,27b9c <_dtoa_r+0x9e8>
   27458:	18800190 	cmplti	r2,r3,6
   2745c:	1002a31e 	bne	r2,zero,27eec <_dtoa_r+0xd38>
   27460:	18ffff04 	addi	r3,r3,-4
   27464:	d8c00115 	stw	r3,4(sp)
   27468:	188000e0 	cmpeqi	r2,r3,3
   2746c:	0023883a 	mov	r17,zero
   27470:	1003b71e 	bne	r2,zero,28350 <_dtoa_r+0x119c>
   27474:	18800108 	cmpgei	r2,r3,4
   27478:	1003a626 	beq	r2,zero,28314 <_dtoa_r+0x1160>
   2747c:	d8800117 	ldw	r2,4(sp)
   27480:	10800120 	cmpeqi	r2,r2,4
   27484:	1003611e 	bne	r2,zero,2820c <_dtoa_r+0x1058>
   27488:	00800144 	movi	r2,5
   2748c:	d8800115 	stw	r2,4(sp)
   27490:	00800044 	movi	r2,1
   27494:	d8800715 	stw	r2,28(sp)
   27498:	d8801f17 	ldw	r2,124(sp)
   2749c:	d8c00617 	ldw	r3,24(sp)
   274a0:	10c5883a 	add	r2,r2,r3
   274a4:	14800044 	addi	r18,r2,1
   274a8:	d8800a15 	stw	r2,40(sp)
   274ac:	900d883a 	mov	r6,r18
   274b0:	0485320e 	bge	zero,r18,2897c <_dtoa_r+0x17c8>
   274b4:	30800608 	cmpgei	r2,r6,24
   274b8:	10053026 	beq	r2,zero,2897c <_dtoa_r+0x17c8>
   274bc:	00c00044 	movi	r3,1
   274c0:	00800104 	movi	r2,4
   274c4:	1085883a 	add	r2,r2,r2
   274c8:	11000504 	addi	r4,r2,20
   274cc:	180b883a 	mov	r5,r3
   274d0:	18c00044 	addi	r3,r3,1
   274d4:	313ffb2e 	bgeu	r6,r4,274c4 <_dtoa_r+0x310>
   274d8:	81401115 	stw	r5,68(r16)
   274dc:	8009883a 	mov	r4,r16
   274e0:	0029fac0 	call	29fac <_Balloc>
   274e4:	1039883a 	mov	fp,r2
   274e8:	10050d26 	beq	r2,zero,28920 <_dtoa_r+0x176c>
   274ec:	80801015 	stw	r2,64(r16)
   274f0:	908003e8 	cmpgeui	r2,r18,15
   274f4:	1001291e 	bne	r2,zero,2799c <_dtoa_r+0x7e8>
   274f8:	88012826 	beq	r17,zero,2799c <_dtoa_r+0x7e8>
   274fc:	d8c00617 	ldw	r3,24(sp)
   27500:	00c3b40e 	bge	zero,r3,283d4 <_dtoa_r+0x1220>
   27504:	188003cc 	andi	r2,r3,15
   27508:	100490fa 	slli	r2,r2,3
   2750c:	1823d13a 	srai	r17,r3,4
   27510:	02c000f4 	movhi	r11,3
   27514:	5ad28c04 	addi	r11,r11,18992
   27518:	5885883a 	add	r2,r11,r2
   2751c:	88c0040c 	andi	r3,r17,16
   27520:	12400017 	ldw	r9,0(r2)
   27524:	12000117 	ldw	r8,4(r2)
   27528:	18037626 	beq	r3,zero,28304 <_dtoa_r+0x1150>
   2752c:	008000f4 	movhi	r2,3
   27530:	10928204 	addi	r2,r2,18952
   27534:	d9000217 	ldw	r4,8(sp)
   27538:	11800817 	ldw	r6,32(r2)
   2753c:	11c00917 	ldw	r7,36(r2)
   27540:	a80b883a 	mov	r5,r21
   27544:	da000c15 	stw	r8,48(sp)
   27548:	da400b15 	stw	r9,44(sp)
   2754c:	002f0a80 	call	2f0a8 <__divdf3>
   27550:	da400b17 	ldw	r9,44(sp)
   27554:	da000c17 	ldw	r8,48(sp)
   27558:	8c4003cc 	andi	r17,r17,15
   2755c:	1009883a 	mov	r4,r2
   27560:	180b883a 	mov	r5,r3
   27564:	04c000c4 	movi	r19,3
   27568:	88001c26 	beq	r17,zero,275dc <_dtoa_r+0x428>
   2756c:	050000f4 	movhi	r20,3
   27570:	a5128204 	addi	r20,r20,18952
   27574:	dc800b15 	stw	r18,44(sp)
   27578:	dc000c15 	stw	r16,48(sp)
   2757c:	9825883a 	mov	r18,r19
   27580:	a021883a 	mov	r16,r20
   27584:	2827883a 	mov	r19,r5
   27588:	2029883a 	mov	r20,r4
   2758c:	400b883a 	mov	r5,r8
   27590:	4809883a 	mov	r4,r9
   27594:	8980004c 	andi	r6,r17,1
   27598:	30000626 	beq	r6,zero,275b4 <_dtoa_r+0x400>
   2759c:	81800017 	ldw	r6,0(r16)
   275a0:	81c00117 	ldw	r7,4(r16)
   275a4:	94800044 	addi	r18,r18,1
   275a8:	002fb780 	call	2fb78 <__muldf3>
   275ac:	1009883a 	mov	r4,r2
   275b0:	180b883a 	mov	r5,r3
   275b4:	8823d07a 	srai	r17,r17,1
   275b8:	84000204 	addi	r16,r16,8
   275bc:	883ff51e 	bne	r17,zero,27594 <_dtoa_r+0x3e0>
   275c0:	2811883a 	mov	r8,r5
   275c4:	dc000c17 	ldw	r16,48(sp)
   275c8:	980b883a 	mov	r5,r19
   275cc:	9027883a 	mov	r19,r18
   275d0:	dc800b17 	ldw	r18,44(sp)
   275d4:	2013883a 	mov	r9,r4
   275d8:	a009883a 	mov	r4,r20
   275dc:	480d883a 	mov	r6,r9
   275e0:	400f883a 	mov	r7,r8
   275e4:	002f0a80 	call	2f0a8 <__divdf3>
   275e8:	1023883a 	mov	r17,r2
   275ec:	1829883a 	mov	r20,r3
   275f0:	d8800817 	ldw	r2,32(sp)
   275f4:	10000626 	beq	r2,zero,27610 <_dtoa_r+0x45c>
   275f8:	000d883a 	mov	r6,zero
   275fc:	01cffc34 	movhi	r7,16368
   27600:	8809883a 	mov	r4,r17
   27604:	a00b883a 	mov	r5,r20
   27608:	002fa800 	call	2fa80 <__ledf2>
   2760c:	10045a16 	blt	r2,zero,28778 <_dtoa_r+0x15c4>
   27610:	9809883a 	mov	r4,r19
   27614:	0030cc00 	call	30cc0 <__floatsidf>
   27618:	880d883a 	mov	r6,r17
   2761c:	a00f883a 	mov	r7,r20
   27620:	1009883a 	mov	r4,r2
   27624:	180b883a 	mov	r5,r3
   27628:	002fb780 	call	2fb78 <__muldf3>
   2762c:	000d883a 	mov	r6,zero
   27630:	01d00734 	movhi	r7,16412
   27634:	1009883a 	mov	r4,r2
   27638:	180b883a 	mov	r5,r3
   2763c:	002e7a40 	call	2e7a4 <__adddf3>
   27640:	d8800b15 	stw	r2,44(sp)
   27644:	00bf3034 	movhi	r2,64704
   27648:	18a7883a 	add	r19,r3,r2
   2764c:	9000c026 	beq	r18,zero,27950 <_dtoa_r+0x79c>
   27650:	d8800617 	ldw	r2,24(sp)
   27654:	dc800c15 	stw	r18,48(sp)
   27658:	d8801115 	stw	r2,68(sp)
   2765c:	d8800c17 	ldw	r2,48(sp)
   27660:	02c000f4 	movhi	r11,3
   27664:	5ad28c04 	addi	r11,r11,18992
   27668:	10bfffc4 	addi	r2,r2,-1
   2766c:	100490fa 	slli	r2,r2,3
   27670:	8809883a 	mov	r4,r17
   27674:	a00b883a 	mov	r5,r20
   27678:	5885883a 	add	r2,r11,r2
   2767c:	10c00017 	ldw	r3,0(r2)
   27680:	10800117 	ldw	r2,4(r2)
   27684:	dac00d15 	stw	r11,52(sp)
   27688:	d8c00f15 	stw	r3,60(sp)
   2768c:	d8801015 	stw	r2,64(sp)
   27690:	0030c400 	call	30c40 <__fixdfsi>
   27694:	11400c04 	addi	r5,r2,48
   27698:	1009883a 	mov	r4,r2
   2769c:	d9400e15 	stw	r5,56(sp)
   276a0:	0030cc00 	call	30cc0 <__floatsidf>
   276a4:	8809883a 	mov	r4,r17
   276a8:	a00b883a 	mov	r5,r20
   276ac:	100d883a 	mov	r6,r2
   276b0:	180f883a 	mov	r7,r3
   276b4:	00302500 	call	30250 <__subdf3>
   276b8:	d9000717 	ldw	r4,28(sp)
   276bc:	dac00d17 	ldw	r11,52(sp)
   276c0:	e2000044 	addi	r8,fp,1
   276c4:	1029883a 	mov	r20,r2
   276c8:	1823883a 	mov	r17,r3
   276cc:	2003ce26 	beq	r4,zero,28608 <_dtoa_r+0x1454>
   276d0:	d9800f17 	ldw	r6,60(sp)
   276d4:	d9c01017 	ldw	r7,64(sp)
   276d8:	0009883a 	mov	r4,zero
   276dc:	014ff834 	movhi	r5,16352
   276e0:	da001215 	stw	r8,72(sp)
   276e4:	002f0a80 	call	2f0a8 <__divdf3>
   276e8:	d9800b17 	ldw	r6,44(sp)
   276ec:	980f883a 	mov	r7,r19
   276f0:	1009883a 	mov	r4,r2
   276f4:	180b883a 	mov	r5,r3
   276f8:	00302500 	call	30250 <__subdf3>
   276fc:	1009883a 	mov	r4,r2
   27700:	d8800e17 	ldw	r2,56(sp)
   27704:	180b883a 	mov	r5,r3
   27708:	a00d883a 	mov	r6,r20
   2770c:	e0800005 	stb	r2,0(fp)
   27710:	880f883a 	mov	r7,r17
   27714:	d9000d15 	stw	r4,52(sp)
   27718:	d8c00b15 	stw	r3,44(sp)
   2771c:	002f9840 	call	2f984 <__gedf2>
   27720:	d9400b17 	ldw	r5,44(sp)
   27724:	d9000d17 	ldw	r4,52(sp)
   27728:	da001217 	ldw	r8,72(sp)
   2772c:	00840b16 	blt	zero,r2,2875c <_dtoa_r+0x15a8>
   27730:	0005883a 	mov	r2,zero
   27734:	dc800d15 	stw	r18,52(sp)
   27738:	dd800e15 	stw	r22,56(sp)
   2773c:	ddc00b15 	stw	r23,44(sp)
   27740:	dd400f15 	stw	r21,60(sp)
   27744:	ddc00c17 	ldw	r23,48(sp)
   27748:	402d883a 	mov	r22,r8
   2774c:	dc000c15 	stw	r16,48(sp)
   27750:	2025883a 	mov	r18,r4
   27754:	2827883a 	mov	r19,r5
   27758:	102b883a 	mov	r21,r2
   2775c:	00002606 	br	277f8 <_dtoa_r+0x644>
   27760:	ad400044 	addi	r21,r21,1
   27764:	adc4460e 	bge	r21,r23,28880 <_dtoa_r+0x16cc>
   27768:	9009883a 	mov	r4,r18
   2776c:	980b883a 	mov	r5,r19
   27770:	000d883a 	mov	r6,zero
   27774:	01d00934 	movhi	r7,16420
   27778:	002fb780 	call	2fb78 <__muldf3>
   2777c:	000d883a 	mov	r6,zero
   27780:	01d00934 	movhi	r7,16420
   27784:	a009883a 	mov	r4,r20
   27788:	880b883a 	mov	r5,r17
   2778c:	1025883a 	mov	r18,r2
   27790:	1827883a 	mov	r19,r3
   27794:	002fb780 	call	2fb78 <__muldf3>
   27798:	180b883a 	mov	r5,r3
   2779c:	1009883a 	mov	r4,r2
   277a0:	1823883a 	mov	r17,r3
   277a4:	1029883a 	mov	r20,r2
   277a8:	0030c400 	call	30c40 <__fixdfsi>
   277ac:	1009883a 	mov	r4,r2
   277b0:	1021883a 	mov	r16,r2
   277b4:	0030cc00 	call	30cc0 <__floatsidf>
   277b8:	a009883a 	mov	r4,r20
   277bc:	880b883a 	mov	r5,r17
   277c0:	100d883a 	mov	r6,r2
   277c4:	180f883a 	mov	r7,r3
   277c8:	00302500 	call	30250 <__subdf3>
   277cc:	b5800044 	addi	r22,r22,1
   277d0:	82000c04 	addi	r8,r16,48
   277d4:	b23fffc5 	stb	r8,-1(r22)
   277d8:	900d883a 	mov	r6,r18
   277dc:	980f883a 	mov	r7,r19
   277e0:	1009883a 	mov	r4,r2
   277e4:	180b883a 	mov	r5,r3
   277e8:	1029883a 	mov	r20,r2
   277ec:	1823883a 	mov	r17,r3
   277f0:	002fa800 	call	2fa80 <__ledf2>
   277f4:	10041e16 	blt	r2,zero,28870 <_dtoa_r+0x16bc>
   277f8:	a00d883a 	mov	r6,r20
   277fc:	880f883a 	mov	r7,r17
   27800:	0009883a 	mov	r4,zero
   27804:	014ffc34 	movhi	r5,16368
   27808:	00302500 	call	30250 <__subdf3>
   2780c:	900d883a 	mov	r6,r18
   27810:	980f883a 	mov	r7,r19
   27814:	1009883a 	mov	r4,r2
   27818:	180b883a 	mov	r5,r3
   2781c:	002fa800 	call	2fa80 <__ledf2>
   27820:	103fcf0e 	bge	r2,zero,27760 <_dtoa_r+0x5ac>
   27824:	d8801117 	ldw	r2,68(sp)
   27828:	b027883a 	mov	r19,r22
   2782c:	ddc00b17 	ldw	r23,44(sp)
   27830:	dc000c17 	ldw	r16,48(sp)
   27834:	15800044 	addi	r22,r2,1
   27838:	00000106 	br	27840 <_dtoa_r+0x68c>
   2783c:	e4c3ed26 	beq	fp,r19,287f4 <_dtoa_r+0x1640>
   27840:	98ffffc3 	ldbu	r3,-1(r19)
   27844:	9811883a 	mov	r8,r19
   27848:	9cffffc4 	addi	r19,r19,-1
   2784c:	18803fcc 	andi	r2,r3,255
   27850:	1080201c 	xori	r2,r2,128
   27854:	10bfe004 	addi	r2,r2,-128
   27858:	10800e60 	cmpeqi	r2,r2,57
   2785c:	103ff71e 	bne	r2,zero,2783c <_dtoa_r+0x688>
   27860:	18c00044 	addi	r3,r3,1
   27864:	98c00005 	stb	r3,0(r19)
   27868:	b02b883a 	mov	r21,r22
   2786c:	00015a06 	br	27dd8 <_dtoa_r+0xc24>
   27870:	00a00034 	movhi	r2,32768
   27874:	10bfffc4 	addi	r2,r2,-1
   27878:	90aa703a 	and	r21,r18,r2
   2787c:	a825883a 	mov	r18,r21
   27880:	00800044 	movi	r2,1
   27884:	88800015 	stw	r2,0(r17)
   27888:	00dffc34 	movhi	r3,32752
   2788c:	909ffc2c 	andhi	r2,r18,32752
   27890:	10fe681e 	bne	r2,r3,27234 <_dtoa_r+0x80>
   27894:	d9002017 	ldw	r4,128(sp)
   27898:	00c9c3c4 	movi	r3,9999
   2789c:	00800434 	movhi	r2,16
   278a0:	20c00015 	stw	r3,0(r4)
   278a4:	d8c00217 	ldw	r3,8(sp)
   278a8:	10bfffc4 	addi	r2,r2,-1
   278ac:	9084703a 	and	r2,r18,r2
   278b0:	10c4b03a 	or	r2,r2,r3
   278b4:	1000121e 	bne	r2,zero,27900 <_dtoa_r+0x74c>
   278b8:	d8802217 	ldw	r2,136(sp)
   278bc:	070000f4 	movhi	fp,3
   278c0:	10041e26 	beq	r2,zero,2893c <_dtoa_r+0x1788>
   278c4:	008000f4 	movhi	r2,3
   278c8:	e7124e04 	addi	fp,fp,18744
   278cc:	10925004 	addi	r2,r2,18752
   278d0:	d8c02217 	ldw	r3,136(sp)
   278d4:	18800015 	stw	r2,0(r3)
   278d8:	003e6706 	br	27278 <_dtoa_r+0xc4>
   278dc:	01400434 	movhi	r5,16
   278e0:	297fffc4 	addi	r5,r5,-1
   278e4:	a94a703a 	and	r5,r21,r5
   278e8:	dd001317 	ldw	r20,76(sp)
   278ec:	9809883a 	mov	r4,r19
   278f0:	294ffc34 	orhi	r5,r5,16368
   278f4:	8c7f0044 	addi	r17,r17,-1023
   278f8:	d8000915 	stw	zero,36(sp)
   278fc:	003e8a06 	br	27328 <_dtoa_r+0x174>
   27900:	d8802217 	ldw	r2,136(sp)
   27904:	070000f4 	movhi	fp,3
   27908:	10023c1e 	bne	r2,zero,281fc <_dtoa_r+0x1048>
   2790c:	e7125104 	addi	fp,fp,18756
   27910:	003e5906 	br	27278 <_dtoa_r+0xc4>
   27914:	9809883a 	mov	r4,r19
   27918:	0030cc00 	call	30cc0 <__floatsidf>
   2791c:	880d883a 	mov	r6,r17
   27920:	a00f883a 	mov	r7,r20
   27924:	1009883a 	mov	r4,r2
   27928:	180b883a 	mov	r5,r3
   2792c:	002fb780 	call	2fb78 <__muldf3>
   27930:	000d883a 	mov	r6,zero
   27934:	01d00734 	movhi	r7,16412
   27938:	1009883a 	mov	r4,r2
   2793c:	180b883a 	mov	r5,r3
   27940:	002e7a40 	call	2e7a4 <__adddf3>
   27944:	d8800b15 	stw	r2,44(sp)
   27948:	00bf3034 	movhi	r2,64704
   2794c:	18a7883a 	add	r19,r3,r2
   27950:	8809883a 	mov	r4,r17
   27954:	a00b883a 	mov	r5,r20
   27958:	000d883a 	mov	r6,zero
   2795c:	01d00534 	movhi	r7,16404
   27960:	00302500 	call	30250 <__subdf3>
   27964:	d9800b17 	ldw	r6,44(sp)
   27968:	980f883a 	mov	r7,r19
   2796c:	1009883a 	mov	r4,r2
   27970:	180b883a 	mov	r5,r3
   27974:	1029883a 	mov	r20,r2
   27978:	1823883a 	mov	r17,r3
   2797c:	002f9840 	call	2f984 <__gedf2>
   27980:	0083a716 	blt	zero,r2,28820 <_dtoa_r+0x166c>
   27984:	d9800b17 	ldw	r6,44(sp)
   27988:	99e0003c 	xorhi	r7,r19,32768
   2798c:	a009883a 	mov	r4,r20
   27990:	880b883a 	mov	r5,r17
   27994:	002fa800 	call	2fa80 <__ledf2>
   27998:	10001d16 	blt	r2,zero,27a10 <_dtoa_r+0x85c>
   2799c:	d8801417 	ldw	r2,80(sp)
   279a0:	10008816 	blt	r2,zero,27bc4 <_dtoa_r+0xa10>
   279a4:	d8c00617 	ldw	r3,24(sp)
   279a8:	18c003d0 	cmplti	r3,r3,15
   279ac:	18008526 	beq	r3,zero,27bc4 <_dtoa_r+0xa10>
   279b0:	02c000f4 	movhi	r11,3
   279b4:	5ad28c04 	addi	r11,r11,18992
   279b8:	d8800617 	ldw	r2,24(sp)
   279bc:	100490fa 	slli	r2,r2,3
   279c0:	5885883a 	add	r2,r11,r2
   279c4:	10c00017 	ldw	r3,0(r2)
   279c8:	10800117 	ldw	r2,4(r2)
   279cc:	d8c00115 	stw	r3,4(sp)
   279d0:	d8800315 	stw	r2,12(sp)
   279d4:	d8801f17 	ldw	r2,124(sp)
   279d8:	1000130e 	bge	r2,zero,27a28 <_dtoa_r+0x874>
   279dc:	04801216 	blt	zero,r18,27a28 <_dtoa_r+0x874>
   279e0:	90000b1e 	bne	r18,zero,27a10 <_dtoa_r+0x85c>
   279e4:	d9000117 	ldw	r4,4(sp)
   279e8:	d9400317 	ldw	r5,12(sp)
   279ec:	000d883a 	mov	r6,zero
   279f0:	01d00534 	movhi	r7,16404
   279f4:	002fb780 	call	2fb78 <__muldf3>
   279f8:	d9000217 	ldw	r4,8(sp)
   279fc:	100d883a 	mov	r6,r2
   27a00:	180f883a 	mov	r7,r3
   27a04:	a80b883a 	mov	r5,r21
   27a08:	002fa800 	call	2fa80 <__ledf2>
   27a0c:	00838416 	blt	zero,r2,28820 <_dtoa_r+0x166c>
   27a10:	e011883a 	mov	r8,fp
   27a14:	d8000315 	stw	zero,12(sp)
   27a18:	0023883a 	mov	r17,zero
   27a1c:	d8801f17 	ldw	r2,124(sp)
   27a20:	00a4303a 	nor	r18,zero,r2
   27a24:	0001da06 	br	28190 <_dtoa_r+0xfdc>
   27a28:	dcc00117 	ldw	r19,4(sp)
   27a2c:	dd000317 	ldw	r20,12(sp)
   27a30:	dd800217 	ldw	r22,8(sp)
   27a34:	980d883a 	mov	r6,r19
   27a38:	a00f883a 	mov	r7,r20
   27a3c:	b009883a 	mov	r4,r22
   27a40:	a80b883a 	mov	r5,r21
   27a44:	002f0a80 	call	2f0a8 <__divdf3>
   27a48:	180b883a 	mov	r5,r3
   27a4c:	1009883a 	mov	r4,r2
   27a50:	0030c400 	call	30c40 <__fixdfsi>
   27a54:	1009883a 	mov	r4,r2
   27a58:	1023883a 	mov	r17,r2
   27a5c:	0030cc00 	call	30cc0 <__floatsidf>
   27a60:	980d883a 	mov	r6,r19
   27a64:	a00f883a 	mov	r7,r20
   27a68:	1009883a 	mov	r4,r2
   27a6c:	180b883a 	mov	r5,r3
   27a70:	002fb780 	call	2fb78 <__muldf3>
   27a74:	100d883a 	mov	r6,r2
   27a78:	b009883a 	mov	r4,r22
   27a7c:	a80b883a 	mov	r5,r21
   27a80:	180f883a 	mov	r7,r3
   27a84:	00302500 	call	30250 <__subdf3>
   27a88:	89000c04 	addi	r4,r17,48
   27a8c:	e1000005 	stb	r4,0(fp)
   27a90:	91800060 	cmpeqi	r6,r18,1
   27a94:	1009883a 	mov	r4,r2
   27a98:	180b883a 	mov	r5,r3
   27a9c:	e4c00044 	addi	r19,fp,1
   27aa0:	3002891e 	bne	r6,zero,284c8 <_dtoa_r+0x1314>
   27aa4:	ddc00215 	stw	r23,8(sp)
   27aa8:	05800044 	movi	r22,1
   27aac:	ddc00117 	ldw	r23,4(sp)
   27ab0:	dc000415 	stw	r16,16(sp)
   27ab4:	a023883a 	mov	r17,r20
   27ab8:	00001c06 	br	27b2c <_dtoa_r+0x978>
   27abc:	b80d883a 	mov	r6,r23
   27ac0:	880f883a 	mov	r7,r17
   27ac4:	a809883a 	mov	r4,r21
   27ac8:	a00b883a 	mov	r5,r20
   27acc:	002f0a80 	call	2f0a8 <__divdf3>
   27ad0:	180b883a 	mov	r5,r3
   27ad4:	1009883a 	mov	r4,r2
   27ad8:	0030c400 	call	30c40 <__fixdfsi>
   27adc:	1009883a 	mov	r4,r2
   27ae0:	1021883a 	mov	r16,r2
   27ae4:	0030cc00 	call	30cc0 <__floatsidf>
   27ae8:	b80d883a 	mov	r6,r23
   27aec:	880f883a 	mov	r7,r17
   27af0:	1009883a 	mov	r4,r2
   27af4:	180b883a 	mov	r5,r3
   27af8:	002fb780 	call	2fb78 <__muldf3>
   27afc:	a809883a 	mov	r4,r21
   27b00:	a00b883a 	mov	r5,r20
   27b04:	100d883a 	mov	r6,r2
   27b08:	180f883a 	mov	r7,r3
   27b0c:	00302500 	call	30250 <__subdf3>
   27b10:	81000c04 	addi	r4,r16,48
   27b14:	99000005 	stb	r4,0(r19)
   27b18:	b5800044 	addi	r22,r22,1
   27b1c:	9cc00044 	addi	r19,r19,1
   27b20:	1009883a 	mov	r4,r2
   27b24:	180b883a 	mov	r5,r3
   27b28:	b4826426 	beq	r22,r18,284bc <_dtoa_r+0x1308>
   27b2c:	000d883a 	mov	r6,zero
   27b30:	01d00934 	movhi	r7,16420
   27b34:	002fb780 	call	2fb78 <__muldf3>
   27b38:	000d883a 	mov	r6,zero
   27b3c:	000f883a 	mov	r7,zero
   27b40:	1009883a 	mov	r4,r2
   27b44:	180b883a 	mov	r5,r3
   27b48:	102b883a 	mov	r21,r2
   27b4c:	1829883a 	mov	r20,r3
   27b50:	002f8f00 	call	2f8f0 <__eqdf2>
   27b54:	103fd91e 	bne	r2,zero,27abc <_dtoa_r+0x908>
   27b58:	d8800617 	ldw	r2,24(sp)
   27b5c:	ddc00217 	ldw	r23,8(sp)
   27b60:	dc000417 	ldw	r16,16(sp)
   27b64:	15400044 	addi	r21,r2,1
   27b68:	9811883a 	mov	r8,r19
   27b6c:	00009a06 	br	27dd8 <_dtoa_r+0xc24>
   27b70:	0502120e 	bge	zero,r20,283bc <_dtoa_r+0x1208>
   27b74:	d8000815 	stw	zero,32(sp)
   27b78:	d8000515 	stw	zero,20(sp)
   27b7c:	d8800417 	ldw	r2,16(sp)
   27b80:	d8c00117 	ldw	r3,4(sp)
   27b84:	dd800615 	stw	r22,24(sp)
   27b88:	1585883a 	add	r2,r2,r22
   27b8c:	d8800415 	stw	r2,16(sp)
   27b90:	d8000315 	stw	zero,12(sp)
   27b94:	188002a8 	cmpgeui	r2,r3,10
   27b98:	103e2f26 	beq	r2,zero,27458 <_dtoa_r+0x2a4>
   27b9c:	00800044 	movi	r2,1
   27ba0:	04400044 	movi	r17,1
   27ba4:	d8000115 	stw	zero,4(sp)
   27ba8:	d8800715 	stw	r2,28(sp)
   27bac:	04bfffc4 	movi	r18,-1
   27bb0:	d8001f15 	stw	zero,124(sp)
   27bb4:	80001115 	stw	zero,68(r16)
   27bb8:	dc800a15 	stw	r18,40(sp)
   27bbc:	000b883a 	mov	r5,zero
   27bc0:	003e4606 	br	274dc <_dtoa_r+0x328>
   27bc4:	d8c00717 	ldw	r3,28(sp)
   27bc8:	1800b41e 	bne	r3,zero,27e9c <_dtoa_r+0xce8>
   27bcc:	dd000317 	ldw	r20,12(sp)
   27bd0:	dcc00517 	ldw	r19,20(sp)
   27bd4:	d8000715 	stw	zero,28(sp)
   27bd8:	0023883a 	mov	r17,zero
   27bdc:	98000b26 	beq	r19,zero,27c0c <_dtoa_r+0xa58>
   27be0:	d8c00417 	ldw	r3,16(sp)
   27be4:	00c0090e 	bge	zero,r3,27c0c <_dtoa_r+0xa58>
   27be8:	9805883a 	mov	r2,r19
   27bec:	1cc1ab16 	blt	r3,r19,2829c <_dtoa_r+0x10e8>
   27bf0:	d8c00517 	ldw	r3,20(sp)
   27bf4:	98a7c83a 	sub	r19,r19,r2
   27bf8:	1887c83a 	sub	r3,r3,r2
   27bfc:	d8c00515 	stw	r3,20(sp)
   27c00:	d8c00417 	ldw	r3,16(sp)
   27c04:	1885c83a 	sub	r2,r3,r2
   27c08:	d8800415 	stw	r2,16(sp)
   27c0c:	d8800317 	ldw	r2,12(sp)
   27c10:	10000826 	beq	r2,zero,27c34 <_dtoa_r+0xa80>
   27c14:	d8800717 	ldw	r2,28(sp)
   27c18:	10000126 	beq	r2,zero,27c20 <_dtoa_r+0xa6c>
   27c1c:	a0025a1e 	bne	r20,zero,28588 <_dtoa_r+0x13d4>
   27c20:	d9800317 	ldw	r6,12(sp)
   27c24:	b80b883a 	mov	r5,r23
   27c28:	8009883a 	mov	r4,r16
   27c2c:	002a7040 	call	2a704 <__pow5mult>
   27c30:	102f883a 	mov	r23,r2
   27c34:	01400044 	movi	r5,1
   27c38:	8009883a 	mov	r4,r16
   27c3c:	002a4000 	call	2a400 <__i2b>
   27c40:	d8800315 	stw	r2,12(sp)
   27c44:	b0015a1e 	bne	r22,zero,281b0 <_dtoa_r+0xffc>
   27c48:	d8800117 	ldw	r2,4(sp)
   27c4c:	10800090 	cmplti	r2,r2,2
   27c50:	1001751e 	bne	r2,zero,28228 <_dtoa_r+0x1074>
   27c54:	00800044 	movi	r2,1
   27c58:	d9400417 	ldw	r5,16(sp)
   27c5c:	1145883a 	add	r2,r2,r5
   27c60:	108007cc 	andi	r2,r2,31
   27c64:	10009826 	beq	r2,zero,27ec8 <_dtoa_r+0xd14>
   27c68:	00c00804 	movi	r3,32
   27c6c:	1887c83a 	sub	r3,r3,r2
   27c70:	19000150 	cmplti	r4,r3,5
   27c74:	20017e1e 	bne	r4,zero,28270 <_dtoa_r+0x10bc>
   27c78:	00c00704 	movi	r3,28
   27c7c:	1885c83a 	sub	r2,r3,r2
   27c80:	d8c00517 	ldw	r3,20(sp)
   27c84:	98a7883a 	add	r19,r19,r2
   27c88:	1887883a 	add	r3,r3,r2
   27c8c:	2885883a 	add	r2,r5,r2
   27c90:	d8c00515 	stw	r3,20(sp)
   27c94:	d8800415 	stw	r2,16(sp)
   27c98:	d8800517 	ldw	r2,20(sp)
   27c9c:	0080050e 	bge	zero,r2,27cb4 <_dtoa_r+0xb00>
   27ca0:	b80b883a 	mov	r5,r23
   27ca4:	100d883a 	mov	r6,r2
   27ca8:	8009883a 	mov	r4,r16
   27cac:	002a8440 	call	2a844 <__lshift>
   27cb0:	102f883a 	mov	r23,r2
   27cb4:	d8800417 	ldw	r2,16(sp)
   27cb8:	0080050e 	bge	zero,r2,27cd0 <_dtoa_r+0xb1c>
   27cbc:	d9400317 	ldw	r5,12(sp)
   27cc0:	100d883a 	mov	r6,r2
   27cc4:	8009883a 	mov	r4,r16
   27cc8:	002a8440 	call	2a844 <__lshift>
   27ccc:	d8800315 	stw	r2,12(sp)
   27cd0:	d8800817 	ldw	r2,32(sp)
   27cd4:	10004c1e 	bne	r2,zero,27e08 <_dtoa_r+0xc54>
   27cd8:	04811a0e 	bge	zero,r18,28144 <_dtoa_r+0xf90>
   27cdc:	d8800717 	ldw	r2,28(sp)
   27ce0:	1000a11e 	bne	r2,zero,27f68 <_dtoa_r+0xdb4>
   27ce4:	d8800617 	ldw	r2,24(sp)
   27ce8:	15400044 	addi	r21,r2,1
   27cec:	dd800317 	ldw	r22,12(sp)
   27cf0:	04c00044 	movi	r19,1
   27cf4:	00000706 	br	27d14 <_dtoa_r+0xb60>
   27cf8:	b80b883a 	mov	r5,r23
   27cfc:	000f883a 	mov	r7,zero
   27d00:	01800284 	movi	r6,10
   27d04:	8009883a 	mov	r4,r16
   27d08:	002a0740 	call	2a074 <__multadd>
   27d0c:	102f883a 	mov	r23,r2
   27d10:	9cc00044 	addi	r19,r19,1
   27d14:	b00b883a 	mov	r5,r22
   27d18:	b809883a 	mov	r4,r23
   27d1c:	0026fb80 	call	26fb8 <quorem>
   27d20:	15000c04 	addi	r20,r2,48
   27d24:	e4c5883a 	add	r2,fp,r19
   27d28:	153fffc5 	stb	r20,-1(r2)
   27d2c:	9cbff216 	blt	r19,r18,27cf8 <_dtoa_r+0xb44>
   27d30:	04800116 	blt	zero,r18,27d38 <_dtoa_r+0xb84>
   27d34:	04800044 	movi	r18,1
   27d38:	e4a5883a 	add	r18,fp,r18
   27d3c:	d8000215 	stw	zero,8(sp)
   27d40:	b80b883a 	mov	r5,r23
   27d44:	8009883a 	mov	r4,r16
   27d48:	01800044 	movi	r6,1
   27d4c:	002a8440 	call	2a844 <__lshift>
   27d50:	d9400317 	ldw	r5,12(sp)
   27d54:	1009883a 	mov	r4,r2
   27d58:	102f883a 	mov	r23,r2
   27d5c:	002a9cc0 	call	2a9cc <__mcmp>
   27d60:	00800216 	blt	zero,r2,27d6c <_dtoa_r+0xbb8>
   27d64:	00017c06 	br	28358 <_dtoa_r+0x11a4>
   27d68:	e4819026 	beq	fp,r18,283ac <_dtoa_r+0x11f8>
   27d6c:	90ffffc3 	ldbu	r3,-1(r18)
   27d70:	9011883a 	mov	r8,r18
   27d74:	94bfffc4 	addi	r18,r18,-1
   27d78:	18803fcc 	andi	r2,r3,255
   27d7c:	1080201c 	xori	r2,r2,128
   27d80:	10bfe004 	addi	r2,r2,-128
   27d84:	10800e60 	cmpeqi	r2,r2,57
   27d88:	103ff71e 	bne	r2,zero,27d68 <_dtoa_r+0xbb4>
   27d8c:	18c00044 	addi	r3,r3,1
   27d90:	90c00005 	stb	r3,0(r18)
   27d94:	d9400317 	ldw	r5,12(sp)
   27d98:	8009883a 	mov	r4,r16
   27d9c:	da000115 	stw	r8,4(sp)
   27da0:	002a0500 	call	2a050 <_Bfree>
   27da4:	da000117 	ldw	r8,4(sp)
   27da8:	88000b26 	beq	r17,zero,27dd8 <_dtoa_r+0xc24>
   27dac:	d9400217 	ldw	r5,8(sp)
   27db0:	28000426 	beq	r5,zero,27dc4 <_dtoa_r+0xc10>
   27db4:	2c400326 	beq	r5,r17,27dc4 <_dtoa_r+0xc10>
   27db8:	8009883a 	mov	r4,r16
   27dbc:	002a0500 	call	2a050 <_Bfree>
   27dc0:	da000117 	ldw	r8,4(sp)
   27dc4:	880b883a 	mov	r5,r17
   27dc8:	8009883a 	mov	r4,r16
   27dcc:	da000115 	stw	r8,4(sp)
   27dd0:	002a0500 	call	2a050 <_Bfree>
   27dd4:	da000117 	ldw	r8,4(sp)
   27dd8:	b80b883a 	mov	r5,r23
   27ddc:	8009883a 	mov	r4,r16
   27de0:	da000115 	stw	r8,4(sp)
   27de4:	002a0500 	call	2a050 <_Bfree>
   27de8:	da000117 	ldw	r8,4(sp)
   27dec:	d8802017 	ldw	r2,128(sp)
   27df0:	40000005 	stb	zero,0(r8)
   27df4:	15400015 	stw	r21,0(r2)
   27df8:	d8802217 	ldw	r2,136(sp)
   27dfc:	103d1e26 	beq	r2,zero,27278 <_dtoa_r+0xc4>
   27e00:	12000015 	stw	r8,0(r2)
   27e04:	003d1c06 	br	27278 <_dtoa_r+0xc4>
   27e08:	d9400317 	ldw	r5,12(sp)
   27e0c:	b809883a 	mov	r4,r23
   27e10:	002a9cc0 	call	2a9cc <__mcmp>
   27e14:	103fb00e 	bge	r2,zero,27cd8 <_dtoa_r+0xb24>
   27e18:	b80b883a 	mov	r5,r23
   27e1c:	000f883a 	mov	r7,zero
   27e20:	01800284 	movi	r6,10
   27e24:	8009883a 	mov	r4,r16
   27e28:	002a0740 	call	2a074 <__multadd>
   27e2c:	d8c00617 	ldw	r3,24(sp)
   27e30:	102f883a 	mov	r23,r2
   27e34:	d8800717 	ldw	r2,28(sp)
   27e38:	1d7fffc4 	addi	r21,r3,-1
   27e3c:	1000411e 	bne	r2,zero,27f44 <_dtoa_r+0xd90>
   27e40:	dc800a17 	ldw	r18,40(sp)
   27e44:	0482940e 	bge	zero,r18,28898 <_dtoa_r+0x16e4>
   27e48:	dd400617 	ldw	r21,24(sp)
   27e4c:	003fa706 	br	27cec <_dtoa_r+0xb38>
   27e50:	00800044 	movi	r2,1
   27e54:	d8800815 	stw	r2,32(sp)
   27e58:	a0bfffc4 	addi	r2,r20,-1
   27e5c:	103d720e 	bge	r2,zero,27428 <_dtoa_r+0x274>
   27e60:	00800044 	movi	r2,1
   27e64:	1505c83a 	sub	r2,r2,r20
   27e68:	d8800515 	stw	r2,20(sp)
   27e6c:	d8000415 	stw	zero,16(sp)
   27e70:	003d6e06 	br	2742c <_dtoa_r+0x278>
   27e74:	b009883a 	mov	r4,r22
   27e78:	0030cc00 	call	30cc0 <__floatsidf>
   27e7c:	980d883a 	mov	r6,r19
   27e80:	900f883a 	mov	r7,r18
   27e84:	1009883a 	mov	r4,r2
   27e88:	180b883a 	mov	r5,r3
   27e8c:	002f8f00 	call	2f8f0 <__eqdf2>
   27e90:	103d5226 	beq	r2,zero,273dc <_dtoa_r+0x228>
   27e94:	b5bfffc4 	addi	r22,r22,-1
   27e98:	003d5006 	br	273dc <_dtoa_r+0x228>
   27e9c:	d8c00117 	ldw	r3,4(sp)
   27ea0:	18c00088 	cmpgei	r3,r3,2
   27ea4:	18013526 	beq	r3,zero,2837c <_dtoa_r+0x11c8>
   27ea8:	d8800317 	ldw	r2,12(sp)
   27eac:	953fffc4 	addi	r20,r18,-1
   27eb0:	1500fc16 	blt	r2,r20,282a4 <_dtoa_r+0x10f0>
   27eb4:	1529c83a 	sub	r20,r2,r20
   27eb8:	d8800517 	ldw	r2,20(sp)
   27ebc:	9002620e 	bge	r18,zero,28848 <_dtoa_r+0x1694>
   27ec0:	14a7c83a 	sub	r19,r2,r18
   27ec4:	00010306 	br	282d4 <_dtoa_r+0x1120>
   27ec8:	00800704 	movi	r2,28
   27ecc:	d8c00517 	ldw	r3,20(sp)
   27ed0:	98a7883a 	add	r19,r19,r2
   27ed4:	1887883a 	add	r3,r3,r2
   27ed8:	d8c00515 	stw	r3,20(sp)
   27edc:	d8c00417 	ldw	r3,16(sp)
   27ee0:	1885883a 	add	r2,r3,r2
   27ee4:	d8800415 	stw	r2,16(sp)
   27ee8:	003f6b06 	br	27c98 <_dtoa_r+0xae4>
   27eec:	d8c00117 	ldw	r3,4(sp)
   27ef0:	188000e0 	cmpeqi	r2,r3,3
   27ef4:	1001151e 	bne	r2,zero,2834c <_dtoa_r+0x1198>
   27ef8:	18800108 	cmpgei	r2,r3,4
   27efc:	10000226 	beq	r2,zero,27f08 <_dtoa_r+0xd54>
   27f00:	04400044 	movi	r17,1
   27f04:	003d5d06 	br	2747c <_dtoa_r+0x2c8>
   27f08:	188000a0 	cmpeqi	r2,r3,2
   27f0c:	10028d26 	beq	r2,zero,28944 <_dtoa_r+0x1790>
   27f10:	04400044 	movi	r17,1
   27f14:	d8000715 	stw	zero,28(sp)
   27f18:	d8801f17 	ldw	r2,124(sp)
   27f1c:	0080be0e 	bge	zero,r2,28218 <_dtoa_r+0x1064>
   27f20:	d8800a15 	stw	r2,40(sp)
   27f24:	1025883a 	mov	r18,r2
   27f28:	100d883a 	mov	r6,r2
   27f2c:	003d6106 	br	274b4 <_dtoa_r+0x300>
   27f30:	01000804 	movi	r4,32
   27f34:	2089c83a 	sub	r4,r4,r2
   27f38:	d8800217 	ldw	r2,8(sp)
   27f3c:	1108983a 	sll	r4,r2,r4
   27f40:	003cf206 	br	2730c <_dtoa_r+0x158>
   27f44:	880b883a 	mov	r5,r17
   27f48:	000f883a 	mov	r7,zero
   27f4c:	01800284 	movi	r6,10
   27f50:	8009883a 	mov	r4,r16
   27f54:	002a0740 	call	2a074 <__multadd>
   27f58:	dc800a17 	ldw	r18,40(sp)
   27f5c:	1023883a 	mov	r17,r2
   27f60:	04825d0e 	bge	zero,r18,288d8 <_dtoa_r+0x1724>
   27f64:	dd400615 	stw	r21,24(sp)
   27f68:	04c0c616 	blt	zero,r19,28284 <_dtoa_r+0x10d0>
   27f6c:	b0016e1e 	bne	r22,zero,28528 <_dtoa_r+0x1374>
   27f70:	8827883a 	mov	r19,r17
   27f74:	e0bfffc4 	addi	r2,fp,-1
   27f78:	1485883a 	add	r2,r2,r18
   27f7c:	d8800515 	stw	r2,20(sp)
   27f80:	d8800217 	ldw	r2,8(sp)
   27f84:	e02d883a 	mov	r22,fp
   27f88:	df000815 	stw	fp,32(sp)
   27f8c:	1080004c 	andi	r2,r2,1
   27f90:	d8800715 	stw	r2,28(sp)
   27f94:	dc800317 	ldw	r18,12(sp)
   27f98:	b809883a 	mov	r4,r23
   27f9c:	900b883a 	mov	r5,r18
   27fa0:	0026fb80 	call	26fb8 <quorem>
   27fa4:	880b883a 	mov	r5,r17
   27fa8:	b809883a 	mov	r4,r23
   27fac:	102b883a 	mov	r21,r2
   27fb0:	002a9cc0 	call	2a9cc <__mcmp>
   27fb4:	900b883a 	mov	r5,r18
   27fb8:	980d883a 	mov	r6,r19
   27fbc:	8009883a 	mov	r4,r16
   27fc0:	1025883a 	mov	r18,r2
   27fc4:	002aa240 	call	2aa24 <__mdiff>
   27fc8:	100b883a 	mov	r5,r2
   27fcc:	10800317 	ldw	r2,12(r2)
   27fd0:	af000c04 	addi	fp,r21,48
   27fd4:	1000261e 	bne	r2,zero,28070 <_dtoa_r+0xebc>
   27fd8:	b809883a 	mov	r4,r23
   27fdc:	d9400415 	stw	r5,16(sp)
   27fe0:	002a9cc0 	call	2a9cc <__mcmp>
   27fe4:	d9400417 	ldw	r5,16(sp)
   27fe8:	1029883a 	mov	r20,r2
   27fec:	8009883a 	mov	r4,r16
   27ff0:	002a0500 	call	2a050 <_Bfree>
   27ff4:	a000401e 	bne	r20,zero,280f8 <_dtoa_r+0xf44>
   27ff8:	d8800117 	ldw	r2,4(sp)
   27ffc:	1000021e 	bne	r2,zero,28008 <_dtoa_r+0xe54>
   28000:	d8800717 	ldw	r2,28(sp)
   28004:	1000cb26 	beq	r2,zero,28334 <_dtoa_r+0x1180>
   28008:	90020816 	blt	r18,zero,2882c <_dtoa_r+0x1678>
   2800c:	d8800517 	ldw	r2,20(sp)
   28010:	b7000005 	stb	fp,0(r22)
   28014:	b4800044 	addi	r18,r22,1
   28018:	15815426 	beq	r2,r22,2856c <_dtoa_r+0x13b8>
   2801c:	b80b883a 	mov	r5,r23
   28020:	000f883a 	mov	r7,zero
   28024:	01800284 	movi	r6,10
   28028:	8009883a 	mov	r4,r16
   2802c:	002a0740 	call	2a074 <__multadd>
   28030:	102f883a 	mov	r23,r2
   28034:	880b883a 	mov	r5,r17
   28038:	000f883a 	mov	r7,zero
   2803c:	01800284 	movi	r6,10
   28040:	8009883a 	mov	r4,r16
   28044:	8cc02826 	beq	r17,r19,280e8 <_dtoa_r+0xf34>
   28048:	002a0740 	call	2a074 <__multadd>
   2804c:	980b883a 	mov	r5,r19
   28050:	000f883a 	mov	r7,zero
   28054:	01800284 	movi	r6,10
   28058:	8009883a 	mov	r4,r16
   2805c:	1023883a 	mov	r17,r2
   28060:	002a0740 	call	2a074 <__multadd>
   28064:	1027883a 	mov	r19,r2
   28068:	902d883a 	mov	r22,r18
   2806c:	003fc906 	br	27f94 <_dtoa_r+0xde0>
   28070:	8009883a 	mov	r4,r16
   28074:	e029883a 	mov	r20,fp
   28078:	df000817 	ldw	fp,32(sp)
   2807c:	002a0500 	call	2a050 <_Bfree>
   28080:	90000616 	blt	r18,zero,2809c <_dtoa_r+0xee8>
   28084:	d8800217 	ldw	r2,8(sp)
   28088:	d8c00117 	ldw	r3,4(sp)
   2808c:	1080004c 	andi	r2,r2,1
   28090:	1ca4b03a 	or	r18,r3,r18
   28094:	1484b03a 	or	r2,r2,r18
   28098:	1000201e 	bne	r2,zero,2811c <_dtoa_r+0xf68>
   2809c:	b80b883a 	mov	r5,r23
   280a0:	8009883a 	mov	r4,r16
   280a4:	01800044 	movi	r6,1
   280a8:	002a8440 	call	2a844 <__lshift>
   280ac:	d9400317 	ldw	r5,12(sp)
   280b0:	1009883a 	mov	r4,r2
   280b4:	102f883a 	mov	r23,r2
   280b8:	002a9cc0 	call	2a9cc <__mcmp>
   280bc:	0080990e 	bge	zero,r2,28324 <_dtoa_r+0x1170>
   280c0:	a0c00e60 	cmpeqi	r3,r20,57
   280c4:	1801ce1e 	bne	r3,zero,28800 <_dtoa_r+0x164c>
   280c8:	ad000c44 	addi	r20,r21,49
   280cc:	d8800617 	ldw	r2,24(sp)
   280d0:	dc400215 	stw	r17,8(sp)
   280d4:	b2000044 	addi	r8,r22,1
   280d8:	b5000005 	stb	r20,0(r22)
   280dc:	15400044 	addi	r21,r2,1
   280e0:	9823883a 	mov	r17,r19
   280e4:	003f2b06 	br	27d94 <_dtoa_r+0xbe0>
   280e8:	002a0740 	call	2a074 <__multadd>
   280ec:	1023883a 	mov	r17,r2
   280f0:	1027883a 	mov	r19,r2
   280f4:	003fdc06 	br	28068 <_dtoa_r+0xeb4>
   280f8:	90022316 	blt	r18,zero,28988 <_dtoa_r+0x17d4>
   280fc:	d8800117 	ldw	r2,4(sp)
   28100:	14a4b03a 	or	r18,r2,r18
   28104:	d8800717 	ldw	r2,28(sp)
   28108:	14a4b03a 	or	r18,r2,r18
   2810c:	90021e26 	beq	r18,zero,28988 <_dtoa_r+0x17d4>
   28110:	053fbe0e 	bge	zero,r20,2800c <_dtoa_r+0xe58>
   28114:	e029883a 	mov	r20,fp
   28118:	df000817 	ldw	fp,32(sp)
   2811c:	a0800e60 	cmpeqi	r2,r20,57
   28120:	1001b71e 	bne	r2,zero,28800 <_dtoa_r+0x164c>
   28124:	d8800617 	ldw	r2,24(sp)
   28128:	a0c00044 	addi	r3,r20,1
   2812c:	dc400215 	stw	r17,8(sp)
   28130:	b2000044 	addi	r8,r22,1
   28134:	15400044 	addi	r21,r2,1
   28138:	b0c00005 	stb	r3,0(r22)
   2813c:	9823883a 	mov	r17,r19
   28140:	003f1406 	br	27d94 <_dtoa_r+0xbe0>
   28144:	d8800117 	ldw	r2,4(sp)
   28148:	108000d0 	cmplti	r2,r2,3
   2814c:	103ee31e 	bne	r2,zero,27cdc <_dtoa_r+0xb28>
   28150:	9000d81e 	bne	r18,zero,284b4 <_dtoa_r+0x1300>
   28154:	d9400317 	ldw	r5,12(sp)
   28158:	8009883a 	mov	r4,r16
   2815c:	000f883a 	mov	r7,zero
   28160:	01800144 	movi	r6,5
   28164:	002a0740 	call	2a074 <__multadd>
   28168:	100b883a 	mov	r5,r2
   2816c:	b809883a 	mov	r4,r23
   28170:	d8800315 	stw	r2,12(sp)
   28174:	002a9cc0 	call	2a9cc <__mcmp>
   28178:	0080ce0e 	bge	zero,r2,284b4 <_dtoa_r+0x1300>
   2817c:	00800c44 	movi	r2,49
   28180:	e0800005 	stb	r2,0(fp)
   28184:	d8800617 	ldw	r2,24(sp)
   28188:	e2000044 	addi	r8,fp,1
   2818c:	14800044 	addi	r18,r2,1
   28190:	d9400317 	ldw	r5,12(sp)
   28194:	8009883a 	mov	r4,r16
   28198:	da000115 	stw	r8,4(sp)
   2819c:	002a0500 	call	2a050 <_Bfree>
   281a0:	da000117 	ldw	r8,4(sp)
   281a4:	95400044 	addi	r21,r18,1
   281a8:	883f061e 	bne	r17,zero,27dc4 <_dtoa_r+0xc10>
   281ac:	003f0a06 	br	27dd8 <_dtoa_r+0xc24>
   281b0:	100b883a 	mov	r5,r2
   281b4:	b00d883a 	mov	r6,r22
   281b8:	8009883a 	mov	r4,r16
   281bc:	002a7040 	call	2a704 <__pow5mult>
   281c0:	d8c00117 	ldw	r3,4(sp)
   281c4:	d8800315 	stw	r2,12(sp)
   281c8:	18c00090 	cmplti	r3,r3,2
   281cc:	1800461e 	bne	r3,zero,282e8 <_dtoa_r+0x1134>
   281d0:	002d883a 	mov	r22,zero
   281d4:	d8c00317 	ldw	r3,12(sp)
   281d8:	18800417 	ldw	r2,16(r3)
   281dc:	10800104 	addi	r2,r2,4
   281e0:	100490ba 	slli	r2,r2,2
   281e4:	1885883a 	add	r2,r3,r2
   281e8:	11000017 	ldw	r4,0(r2)
   281ec:	002a2dc0 	call	2a2dc <__hi0bits>
   281f0:	00c00804 	movi	r3,32
   281f4:	1885c83a 	sub	r2,r3,r2
   281f8:	003e9706 	br	27c58 <_dtoa_r+0xaa4>
   281fc:	008000f4 	movhi	r2,3
   28200:	e7125104 	addi	fp,fp,18756
   28204:	109251c4 	addi	r2,r2,18759
   28208:	003db106 	br	278d0 <_dtoa_r+0x71c>
   2820c:	00800044 	movi	r2,1
   28210:	d8800715 	stw	r2,28(sp)
   28214:	003f4006 	br	27f18 <_dtoa_r+0xd64>
   28218:	00800044 	movi	r2,1
   2821c:	04800044 	movi	r18,1
   28220:	d8801f15 	stw	r2,124(sp)
   28224:	003e6306 	br	27bb4 <_dtoa_r+0xa00>
   28228:	d8800217 	ldw	r2,8(sp)
   2822c:	103e891e 	bne	r2,zero,27c54 <_dtoa_r+0xaa0>
   28230:	00800434 	movhi	r2,16
   28234:	10bfffc4 	addi	r2,r2,-1
   28238:	a884703a 	and	r2,r21,r2
   2823c:	103e851e 	bne	r2,zero,27c54 <_dtoa_r+0xaa0>
   28240:	a89ffc2c 	andhi	r2,r21,32752
   28244:	10017c26 	beq	r2,zero,28838 <_dtoa_r+0x1684>
   28248:	d8800517 	ldw	r2,20(sp)
   2824c:	10800044 	addi	r2,r2,1
   28250:	d8800515 	stw	r2,20(sp)
   28254:	d8800417 	ldw	r2,16(sp)
   28258:	10800044 	addi	r2,r2,1
   2825c:	d8800415 	stw	r2,16(sp)
   28260:	00800044 	movi	r2,1
   28264:	b001761e 	bne	r22,zero,28840 <_dtoa_r+0x168c>
   28268:	102d883a 	mov	r22,r2
   2826c:	003e7906 	br	27c54 <_dtoa_r+0xaa0>
   28270:	18c00120 	cmpeqi	r3,r3,4
   28274:	183e881e 	bne	r3,zero,27c98 <_dtoa_r+0xae4>
   28278:	00c00f04 	movi	r3,60
   2827c:	1885c83a 	sub	r2,r3,r2
   28280:	003f1206 	br	27ecc <_dtoa_r+0xd18>
   28284:	880b883a 	mov	r5,r17
   28288:	980d883a 	mov	r6,r19
   2828c:	8009883a 	mov	r4,r16
   28290:	002a8440 	call	2a844 <__lshift>
   28294:	1023883a 	mov	r17,r2
   28298:	003f3406 	br	27f6c <_dtoa_r+0xdb8>
   2829c:	1805883a 	mov	r2,r3
   282a0:	003e5306 	br	27bf0 <_dtoa_r+0xa3c>
   282a4:	d8800317 	ldw	r2,12(sp)
   282a8:	d8c00517 	ldw	r3,20(sp)
   282ac:	dd000315 	stw	r20,12(sp)
   282b0:	a085c83a 	sub	r2,r20,r2
   282b4:	b0ad883a 	add	r22,r22,r2
   282b8:	d8800417 	ldw	r2,16(sp)
   282bc:	1827883a 	mov	r19,r3
   282c0:	0029883a 	mov	r20,zero
   282c4:	1485883a 	add	r2,r2,r18
   282c8:	d8800415 	stw	r2,16(sp)
   282cc:	1c85883a 	add	r2,r3,r18
   282d0:	d8800515 	stw	r2,20(sp)
   282d4:	01400044 	movi	r5,1
   282d8:	8009883a 	mov	r4,r16
   282dc:	002a4000 	call	2a400 <__i2b>
   282e0:	1023883a 	mov	r17,r2
   282e4:	003e3d06 	br	27bdc <_dtoa_r+0xa28>
   282e8:	d8800217 	ldw	r2,8(sp)
   282ec:	103fb81e 	bne	r2,zero,281d0 <_dtoa_r+0x101c>
   282f0:	00800434 	movhi	r2,16
   282f4:	10bfffc4 	addi	r2,r2,-1
   282f8:	a884703a 	and	r2,r21,r2
   282fc:	103fb41e 	bne	r2,zero,281d0 <_dtoa_r+0x101c>
   28300:	003fcf06 	br	28240 <_dtoa_r+0x108c>
   28304:	d9000217 	ldw	r4,8(sp)
   28308:	a80b883a 	mov	r5,r21
   2830c:	04c00084 	movi	r19,2
   28310:	003c9506 	br	27568 <_dtoa_r+0x3b4>
   28314:	00800084 	movi	r2,2
   28318:	d8800115 	stw	r2,4(sp)
   2831c:	d8000715 	stw	zero,28(sp)
   28320:	003efd06 	br	27f18 <_dtoa_r+0xd64>
   28324:	103f691e 	bne	r2,zero,280cc <_dtoa_r+0xf18>
   28328:	a080004c 	andi	r2,r20,1
   2832c:	103f641e 	bne	r2,zero,280c0 <_dtoa_r+0xf0c>
   28330:	003f6606 	br	280cc <_dtoa_r+0xf18>
   28334:	e029883a 	mov	r20,fp
   28338:	a0800e60 	cmpeqi	r2,r20,57
   2833c:	df000817 	ldw	fp,32(sp)
   28340:	10012f1e 	bne	r2,zero,28800 <_dtoa_r+0x164c>
   28344:	04bf6016 	blt	zero,r18,280c8 <_dtoa_r+0xf14>
   28348:	003f6006 	br	280cc <_dtoa_r+0xf18>
   2834c:	04400044 	movi	r17,1
   28350:	d8000715 	stw	zero,28(sp)
   28354:	003c5006 	br	27498 <_dtoa_r+0x2e4>
   28358:	1000021e 	bne	r2,zero,28364 <_dtoa_r+0x11b0>
   2835c:	a0c0004c 	andi	r3,r20,1
   28360:	183e821e 	bne	r3,zero,27d6c <_dtoa_r+0xbb8>
   28364:	90bfffc7 	ldb	r2,-1(r18)
   28368:	9011883a 	mov	r8,r18
   2836c:	94bfffc4 	addi	r18,r18,-1
   28370:	10800c20 	cmpeqi	r2,r2,48
   28374:	103ffb1e 	bne	r2,zero,28364 <_dtoa_r+0x11b0>
   28378:	003e8606 	br	27d94 <_dtoa_r+0xbe0>
   2837c:	d8c00917 	ldw	r3,36(sp)
   28380:	18009526 	beq	r3,zero,285d8 <_dtoa_r+0x1424>
   28384:	d8c00517 	ldw	r3,20(sp)
   28388:	d9000417 	ldw	r4,16(sp)
   2838c:	10810cc4 	addi	r2,r2,1075
   28390:	dd000317 	ldw	r20,12(sp)
   28394:	2089883a 	add	r4,r4,r2
   28398:	1885883a 	add	r2,r3,r2
   2839c:	1827883a 	mov	r19,r3
   283a0:	d9000415 	stw	r4,16(sp)
   283a4:	d8800515 	stw	r2,20(sp)
   283a8:	003fca06 	br	282d4 <_dtoa_r+0x1120>
   283ac:	00800c44 	movi	r2,49
   283b0:	e0800005 	stb	r2,0(fp)
   283b4:	ad400044 	addi	r21,r21,1
   283b8:	003e7606 	br	27d94 <_dtoa_r+0xbe0>
   283bc:	00800044 	movi	r2,1
   283c0:	1505c83a 	sub	r2,r2,r20
   283c4:	d8800515 	stw	r2,20(sp)
   283c8:	d8000415 	stw	zero,16(sp)
   283cc:	d8000815 	stw	zero,32(sp)
   283d0:	003dea06 	br	27b7c <_dtoa_r+0x9c8>
   283d4:	d8800617 	ldw	r2,24(sp)
   283d8:	1000e326 	beq	r2,zero,28768 <_dtoa_r+0x15b4>
   283dc:	0091c83a 	sub	r8,zero,r2
   283e0:	408003cc 	andi	r2,r8,15
   283e4:	100490fa 	slli	r2,r2,3
   283e8:	02c000f4 	movhi	r11,3
   283ec:	5ad28c04 	addi	r11,r11,18992
   283f0:	5885883a 	add	r2,r11,r2
   283f4:	4011d13a 	srai	r8,r8,4
   283f8:	11800017 	ldw	r6,0(r2)
   283fc:	11c00117 	ldw	r7,4(r2)
   28400:	d9000217 	ldw	r4,8(sp)
   28404:	a80b883a 	mov	r5,r21
   28408:	da000b15 	stw	r8,44(sp)
   2840c:	002fb780 	call	2fb78 <__muldf3>
   28410:	da000b17 	ldw	r8,44(sp)
   28414:	40013726 	beq	r8,zero,288f4 <_dtoa_r+0x1740>
   28418:	024000f4 	movhi	r9,3
   2841c:	000b883a 	mov	r5,zero
   28420:	04c00084 	movi	r19,2
   28424:	4a528204 	addi	r9,r9,18952
   28428:	dc800b15 	stw	r18,44(sp)
   2842c:	1009883a 	mov	r4,r2
   28430:	9825883a 	mov	r18,r19
   28434:	d8800c15 	stw	r2,48(sp)
   28438:	8027883a 	mov	r19,r16
   2843c:	2805883a 	mov	r2,r5
   28440:	1829883a 	mov	r20,r3
   28444:	4021883a 	mov	r16,r8
   28448:	4823883a 	mov	r17,r9
   2844c:	180b883a 	mov	r5,r3
   28450:	8180004c 	andi	r6,r16,1
   28454:	30000726 	beq	r6,zero,28474 <_dtoa_r+0x12c0>
   28458:	89800017 	ldw	r6,0(r17)
   2845c:	89c00117 	ldw	r7,4(r17)
   28460:	94800044 	addi	r18,r18,1
   28464:	002fb780 	call	2fb78 <__muldf3>
   28468:	1009883a 	mov	r4,r2
   2846c:	180b883a 	mov	r5,r3
   28470:	00800044 	movi	r2,1
   28474:	8021d07a 	srai	r16,r16,1
   28478:	8c400204 	addi	r17,r17,8
   2847c:	803ff41e 	bne	r16,zero,28450 <_dtoa_r+0x129c>
   28480:	a007883a 	mov	r3,r20
   28484:	2829883a 	mov	r20,r5
   28488:	100b883a 	mov	r5,r2
   2848c:	29403fcc 	andi	r5,r5,255
   28490:	9821883a 	mov	r16,r19
   28494:	d8800c17 	ldw	r2,48(sp)
   28498:	9027883a 	mov	r19,r18
   2849c:	2023883a 	mov	r17,r4
   284a0:	dc800b17 	ldw	r18,44(sp)
   284a4:	283c521e 	bne	r5,zero,275f0 <_dtoa_r+0x43c>
   284a8:	1023883a 	mov	r17,r2
   284ac:	1829883a 	mov	r20,r3
   284b0:	003c4f06 	br	275f0 <_dtoa_r+0x43c>
   284b4:	e011883a 	mov	r8,fp
   284b8:	003d5806 	br	27a1c <_dtoa_r+0x868>
   284bc:	8023883a 	mov	r17,r16
   284c0:	ddc00217 	ldw	r23,8(sp)
   284c4:	dc000417 	ldw	r16,16(sp)
   284c8:	200d883a 	mov	r6,r4
   284cc:	280f883a 	mov	r7,r5
   284d0:	002e7a40 	call	2e7a4 <__adddf3>
   284d4:	1009883a 	mov	r4,r2
   284d8:	d9800117 	ldw	r6,4(sp)
   284dc:	d9c00317 	ldw	r7,12(sp)
   284e0:	1029883a 	mov	r20,r2
   284e4:	d8800617 	ldw	r2,24(sp)
   284e8:	180b883a 	mov	r5,r3
   284ec:	1825883a 	mov	r18,r3
   284f0:	15400044 	addi	r21,r2,1
   284f4:	002f9840 	call	2f984 <__gedf2>
   284f8:	a82d883a 	mov	r22,r21
   284fc:	00bcd016 	blt	zero,r2,27840 <_dtoa_r+0x68c>
   28500:	d9800117 	ldw	r6,4(sp)
   28504:	d9c00317 	ldw	r7,12(sp)
   28508:	a009883a 	mov	r4,r20
   2850c:	900b883a 	mov	r5,r18
   28510:	002f8f00 	call	2f8f0 <__eqdf2>
   28514:	1000021e 	bne	r2,zero,28520 <_dtoa_r+0x136c>
   28518:	8880004c 	andi	r2,r17,1
   2851c:	103cc81e 	bne	r2,zero,27840 <_dtoa_r+0x68c>
   28520:	9811883a 	mov	r8,r19
   28524:	003e2c06 	br	27dd8 <_dtoa_r+0xc24>
   28528:	89400117 	ldw	r5,4(r17)
   2852c:	8009883a 	mov	r4,r16
   28530:	0029fac0 	call	29fac <_Balloc>
   28534:	1027883a 	mov	r19,r2
   28538:	1000f226 	beq	r2,zero,28904 <_dtoa_r+0x1750>
   2853c:	89800417 	ldw	r6,16(r17)
   28540:	89400304 	addi	r5,r17,12
   28544:	11000304 	addi	r4,r2,12
   28548:	31800084 	addi	r6,r6,2
   2854c:	300c90ba 	slli	r6,r6,2
   28550:	0029d840 	call	29d84 <memcpy>
   28554:	980b883a 	mov	r5,r19
   28558:	01800044 	movi	r6,1
   2855c:	8009883a 	mov	r4,r16
   28560:	002a8440 	call	2a844 <__lshift>
   28564:	1027883a 	mov	r19,r2
   28568:	003e8206 	br	27f74 <_dtoa_r+0xdc0>
   2856c:	d8800617 	ldw	r2,24(sp)
   28570:	e029883a 	mov	r20,fp
   28574:	dc400215 	stw	r17,8(sp)
   28578:	df000817 	ldw	fp,32(sp)
   2857c:	15400044 	addi	r21,r2,1
   28580:	9823883a 	mov	r17,r19
   28584:	003dee06 	br	27d40 <_dtoa_r+0xb8c>
   28588:	880b883a 	mov	r5,r17
   2858c:	a00d883a 	mov	r6,r20
   28590:	8009883a 	mov	r4,r16
   28594:	002a7040 	call	2a704 <__pow5mult>
   28598:	b80d883a 	mov	r6,r23
   2859c:	100b883a 	mov	r5,r2
   285a0:	8009883a 	mov	r4,r16
   285a4:	1023883a 	mov	r17,r2
   285a8:	002a4b00 	call	2a4b0 <__multiply>
   285ac:	d8800915 	stw	r2,36(sp)
   285b0:	d8800317 	ldw	r2,12(sp)
   285b4:	b80b883a 	mov	r5,r23
   285b8:	8009883a 	mov	r4,r16
   285bc:	1529c83a 	sub	r20,r2,r20
   285c0:	dd000315 	stw	r20,12(sp)
   285c4:	002a0500 	call	2a050 <_Bfree>
   285c8:	d8800917 	ldw	r2,36(sp)
   285cc:	102f883a 	mov	r23,r2
   285d0:	a03d9826 	beq	r20,zero,27c34 <_dtoa_r+0xa80>
   285d4:	003d9206 	br	27c20 <_dtoa_r+0xa6c>
   285d8:	d8c01317 	ldw	r3,76(sp)
   285dc:	00800d84 	movi	r2,54
   285e0:	d9000517 	ldw	r4,20(sp)
   285e4:	10c5c83a 	sub	r2,r2,r3
   285e8:	d8c00417 	ldw	r3,16(sp)
   285ec:	dd000317 	ldw	r20,12(sp)
   285f0:	2027883a 	mov	r19,r4
   285f4:	1887883a 	add	r3,r3,r2
   285f8:	2085883a 	add	r2,r4,r2
   285fc:	d8c00415 	stw	r3,16(sp)
   28600:	d8800515 	stw	r2,20(sp)
   28604:	003f3306 	br	282d4 <_dtoa_r+0x1120>
   28608:	d9000b17 	ldw	r4,44(sp)
   2860c:	d9800f17 	ldw	r6,60(sp)
   28610:	d9c01017 	ldw	r7,64(sp)
   28614:	980b883a 	mov	r5,r19
   28618:	dac01215 	stw	r11,72(sp)
   2861c:	da000d15 	stw	r8,52(sp)
   28620:	002fb780 	call	2fb78 <__muldf3>
   28624:	d9000e17 	ldw	r4,56(sp)
   28628:	d9400c17 	ldw	r5,48(sp)
   2862c:	d8800715 	stw	r2,28(sp)
   28630:	e1000005 	stb	r4,0(fp)
   28634:	d8c00915 	stw	r3,36(sp)
   28638:	29000058 	cmpnei	r4,r5,1
   2863c:	da000d17 	ldw	r8,52(sp)
   28640:	dac01217 	ldw	r11,72(sp)
   28644:	e167883a 	add	r19,fp,r5
   28648:	2000a126 	beq	r4,zero,288d0 <_dtoa_r+0x171c>
   2864c:	dc000c15 	stw	r16,48(sp)
   28650:	dc800b15 	stw	r18,44(sp)
   28654:	4021883a 	mov	r16,r8
   28658:	a009883a 	mov	r4,r20
   2865c:	880b883a 	mov	r5,r17
   28660:	dac00d15 	stw	r11,52(sp)
   28664:	000d883a 	mov	r6,zero
   28668:	01d00934 	movhi	r7,16420
   2866c:	002fb780 	call	2fb78 <__muldf3>
   28670:	180b883a 	mov	r5,r3
   28674:	1009883a 	mov	r4,r2
   28678:	1825883a 	mov	r18,r3
   2867c:	1029883a 	mov	r20,r2
   28680:	0030c400 	call	30c40 <__fixdfsi>
   28684:	1009883a 	mov	r4,r2
   28688:	1023883a 	mov	r17,r2
   2868c:	0030cc00 	call	30cc0 <__floatsidf>
   28690:	a009883a 	mov	r4,r20
   28694:	900b883a 	mov	r5,r18
   28698:	100d883a 	mov	r6,r2
   2869c:	180f883a 	mov	r7,r3
   286a0:	84000044 	addi	r16,r16,1
   286a4:	8c400c04 	addi	r17,r17,48
   286a8:	00302500 	call	30250 <__subdf3>
   286ac:	847fffc5 	stb	r17,-1(r16)
   286b0:	1009883a 	mov	r4,r2
   286b4:	180b883a 	mov	r5,r3
   286b8:	9c3fea1e 	bne	r19,r16,28664 <_dtoa_r+0x14b0>
   286bc:	dc800b17 	ldw	r18,44(sp)
   286c0:	dc000c17 	ldw	r16,48(sp)
   286c4:	dac00d17 	ldw	r11,52(sp)
   286c8:	1029883a 	mov	r20,r2
   286cc:	1823883a 	mov	r17,r3
   286d0:	d9000717 	ldw	r4,28(sp)
   286d4:	d9400917 	ldw	r5,36(sp)
   286d8:	000d883a 	mov	r6,zero
   286dc:	01cff834 	movhi	r7,16352
   286e0:	dac00b15 	stw	r11,44(sp)
   286e4:	002e7a40 	call	2e7a4 <__adddf3>
   286e8:	100d883a 	mov	r6,r2
   286ec:	180f883a 	mov	r7,r3
   286f0:	a009883a 	mov	r4,r20
   286f4:	880b883a 	mov	r5,r17
   286f8:	002f9840 	call	2f984 <__gedf2>
   286fc:	00805916 	blt	zero,r2,28864 <_dtoa_r+0x16b0>
   28700:	d9800717 	ldw	r6,28(sp)
   28704:	d9c00917 	ldw	r7,36(sp)
   28708:	0009883a 	mov	r4,zero
   2870c:	014ff834 	movhi	r5,16352
   28710:	00302500 	call	30250 <__subdf3>
   28714:	100d883a 	mov	r6,r2
   28718:	180f883a 	mov	r7,r3
   2871c:	a009883a 	mov	r4,r20
   28720:	880b883a 	mov	r5,r17
   28724:	002fa800 	call	2fa80 <__ledf2>
   28728:	dac00b17 	ldw	r11,44(sp)
   2872c:	10000616 	blt	r2,zero,28748 <_dtoa_r+0x1594>
   28730:	d8801417 	ldw	r2,80(sp)
   28734:	103d2516 	blt	r2,zero,27bcc <_dtoa_r+0xa18>
   28738:	d8800617 	ldw	r2,24(sp)
   2873c:	108003c8 	cmpgei	r2,r2,15
   28740:	103d221e 	bne	r2,zero,27bcc <_dtoa_r+0xa18>
   28744:	003c9c06 	br	279b8 <_dtoa_r+0x804>
   28748:	98bfffc7 	ldb	r2,-1(r19)
   2874c:	9811883a 	mov	r8,r19
   28750:	9cffffc4 	addi	r19,r19,-1
   28754:	10800c20 	cmpeqi	r2,r2,48
   28758:	103ffb1e 	bne	r2,zero,28748 <_dtoa_r+0x1594>
   2875c:	d8801117 	ldw	r2,68(sp)
   28760:	15400044 	addi	r21,r2,1
   28764:	003d9c06 	br	27dd8 <_dtoa_r+0xc24>
   28768:	dc400217 	ldw	r17,8(sp)
   2876c:	a829883a 	mov	r20,r21
   28770:	04c00084 	movi	r19,2
   28774:	003b9e06 	br	275f0 <_dtoa_r+0x43c>
   28778:	903c6626 	beq	r18,zero,27914 <_dtoa_r+0x760>
   2877c:	d8800a17 	ldw	r2,40(sp)
   28780:	00bc860e 	bge	zero,r2,2799c <_dtoa_r+0x7e8>
   28784:	a00b883a 	mov	r5,r20
   28788:	8809883a 	mov	r4,r17
   2878c:	000d883a 	mov	r6,zero
   28790:	01d00934 	movhi	r7,16420
   28794:	002fb780 	call	2fb78 <__muldf3>
   28798:	99000044 	addi	r4,r19,1
   2879c:	1023883a 	mov	r17,r2
   287a0:	1829883a 	mov	r20,r3
   287a4:	0030cc00 	call	30cc0 <__floatsidf>
   287a8:	880d883a 	mov	r6,r17
   287ac:	a00f883a 	mov	r7,r20
   287b0:	1009883a 	mov	r4,r2
   287b4:	180b883a 	mov	r5,r3
   287b8:	002fb780 	call	2fb78 <__muldf3>
   287bc:	1009883a 	mov	r4,r2
   287c0:	000d883a 	mov	r6,zero
   287c4:	01d00734 	movhi	r7,16412
   287c8:	180b883a 	mov	r5,r3
   287cc:	002e7a40 	call	2e7a4 <__adddf3>
   287d0:	d9000617 	ldw	r4,24(sp)
   287d4:	d8800b15 	stw	r2,44(sp)
   287d8:	00bf3034 	movhi	r2,64704
   287dc:	18a7883a 	add	r19,r3,r2
   287e0:	d8800a17 	ldw	r2,40(sp)
   287e4:	213fffc4 	addi	r4,r4,-1
   287e8:	d9001115 	stw	r4,68(sp)
   287ec:	d8800c15 	stw	r2,48(sp)
   287f0:	003b9a06 	br	2765c <_dtoa_r+0x4a8>
   287f4:	00c00c44 	movi	r3,49
   287f8:	b5800044 	addi	r22,r22,1
   287fc:	003c1906 	br	27864 <_dtoa_r+0x6b0>
   28800:	00800e44 	movi	r2,57
   28804:	b0800005 	stb	r2,0(r22)
   28808:	d8800617 	ldw	r2,24(sp)
   2880c:	dc400215 	stw	r17,8(sp)
   28810:	b4800044 	addi	r18,r22,1
   28814:	15400044 	addi	r21,r2,1
   28818:	9823883a 	mov	r17,r19
   2881c:	003d5306 	br	27d6c <_dtoa_r+0xbb8>
   28820:	d8000315 	stw	zero,12(sp)
   28824:	0023883a 	mov	r17,zero
   28828:	003e5406 	br	2817c <_dtoa_r+0xfc8>
   2882c:	e029883a 	mov	r20,fp
   28830:	df000817 	ldw	fp,32(sp)
   28834:	003e2506 	br	280cc <_dtoa_r+0xf18>
   28838:	0005883a 	mov	r2,zero
   2883c:	003e8906 	br	28264 <_dtoa_r+0x10b0>
   28840:	102d883a 	mov	r22,r2
   28844:	003e6306 	br	281d4 <_dtoa_r+0x1020>
   28848:	d8c00417 	ldw	r3,16(sp)
   2884c:	1027883a 	mov	r19,r2
   28850:	1485883a 	add	r2,r2,r18
   28854:	1c87883a 	add	r3,r3,r18
   28858:	d8c00415 	stw	r3,16(sp)
   2885c:	d8800515 	stw	r2,20(sp)
   28860:	003e9c06 	br	282d4 <_dtoa_r+0x1120>
   28864:	d8801117 	ldw	r2,68(sp)
   28868:	15800044 	addi	r22,r2,1
   2886c:	003bf406 	br	27840 <_dtoa_r+0x68c>
   28870:	ddc00b17 	ldw	r23,44(sp)
   28874:	dc000c17 	ldw	r16,48(sp)
   28878:	b011883a 	mov	r8,r22
   2887c:	003fb706 	br	2875c <_dtoa_r+0x15a8>
   28880:	dc800d17 	ldw	r18,52(sp)
   28884:	dd800e17 	ldw	r22,56(sp)
   28888:	ddc00b17 	ldw	r23,44(sp)
   2888c:	dc000c17 	ldw	r16,48(sp)
   28890:	dd400f17 	ldw	r21,60(sp)
   28894:	003c4106 	br	2799c <_dtoa_r+0x7e8>
   28898:	d8800117 	ldw	r2,4(sp)
   2889c:	108000c8 	cmpgei	r2,r2,3
   288a0:	1000081e 	bne	r2,zero,288c4 <_dtoa_r+0x1710>
   288a4:	d9400317 	ldw	r5,12(sp)
   288a8:	b809883a 	mov	r4,r23
   288ac:	0026fb80 	call	26fb8 <quorem>
   288b0:	15000c04 	addi	r20,r2,48
   288b4:	dd400617 	ldw	r21,24(sp)
   288b8:	dc800a17 	ldw	r18,40(sp)
   288bc:	e5000005 	stb	r20,0(fp)
   288c0:	003d1b06 	br	27d30 <_dtoa_r+0xb7c>
   288c4:	dc800a17 	ldw	r18,40(sp)
   288c8:	dd400615 	stw	r21,24(sp)
   288cc:	003e2006 	br	28150 <_dtoa_r+0xf9c>
   288d0:	4027883a 	mov	r19,r8
   288d4:	003f7e06 	br	286d0 <_dtoa_r+0x151c>
   288d8:	d8800117 	ldw	r2,4(sp)
   288dc:	108000c8 	cmpgei	r2,r2,3
   288e0:	103ff81e 	bne	r2,zero,288c4 <_dtoa_r+0x1710>
   288e4:	dd400615 	stw	r21,24(sp)
   288e8:	dc800a17 	ldw	r18,40(sp)
   288ec:	04fd9f0e 	bge	zero,r19,27f6c <_dtoa_r+0xdb8>
   288f0:	003e6406 	br	28284 <_dtoa_r+0x10d0>
   288f4:	1023883a 	mov	r17,r2
   288f8:	1829883a 	mov	r20,r3
   288fc:	04c00084 	movi	r19,2
   28900:	003b3b06 	br	275f0 <_dtoa_r+0x43c>
   28904:	01c000f4 	movhi	r7,3
   28908:	010000f4 	movhi	r4,3
   2890c:	39d25204 	addi	r7,r7,18760
   28910:	000d883a 	mov	r6,zero
   28914:	0140ba84 	movi	r5,746
   28918:	21125704 	addi	r4,r4,18780
   2891c:	002cfb00 	call	2cfb0 <__assert_func>
   28920:	01c000f4 	movhi	r7,3
   28924:	010000f4 	movhi	r4,3
   28928:	39d25204 	addi	r7,r7,18760
   2892c:	000d883a 	mov	r6,zero
   28930:	01406a84 	movi	r5,426
   28934:	21125704 	addi	r4,r4,18780
   28938:	002cfb00 	call	2cfb0 <__assert_func>
   2893c:	e7124e04 	addi	fp,fp,18744
   28940:	003a4d06 	br	27278 <_dtoa_r+0xc4>
   28944:	80001115 	stw	zero,68(r16)
   28948:	000b883a 	mov	r5,zero
   2894c:	8009883a 	mov	r4,r16
   28950:	0029fac0 	call	29fac <_Balloc>
   28954:	1039883a 	mov	fp,r2
   28958:	103ff126 	beq	r2,zero,28920 <_dtoa_r+0x176c>
   2895c:	80801015 	stw	r2,64(r16)
   28960:	00bfffc4 	movi	r2,-1
   28964:	d8800a15 	stw	r2,40(sp)
   28968:	00800044 	movi	r2,1
   2896c:	04bfffc4 	movi	r18,-1
   28970:	d8800715 	stw	r2,28(sp)
   28974:	d8001f15 	stw	zero,124(sp)
   28978:	003c0806 	br	2799c <_dtoa_r+0x7e8>
   2897c:	80001115 	stw	zero,68(r16)
   28980:	000b883a 	mov	r5,zero
   28984:	003ad506 	br	274dc <_dtoa_r+0x328>
   28988:	a005883a 	mov	r2,r20
   2898c:	e029883a 	mov	r20,fp
   28990:	df000817 	ldw	fp,32(sp)
   28994:	00bdcd0e 	bge	zero,r2,280cc <_dtoa_r+0xf18>
   28998:	003dc006 	br	2809c <_dtoa_r+0xee8>

0002899c <__sflush_r>:
   2899c:	2880030b 	ldhu	r2,12(r5)
   289a0:	defffb04 	addi	sp,sp,-20
   289a4:	dcc00315 	stw	r19,12(sp)
   289a8:	dc000015 	stw	r16,0(sp)
   289ac:	dfc00415 	stw	ra,16(sp)
   289b0:	dc800215 	stw	r18,8(sp)
   289b4:	dc400115 	stw	r17,4(sp)
   289b8:	10c0020c 	andi	r3,r2,8
   289bc:	2821883a 	mov	r16,r5
   289c0:	2027883a 	mov	r19,r4
   289c4:	18003c1e 	bne	r3,zero,28ab8 <__sflush_r+0x11c>
   289c8:	29000117 	ldw	r4,4(r5)
   289cc:	10c20014 	ori	r3,r2,2048
   289d0:	28c0030d 	sth	r3,12(r5)
   289d4:	0100580e 	bge	zero,r4,28b38 <__sflush_r+0x19c>
   289d8:	82000a17 	ldw	r8,40(r16)
   289dc:	40003426 	beq	r8,zero,28ab0 <__sflush_r+0x114>
   289e0:	9c400017 	ldw	r17,0(r19)
   289e4:	1084000c 	andi	r2,r2,4096
   289e8:	98000015 	stw	zero,0(r19)
   289ec:	81400717 	ldw	r5,28(r16)
   289f0:	1000561e 	bne	r2,zero,28b4c <__sflush_r+0x1b0>
   289f4:	000d883a 	mov	r6,zero
   289f8:	01c00044 	movi	r7,1
   289fc:	9809883a 	mov	r4,r19
   28a00:	403ee83a 	callr	r8
   28a04:	100d883a 	mov	r6,r2
   28a08:	10bfffd8 	cmpnei	r2,r2,-1
   28a0c:	10005b26 	beq	r2,zero,28b7c <__sflush_r+0x1e0>
   28a10:	80c0030b 	ldhu	r3,12(r16)
   28a14:	82000a17 	ldw	r8,40(r16)
   28a18:	18c0010c 	andi	r3,r3,4
   28a1c:	18000626 	beq	r3,zero,28a38 <__sflush_r+0x9c>
   28a20:	80c00117 	ldw	r3,4(r16)
   28a24:	80800c17 	ldw	r2,48(r16)
   28a28:	30cdc83a 	sub	r6,r6,r3
   28a2c:	10000226 	beq	r2,zero,28a38 <__sflush_r+0x9c>
   28a30:	80800f17 	ldw	r2,60(r16)
   28a34:	308dc83a 	sub	r6,r6,r2
   28a38:	81400717 	ldw	r5,28(r16)
   28a3c:	000f883a 	mov	r7,zero
   28a40:	9809883a 	mov	r4,r19
   28a44:	403ee83a 	callr	r8
   28a48:	10ffffd8 	cmpnei	r3,r2,-1
   28a4c:	1800411e 	bne	r3,zero,28b54 <__sflush_r+0x1b8>
   28a50:	99400017 	ldw	r5,0(r19)
   28a54:	28c007b0 	cmpltui	r3,r5,30
   28a58:	18002c26 	beq	r3,zero,28b0c <__sflush_r+0x170>
   28a5c:	00f7f034 	movhi	r3,57280
   28a60:	18ffff84 	addi	r3,r3,-2
   28a64:	1949d83a 	sra	r4,r3,r5
   28a68:	80c0030b 	ldhu	r3,12(r16)
   28a6c:	2100004c 	andi	r4,r4,1
   28a70:	2000271e 	bne	r4,zero,28b10 <__sflush_r+0x174>
   28a74:	81000417 	ldw	r4,16(r16)
   28a78:	19bdffcc 	andi	r6,r3,63487
   28a7c:	8180030d 	sth	r6,12(r16)
   28a80:	80000115 	stw	zero,4(r16)
   28a84:	81000015 	stw	r4,0(r16)
   28a88:	18c4000c 	andi	r3,r3,4096
   28a8c:	1800431e 	bne	r3,zero,28b9c <__sflush_r+0x200>
   28a90:	81400c17 	ldw	r5,48(r16)
   28a94:	9c400015 	stw	r17,0(r19)
   28a98:	28000526 	beq	r5,zero,28ab0 <__sflush_r+0x114>
   28a9c:	80801004 	addi	r2,r16,64
   28aa0:	28800226 	beq	r5,r2,28aac <__sflush_r+0x110>
   28aa4:	9809883a 	mov	r4,r19
   28aa8:	00291e00 	call	291e0 <_free_r>
   28aac:	80000c15 	stw	zero,48(r16)
   28ab0:	0005883a 	mov	r2,zero
   28ab4:	00001906 	br	28b1c <__sflush_r+0x180>
   28ab8:	2c800417 	ldw	r18,16(r5)
   28abc:	903ffc26 	beq	r18,zero,28ab0 <__sflush_r+0x114>
   28ac0:	2c400017 	ldw	r17,0(r5)
   28ac4:	108000cc 	andi	r2,r2,3
   28ac8:	2c800015 	stw	r18,0(r5)
   28acc:	8ca3c83a 	sub	r17,r17,r18
   28ad0:	10001c1e 	bne	r2,zero,28b44 <__sflush_r+0x1a8>
   28ad4:	28800517 	ldw	r2,20(r5)
   28ad8:	80800215 	stw	r2,8(r16)
   28adc:	04400316 	blt	zero,r17,28aec <__sflush_r+0x150>
   28ae0:	003ff306 	br	28ab0 <__sflush_r+0x114>
   28ae4:	90a5883a 	add	r18,r18,r2
   28ae8:	047ff10e 	bge	zero,r17,28ab0 <__sflush_r+0x114>
   28aec:	80800917 	ldw	r2,36(r16)
   28af0:	81400717 	ldw	r5,28(r16)
   28af4:	880f883a 	mov	r7,r17
   28af8:	900d883a 	mov	r6,r18
   28afc:	9809883a 	mov	r4,r19
   28b00:	103ee83a 	callr	r2
   28b04:	88a3c83a 	sub	r17,r17,r2
   28b08:	00bff616 	blt	zero,r2,28ae4 <__sflush_r+0x148>
   28b0c:	80c0030b 	ldhu	r3,12(r16)
   28b10:	18c01014 	ori	r3,r3,64
   28b14:	80c0030d 	sth	r3,12(r16)
   28b18:	00bfffc4 	movi	r2,-1
   28b1c:	dfc00417 	ldw	ra,16(sp)
   28b20:	dcc00317 	ldw	r19,12(sp)
   28b24:	dc800217 	ldw	r18,8(sp)
   28b28:	dc400117 	ldw	r17,4(sp)
   28b2c:	dc000017 	ldw	r16,0(sp)
   28b30:	dec00504 	addi	sp,sp,20
   28b34:	f800283a 	ret
   28b38:	29000f17 	ldw	r4,60(r5)
   28b3c:	013fa616 	blt	zero,r4,289d8 <__sflush_r+0x3c>
   28b40:	003fdb06 	br	28ab0 <__sflush_r+0x114>
   28b44:	0005883a 	mov	r2,zero
   28b48:	003fe306 	br	28ad8 <__sflush_r+0x13c>
   28b4c:	81801417 	ldw	r6,80(r16)
   28b50:	003fb106 	br	28a18 <__sflush_r+0x7c>
   28b54:	80c0030b 	ldhu	r3,12(r16)
   28b58:	81000417 	ldw	r4,16(r16)
   28b5c:	80000115 	stw	zero,4(r16)
   28b60:	197dffcc 	andi	r5,r3,63487
   28b64:	8140030d 	sth	r5,12(r16)
   28b68:	81000015 	stw	r4,0(r16)
   28b6c:	18c4000c 	andi	r3,r3,4096
   28b70:	183fc726 	beq	r3,zero,28a90 <__sflush_r+0xf4>
   28b74:	80801415 	stw	r2,80(r16)
   28b78:	003fc506 	br	28a90 <__sflush_r+0xf4>
   28b7c:	98800017 	ldw	r2,0(r19)
   28b80:	103fa326 	beq	r2,zero,28a10 <__sflush_r+0x74>
   28b84:	10c00760 	cmpeqi	r3,r2,29
   28b88:	1800021e 	bne	r3,zero,28b94 <__sflush_r+0x1f8>
   28b8c:	10800598 	cmpnei	r2,r2,22
   28b90:	103fde1e 	bne	r2,zero,28b0c <__sflush_r+0x170>
   28b94:	9c400015 	stw	r17,0(r19)
   28b98:	003fc506 	br	28ab0 <__sflush_r+0x114>
   28b9c:	283fbc1e 	bne	r5,zero,28a90 <__sflush_r+0xf4>
   28ba0:	003ff406 	br	28b74 <__sflush_r+0x1d8>

00028ba4 <_fflush_r>:
   28ba4:	defffd04 	addi	sp,sp,-12
   28ba8:	dc000115 	stw	r16,4(sp)
   28bac:	dfc00215 	stw	ra,8(sp)
   28bb0:	2021883a 	mov	r16,r4
   28bb4:	20000226 	beq	r4,zero,28bc0 <_fflush_r+0x1c>
   28bb8:	20800e17 	ldw	r2,56(r4)
   28bbc:	10000726 	beq	r2,zero,28bdc <_fflush_r+0x38>
   28bc0:	2880030f 	ldh	r2,12(r5)
   28bc4:	10000a1e 	bne	r2,zero,28bf0 <_fflush_r+0x4c>
   28bc8:	0005883a 	mov	r2,zero
   28bcc:	dfc00217 	ldw	ra,8(sp)
   28bd0:	dc000117 	ldw	r16,4(sp)
   28bd4:	dec00304 	addi	sp,sp,12
   28bd8:	f800283a 	ret
   28bdc:	d9400015 	stw	r5,0(sp)
   28be0:	0028fbc0 	call	28fbc <__sinit>
   28be4:	d9400017 	ldw	r5,0(sp)
   28be8:	2880030f 	ldh	r2,12(r5)
   28bec:	103ff626 	beq	r2,zero,28bc8 <_fflush_r+0x24>
   28bf0:	8009883a 	mov	r4,r16
   28bf4:	dfc00217 	ldw	ra,8(sp)
   28bf8:	dc000117 	ldw	r16,4(sp)
   28bfc:	dec00304 	addi	sp,sp,12
   28c00:	002899c1 	jmpi	2899c <__sflush_r>

00028c04 <fflush>:
   28c04:	20001726 	beq	r4,zero,28c64 <fflush+0x60>
   28c08:	008000f4 	movhi	r2,3
   28c0c:	200b883a 	mov	r5,r4
   28c10:	111cd017 	ldw	r4,29504(r2)
   28c14:	20000226 	beq	r4,zero,28c20 <fflush+0x1c>
   28c18:	20800e17 	ldw	r2,56(r4)
   28c1c:	10000526 	beq	r2,zero,28c34 <fflush+0x30>
   28c20:	2880030f 	ldh	r2,12(r5)
   28c24:	1000021e 	bne	r2,zero,28c30 <fflush+0x2c>
   28c28:	0005883a 	mov	r2,zero
   28c2c:	f800283a 	ret
   28c30:	002899c1 	jmpi	2899c <__sflush_r>
   28c34:	defffd04 	addi	sp,sp,-12
   28c38:	d9400115 	stw	r5,4(sp)
   28c3c:	d9000015 	stw	r4,0(sp)
   28c40:	dfc00215 	stw	ra,8(sp)
   28c44:	0028fbc0 	call	28fbc <__sinit>
   28c48:	d9400117 	ldw	r5,4(sp)
   28c4c:	d9000017 	ldw	r4,0(sp)
   28c50:	2880030f 	ldh	r2,12(r5)
   28c54:	10000826 	beq	r2,zero,28c78 <fflush+0x74>
   28c58:	dfc00217 	ldw	ra,8(sp)
   28c5c:	dec00304 	addi	sp,sp,12
   28c60:	002899c1 	jmpi	2899c <__sflush_r>
   28c64:	008000f4 	movhi	r2,3
   28c68:	111ccf17 	ldw	r4,29500(r2)
   28c6c:	014000f4 	movhi	r5,3
   28c70:	2962e904 	addi	r5,r5,-29788
   28c74:	0029a241 	jmpi	29a24 <_fwalk_reent>
   28c78:	0005883a 	mov	r2,zero
   28c7c:	dfc00217 	ldw	ra,8(sp)
   28c80:	dec00304 	addi	sp,sp,12
   28c84:	f800283a 	ret

00028c88 <__fp_lock>:
   28c88:	0005883a 	mov	r2,zero
   28c8c:	f800283a 	ret

00028c90 <_cleanup_r>:
   28c90:	014000f4 	movhi	r5,3
   28c94:	29745e04 	addi	r5,r5,-11912
   28c98:	0029a241 	jmpi	29a24 <_fwalk_reent>

00028c9c <__fp_unlock>:
   28c9c:	0005883a 	mov	r2,zero
   28ca0:	f800283a 	ret

00028ca4 <__sinit.part.0>:
   28ca4:	00c000f4 	movhi	r3,3
   28ca8:	20800117 	ldw	r2,4(r4)
   28cac:	18e32404 	addi	r3,r3,-29552
   28cb0:	20c00f15 	stw	r3,60(r4)
   28cb4:	2140bb04 	addi	r5,r4,748
   28cb8:	00c000c4 	movi	r3,3
   28cbc:	20c0b915 	stw	r3,740(r4)
   28cc0:	2140ba15 	stw	r5,744(r4)
   28cc4:	2000b815 	stw	zero,736(r4)
   28cc8:	10001705 	stb	zero,92(r2)
   28ccc:	10001745 	stb	zero,93(r2)
   28cd0:	10001785 	stb	zero,94(r2)
   28cd4:	100017c5 	stb	zero,95(r2)
   28cd8:	10001805 	stb	zero,96(r2)
   28cdc:	10001845 	stb	zero,97(r2)
   28ce0:	10001885 	stb	zero,98(r2)
   28ce4:	100018c5 	stb	zero,99(r2)
   28ce8:	00c00104 	movi	r3,4
   28cec:	10c00315 	stw	r3,12(r2)
   28cf0:	020000b4 	movhi	r8,2
   28cf4:	20c00217 	ldw	r3,8(r4)
   28cf8:	01c000b4 	movhi	r7,2
   28cfc:	018000b4 	movhi	r6,2
   28d00:	014000b4 	movhi	r5,2
   28d04:	4211d404 	addi	r8,r8,18256
   28d08:	39d1eb04 	addi	r7,r7,18348
   28d0c:	31920b04 	addi	r6,r6,18476
   28d10:	29522204 	addi	r5,r5,18568
   28d14:	02400074 	movhi	r9,1
   28d18:	10000015 	stw	zero,0(r2)
   28d1c:	10000115 	stw	zero,4(r2)
   28d20:	10000215 	stw	zero,8(r2)
   28d24:	10001915 	stw	zero,100(r2)
   28d28:	10000415 	stw	zero,16(r2)
   28d2c:	10000515 	stw	zero,20(r2)
   28d30:	10000615 	stw	zero,24(r2)
   28d34:	10800715 	stw	r2,28(r2)
   28d38:	12000815 	stw	r8,32(r2)
   28d3c:	11c00915 	stw	r7,36(r2)
   28d40:	11800a15 	stw	r6,40(r2)
   28d44:	11400b15 	stw	r5,44(r2)
   28d48:	4a400284 	addi	r9,r9,10
   28d4c:	1a400315 	stw	r9,12(r3)
   28d50:	18000015 	stw	zero,0(r3)
   28d54:	18000115 	stw	zero,4(r3)
   28d58:	18000215 	stw	zero,8(r3)
   28d5c:	18001915 	stw	zero,100(r3)
   28d60:	18000415 	stw	zero,16(r3)
   28d64:	18001705 	stb	zero,92(r3)
   28d68:	18001745 	stb	zero,93(r3)
   28d6c:	18001785 	stb	zero,94(r3)
   28d70:	180017c5 	stb	zero,95(r3)
   28d74:	18001805 	stb	zero,96(r3)
   28d78:	18001845 	stb	zero,97(r3)
   28d7c:	18001885 	stb	zero,98(r3)
   28d80:	180018c5 	stb	zero,99(r3)
   28d84:	20800317 	ldw	r2,12(r4)
   28d88:	024000b4 	movhi	r9,2
   28d8c:	18000515 	stw	zero,20(r3)
   28d90:	18000615 	stw	zero,24(r3)
   28d94:	18c00715 	stw	r3,28(r3)
   28d98:	1a000815 	stw	r8,32(r3)
   28d9c:	19c00915 	stw	r7,36(r3)
   28da0:	19800a15 	stw	r6,40(r3)
   28da4:	19400b15 	stw	r5,44(r3)
   28da8:	4a400484 	addi	r9,r9,18
   28dac:	10000015 	stw	zero,0(r2)
   28db0:	10000115 	stw	zero,4(r2)
   28db4:	10000215 	stw	zero,8(r2)
   28db8:	10001915 	stw	zero,100(r2)
   28dbc:	12400315 	stw	r9,12(r2)
   28dc0:	10000415 	stw	zero,16(r2)
   28dc4:	10000515 	stw	zero,20(r2)
   28dc8:	10000615 	stw	zero,24(r2)
   28dcc:	10001705 	stb	zero,92(r2)
   28dd0:	10001745 	stb	zero,93(r2)
   28dd4:	10001785 	stb	zero,94(r2)
   28dd8:	100017c5 	stb	zero,95(r2)
   28ddc:	10001805 	stb	zero,96(r2)
   28de0:	10001845 	stb	zero,97(r2)
   28de4:	10001885 	stb	zero,98(r2)
   28de8:	100018c5 	stb	zero,99(r2)
   28dec:	10800715 	stw	r2,28(r2)
   28df0:	12000815 	stw	r8,32(r2)
   28df4:	11c00915 	stw	r7,36(r2)
   28df8:	11800a15 	stw	r6,40(r2)
   28dfc:	11400b15 	stw	r5,44(r2)
   28e00:	00800044 	movi	r2,1
   28e04:	20800e15 	stw	r2,56(r4)
   28e08:	f800283a 	ret

00028e0c <__sfmoreglue>:
   28e0c:	defffc04 	addi	sp,sp,-16
   28e10:	dc400115 	stw	r17,4(sp)
   28e14:	2c7fffc4 	addi	r17,r5,-1
   28e18:	8c401a24 	muli	r17,r17,104
   28e1c:	dc800215 	stw	r18,8(sp)
   28e20:	2825883a 	mov	r18,r5
   28e24:	89401d04 	addi	r5,r17,116
   28e28:	dc000015 	stw	r16,0(sp)
   28e2c:	dfc00315 	stw	ra,12(sp)
   28e30:	0023aac0 	call	23aac <_malloc_r>
   28e34:	1021883a 	mov	r16,r2
   28e38:	10000726 	beq	r2,zero,28e58 <__sfmoreglue+0x4c>
   28e3c:	11000304 	addi	r4,r2,12
   28e40:	10000015 	stw	zero,0(r2)
   28e44:	14800115 	stw	r18,4(r2)
   28e48:	11000215 	stw	r4,8(r2)
   28e4c:	89801a04 	addi	r6,r17,104
   28e50:	000b883a 	mov	r5,zero
   28e54:	00242600 	call	24260 <memset>
   28e58:	8005883a 	mov	r2,r16
   28e5c:	dfc00317 	ldw	ra,12(sp)
   28e60:	dc800217 	ldw	r18,8(sp)
   28e64:	dc400117 	ldw	r17,4(sp)
   28e68:	dc000017 	ldw	r16,0(sp)
   28e6c:	dec00404 	addi	sp,sp,16
   28e70:	f800283a 	ret

00028e74 <__sfp>:
   28e74:	defffc04 	addi	sp,sp,-16
   28e78:	008000f4 	movhi	r2,3
   28e7c:	dc400115 	stw	r17,4(sp)
   28e80:	145ccf17 	ldw	r17,29500(r2)
   28e84:	dc800215 	stw	r18,8(sp)
   28e88:	dfc00315 	stw	ra,12(sp)
   28e8c:	88800e17 	ldw	r2,56(r17)
   28e90:	dc000015 	stw	r16,0(sp)
   28e94:	2025883a 	mov	r18,r4
   28e98:	10002d26 	beq	r2,zero,28f50 <__sfp+0xdc>
   28e9c:	8c40b804 	addi	r17,r17,736
   28ea0:	88800117 	ldw	r2,4(r17)
   28ea4:	8c000217 	ldw	r16,8(r17)
   28ea8:	10bfffc4 	addi	r2,r2,-1
   28eac:	1000030e 	bge	r2,zero,28ebc <__sfp+0x48>
   28eb0:	00002306 	br	28f40 <__sfp+0xcc>
   28eb4:	84001a04 	addi	r16,r16,104
   28eb8:	28002126 	beq	r5,zero,28f40 <__sfp+0xcc>
   28ebc:	80c0030f 	ldh	r3,12(r16)
   28ec0:	10bfffc4 	addi	r2,r2,-1
   28ec4:	117fffd8 	cmpnei	r5,r2,-1
   28ec8:	183ffa1e 	bne	r3,zero,28eb4 <__sfp+0x40>
   28ecc:	00bffff4 	movhi	r2,65535
   28ed0:	10800044 	addi	r2,r2,1
   28ed4:	80800315 	stw	r2,12(r16)
   28ed8:	80001915 	stw	zero,100(r16)
   28edc:	80000015 	stw	zero,0(r16)
   28ee0:	80000215 	stw	zero,8(r16)
   28ee4:	80000115 	stw	zero,4(r16)
   28ee8:	80000415 	stw	zero,16(r16)
   28eec:	80000515 	stw	zero,20(r16)
   28ef0:	80000615 	stw	zero,24(r16)
   28ef4:	80001705 	stb	zero,92(r16)
   28ef8:	80001745 	stb	zero,93(r16)
   28efc:	80001785 	stb	zero,94(r16)
   28f00:	800017c5 	stb	zero,95(r16)
   28f04:	80001805 	stb	zero,96(r16)
   28f08:	80001845 	stb	zero,97(r16)
   28f0c:	80001885 	stb	zero,98(r16)
   28f10:	800018c5 	stb	zero,99(r16)
   28f14:	80000c15 	stw	zero,48(r16)
   28f18:	80000d15 	stw	zero,52(r16)
   28f1c:	80001115 	stw	zero,68(r16)
   28f20:	80001215 	stw	zero,72(r16)
   28f24:	8005883a 	mov	r2,r16
   28f28:	dfc00317 	ldw	ra,12(sp)
   28f2c:	dc800217 	ldw	r18,8(sp)
   28f30:	dc400117 	ldw	r17,4(sp)
   28f34:	dc000017 	ldw	r16,0(sp)
   28f38:	dec00404 	addi	sp,sp,16
   28f3c:	f800283a 	ret
   28f40:	8c000017 	ldw	r16,0(r17)
   28f44:	80000526 	beq	r16,zero,28f5c <__sfp+0xe8>
   28f48:	8023883a 	mov	r17,r16
   28f4c:	003fd406 	br	28ea0 <__sfp+0x2c>
   28f50:	8809883a 	mov	r4,r17
   28f54:	0028ca40 	call	28ca4 <__sinit.part.0>
   28f58:	003fd006 	br	28e9c <__sfp+0x28>
   28f5c:	01406b04 	movi	r5,428
   28f60:	9009883a 	mov	r4,r18
   28f64:	0023aac0 	call	23aac <_malloc_r>
   28f68:	1021883a 	mov	r16,r2
   28f6c:	10000a26 	beq	r2,zero,28f98 <__sfp+0x124>
   28f70:	10000015 	stw	zero,0(r2)
   28f74:	11000304 	addi	r4,r2,12
   28f78:	00800104 	movi	r2,4
   28f7c:	80800115 	stw	r2,4(r16)
   28f80:	81000215 	stw	r4,8(r16)
   28f84:	01806804 	movi	r6,416
   28f88:	000b883a 	mov	r5,zero
   28f8c:	00242600 	call	24260 <memset>
   28f90:	8c000015 	stw	r16,0(r17)
   28f94:	003fec06 	br	28f48 <__sfp+0xd4>
   28f98:	88000015 	stw	zero,0(r17)
   28f9c:	00800304 	movi	r2,12
   28fa0:	90800015 	stw	r2,0(r18)
   28fa4:	003fdf06 	br	28f24 <__sfp+0xb0>

00028fa8 <_cleanup>:
   28fa8:	008000f4 	movhi	r2,3
   28fac:	111ccf17 	ldw	r4,29500(r2)
   28fb0:	014000f4 	movhi	r5,3
   28fb4:	29745e04 	addi	r5,r5,-11912
   28fb8:	0029a241 	jmpi	29a24 <_fwalk_reent>

00028fbc <__sinit>:
   28fbc:	20800e17 	ldw	r2,56(r4)
   28fc0:	10000126 	beq	r2,zero,28fc8 <__sinit+0xc>
   28fc4:	f800283a 	ret
   28fc8:	0028ca41 	jmpi	28ca4 <__sinit.part.0>

00028fcc <__sfp_lock_acquire>:
   28fcc:	f800283a 	ret

00028fd0 <__sfp_lock_release>:
   28fd0:	f800283a 	ret

00028fd4 <__sinit_lock_acquire>:
   28fd4:	f800283a 	ret

00028fd8 <__sinit_lock_release>:
   28fd8:	f800283a 	ret

00028fdc <__fp_lock_all>:
   28fdc:	008000f4 	movhi	r2,3
   28fe0:	111cd017 	ldw	r4,29504(r2)
   28fe4:	014000f4 	movhi	r5,3
   28fe8:	29632204 	addi	r5,r5,-29560
   28fec:	002998c1 	jmpi	2998c <_fwalk>

00028ff0 <__fp_unlock_all>:
   28ff0:	008000f4 	movhi	r2,3
   28ff4:	111cd017 	ldw	r4,29504(r2)
   28ff8:	014000f4 	movhi	r5,3
   28ffc:	29632704 	addi	r5,r5,-29540
   29000:	002998c1 	jmpi	2998c <_fwalk>

00029004 <__sflags>:
   29004:	28800007 	ldb	r2,0(r5)
   29008:	10c01ca0 	cmpeqi	r3,r2,114
   2900c:	1800271e 	bne	r3,zero,290ac <__sflags+0xa8>
   29010:	10c01de0 	cmpeqi	r3,r2,119
   29014:	1800061e 	bne	r3,zero,29030 <__sflags+0x2c>
   29018:	10801860 	cmpeqi	r2,r2,97
   2901c:	10001f1e 	bne	r2,zero,2909c <__sflags+0x98>
   29020:	00800584 	movi	r2,22
   29024:	20800015 	stw	r2,0(r4)
   29028:	0005883a 	mov	r2,zero
   2902c:	f800283a 	ret
   29030:	02018004 	movi	r8,1536
   29034:	01000044 	movi	r4,1
   29038:	00800204 	movi	r2,8
   2903c:	28c00047 	ldb	r3,1(r5)
   29040:	29400044 	addi	r5,r5,1
   29044:	18001226 	beq	r3,zero,29090 <__sflags+0x8c>
   29048:	02bff8c4 	movi	r10,-29
   2904c:	027fff04 	movi	r9,-4
   29050:	00000506 	br	29068 <__sflags+0x64>
   29054:	18000126 	beq	r3,zero,2905c <__sflags+0x58>
   29058:	21020014 	ori	r4,r4,2048
   2905c:	28c00047 	ldb	r3,1(r5)
   29060:	29400044 	addi	r5,r5,1
   29064:	18000a26 	beq	r3,zero,29090 <__sflags+0x8c>
   29068:	19c00ae0 	cmpeqi	r7,r3,43
   2906c:	18c01e20 	cmpeqi	r3,r3,120
   29070:	383ff826 	beq	r7,zero,29054 <__sflags+0x50>
   29074:	28c00047 	ldb	r3,1(r5)
   29078:	1284703a 	and	r2,r2,r10
   2907c:	2248703a 	and	r4,r4,r9
   29080:	10800414 	ori	r2,r2,16
   29084:	21000094 	ori	r4,r4,2
   29088:	29400044 	addi	r5,r5,1
   2908c:	183ff61e 	bne	r3,zero,29068 <__sflags+0x64>
   29090:	4110b03a 	or	r8,r8,r4
   29094:	32000015 	stw	r8,0(r6)
   29098:	f800283a 	ret
   2909c:	02008204 	movi	r8,520
   290a0:	01000044 	movi	r4,1
   290a4:	00804204 	movi	r2,264
   290a8:	003fe406 	br	2903c <__sflags+0x38>
   290ac:	0011883a 	mov	r8,zero
   290b0:	0009883a 	mov	r4,zero
   290b4:	00800104 	movi	r2,4
   290b8:	003fe006 	br	2903c <__sflags+0x38>

000290bc <_malloc_trim_r>:
   290bc:	defffa04 	addi	sp,sp,-24
   290c0:	dcc00315 	stw	r19,12(sp)
   290c4:	04c000f4 	movhi	r19,3
   290c8:	dd000415 	stw	r20,16(sp)
   290cc:	dc800215 	stw	r18,8(sp)
   290d0:	dc400115 	stw	r17,4(sp)
   290d4:	dc000015 	stw	r16,0(sp)
   290d8:	2829883a 	mov	r20,r5
   290dc:	dfc00515 	stw	ra,20(sp)
   290e0:	9cd6bc04 	addi	r19,r19,23280
   290e4:	2025883a 	mov	r18,r4
   290e8:	00316bc0 	call	316bc <__malloc_lock>
   290ec:	98800217 	ldw	r2,8(r19)
   290f0:	14400117 	ldw	r17,4(r2)
   290f4:	00bfff04 	movi	r2,-4
   290f8:	88a2703a 	and	r17,r17,r2
   290fc:	8c03fbc4 	addi	r16,r17,4079
   29100:	8521c83a 	sub	r16,r16,r20
   29104:	8020d33a 	srli	r16,r16,12
   29108:	843fffc4 	addi	r16,r16,-1
   2910c:	8020933a 	slli	r16,r16,12
   29110:	80840008 	cmpgei	r2,r16,4096
   29114:	10000626 	beq	r2,zero,29130 <_malloc_trim_r+0x74>
   29118:	000b883a 	mov	r5,zero
   2911c:	9009883a 	mov	r4,r18
   29120:	00246f80 	call	246f8 <_sbrk_r>
   29124:	98c00217 	ldw	r3,8(r19)
   29128:	1c47883a 	add	r3,r3,r17
   2912c:	10c00b26 	beq	r2,r3,2915c <_malloc_trim_r+0xa0>
   29130:	9009883a 	mov	r4,r18
   29134:	00316e00 	call	316e0 <__malloc_unlock>
   29138:	0005883a 	mov	r2,zero
   2913c:	dfc00517 	ldw	ra,20(sp)
   29140:	dd000417 	ldw	r20,16(sp)
   29144:	dcc00317 	ldw	r19,12(sp)
   29148:	dc800217 	ldw	r18,8(sp)
   2914c:	dc400117 	ldw	r17,4(sp)
   29150:	dc000017 	ldw	r16,0(sp)
   29154:	dec00604 	addi	sp,sp,24
   29158:	f800283a 	ret
   2915c:	040bc83a 	sub	r5,zero,r16
   29160:	9009883a 	mov	r4,r18
   29164:	00246f80 	call	246f8 <_sbrk_r>
   29168:	10bfffd8 	cmpnei	r2,r2,-1
   2916c:	10000d26 	beq	r2,zero,291a4 <_malloc_trim_r+0xe8>
   29170:	00800134 	movhi	r2,4
   29174:	10a5fe17 	ldw	r2,-26632(r2)
   29178:	98c00217 	ldw	r3,8(r19)
   2917c:	8c23c83a 	sub	r17,r17,r16
   29180:	8c400054 	ori	r17,r17,1
   29184:	1405c83a 	sub	r2,r2,r16
   29188:	1c400115 	stw	r17,4(r3)
   2918c:	9009883a 	mov	r4,r18
   29190:	00c00134 	movhi	r3,4
   29194:	18a5fe15 	stw	r2,-26632(r3)
   29198:	00316e00 	call	316e0 <__malloc_unlock>
   2919c:	00800044 	movi	r2,1
   291a0:	003fe606 	br	2913c <_malloc_trim_r+0x80>
   291a4:	000b883a 	mov	r5,zero
   291a8:	9009883a 	mov	r4,r18
   291ac:	00246f80 	call	246f8 <_sbrk_r>
   291b0:	99000217 	ldw	r4,8(r19)
   291b4:	1107c83a 	sub	r3,r2,r4
   291b8:	19400410 	cmplti	r5,r3,16
   291bc:	283fdc1e 	bne	r5,zero,29130 <_malloc_trim_r+0x74>
   291c0:	014000f4 	movhi	r5,3
   291c4:	295cd117 	ldw	r5,29508(r5)
   291c8:	18c00054 	ori	r3,r3,1
   291cc:	20c00115 	stw	r3,4(r4)
   291d0:	1145c83a 	sub	r2,r2,r5
   291d4:	01400134 	movhi	r5,4
   291d8:	28a5fe15 	stw	r2,-26632(r5)
   291dc:	003fd406 	br	29130 <_malloc_trim_r+0x74>

000291e0 <_free_r>:
   291e0:	28005f26 	beq	r5,zero,29360 <_free_r+0x180>
   291e4:	defffd04 	addi	sp,sp,-12
   291e8:	dc400115 	stw	r17,4(sp)
   291ec:	dc000015 	stw	r16,0(sp)
   291f0:	2023883a 	mov	r17,r4
   291f4:	2821883a 	mov	r16,r5
   291f8:	dfc00215 	stw	ra,8(sp)
   291fc:	00316bc0 	call	316bc <__malloc_lock>
   29200:	81ffff17 	ldw	r7,-4(r16)
   29204:	00bfff84 	movi	r2,-2
   29208:	80fffe04 	addi	r3,r16,-8
   2920c:	3884703a 	and	r2,r7,r2
   29210:	018000f4 	movhi	r6,3
   29214:	1889883a 	add	r4,r3,r2
   29218:	3196bc04 	addi	r6,r6,23280
   2921c:	21400117 	ldw	r5,4(r4)
   29220:	32000217 	ldw	r8,8(r6)
   29224:	027fff04 	movi	r9,-4
   29228:	2a4a703a 	and	r5,r5,r9
   2922c:	41006526 	beq	r8,r4,293c4 <_free_r+0x1e4>
   29230:	21400115 	stw	r5,4(r4)
   29234:	39c0004c 	andi	r7,r7,1
   29238:	2151883a 	add	r8,r4,r5
   2923c:	3800281e 	bne	r7,zero,292e0 <_free_r+0x100>
   29240:	82bffe17 	ldw	r10,-8(r16)
   29244:	42000117 	ldw	r8,4(r8)
   29248:	01c000f4 	movhi	r7,3
   2924c:	1a87c83a 	sub	r3,r3,r10
   29250:	1a400217 	ldw	r9,8(r3)
   29254:	39d6be04 	addi	r7,r7,23288
   29258:	1285883a 	add	r2,r2,r10
   2925c:	4200004c 	andi	r8,r8,1
   29260:	49c04d26 	beq	r9,r7,29398 <_free_r+0x1b8>
   29264:	1a800317 	ldw	r10,12(r3)
   29268:	4a800315 	stw	r10,12(r9)
   2926c:	52400215 	stw	r9,8(r10)
   29270:	40006926 	beq	r8,zero,29418 <_free_r+0x238>
   29274:	11400054 	ori	r5,r2,1
   29278:	19400115 	stw	r5,4(r3)
   2927c:	20800015 	stw	r2,0(r4)
   29280:	11008028 	cmpgeui	r4,r2,512
   29284:	20001e1e 	bne	r4,zero,29300 <_free_r+0x120>
   29288:	1008d0fa 	srli	r4,r2,3
   2928c:	100ad17a 	srli	r5,r2,5
   29290:	31c00117 	ldw	r7,4(r6)
   29294:	20800044 	addi	r2,r4,1
   29298:	100490fa 	slli	r2,r2,3
   2929c:	01000044 	movi	r4,1
   292a0:	2148983a 	sll	r4,r4,r5
   292a4:	3085883a 	add	r2,r6,r2
   292a8:	11400017 	ldw	r5,0(r2)
   292ac:	21c8b03a 	or	r4,r4,r7
   292b0:	11fffe04 	addi	r7,r2,-8
   292b4:	19c00315 	stw	r7,12(r3)
   292b8:	19400215 	stw	r5,8(r3)
   292bc:	31000115 	stw	r4,4(r6)
   292c0:	10c00015 	stw	r3,0(r2)
   292c4:	28c00315 	stw	r3,12(r5)
   292c8:	8809883a 	mov	r4,r17
   292cc:	dfc00217 	ldw	ra,8(sp)
   292d0:	dc400117 	ldw	r17,4(sp)
   292d4:	dc000017 	ldw	r16,0(sp)
   292d8:	dec00304 	addi	sp,sp,12
   292dc:	00316e01 	jmpi	316e0 <__malloc_unlock>
   292e0:	41c00117 	ldw	r7,4(r8)
   292e4:	39c0004c 	andi	r7,r7,1
   292e8:	38001e26 	beq	r7,zero,29364 <_free_r+0x184>
   292ec:	11400054 	ori	r5,r2,1
   292f0:	817fff15 	stw	r5,-4(r16)
   292f4:	20800015 	stw	r2,0(r4)
   292f8:	11008028 	cmpgeui	r4,r2,512
   292fc:	203fe226 	beq	r4,zero,29288 <_free_r+0xa8>
   29300:	1008d27a 	srli	r4,r2,9
   29304:	21400168 	cmpgeui	r5,r4,5
   29308:	2800451e 	bne	r5,zero,29420 <_free_r+0x240>
   2930c:	1008d1ba 	srli	r4,r2,6
   29310:	21c00e44 	addi	r7,r4,57
   29314:	380e90fa 	slli	r7,r7,3
   29318:	21000e04 	addi	r4,r4,56
   2931c:	31cf883a 	add	r7,r6,r7
   29320:	39400017 	ldw	r5,0(r7)
   29324:	39fffe04 	addi	r7,r7,-8
   29328:	39405326 	beq	r7,r5,29478 <_free_r+0x298>
   2932c:	01bfff04 	movi	r6,-4
   29330:	00000206 	br	2933c <_free_r+0x15c>
   29334:	29400217 	ldw	r5,8(r5)
   29338:	39400326 	beq	r7,r5,29348 <_free_r+0x168>
   2933c:	29000117 	ldw	r4,4(r5)
   29340:	2188703a 	and	r4,r4,r6
   29344:	113ffb36 	bltu	r2,r4,29334 <_free_r+0x154>
   29348:	29c00317 	ldw	r7,12(r5)
   2934c:	19c00315 	stw	r7,12(r3)
   29350:	19400215 	stw	r5,8(r3)
   29354:	38c00215 	stw	r3,8(r7)
   29358:	28c00315 	stw	r3,12(r5)
   2935c:	003fda06 	br	292c8 <_free_r+0xe8>
   29360:	f800283a 	ret
   29364:	01c000f4 	movhi	r7,3
   29368:	1145883a 	add	r2,r2,r5
   2936c:	39d6be04 	addi	r7,r7,23288
   29370:	21400217 	ldw	r5,8(r4)
   29374:	29c03726 	beq	r5,r7,29454 <_free_r+0x274>
   29378:	22000317 	ldw	r8,12(r4)
   2937c:	11c00054 	ori	r7,r2,1
   29380:	1889883a 	add	r4,r3,r2
   29384:	2a000315 	stw	r8,12(r5)
   29388:	41400215 	stw	r5,8(r8)
   2938c:	19c00115 	stw	r7,4(r3)
   29390:	20800015 	stw	r2,0(r4)
   29394:	003fba06 	br	29280 <_free_r+0xa0>
   29398:	40004f1e 	bne	r8,zero,294d8 <_free_r+0x2f8>
   2939c:	21800217 	ldw	r6,8(r4)
   293a0:	21000317 	ldw	r4,12(r4)
   293a4:	288b883a 	add	r5,r5,r2
   293a8:	28800054 	ori	r2,r5,1
   293ac:	31000315 	stw	r4,12(r6)
   293b0:	21800215 	stw	r6,8(r4)
   293b4:	18800115 	stw	r2,4(r3)
   293b8:	1947883a 	add	r3,r3,r5
   293bc:	19400015 	stw	r5,0(r3)
   293c0:	003fc106 	br	292c8 <_free_r+0xe8>
   293c4:	39c0004c 	andi	r7,r7,1
   293c8:	114b883a 	add	r5,r2,r5
   293cc:	3800071e 	bne	r7,zero,293ec <_free_r+0x20c>
   293d0:	81fffe17 	ldw	r7,-8(r16)
   293d4:	19c7c83a 	sub	r3,r3,r7
   293d8:	18800317 	ldw	r2,12(r3)
   293dc:	19000217 	ldw	r4,8(r3)
   293e0:	29cb883a 	add	r5,r5,r7
   293e4:	20800315 	stw	r2,12(r4)
   293e8:	11000215 	stw	r4,8(r2)
   293ec:	008000f4 	movhi	r2,3
   293f0:	29000054 	ori	r4,r5,1
   293f4:	109cd217 	ldw	r2,29512(r2)
   293f8:	19000115 	stw	r4,4(r3)
   293fc:	30c00215 	stw	r3,8(r6)
   29400:	28bfb136 	bltu	r5,r2,292c8 <_free_r+0xe8>
   29404:	00800134 	movhi	r2,4
   29408:	1165f417 	ldw	r5,-26672(r2)
   2940c:	8809883a 	mov	r4,r17
   29410:	00290bc0 	call	290bc <_malloc_trim_r>
   29414:	003fac06 	br	292c8 <_free_r+0xe8>
   29418:	1145883a 	add	r2,r2,r5
   2941c:	003fd406 	br	29370 <_free_r+0x190>
   29420:	21400568 	cmpgeui	r5,r4,21
   29424:	28000726 	beq	r5,zero,29444 <_free_r+0x264>
   29428:	21401568 	cmpgeui	r5,r4,85
   2942c:	2800191e 	bne	r5,zero,29494 <_free_r+0x2b4>
   29430:	1008d33a 	srli	r4,r2,12
   29434:	21c01bc4 	addi	r7,r4,111
   29438:	380e90fa 	slli	r7,r7,3
   2943c:	21001b84 	addi	r4,r4,110
   29440:	003fb606 	br	2931c <_free_r+0x13c>
   29444:	21c01704 	addi	r7,r4,92
   29448:	380e90fa 	slli	r7,r7,3
   2944c:	210016c4 	addi	r4,r4,91
   29450:	003fb206 	br	2931c <_free_r+0x13c>
   29454:	30c00515 	stw	r3,20(r6)
   29458:	30c00415 	stw	r3,16(r6)
   2945c:	11000054 	ori	r4,r2,1
   29460:	19c00315 	stw	r7,12(r3)
   29464:	19c00215 	stw	r7,8(r3)
   29468:	19000115 	stw	r4,4(r3)
   2946c:	1887883a 	add	r3,r3,r2
   29470:	18800015 	stw	r2,0(r3)
   29474:	003f9406 	br	292c8 <_free_r+0xe8>
   29478:	2009d0ba 	srai	r4,r4,2
   2947c:	00800044 	movi	r2,1
   29480:	32000117 	ldw	r8,4(r6)
   29484:	1104983a 	sll	r2,r2,r4
   29488:	1204b03a 	or	r2,r2,r8
   2948c:	30800115 	stw	r2,4(r6)
   29490:	003fae06 	br	2934c <_free_r+0x16c>
   29494:	21405568 	cmpgeui	r5,r4,341
   29498:	2800051e 	bne	r5,zero,294b0 <_free_r+0x2d0>
   2949c:	1008d3fa 	srli	r4,r2,15
   294a0:	21c01e04 	addi	r7,r4,120
   294a4:	380e90fa 	slli	r7,r7,3
   294a8:	21001dc4 	addi	r4,r4,119
   294ac:	003f9b06 	br	2931c <_free_r+0x13c>
   294b0:	21015568 	cmpgeui	r4,r4,1365
   294b4:	2000051e 	bne	r4,zero,294cc <_free_r+0x2ec>
   294b8:	1008d4ba 	srli	r4,r2,18
   294bc:	21c01f44 	addi	r7,r4,125
   294c0:	380e90fa 	slli	r7,r7,3
   294c4:	21001f04 	addi	r4,r4,124
   294c8:	003f9406 	br	2931c <_free_r+0x13c>
   294cc:	01c0fe04 	movi	r7,1016
   294d0:	01001f84 	movi	r4,126
   294d4:	003f9106 	br	2931c <_free_r+0x13c>
   294d8:	11400054 	ori	r5,r2,1
   294dc:	19400115 	stw	r5,4(r3)
   294e0:	20800015 	stw	r2,0(r4)
   294e4:	003f7806 	br	292c8 <_free_r+0xe8>

000294e8 <__sfvwrite_r>:
   294e8:	30800217 	ldw	r2,8(r6)
   294ec:	1000c326 	beq	r2,zero,297fc <__sfvwrite_r+0x314>
   294f0:	2a80030b 	ldhu	r10,12(r5)
   294f4:	defff504 	addi	sp,sp,-44
   294f8:	df000915 	stw	fp,36(sp)
   294fc:	dcc00415 	stw	r19,16(sp)
   29500:	dc000115 	stw	r16,4(sp)
   29504:	dfc00a15 	stw	ra,40(sp)
   29508:	ddc00815 	stw	r23,32(sp)
   2950c:	dd800715 	stw	r22,28(sp)
   29510:	dd400615 	stw	r21,24(sp)
   29514:	dd000515 	stw	r20,20(sp)
   29518:	dc800315 	stw	r18,12(sp)
   2951c:	dc400215 	stw	r17,8(sp)
   29520:	5080020c 	andi	r2,r10,8
   29524:	3039883a 	mov	fp,r6
   29528:	2027883a 	mov	r19,r4
   2952c:	2821883a 	mov	r16,r5
   29530:	10002226 	beq	r2,zero,295bc <__sfvwrite_r+0xd4>
   29534:	28800417 	ldw	r2,16(r5)
   29538:	10002026 	beq	r2,zero,295bc <__sfvwrite_r+0xd4>
   2953c:	5080008c 	andi	r2,r10,2
   29540:	e4400017 	ldw	r17,0(fp)
   29544:	10002526 	beq	r2,zero,295dc <__sfvwrite_r+0xf4>
   29548:	80800917 	ldw	r2,36(r16)
   2954c:	81400717 	ldw	r5,28(r16)
   29550:	05600034 	movhi	r21,32768
   29554:	0029883a 	mov	r20,zero
   29558:	0025883a 	mov	r18,zero
   2955c:	ad7f0004 	addi	r21,r21,-1024
   29560:	a00d883a 	mov	r6,r20
   29564:	9809883a 	mov	r4,r19
   29568:	90001026 	beq	r18,zero,295ac <__sfvwrite_r+0xc4>
   2956c:	900f883a 	mov	r7,r18
   29570:	ac80012e 	bgeu	r21,r18,29578 <__sfvwrite_r+0x90>
   29574:	a80f883a 	mov	r7,r21
   29578:	103ee83a 	callr	r2
   2957c:	00809a0e 	bge	zero,r2,297e8 <__sfvwrite_r+0x300>
   29580:	e0c00217 	ldw	r3,8(fp)
   29584:	a0a9883a 	add	r20,r20,r2
   29588:	90a5c83a 	sub	r18,r18,r2
   2958c:	1885c83a 	sub	r2,r3,r2
   29590:	e0800215 	stw	r2,8(fp)
   29594:	10008326 	beq	r2,zero,297a4 <__sfvwrite_r+0x2bc>
   29598:	80800917 	ldw	r2,36(r16)
   2959c:	81400717 	ldw	r5,28(r16)
   295a0:	a00d883a 	mov	r6,r20
   295a4:	9809883a 	mov	r4,r19
   295a8:	903ff01e 	bne	r18,zero,2956c <__sfvwrite_r+0x84>
   295ac:	8d000017 	ldw	r20,0(r17)
   295b0:	8c800117 	ldw	r18,4(r17)
   295b4:	8c400204 	addi	r17,r17,8
   295b8:	003fe906 	br	29560 <__sfvwrite_r+0x78>
   295bc:	800b883a 	mov	r5,r16
   295c0:	9809883a 	mov	r4,r19
   295c4:	0026e140 	call	26e14 <__swsetup_r>
   295c8:	10008a1e 	bne	r2,zero,297f4 <__sfvwrite_r+0x30c>
   295cc:	8280030b 	ldhu	r10,12(r16)
   295d0:	e4400017 	ldw	r17,0(fp)
   295d4:	5080008c 	andi	r2,r10,2
   295d8:	103fdb1e 	bne	r2,zero,29548 <__sfvwrite_r+0x60>
   295dc:	5080004c 	andi	r2,r10,1
   295e0:	10004e1e 	bne	r2,zero,2971c <__sfvwrite_r+0x234>
   295e4:	00a00034 	movhi	r2,32768
   295e8:	81c00017 	ldw	r7,0(r16)
   295ec:	80c00217 	ldw	r3,8(r16)
   295f0:	10bfffc4 	addi	r2,r2,-1
   295f4:	002d883a 	mov	r22,zero
   295f8:	0025883a 	mov	r18,zero
   295fc:	d8800015 	stw	r2,0(sp)
   29600:	3809883a 	mov	r4,r7
   29604:	1829883a 	mov	r20,r3
   29608:	90004026 	beq	r18,zero,2970c <__sfvwrite_r+0x224>
   2960c:	5080800c 	andi	r2,r10,512
   29610:	10009426 	beq	r2,zero,29864 <__sfvwrite_r+0x37c>
   29614:	182b883a 	mov	r21,r3
   29618:	90c0b936 	bltu	r18,r3,29900 <__sfvwrite_r+0x418>
   2961c:	5081200c 	andi	r2,r10,1152
   29620:	10002426 	beq	r2,zero,296b4 <__sfvwrite_r+0x1cc>
   29624:	80800517 	ldw	r2,20(r16)
   29628:	81000417 	ldw	r4,16(r16)
   2962c:	108000e4 	muli	r2,r2,3
   29630:	392fc83a 	sub	r23,r7,r4
   29634:	b8c00044 	addi	r3,r23,1
   29638:	1012d7fa 	srli	r9,r2,31
   2963c:	1c87883a 	add	r3,r3,r18
   29640:	4893883a 	add	r9,r9,r2
   29644:	4829d07a 	srai	r20,r9,1
   29648:	a00b883a 	mov	r5,r20
   2964c:	a0c0022e 	bgeu	r20,r3,29658 <__sfvwrite_r+0x170>
   29650:	1829883a 	mov	r20,r3
   29654:	180b883a 	mov	r5,r3
   29658:	5281000c 	andi	r10,r10,1024
   2965c:	5000b926 	beq	r10,zero,29944 <__sfvwrite_r+0x45c>
   29660:	9809883a 	mov	r4,r19
   29664:	0023aac0 	call	23aac <_malloc_r>
   29668:	1000c426 	beq	r2,zero,2997c <__sfvwrite_r+0x494>
   2966c:	81400417 	ldw	r5,16(r16)
   29670:	1009883a 	mov	r4,r2
   29674:	b80d883a 	mov	r6,r23
   29678:	0029d840 	call	29d84 <memcpy>
   2967c:	1007883a 	mov	r3,r2
   29680:	8080030b 	ldhu	r2,12(r16)
   29684:	013edfc4 	movi	r4,-1153
   29688:	1104703a 	and	r2,r2,r4
   2968c:	10802014 	ori	r2,r2,128
   29690:	8080030d 	sth	r2,12(r16)
   29694:	a5cfc83a 	sub	r7,r20,r23
   29698:	1dc9883a 	add	r4,r3,r23
   2969c:	85000515 	stw	r20,20(r16)
   296a0:	80c00415 	stw	r3,16(r16)
   296a4:	81000015 	stw	r4,0(r16)
   296a8:	9029883a 	mov	r20,r18
   296ac:	81c00215 	stw	r7,8(r16)
   296b0:	902b883a 	mov	r21,r18
   296b4:	a80d883a 	mov	r6,r21
   296b8:	b00b883a 	mov	r5,r22
   296bc:	0029e840 	call	29e84 <memmove>
   296c0:	80c00217 	ldw	r3,8(r16)
   296c4:	81c00017 	ldw	r7,0(r16)
   296c8:	902f883a 	mov	r23,r18
   296cc:	1d07c83a 	sub	r3,r3,r20
   296d0:	3d4d883a 	add	r6,r7,r21
   296d4:	80c00215 	stw	r3,8(r16)
   296d8:	81800015 	stw	r6,0(r16)
   296dc:	0025883a 	mov	r18,zero
   296e0:	e0800217 	ldw	r2,8(fp)
   296e4:	b5ed883a 	add	r22,r22,r23
   296e8:	15c5c83a 	sub	r2,r2,r23
   296ec:	e0800215 	stw	r2,8(fp)
   296f0:	10002c26 	beq	r2,zero,297a4 <__sfvwrite_r+0x2bc>
   296f4:	81c00017 	ldw	r7,0(r16)
   296f8:	80c00217 	ldw	r3,8(r16)
   296fc:	8280030b 	ldhu	r10,12(r16)
   29700:	3809883a 	mov	r4,r7
   29704:	1829883a 	mov	r20,r3
   29708:	903fc01e 	bne	r18,zero,2960c <__sfvwrite_r+0x124>
   2970c:	8d800017 	ldw	r22,0(r17)
   29710:	8c800117 	ldw	r18,4(r17)
   29714:	8c400204 	addi	r17,r17,8
   29718:	003fb906 	br	29600 <__sfvwrite_r+0x118>
   2971c:	002f883a 	mov	r23,zero
   29720:	0005883a 	mov	r2,zero
   29724:	002b883a 	mov	r21,zero
   29728:	0029883a 	mov	r20,zero
   2972c:	a0003526 	beq	r20,zero,29804 <__sfvwrite_r+0x31c>
   29730:	10003926 	beq	r2,zero,29818 <__sfvwrite_r+0x330>
   29734:	b805883a 	mov	r2,r23
   29738:	a02d883a 	mov	r22,r20
   2973c:	1500012e 	bgeu	r2,r20,29744 <__sfvwrite_r+0x25c>
   29740:	102d883a 	mov	r22,r2
   29744:	81000017 	ldw	r4,0(r16)
   29748:	80800417 	ldw	r2,16(r16)
   2974c:	84800217 	ldw	r18,8(r16)
   29750:	81c00517 	ldw	r7,20(r16)
   29754:	1100022e 	bgeu	r2,r4,29760 <__sfvwrite_r+0x278>
   29758:	91e5883a 	add	r18,r18,r7
   2975c:	95803616 	blt	r18,r22,29838 <__sfvwrite_r+0x350>
   29760:	b1c06a16 	blt	r22,r7,2990c <__sfvwrite_r+0x424>
   29764:	80800917 	ldw	r2,36(r16)
   29768:	81400717 	ldw	r5,28(r16)
   2976c:	a80d883a 	mov	r6,r21
   29770:	9809883a 	mov	r4,r19
   29774:	103ee83a 	callr	r2
   29778:	1025883a 	mov	r18,r2
   2977c:	00801a0e 	bge	zero,r2,297e8 <__sfvwrite_r+0x300>
   29780:	bcafc83a 	sub	r23,r23,r18
   29784:	b8001426 	beq	r23,zero,297d8 <__sfvwrite_r+0x2f0>
   29788:	00800044 	movi	r2,1
   2978c:	e0c00217 	ldw	r3,8(fp)
   29790:	acab883a 	add	r21,r21,r18
   29794:	a4a9c83a 	sub	r20,r20,r18
   29798:	1c87c83a 	sub	r3,r3,r18
   2979c:	e0c00215 	stw	r3,8(fp)
   297a0:	183fe21e 	bne	r3,zero,2972c <__sfvwrite_r+0x244>
   297a4:	0005883a 	mov	r2,zero
   297a8:	dfc00a17 	ldw	ra,40(sp)
   297ac:	df000917 	ldw	fp,36(sp)
   297b0:	ddc00817 	ldw	r23,32(sp)
   297b4:	dd800717 	ldw	r22,28(sp)
   297b8:	dd400617 	ldw	r21,24(sp)
   297bc:	dd000517 	ldw	r20,20(sp)
   297c0:	dcc00417 	ldw	r19,16(sp)
   297c4:	dc800317 	ldw	r18,12(sp)
   297c8:	dc400217 	ldw	r17,8(sp)
   297cc:	dc000117 	ldw	r16,4(sp)
   297d0:	dec00b04 	addi	sp,sp,44
   297d4:	f800283a 	ret
   297d8:	800b883a 	mov	r5,r16
   297dc:	9809883a 	mov	r4,r19
   297e0:	0028ba40 	call	28ba4 <_fflush_r>
   297e4:	103fe926 	beq	r2,zero,2978c <__sfvwrite_r+0x2a4>
   297e8:	8080030b 	ldhu	r2,12(r16)
   297ec:	10801014 	ori	r2,r2,64
   297f0:	8080030d 	sth	r2,12(r16)
   297f4:	00bfffc4 	movi	r2,-1
   297f8:	003feb06 	br	297a8 <__sfvwrite_r+0x2c0>
   297fc:	0005883a 	mov	r2,zero
   29800:	f800283a 	ret
   29804:	8d000117 	ldw	r20,4(r17)
   29808:	8805883a 	mov	r2,r17
   2980c:	8c400204 	addi	r17,r17,8
   29810:	a03ffc26 	beq	r20,zero,29804 <__sfvwrite_r+0x31c>
   29814:	15400017 	ldw	r21,0(r2)
   29818:	a00d883a 	mov	r6,r20
   2981c:	01400284 	movi	r5,10
   29820:	a809883a 	mov	r4,r21
   29824:	0029cb40 	call	29cb4 <memchr>
   29828:	10004326 	beq	r2,zero,29938 <__sfvwrite_r+0x450>
   2982c:	10800044 	addi	r2,r2,1
   29830:	156fc83a 	sub	r23,r2,r21
   29834:	003fbf06 	br	29734 <__sfvwrite_r+0x24c>
   29838:	a80b883a 	mov	r5,r21
   2983c:	900d883a 	mov	r6,r18
   29840:	0029e840 	call	29e84 <memmove>
   29844:	80800017 	ldw	r2,0(r16)
   29848:	800b883a 	mov	r5,r16
   2984c:	9809883a 	mov	r4,r19
   29850:	1485883a 	add	r2,r2,r18
   29854:	80800015 	stw	r2,0(r16)
   29858:	0028ba40 	call	28ba4 <_fflush_r>
   2985c:	103fc826 	beq	r2,zero,29780 <__sfvwrite_r+0x298>
   29860:	003fe106 	br	297e8 <__sfvwrite_r+0x300>
   29864:	80800417 	ldw	r2,16(r16)
   29868:	11c01236 	bltu	r2,r7,298b4 <__sfvwrite_r+0x3cc>
   2986c:	81400517 	ldw	r5,20(r16)
   29870:	91401036 	bltu	r18,r5,298b4 <__sfvwrite_r+0x3cc>
   29874:	00a00034 	movhi	r2,32768
   29878:	902f883a 	mov	r23,r18
   2987c:	90800136 	bltu	r18,r2,29884 <__sfvwrite_r+0x39c>
   29880:	ddc00017 	ldw	r23,0(sp)
   29884:	b809883a 	mov	r4,r23
   29888:	0022fa80 	call	22fa8 <__modsi3>
   2988c:	80c00917 	ldw	r3,36(r16)
   29890:	81400717 	ldw	r5,28(r16)
   29894:	b88fc83a 	sub	r7,r23,r2
   29898:	b00d883a 	mov	r6,r22
   2989c:	9809883a 	mov	r4,r19
   298a0:	183ee83a 	callr	r3
   298a4:	102f883a 	mov	r23,r2
   298a8:	00bfcf0e 	bge	zero,r2,297e8 <__sfvwrite_r+0x300>
   298ac:	95e5c83a 	sub	r18,r18,r23
   298b0:	003f8b06 	br	296e0 <__sfvwrite_r+0x1f8>
   298b4:	182f883a 	mov	r23,r3
   298b8:	90c0012e 	bgeu	r18,r3,298c0 <__sfvwrite_r+0x3d8>
   298bc:	902f883a 	mov	r23,r18
   298c0:	3809883a 	mov	r4,r7
   298c4:	b80d883a 	mov	r6,r23
   298c8:	b00b883a 	mov	r5,r22
   298cc:	0029e840 	call	29e84 <memmove>
   298d0:	80c00217 	ldw	r3,8(r16)
   298d4:	81c00017 	ldw	r7,0(r16)
   298d8:	1dc7c83a 	sub	r3,r3,r23
   298dc:	3dcf883a 	add	r7,r7,r23
   298e0:	80c00215 	stw	r3,8(r16)
   298e4:	81c00015 	stw	r7,0(r16)
   298e8:	183ff01e 	bne	r3,zero,298ac <__sfvwrite_r+0x3c4>
   298ec:	800b883a 	mov	r5,r16
   298f0:	9809883a 	mov	r4,r19
   298f4:	0028ba40 	call	28ba4 <_fflush_r>
   298f8:	103fec26 	beq	r2,zero,298ac <__sfvwrite_r+0x3c4>
   298fc:	003fba06 	br	297e8 <__sfvwrite_r+0x300>
   29900:	9029883a 	mov	r20,r18
   29904:	902b883a 	mov	r21,r18
   29908:	003f6a06 	br	296b4 <__sfvwrite_r+0x1cc>
   2990c:	b00d883a 	mov	r6,r22
   29910:	a80b883a 	mov	r5,r21
   29914:	0029e840 	call	29e84 <memmove>
   29918:	80c00217 	ldw	r3,8(r16)
   2991c:	80800017 	ldw	r2,0(r16)
   29920:	b025883a 	mov	r18,r22
   29924:	1d87c83a 	sub	r3,r3,r22
   29928:	1585883a 	add	r2,r2,r22
   2992c:	80c00215 	stw	r3,8(r16)
   29930:	80800015 	stw	r2,0(r16)
   29934:	003f9206 	br	29780 <__sfvwrite_r+0x298>
   29938:	a0800044 	addi	r2,r20,1
   2993c:	102f883a 	mov	r23,r2
   29940:	003f7d06 	br	29738 <__sfvwrite_r+0x250>
   29944:	280d883a 	mov	r6,r5
   29948:	200b883a 	mov	r5,r4
   2994c:	9809883a 	mov	r4,r19
   29950:	002b3100 	call	2b310 <_realloc_r>
   29954:	1007883a 	mov	r3,r2
   29958:	103f4e1e 	bne	r2,zero,29694 <__sfvwrite_r+0x1ac>
   2995c:	81400417 	ldw	r5,16(r16)
   29960:	9809883a 	mov	r4,r19
   29964:	00291e00 	call	291e0 <_free_r>
   29968:	8080030b 	ldhu	r2,12(r16)
   2996c:	00c00304 	movi	r3,12
   29970:	98c00015 	stw	r3,0(r19)
   29974:	10bfdfcc 	andi	r2,r2,65407
   29978:	003f9c06 	br	297ec <__sfvwrite_r+0x304>
   2997c:	00c00304 	movi	r3,12
   29980:	8080030b 	ldhu	r2,12(r16)
   29984:	98c00015 	stw	r3,0(r19)
   29988:	003f9806 	br	297ec <__sfvwrite_r+0x304>

0002998c <_fwalk>:
   2998c:	defffa04 	addi	sp,sp,-24
   29990:	dd000415 	stw	r20,16(sp)
   29994:	dcc00315 	stw	r19,12(sp)
   29998:	dc800215 	stw	r18,8(sp)
   2999c:	dfc00515 	stw	ra,20(sp)
   299a0:	dc400115 	stw	r17,4(sp)
   299a4:	dc000015 	stw	r16,0(sp)
   299a8:	2827883a 	mov	r19,r5
   299ac:	2480b804 	addi	r18,r4,736
   299b0:	0029883a 	mov	r20,zero
   299b4:	94400117 	ldw	r17,4(r18)
   299b8:	94000217 	ldw	r16,8(r18)
   299bc:	8c7fffc4 	addi	r17,r17,-1
   299c0:	88000d16 	blt	r17,zero,299f8 <_fwalk+0x6c>
   299c4:	8080030b 	ldhu	r2,12(r16)
   299c8:	8c7fffc4 	addi	r17,r17,-1
   299cc:	108000b0 	cmpltui	r2,r2,2
   299d0:	1000061e 	bne	r2,zero,299ec <_fwalk+0x60>
   299d4:	8080038f 	ldh	r2,14(r16)
   299d8:	8009883a 	mov	r4,r16
   299dc:	10bfffe0 	cmpeqi	r2,r2,-1
   299e0:	1000021e 	bne	r2,zero,299ec <_fwalk+0x60>
   299e4:	983ee83a 	callr	r19
   299e8:	a0a8b03a 	or	r20,r20,r2
   299ec:	88bfffd8 	cmpnei	r2,r17,-1
   299f0:	84001a04 	addi	r16,r16,104
   299f4:	103ff31e 	bne	r2,zero,299c4 <_fwalk+0x38>
   299f8:	94800017 	ldw	r18,0(r18)
   299fc:	903fed1e 	bne	r18,zero,299b4 <_fwalk+0x28>
   29a00:	a005883a 	mov	r2,r20
   29a04:	dfc00517 	ldw	ra,20(sp)
   29a08:	dd000417 	ldw	r20,16(sp)
   29a0c:	dcc00317 	ldw	r19,12(sp)
   29a10:	dc800217 	ldw	r18,8(sp)
   29a14:	dc400117 	ldw	r17,4(sp)
   29a18:	dc000017 	ldw	r16,0(sp)
   29a1c:	dec00604 	addi	sp,sp,24
   29a20:	f800283a 	ret

00029a24 <_fwalk_reent>:
   29a24:	defff904 	addi	sp,sp,-28
   29a28:	dd400515 	stw	r21,20(sp)
   29a2c:	dd000415 	stw	r20,16(sp)
   29a30:	dcc00315 	stw	r19,12(sp)
   29a34:	dc800215 	stw	r18,8(sp)
   29a38:	dfc00615 	stw	ra,24(sp)
   29a3c:	dc400115 	stw	r17,4(sp)
   29a40:	dc000015 	stw	r16,0(sp)
   29a44:	2025883a 	mov	r18,r4
   29a48:	2829883a 	mov	r20,r5
   29a4c:	24c0b804 	addi	r19,r4,736
   29a50:	002b883a 	mov	r21,zero
   29a54:	9c400117 	ldw	r17,4(r19)
   29a58:	9c000217 	ldw	r16,8(r19)
   29a5c:	8c7fffc4 	addi	r17,r17,-1
   29a60:	88000e16 	blt	r17,zero,29a9c <_fwalk_reent+0x78>
   29a64:	8080030b 	ldhu	r2,12(r16)
   29a68:	8c7fffc4 	addi	r17,r17,-1
   29a6c:	108000b0 	cmpltui	r2,r2,2
   29a70:	1000071e 	bne	r2,zero,29a90 <_fwalk_reent+0x6c>
   29a74:	8080038f 	ldh	r2,14(r16)
   29a78:	800b883a 	mov	r5,r16
   29a7c:	9009883a 	mov	r4,r18
   29a80:	10bfffe0 	cmpeqi	r2,r2,-1
   29a84:	1000021e 	bne	r2,zero,29a90 <_fwalk_reent+0x6c>
   29a88:	a03ee83a 	callr	r20
   29a8c:	a8aab03a 	or	r21,r21,r2
   29a90:	88bfffd8 	cmpnei	r2,r17,-1
   29a94:	84001a04 	addi	r16,r16,104
   29a98:	103ff21e 	bne	r2,zero,29a64 <_fwalk_reent+0x40>
   29a9c:	9cc00017 	ldw	r19,0(r19)
   29aa0:	983fec1e 	bne	r19,zero,29a54 <_fwalk_reent+0x30>
   29aa4:	a805883a 	mov	r2,r21
   29aa8:	dfc00617 	ldw	ra,24(sp)
   29aac:	dd400517 	ldw	r21,20(sp)
   29ab0:	dd000417 	ldw	r20,16(sp)
   29ab4:	dcc00317 	ldw	r19,12(sp)
   29ab8:	dc800217 	ldw	r18,8(sp)
   29abc:	dc400117 	ldw	r17,4(sp)
   29ac0:	dc000017 	ldw	r16,0(sp)
   29ac4:	dec00704 	addi	sp,sp,28
   29ac8:	f800283a 	ret

00029acc <_getc_r>:
   29acc:	defffd04 	addi	sp,sp,-12
   29ad0:	dc000115 	stw	r16,4(sp)
   29ad4:	dfc00215 	stw	ra,8(sp)
   29ad8:	2021883a 	mov	r16,r4
   29adc:	20000226 	beq	r4,zero,29ae8 <_getc_r+0x1c>
   29ae0:	20800e17 	ldw	r2,56(r4)
   29ae4:	10000c26 	beq	r2,zero,29b18 <_getc_r+0x4c>
   29ae8:	28800117 	ldw	r2,4(r5)
   29aec:	10bfffc4 	addi	r2,r2,-1
   29af0:	28800115 	stw	r2,4(r5)
   29af4:	10000f16 	blt	r2,zero,29b34 <_getc_r+0x68>
   29af8:	28800017 	ldw	r2,0(r5)
   29afc:	10c00044 	addi	r3,r2,1
   29b00:	28c00015 	stw	r3,0(r5)
   29b04:	10800003 	ldbu	r2,0(r2)
   29b08:	dfc00217 	ldw	ra,8(sp)
   29b0c:	dc000117 	ldw	r16,4(sp)
   29b10:	dec00304 	addi	sp,sp,12
   29b14:	f800283a 	ret
   29b18:	d9400015 	stw	r5,0(sp)
   29b1c:	0028fbc0 	call	28fbc <__sinit>
   29b20:	d9400017 	ldw	r5,0(sp)
   29b24:	28800117 	ldw	r2,4(r5)
   29b28:	10bfffc4 	addi	r2,r2,-1
   29b2c:	28800115 	stw	r2,4(r5)
   29b30:	103ff10e 	bge	r2,zero,29af8 <_getc_r+0x2c>
   29b34:	8009883a 	mov	r4,r16
   29b38:	dfc00217 	ldw	ra,8(sp)
   29b3c:	dc000117 	ldw	r16,4(sp)
   29b40:	dec00304 	addi	sp,sp,12
   29b44:	002b9041 	jmpi	2b904 <__srget_r>

00029b48 <getc>:
   29b48:	defffd04 	addi	sp,sp,-12
   29b4c:	008000f4 	movhi	r2,3
   29b50:	dc400115 	stw	r17,4(sp)
   29b54:	145cd017 	ldw	r17,29504(r2)
   29b58:	dc000015 	stw	r16,0(sp)
   29b5c:	dfc00215 	stw	ra,8(sp)
   29b60:	2021883a 	mov	r16,r4
   29b64:	88000226 	beq	r17,zero,29b70 <getc+0x28>
   29b68:	88800e17 	ldw	r2,56(r17)
   29b6c:	10000d26 	beq	r2,zero,29ba4 <getc+0x5c>
   29b70:	80800117 	ldw	r2,4(r16)
   29b74:	10bfffc4 	addi	r2,r2,-1
   29b78:	80800115 	stw	r2,4(r16)
   29b7c:	10000f16 	blt	r2,zero,29bbc <getc+0x74>
   29b80:	80800017 	ldw	r2,0(r16)
   29b84:	10c00044 	addi	r3,r2,1
   29b88:	80c00015 	stw	r3,0(r16)
   29b8c:	10800003 	ldbu	r2,0(r2)
   29b90:	dfc00217 	ldw	ra,8(sp)
   29b94:	dc400117 	ldw	r17,4(sp)
   29b98:	dc000017 	ldw	r16,0(sp)
   29b9c:	dec00304 	addi	sp,sp,12
   29ba0:	f800283a 	ret
   29ba4:	8809883a 	mov	r4,r17
   29ba8:	0028fbc0 	call	28fbc <__sinit>
   29bac:	80800117 	ldw	r2,4(r16)
   29bb0:	10bfffc4 	addi	r2,r2,-1
   29bb4:	80800115 	stw	r2,4(r16)
   29bb8:	103ff10e 	bge	r2,zero,29b80 <getc+0x38>
   29bbc:	800b883a 	mov	r5,r16
   29bc0:	8809883a 	mov	r4,r17
   29bc4:	dfc00217 	ldw	ra,8(sp)
   29bc8:	dc400117 	ldw	r17,4(sp)
   29bcc:	dc000017 	ldw	r16,0(sp)
   29bd0:	dec00304 	addi	sp,sp,12
   29bd4:	002b9041 	jmpi	2b904 <__srget_r>

00029bd8 <_isatty_r>:
   29bd8:	defffe04 	addi	sp,sp,-8
   29bdc:	dc000015 	stw	r16,0(sp)
   29be0:	00800134 	movhi	r2,4
   29be4:	2021883a 	mov	r16,r4
   29be8:	2809883a 	mov	r4,r5
   29bec:	dfc00115 	stw	ra,4(sp)
   29bf0:	1025f115 	stw	zero,-26684(r2)
   29bf4:	00312740 	call	31274 <isatty>
   29bf8:	10ffffd8 	cmpnei	r3,r2,-1
   29bfc:	18000426 	beq	r3,zero,29c10 <_isatty_r+0x38>
   29c00:	dfc00117 	ldw	ra,4(sp)
   29c04:	dc000017 	ldw	r16,0(sp)
   29c08:	dec00204 	addi	sp,sp,8
   29c0c:	f800283a 	ret
   29c10:	00c00134 	movhi	r3,4
   29c14:	18e5f117 	ldw	r3,-26684(r3)
   29c18:	183ff926 	beq	r3,zero,29c00 <_isatty_r+0x28>
   29c1c:	80c00015 	stw	r3,0(r16)
   29c20:	dfc00117 	ldw	ra,4(sp)
   29c24:	dc000017 	ldw	r16,0(sp)
   29c28:	dec00204 	addi	sp,sp,8
   29c2c:	f800283a 	ret

00029c30 <__localeconv_l>:
   29c30:	20803c04 	addi	r2,r4,240
   29c34:	f800283a 	ret

00029c38 <_localeconv_r>:
   29c38:	008000f4 	movhi	r2,3
   29c3c:	1097fa04 	addi	r2,r2,24552
   29c40:	f800283a 	ret

00029c44 <localeconv>:
   29c44:	008000f4 	movhi	r2,3
   29c48:	1097fa04 	addi	r2,r2,24552
   29c4c:	f800283a 	ret

00029c50 <_lseek_r>:
   29c50:	2807883a 	mov	r3,r5
   29c54:	defffe04 	addi	sp,sp,-8
   29c58:	dc000015 	stw	r16,0(sp)
   29c5c:	300b883a 	mov	r5,r6
   29c60:	00800134 	movhi	r2,4
   29c64:	380d883a 	mov	r6,r7
   29c68:	2021883a 	mov	r16,r4
   29c6c:	1809883a 	mov	r4,r3
   29c70:	dfc00115 	stw	ra,4(sp)
   29c74:	1025f115 	stw	zero,-26684(r2)
   29c78:	003156c0 	call	3156c <lseek>
   29c7c:	10ffffd8 	cmpnei	r3,r2,-1
   29c80:	18000426 	beq	r3,zero,29c94 <_lseek_r+0x44>
   29c84:	dfc00117 	ldw	ra,4(sp)
   29c88:	dc000017 	ldw	r16,0(sp)
   29c8c:	dec00204 	addi	sp,sp,8
   29c90:	f800283a 	ret
   29c94:	00c00134 	movhi	r3,4
   29c98:	18e5f117 	ldw	r3,-26684(r3)
   29c9c:	183ff926 	beq	r3,zero,29c84 <_lseek_r+0x34>
   29ca0:	80c00015 	stw	r3,0(r16)
   29ca4:	dfc00117 	ldw	ra,4(sp)
   29ca8:	dc000017 	ldw	r16,0(sp)
   29cac:	dec00204 	addi	sp,sp,8
   29cb0:	f800283a 	ret

00029cb4 <memchr>:
   29cb4:	208000cc 	andi	r2,r4,3
   29cb8:	280f883a 	mov	r7,r5
   29cbc:	10000e26 	beq	r2,zero,29cf8 <memchr+0x44>
   29cc0:	30bfffc4 	addi	r2,r6,-1
   29cc4:	30001726 	beq	r6,zero,29d24 <memchr+0x70>
   29cc8:	29803fcc 	andi	r6,r5,255
   29ccc:	00000606 	br	29ce8 <memchr+0x34>
   29cd0:	21000044 	addi	r4,r4,1
   29cd4:	20c000cc 	andi	r3,r4,3
   29cd8:	18000826 	beq	r3,zero,29cfc <memchr+0x48>
   29cdc:	10bfffc4 	addi	r2,r2,-1
   29ce0:	10ffffe0 	cmpeqi	r3,r2,-1
   29ce4:	18000f1e 	bne	r3,zero,29d24 <memchr+0x70>
   29ce8:	20c00003 	ldbu	r3,0(r4)
   29cec:	19bff81e 	bne	r3,r6,29cd0 <memchr+0x1c>
   29cf0:	2005883a 	mov	r2,r4
   29cf4:	f800283a 	ret
   29cf8:	3005883a 	mov	r2,r6
   29cfc:	10c00130 	cmpltui	r3,r2,4
   29d00:	18000a26 	beq	r3,zero,29d2c <memchr+0x78>
   29d04:	10001e26 	beq	r2,zero,29d80 <memchr+0xcc>
   29d08:	2087883a 	add	r3,r4,r2
   29d0c:	39803fcc 	andi	r6,r7,255
   29d10:	2005883a 	mov	r2,r4
   29d14:	11000003 	ldbu	r4,0(r2)
   29d18:	21bff626 	beq	r4,r6,29cf4 <memchr+0x40>
   29d1c:	10800044 	addi	r2,r2,1
   29d20:	18bffc1e 	bne	r3,r2,29d14 <memchr+0x60>
   29d24:	0005883a 	mov	r2,zero
   29d28:	f800283a 	ret
   29d2c:	00c04074 	movhi	r3,257
   29d30:	29403fcc 	andi	r5,r5,255
   29d34:	18c04044 	addi	r3,r3,257
   29d38:	027fbff4 	movhi	r9,65279
   29d3c:	02202074 	movhi	r8,32897
   29d40:	28cd383a 	mul	r6,r5,r3
   29d44:	4a7fbfc4 	addi	r9,r9,-257
   29d48:	42202004 	addi	r8,r8,-32640
   29d4c:	00000406 	br	29d60 <memchr+0xac>
   29d50:	10bfff04 	addi	r2,r2,-4
   29d54:	10c00128 	cmpgeui	r3,r2,4
   29d58:	21000104 	addi	r4,r4,4
   29d5c:	183fe926 	beq	r3,zero,29d04 <memchr+0x50>
   29d60:	20c00017 	ldw	r3,0(r4)
   29d64:	30c6f03a 	xor	r3,r6,r3
   29d68:	1a4b883a 	add	r5,r3,r9
   29d6c:	00c6303a 	nor	r3,zero,r3
   29d70:	28c6703a 	and	r3,r5,r3
   29d74:	1a06703a 	and	r3,r3,r8
   29d78:	183ff526 	beq	r3,zero,29d50 <memchr+0x9c>
   29d7c:	003fe106 	br	29d04 <memchr+0x50>
   29d80:	f800283a 	ret

00029d84 <memcpy>:
   29d84:	30c00428 	cmpgeui	r3,r6,16
   29d88:	2005883a 	mov	r2,r4
   29d8c:	18000b1e 	bne	r3,zero,29dbc <memcpy+0x38>
   29d90:	2007883a 	mov	r3,r4
   29d94:	31ffffc4 	addi	r7,r6,-1
   29d98:	30003426 	beq	r6,zero,29e6c <memcpy+0xe8>
   29d9c:	39c00044 	addi	r7,r7,1
   29da0:	19cf883a 	add	r7,r3,r7
   29da4:	29800003 	ldbu	r6,0(r5)
   29da8:	18c00044 	addi	r3,r3,1
   29dac:	29400044 	addi	r5,r5,1
   29db0:	19bfffc5 	stb	r6,-1(r3)
   29db4:	38fffb1e 	bne	r7,r3,29da4 <memcpy+0x20>
   29db8:	f800283a 	ret
   29dbc:	2146b03a 	or	r3,r4,r5
   29dc0:	18c000cc 	andi	r3,r3,3
   29dc4:	18002a1e 	bne	r3,zero,29e70 <memcpy+0xec>
   29dc8:	333ffc04 	addi	r12,r6,-16
   29dcc:	6018d13a 	srli	r12,r12,4
   29dd0:	2811883a 	mov	r8,r5
   29dd4:	200f883a 	mov	r7,r4
   29dd8:	63000044 	addi	r12,r12,1
   29ddc:	6018913a 	slli	r12,r12,4
   29de0:	2307883a 	add	r3,r4,r12
   29de4:	42c00017 	ldw	r11,0(r8)
   29de8:	42800117 	ldw	r10,4(r8)
   29dec:	42400217 	ldw	r9,8(r8)
   29df0:	41000317 	ldw	r4,12(r8)
   29df4:	39c00404 	addi	r7,r7,16
   29df8:	3afffc15 	stw	r11,-16(r7)
   29dfc:	3abffd15 	stw	r10,-12(r7)
   29e00:	3a7ffe15 	stw	r9,-8(r7)
   29e04:	393fff15 	stw	r4,-4(r7)
   29e08:	42000404 	addi	r8,r8,16
   29e0c:	38fff51e 	bne	r7,r3,29de4 <memcpy+0x60>
   29e10:	3100030c 	andi	r4,r6,12
   29e14:	2b0b883a 	add	r5,r5,r12
   29e18:	324003cc 	andi	r9,r6,15
   29e1c:	20001726 	beq	r4,zero,29e7c <memcpy+0xf8>
   29e20:	2811883a 	mov	r8,r5
   29e24:	1809883a 	mov	r4,r3
   29e28:	1a57883a 	add	r11,r3,r9
   29e2c:	42800017 	ldw	r10,0(r8)
   29e30:	21000104 	addi	r4,r4,4
   29e34:	590fc83a 	sub	r7,r11,r4
   29e38:	39c00128 	cmpgeui	r7,r7,4
   29e3c:	22bfff15 	stw	r10,-4(r4)
   29e40:	42000104 	addi	r8,r8,4
   29e44:	383ff91e 	bne	r7,zero,29e2c <memcpy+0xa8>
   29e48:	493fff04 	addi	r4,r9,-4
   29e4c:	2008d0ba 	srli	r4,r4,2
   29e50:	318000cc 	andi	r6,r6,3
   29e54:	31ffffc4 	addi	r7,r6,-1
   29e58:	21000044 	addi	r4,r4,1
   29e5c:	200890ba 	slli	r4,r4,2
   29e60:	1907883a 	add	r3,r3,r4
   29e64:	290b883a 	add	r5,r5,r4
   29e68:	303fcc1e 	bne	r6,zero,29d9c <memcpy+0x18>
   29e6c:	f800283a 	ret
   29e70:	31ffffc4 	addi	r7,r6,-1
   29e74:	2007883a 	mov	r3,r4
   29e78:	003fc806 	br	29d9c <memcpy+0x18>
   29e7c:	480d883a 	mov	r6,r9
   29e80:	003fc406 	br	29d94 <memcpy+0x10>

00029e84 <memmove>:
   29e84:	2005883a 	mov	r2,r4
   29e88:	29000a2e 	bgeu	r5,r4,29eb4 <memmove+0x30>
   29e8c:	298f883a 	add	r7,r5,r6
   29e90:	21c0082e 	bgeu	r4,r7,29eb4 <memmove+0x30>
   29e94:	2187883a 	add	r3,r4,r6
   29e98:	30001226 	beq	r6,zero,29ee4 <memmove+0x60>
   29e9c:	397fffc3 	ldbu	r5,-1(r7)
   29ea0:	18ffffc4 	addi	r3,r3,-1
   29ea4:	39ffffc4 	addi	r7,r7,-1
   29ea8:	19400005 	stb	r5,0(r3)
   29eac:	10fffb1e 	bne	r2,r3,29e9c <memmove+0x18>
   29eb0:	f800283a 	ret
   29eb4:	30c00428 	cmpgeui	r3,r6,16
   29eb8:	18000b1e 	bne	r3,zero,29ee8 <memmove+0x64>
   29ebc:	1007883a 	mov	r3,r2
   29ec0:	31ffffc4 	addi	r7,r6,-1
   29ec4:	30003626 	beq	r6,zero,29fa0 <memmove+0x11c>
   29ec8:	39c00044 	addi	r7,r7,1
   29ecc:	19cf883a 	add	r7,r3,r7
   29ed0:	29800003 	ldbu	r6,0(r5)
   29ed4:	18c00044 	addi	r3,r3,1
   29ed8:	29400044 	addi	r5,r5,1
   29edc:	19bfffc5 	stb	r6,-1(r3)
   29ee0:	19fffb1e 	bne	r3,r7,29ed0 <memmove+0x4c>
   29ee4:	f800283a 	ret
   29ee8:	1146b03a 	or	r3,r2,r5
   29eec:	18c000cc 	andi	r3,r3,3
   29ef0:	1800281e 	bne	r3,zero,29f94 <memmove+0x110>
   29ef4:	313ffc04 	addi	r4,r6,-16
   29ef8:	2008d13a 	srli	r4,r4,4
   29efc:	2811883a 	mov	r8,r5
   29f00:	100f883a 	mov	r7,r2
   29f04:	21000044 	addi	r4,r4,1
   29f08:	2008913a 	slli	r4,r4,4
   29f0c:	1107883a 	add	r3,r2,r4
   29f10:	42400017 	ldw	r9,0(r8)
   29f14:	42000404 	addi	r8,r8,16
   29f18:	39c00404 	addi	r7,r7,16
   29f1c:	3a7ffc15 	stw	r9,-16(r7)
   29f20:	427ffd17 	ldw	r9,-12(r8)
   29f24:	3a7ffd15 	stw	r9,-12(r7)
   29f28:	427ffe17 	ldw	r9,-8(r8)
   29f2c:	3a7ffe15 	stw	r9,-8(r7)
   29f30:	427fff17 	ldw	r9,-4(r8)
   29f34:	3a7fff15 	stw	r9,-4(r7)
   29f38:	38fff51e 	bne	r7,r3,29f10 <memmove+0x8c>
   29f3c:	31c0030c 	andi	r7,r6,12
   29f40:	290b883a 	add	r5,r5,r4
   29f44:	324003cc 	andi	r9,r6,15
   29f48:	38001626 	beq	r7,zero,29fa4 <memmove+0x120>
   29f4c:	2809883a 	mov	r4,r5
   29f50:	180f883a 	mov	r7,r3
   29f54:	1a57883a 	add	r11,r3,r9
   29f58:	22800017 	ldw	r10,0(r4)
   29f5c:	39c00104 	addi	r7,r7,4
   29f60:	59d1c83a 	sub	r8,r11,r7
   29f64:	42000128 	cmpgeui	r8,r8,4
   29f68:	3abfff15 	stw	r10,-4(r7)
   29f6c:	21000104 	addi	r4,r4,4
   29f70:	403ff91e 	bne	r8,zero,29f58 <memmove+0xd4>
   29f74:	493fff04 	addi	r4,r9,-4
   29f78:	2008d0ba 	srli	r4,r4,2
   29f7c:	318000cc 	andi	r6,r6,3
   29f80:	21000044 	addi	r4,r4,1
   29f84:	200890ba 	slli	r4,r4,2
   29f88:	1907883a 	add	r3,r3,r4
   29f8c:	290b883a 	add	r5,r5,r4
   29f90:	003fcb06 	br	29ec0 <memmove+0x3c>
   29f94:	31ffffc4 	addi	r7,r6,-1
   29f98:	1007883a 	mov	r3,r2
   29f9c:	003fca06 	br	29ec8 <memmove+0x44>
   29fa0:	f800283a 	ret
   29fa4:	480d883a 	mov	r6,r9
   29fa8:	003fc506 	br	29ec0 <memmove+0x3c>

00029fac <_Balloc>:
   29fac:	20801317 	ldw	r2,76(r4)
   29fb0:	defffc04 	addi	sp,sp,-16
   29fb4:	dc400115 	stw	r17,4(sp)
   29fb8:	dc000015 	stw	r16,0(sp)
   29fbc:	dfc00315 	stw	ra,12(sp)
   29fc0:	dc800215 	stw	r18,8(sp)
   29fc4:	2021883a 	mov	r16,r4
   29fc8:	2823883a 	mov	r17,r5
   29fcc:	10000e26 	beq	r2,zero,2a008 <_Balloc+0x5c>
   29fd0:	880690ba 	slli	r3,r17,2
   29fd4:	10c7883a 	add	r3,r2,r3
   29fd8:	18800017 	ldw	r2,0(r3)
   29fdc:	10001126 	beq	r2,zero,2a024 <_Balloc+0x78>
   29fe0:	11000017 	ldw	r4,0(r2)
   29fe4:	19000015 	stw	r4,0(r3)
   29fe8:	10000415 	stw	zero,16(r2)
   29fec:	10000315 	stw	zero,12(r2)
   29ff0:	dfc00317 	ldw	ra,12(sp)
   29ff4:	dc800217 	ldw	r18,8(sp)
   29ff8:	dc400117 	ldw	r17,4(sp)
   29ffc:	dc000017 	ldw	r16,0(sp)
   2a000:	dec00404 	addi	sp,sp,16
   2a004:	f800283a 	ret
   2a008:	01800844 	movi	r6,33
   2a00c:	01400104 	movi	r5,4
   2a010:	002d0280 	call	2d028 <_calloc_r>
   2a014:	80801315 	stw	r2,76(r16)
   2a018:	103fed1e 	bne	r2,zero,29fd0 <_Balloc+0x24>
   2a01c:	0005883a 	mov	r2,zero
   2a020:	003ff306 	br	29ff0 <_Balloc+0x44>
   2a024:	04800044 	movi	r18,1
   2a028:	9464983a 	sll	r18,r18,r17
   2a02c:	01400044 	movi	r5,1
   2a030:	8009883a 	mov	r4,r16
   2a034:	91800144 	addi	r6,r18,5
   2a038:	300c90ba 	slli	r6,r6,2
   2a03c:	002d0280 	call	2d028 <_calloc_r>
   2a040:	103ff626 	beq	r2,zero,2a01c <_Balloc+0x70>
   2a044:	14400115 	stw	r17,4(r2)
   2a048:	14800215 	stw	r18,8(r2)
   2a04c:	003fe606 	br	29fe8 <_Balloc+0x3c>

0002a050 <_Bfree>:
   2a050:	28000726 	beq	r5,zero,2a070 <_Bfree+0x20>
   2a054:	28c00117 	ldw	r3,4(r5)
   2a058:	20801317 	ldw	r2,76(r4)
   2a05c:	180690ba 	slli	r3,r3,2
   2a060:	10c5883a 	add	r2,r2,r3
   2a064:	10c00017 	ldw	r3,0(r2)
   2a068:	28c00015 	stw	r3,0(r5)
   2a06c:	11400015 	stw	r5,0(r2)
   2a070:	f800283a 	ret

0002a074 <__multadd>:
   2a074:	defffa04 	addi	sp,sp,-24
   2a078:	dc400115 	stw	r17,4(sp)
   2a07c:	2c400417 	ldw	r17,16(r5)
   2a080:	dcc00315 	stw	r19,12(sp)
   2a084:	dc800215 	stw	r18,8(sp)
   2a088:	dc000015 	stw	r16,0(sp)
   2a08c:	dfc00515 	stw	ra,20(sp)
   2a090:	dd000415 	stw	r20,16(sp)
   2a094:	2825883a 	mov	r18,r5
   2a098:	2027883a 	mov	r19,r4
   2a09c:	3821883a 	mov	r16,r7
   2a0a0:	2a400504 	addi	r9,r5,20
   2a0a4:	0015883a 	mov	r10,zero
   2a0a8:	48c00017 	ldw	r3,0(r9)
   2a0ac:	4a400104 	addi	r9,r9,4
   2a0b0:	52800044 	addi	r10,r10,1
   2a0b4:	1a3fffcc 	andi	r8,r3,65535
   2a0b8:	4191383a 	mul	r8,r8,r6
   2a0bc:	180ed43a 	srli	r7,r3,16
   2a0c0:	4407883a 	add	r3,r8,r16
   2a0c4:	1810d43a 	srli	r8,r3,16
   2a0c8:	398f383a 	mul	r7,r7,r6
   2a0cc:	18ffffcc 	andi	r3,r3,65535
   2a0d0:	3a0f883a 	add	r7,r7,r8
   2a0d4:	3810943a 	slli	r8,r7,16
   2a0d8:	3820d43a 	srli	r16,r7,16
   2a0dc:	40c7883a 	add	r3,r8,r3
   2a0e0:	48ffff15 	stw	r3,-4(r9)
   2a0e4:	547ff016 	blt	r10,r17,2a0a8 <__multadd+0x34>
   2a0e8:	80000826 	beq	r16,zero,2a10c <__multadd+0x98>
   2a0ec:	90800217 	ldw	r2,8(r18)
   2a0f0:	88800f0e 	bge	r17,r2,2a130 <__multadd+0xbc>
   2a0f4:	88800144 	addi	r2,r17,5
   2a0f8:	100490ba 	slli	r2,r2,2
   2a0fc:	8c400044 	addi	r17,r17,1
   2a100:	9085883a 	add	r2,r18,r2
   2a104:	14000015 	stw	r16,0(r2)
   2a108:	94400415 	stw	r17,16(r18)
   2a10c:	9005883a 	mov	r2,r18
   2a110:	dfc00517 	ldw	ra,20(sp)
   2a114:	dd000417 	ldw	r20,16(sp)
   2a118:	dcc00317 	ldw	r19,12(sp)
   2a11c:	dc800217 	ldw	r18,8(sp)
   2a120:	dc400117 	ldw	r17,4(sp)
   2a124:	dc000017 	ldw	r16,0(sp)
   2a128:	dec00604 	addi	sp,sp,24
   2a12c:	f800283a 	ret
   2a130:	91400117 	ldw	r5,4(r18)
   2a134:	9809883a 	mov	r4,r19
   2a138:	29400044 	addi	r5,r5,1
   2a13c:	0029fac0 	call	29fac <_Balloc>
   2a140:	1029883a 	mov	r20,r2
   2a144:	10001026 	beq	r2,zero,2a188 <__multadd+0x114>
   2a148:	91800417 	ldw	r6,16(r18)
   2a14c:	91400304 	addi	r5,r18,12
   2a150:	11000304 	addi	r4,r2,12
   2a154:	31800084 	addi	r6,r6,2
   2a158:	300c90ba 	slli	r6,r6,2
   2a15c:	0029d840 	call	29d84 <memcpy>
   2a160:	90000726 	beq	r18,zero,2a180 <__multadd+0x10c>
   2a164:	90c00117 	ldw	r3,4(r18)
   2a168:	98801317 	ldw	r2,76(r19)
   2a16c:	180690ba 	slli	r3,r3,2
   2a170:	10c5883a 	add	r2,r2,r3
   2a174:	10c00017 	ldw	r3,0(r2)
   2a178:	90c00015 	stw	r3,0(r18)
   2a17c:	14800015 	stw	r18,0(r2)
   2a180:	a025883a 	mov	r18,r20
   2a184:	003fdb06 	br	2a0f4 <__multadd+0x80>
   2a188:	01c000f4 	movhi	r7,3
   2a18c:	010000f4 	movhi	r4,3
   2a190:	39d25204 	addi	r7,r7,18760
   2a194:	000d883a 	mov	r6,zero
   2a198:	01402d44 	movi	r5,181
   2a19c:	21126604 	addi	r4,r4,18840
   2a1a0:	002cfb00 	call	2cfb0 <__assert_func>

0002a1a4 <__s2b>:
   2a1a4:	defff904 	addi	sp,sp,-28
   2a1a8:	dc800215 	stw	r18,8(sp)
   2a1ac:	dc000015 	stw	r16,0(sp)
   2a1b0:	2025883a 	mov	r18,r4
   2a1b4:	2821883a 	mov	r16,r5
   2a1b8:	39000204 	addi	r4,r7,8
   2a1bc:	01400244 	movi	r5,9
   2a1c0:	dcc00315 	stw	r19,12(sp)
   2a1c4:	dc400115 	stw	r17,4(sp)
   2a1c8:	dfc00615 	stw	ra,24(sp)
   2a1cc:	3823883a 	mov	r17,r7
   2a1d0:	dd400515 	stw	r21,20(sp)
   2a1d4:	dd000415 	stw	r20,16(sp)
   2a1d8:	3027883a 	mov	r19,r6
   2a1dc:	0022f280 	call	22f28 <__divsi3>
   2a1e0:	88c00290 	cmplti	r3,r17,10
   2a1e4:	1800341e 	bne	r3,zero,2a2b8 <__s2b+0x114>
   2a1e8:	00c00044 	movi	r3,1
   2a1ec:	000b883a 	mov	r5,zero
   2a1f0:	18c7883a 	add	r3,r3,r3
   2a1f4:	29400044 	addi	r5,r5,1
   2a1f8:	18bffd16 	blt	r3,r2,2a1f0 <__s2b+0x4c>
   2a1fc:	9009883a 	mov	r4,r18
   2a200:	0029fac0 	call	29fac <_Balloc>
   2a204:	100b883a 	mov	r5,r2
   2a208:	10002d26 	beq	r2,zero,2a2c0 <__s2b+0x11c>
   2a20c:	d8800717 	ldw	r2,28(sp)
   2a210:	28800515 	stw	r2,20(r5)
   2a214:	00800044 	movi	r2,1
   2a218:	28800415 	stw	r2,16(r5)
   2a21c:	98800290 	cmplti	r2,r19,10
   2a220:	1000221e 	bne	r2,zero,2a2ac <__s2b+0x108>
   2a224:	85400244 	addi	r21,r16,9
   2a228:	a829883a 	mov	r20,r21
   2a22c:	84e1883a 	add	r16,r16,r19
   2a230:	a1c00007 	ldb	r7,0(r20)
   2a234:	01800284 	movi	r6,10
   2a238:	9009883a 	mov	r4,r18
   2a23c:	39fff404 	addi	r7,r7,-48
   2a240:	002a0740 	call	2a074 <__multadd>
   2a244:	a5000044 	addi	r20,r20,1
   2a248:	100b883a 	mov	r5,r2
   2a24c:	a43ff81e 	bne	r20,r16,2a230 <__s2b+0x8c>
   2a250:	9c3ffe04 	addi	r16,r19,-8
   2a254:	ac21883a 	add	r16,r21,r16
   2a258:	9c400a0e 	bge	r19,r17,2a284 <__s2b+0xe0>
   2a25c:	8ce3c83a 	sub	r17,r17,r19
   2a260:	8463883a 	add	r17,r16,r17
   2a264:	81c00007 	ldb	r7,0(r16)
   2a268:	01800284 	movi	r6,10
   2a26c:	9009883a 	mov	r4,r18
   2a270:	39fff404 	addi	r7,r7,-48
   2a274:	002a0740 	call	2a074 <__multadd>
   2a278:	84000044 	addi	r16,r16,1
   2a27c:	100b883a 	mov	r5,r2
   2a280:	8c3ff81e 	bne	r17,r16,2a264 <__s2b+0xc0>
   2a284:	2805883a 	mov	r2,r5
   2a288:	dfc00617 	ldw	ra,24(sp)
   2a28c:	dd400517 	ldw	r21,20(sp)
   2a290:	dd000417 	ldw	r20,16(sp)
   2a294:	dcc00317 	ldw	r19,12(sp)
   2a298:	dc800217 	ldw	r18,8(sp)
   2a29c:	dc400117 	ldw	r17,4(sp)
   2a2a0:	dc000017 	ldw	r16,0(sp)
   2a2a4:	dec00704 	addi	sp,sp,28
   2a2a8:	f800283a 	ret
   2a2ac:	84000284 	addi	r16,r16,10
   2a2b0:	04c00244 	movi	r19,9
   2a2b4:	003fe806 	br	2a258 <__s2b+0xb4>
   2a2b8:	000b883a 	mov	r5,zero
   2a2bc:	003fcf06 	br	2a1fc <__s2b+0x58>
   2a2c0:	01c000f4 	movhi	r7,3
   2a2c4:	010000f4 	movhi	r4,3
   2a2c8:	39d25204 	addi	r7,r7,18760
   2a2cc:	000d883a 	mov	r6,zero
   2a2d0:	01403384 	movi	r5,206
   2a2d4:	21126604 	addi	r4,r4,18840
   2a2d8:	002cfb00 	call	2cfb0 <__assert_func>

0002a2dc <__hi0bits>:
   2a2dc:	00bfffd4 	movui	r2,65535
   2a2e0:	11001536 	bltu	r2,r4,2a338 <__hi0bits+0x5c>
   2a2e4:	2008943a 	slli	r4,r4,16
   2a2e8:	00800404 	movi	r2,16
   2a2ec:	00c04034 	movhi	r3,256
   2a2f0:	20c0022e 	bgeu	r4,r3,2a2fc <__hi0bits+0x20>
   2a2f4:	2008923a 	slli	r4,r4,8
   2a2f8:	10800204 	addi	r2,r2,8
   2a2fc:	00c40034 	movhi	r3,4096
   2a300:	20c0022e 	bgeu	r4,r3,2a30c <__hi0bits+0x30>
   2a304:	2008913a 	slli	r4,r4,4
   2a308:	10800104 	addi	r2,r2,4
   2a30c:	00d00034 	movhi	r3,16384
   2a310:	20c00336 	bltu	r4,r3,2a320 <__hi0bits+0x44>
   2a314:	20000716 	blt	r4,zero,2a334 <__hi0bits+0x58>
   2a318:	10800044 	addi	r2,r2,1
   2a31c:	f800283a 	ret
   2a320:	200890ba 	slli	r4,r4,2
   2a324:	20000616 	blt	r4,zero,2a340 <__hi0bits+0x64>
   2a328:	2110002c 	andhi	r4,r4,16384
   2a32c:	2000061e 	bne	r4,zero,2a348 <__hi0bits+0x6c>
   2a330:	00800804 	movi	r2,32
   2a334:	f800283a 	ret
   2a338:	0005883a 	mov	r2,zero
   2a33c:	003feb06 	br	2a2ec <__hi0bits+0x10>
   2a340:	10800084 	addi	r2,r2,2
   2a344:	f800283a 	ret
   2a348:	108000c4 	addi	r2,r2,3
   2a34c:	f800283a 	ret

0002a350 <__lo0bits>:
   2a350:	20c00017 	ldw	r3,0(r4)
   2a354:	188001cc 	andi	r2,r3,7
   2a358:	10000826 	beq	r2,zero,2a37c <__lo0bits+0x2c>
   2a35c:	1880004c 	andi	r2,r3,1
   2a360:	10001f1e 	bne	r2,zero,2a3e0 <__lo0bits+0x90>
   2a364:	1880008c 	andi	r2,r3,2
   2a368:	10002126 	beq	r2,zero,2a3f0 <__lo0bits+0xa0>
   2a36c:	1806d07a 	srli	r3,r3,1
   2a370:	00800044 	movi	r2,1
   2a374:	20c00015 	stw	r3,0(r4)
   2a378:	f800283a 	ret
   2a37c:	18bfffcc 	andi	r2,r3,65535
   2a380:	10001426 	beq	r2,zero,2a3d4 <__lo0bits+0x84>
   2a384:	0005883a 	mov	r2,zero
   2a388:	19403fcc 	andi	r5,r3,255
   2a38c:	2800021e 	bne	r5,zero,2a398 <__lo0bits+0x48>
   2a390:	1806d23a 	srli	r3,r3,8
   2a394:	10800204 	addi	r2,r2,8
   2a398:	194003cc 	andi	r5,r3,15
   2a39c:	2800021e 	bne	r5,zero,2a3a8 <__lo0bits+0x58>
   2a3a0:	1806d13a 	srli	r3,r3,4
   2a3a4:	10800104 	addi	r2,r2,4
   2a3a8:	194000cc 	andi	r5,r3,3
   2a3ac:	2800021e 	bne	r5,zero,2a3b8 <__lo0bits+0x68>
   2a3b0:	1806d0ba 	srli	r3,r3,2
   2a3b4:	10800084 	addi	r2,r2,2
   2a3b8:	1940004c 	andi	r5,r3,1
   2a3bc:	2800031e 	bne	r5,zero,2a3cc <__lo0bits+0x7c>
   2a3c0:	1806d07a 	srli	r3,r3,1
   2a3c4:	10800044 	addi	r2,r2,1
   2a3c8:	18000726 	beq	r3,zero,2a3e8 <__lo0bits+0x98>
   2a3cc:	20c00015 	stw	r3,0(r4)
   2a3d0:	f800283a 	ret
   2a3d4:	1806d43a 	srli	r3,r3,16
   2a3d8:	00800404 	movi	r2,16
   2a3dc:	003fea06 	br	2a388 <__lo0bits+0x38>
   2a3e0:	0005883a 	mov	r2,zero
   2a3e4:	f800283a 	ret
   2a3e8:	00800804 	movi	r2,32
   2a3ec:	f800283a 	ret
   2a3f0:	1806d0ba 	srli	r3,r3,2
   2a3f4:	00800084 	movi	r2,2
   2a3f8:	20c00015 	stw	r3,0(r4)
   2a3fc:	f800283a 	ret

0002a400 <__i2b>:
   2a400:	20c01317 	ldw	r3,76(r4)
   2a404:	defffd04 	addi	sp,sp,-12
   2a408:	dc400115 	stw	r17,4(sp)
   2a40c:	dc000015 	stw	r16,0(sp)
   2a410:	dfc00215 	stw	ra,8(sp)
   2a414:	2021883a 	mov	r16,r4
   2a418:	2823883a 	mov	r17,r5
   2a41c:	18000d26 	beq	r3,zero,2a454 <__i2b+0x54>
   2a420:	18800117 	ldw	r2,4(r3)
   2a424:	10001826 	beq	r2,zero,2a488 <__i2b+0x88>
   2a428:	11000017 	ldw	r4,0(r2)
   2a42c:	19000115 	stw	r4,4(r3)
   2a430:	00c00044 	movi	r3,1
   2a434:	10000315 	stw	zero,12(r2)
   2a438:	14400515 	stw	r17,20(r2)
   2a43c:	10c00415 	stw	r3,16(r2)
   2a440:	dfc00217 	ldw	ra,8(sp)
   2a444:	dc400117 	ldw	r17,4(sp)
   2a448:	dc000017 	ldw	r16,0(sp)
   2a44c:	dec00304 	addi	sp,sp,12
   2a450:	f800283a 	ret
   2a454:	01800844 	movi	r6,33
   2a458:	01400104 	movi	r5,4
   2a45c:	002d0280 	call	2d028 <_calloc_r>
   2a460:	80801315 	stw	r2,76(r16)
   2a464:	1007883a 	mov	r3,r2
   2a468:	103fed1e 	bne	r2,zero,2a420 <__i2b+0x20>
   2a46c:	01c000f4 	movhi	r7,3
   2a470:	010000f4 	movhi	r4,3
   2a474:	39d25204 	addi	r7,r7,18760
   2a478:	000d883a 	mov	r6,zero
   2a47c:	01405004 	movi	r5,320
   2a480:	21126604 	addi	r4,r4,18840
   2a484:	002cfb00 	call	2cfb0 <__assert_func>
   2a488:	01800704 	movi	r6,28
   2a48c:	01400044 	movi	r5,1
   2a490:	8009883a 	mov	r4,r16
   2a494:	002d0280 	call	2d028 <_calloc_r>
   2a498:	103ff426 	beq	r2,zero,2a46c <__i2b+0x6c>
   2a49c:	00c00044 	movi	r3,1
   2a4a0:	10c00115 	stw	r3,4(r2)
   2a4a4:	00c00084 	movi	r3,2
   2a4a8:	10c00215 	stw	r3,8(r2)
   2a4ac:	003fe006 	br	2a430 <__i2b+0x30>

0002a4b0 <__multiply>:
   2a4b0:	defff804 	addi	sp,sp,-32
   2a4b4:	dd400515 	stw	r21,20(sp)
   2a4b8:	dd000415 	stw	r20,16(sp)
   2a4bc:	35400417 	ldw	r21,16(r6)
   2a4c0:	2d000417 	ldw	r20,16(r5)
   2a4c4:	dd800615 	stw	r22,24(sp)
   2a4c8:	dcc00315 	stw	r19,12(sp)
   2a4cc:	dfc00715 	stw	ra,28(sp)
   2a4d0:	dc800215 	stw	r18,8(sp)
   2a4d4:	dc400115 	stw	r17,4(sp)
   2a4d8:	dc000015 	stw	r16,0(sp)
   2a4dc:	282d883a 	mov	r22,r5
   2a4e0:	3027883a 	mov	r19,r6
   2a4e4:	a5400516 	blt	r20,r21,2a4fc <__multiply+0x4c>
   2a4e8:	a807883a 	mov	r3,r21
   2a4ec:	2827883a 	mov	r19,r5
   2a4f0:	a02b883a 	mov	r21,r20
   2a4f4:	302d883a 	mov	r22,r6
   2a4f8:	1829883a 	mov	r20,r3
   2a4fc:	98800217 	ldw	r2,8(r19)
   2a500:	ad23883a 	add	r17,r21,r20
   2a504:	99400117 	ldw	r5,4(r19)
   2a508:	1440010e 	bge	r2,r17,2a510 <__multiply+0x60>
   2a50c:	29400044 	addi	r5,r5,1
   2a510:	0029fac0 	call	29fac <_Balloc>
   2a514:	1025883a 	mov	r18,r2
   2a518:	10007326 	beq	r2,zero,2a6e8 <__multiply+0x238>
   2a51c:	882090ba 	slli	r16,r17,2
   2a520:	11000504 	addi	r4,r2,20
   2a524:	2421883a 	add	r16,r4,r16
   2a528:	2400082e 	bgeu	r4,r16,2a54c <__multiply+0x9c>
   2a52c:	808dc83a 	sub	r6,r16,r2
   2a530:	31bffac4 	addi	r6,r6,-21
   2a534:	300cd0ba 	srli	r6,r6,2
   2a538:	000b883a 	mov	r5,zero
   2a53c:	31800044 	addi	r6,r6,1
   2a540:	300c90ba 	slli	r6,r6,2
   2a544:	00242600 	call	24260 <memset>
   2a548:	1009883a 	mov	r4,r2
   2a54c:	a01090ba 	slli	r8,r20,2
   2a550:	a80e90ba 	slli	r7,r21,2
   2a554:	b1400504 	addi	r5,r22,20
   2a558:	9a400504 	addi	r9,r19,20
   2a55c:	2a11883a 	add	r8,r5,r8
   2a560:	49cf883a 	add	r7,r9,r7
   2a564:	2a004b2e 	bgeu	r5,r8,2a694 <__multiply+0x1e4>
   2a568:	98800544 	addi	r2,r19,21
   2a56c:	38805c36 	bltu	r7,r2,2a6e0 <__multiply+0x230>
   2a570:	3cc5c83a 	sub	r2,r7,r19
   2a574:	10bffac4 	addi	r2,r2,-21
   2a578:	1004d0ba 	srli	r2,r2,2
   2a57c:	10800044 	addi	r2,r2,1
   2a580:	100490ba 	slli	r2,r2,2
   2a584:	00000506 	br	2a59c <__multiply+0xec>
   2a588:	5816d43a 	srli	r11,r11,16
   2a58c:	5800231e 	bne	r11,zero,2a61c <__multiply+0x16c>
   2a590:	29400104 	addi	r5,r5,4
   2a594:	21000104 	addi	r4,r4,4
   2a598:	2a003e2e 	bgeu	r5,r8,2a694 <__multiply+0x1e4>
   2a59c:	2ac00017 	ldw	r11,0(r5)
   2a5a0:	5b7fffcc 	andi	r13,r11,65535
   2a5a4:	683ff826 	beq	r13,zero,2a588 <__multiply+0xd8>
   2a5a8:	2019883a 	mov	r12,r4
   2a5ac:	4817883a 	mov	r11,r9
   2a5b0:	001d883a 	mov	r14,zero
   2a5b4:	58c00017 	ldw	r3,0(r11)
   2a5b8:	62800017 	ldw	r10,0(r12)
   2a5bc:	63000104 	addi	r12,r12,4
   2a5c0:	19bfffcc 	andi	r6,r3,65535
   2a5c4:	334d383a 	mul	r6,r6,r13
   2a5c8:	1806d43a 	srli	r3,r3,16
   2a5cc:	53ffffcc 	andi	r15,r10,65535
   2a5d0:	33cd883a 	add	r6,r6,r15
   2a5d4:	5014d43a 	srli	r10,r10,16
   2a5d8:	338d883a 	add	r6,r6,r14
   2a5dc:	1b47383a 	mul	r3,r3,r13
   2a5e0:	301cd43a 	srli	r14,r6,16
   2a5e4:	31bfffcc 	andi	r6,r6,65535
   2a5e8:	1a87883a 	add	r3,r3,r10
   2a5ec:	1b87883a 	add	r3,r3,r14
   2a5f0:	1814943a 	slli	r10,r3,16
   2a5f4:	181cd43a 	srli	r14,r3,16
   2a5f8:	5ac00104 	addi	r11,r11,4
   2a5fc:	5186b03a 	or	r3,r10,r6
   2a600:	60ffff15 	stw	r3,-4(r12)
   2a604:	59ffeb36 	bltu	r11,r7,2a5b4 <__multiply+0x104>
   2a608:	2087883a 	add	r3,r4,r2
   2a60c:	1b800015 	stw	r14,0(r3)
   2a610:	2ac00017 	ldw	r11,0(r5)
   2a614:	5816d43a 	srli	r11,r11,16
   2a618:	583fdd26 	beq	r11,zero,2a590 <__multiply+0xe0>
   2a61c:	20c00017 	ldw	r3,0(r4)
   2a620:	2019883a 	mov	r12,r4
   2a624:	4815883a 	mov	r10,r9
   2a628:	181b883a 	mov	r13,r3
   2a62c:	001d883a 	mov	r14,zero
   2a630:	5180000b 	ldhu	r6,0(r10)
   2a634:	681ed43a 	srli	r15,r13,16
   2a638:	18ffffcc 	andi	r3,r3,65535
   2a63c:	32cd383a 	mul	r6,r6,r11
   2a640:	52800104 	addi	r10,r10,4
   2a644:	63400117 	ldw	r13,4(r12)
   2a648:	338d883a 	add	r6,r6,r14
   2a64c:	33cd883a 	add	r6,r6,r15
   2a650:	301c943a 	slli	r14,r6,16
   2a654:	300cd43a 	srli	r6,r6,16
   2a658:	6bffffcc 	andi	r15,r13,65535
   2a65c:	70c6b03a 	or	r3,r14,r3
   2a660:	60c00015 	stw	r3,0(r12)
   2a664:	50ffff8b 	ldhu	r3,-2(r10)
   2a668:	63000104 	addi	r12,r12,4
   2a66c:	1ac7383a 	mul	r3,r3,r11
   2a670:	1bc7883a 	add	r3,r3,r15
   2a674:	1987883a 	add	r3,r3,r6
   2a678:	181cd43a 	srli	r14,r3,16
   2a67c:	51ffec36 	bltu	r10,r7,2a630 <__multiply+0x180>
   2a680:	208d883a 	add	r6,r4,r2
   2a684:	30c00015 	stw	r3,0(r6)
   2a688:	29400104 	addi	r5,r5,4
   2a68c:	21000104 	addi	r4,r4,4
   2a690:	2a3fc236 	bltu	r5,r8,2a59c <__multiply+0xec>
   2a694:	04400316 	blt	zero,r17,2a6a4 <__multiply+0x1f4>
   2a698:	00000506 	br	2a6b0 <__multiply+0x200>
   2a69c:	8c7fffc4 	addi	r17,r17,-1
   2a6a0:	88000326 	beq	r17,zero,2a6b0 <__multiply+0x200>
   2a6a4:	80bfff17 	ldw	r2,-4(r16)
   2a6a8:	843fff04 	addi	r16,r16,-4
   2a6ac:	103ffb26 	beq	r2,zero,2a69c <__multiply+0x1ec>
   2a6b0:	9005883a 	mov	r2,r18
   2a6b4:	94400415 	stw	r17,16(r18)
   2a6b8:	dfc00717 	ldw	ra,28(sp)
   2a6bc:	dd800617 	ldw	r22,24(sp)
   2a6c0:	dd400517 	ldw	r21,20(sp)
   2a6c4:	dd000417 	ldw	r20,16(sp)
   2a6c8:	dcc00317 	ldw	r19,12(sp)
   2a6cc:	dc800217 	ldw	r18,8(sp)
   2a6d0:	dc400117 	ldw	r17,4(sp)
   2a6d4:	dc000017 	ldw	r16,0(sp)
   2a6d8:	dec00804 	addi	sp,sp,32
   2a6dc:	f800283a 	ret
   2a6e0:	00800104 	movi	r2,4
   2a6e4:	003fad06 	br	2a59c <__multiply+0xec>
   2a6e8:	01c000f4 	movhi	r7,3
   2a6ec:	010000f4 	movhi	r4,3
   2a6f0:	39d25204 	addi	r7,r7,18760
   2a6f4:	000d883a 	mov	r6,zero
   2a6f8:	01405744 	movi	r5,349
   2a6fc:	21126604 	addi	r4,r4,18840
   2a700:	002cfb00 	call	2cfb0 <__assert_func>

0002a704 <__pow5mult>:
   2a704:	defffb04 	addi	sp,sp,-20
   2a708:	dcc00315 	stw	r19,12(sp)
   2a70c:	dc000015 	stw	r16,0(sp)
   2a710:	dfc00415 	stw	ra,16(sp)
   2a714:	dc800215 	stw	r18,8(sp)
   2a718:	dc400115 	stw	r17,4(sp)
   2a71c:	308000cc 	andi	r2,r6,3
   2a720:	3021883a 	mov	r16,r6
   2a724:	2027883a 	mov	r19,r4
   2a728:	10002b1e 	bne	r2,zero,2a7d8 <__pow5mult+0xd4>
   2a72c:	2825883a 	mov	r18,r5
   2a730:	8021d0ba 	srai	r16,r16,2
   2a734:	80001926 	beq	r16,zero,2a79c <__pow5mult+0x98>
   2a738:	9c401217 	ldw	r17,72(r19)
   2a73c:	8800061e 	bne	r17,zero,2a758 <__pow5mult+0x54>
   2a740:	00002d06 	br	2a7f8 <__pow5mult+0xf4>
   2a744:	8021d07a 	srai	r16,r16,1
   2a748:	80001426 	beq	r16,zero,2a79c <__pow5mult+0x98>
   2a74c:	88800017 	ldw	r2,0(r17)
   2a750:	10001a26 	beq	r2,zero,2a7bc <__pow5mult+0xb8>
   2a754:	1023883a 	mov	r17,r2
   2a758:	8080004c 	andi	r2,r16,1
   2a75c:	103ff926 	beq	r2,zero,2a744 <__pow5mult+0x40>
   2a760:	880d883a 	mov	r6,r17
   2a764:	900b883a 	mov	r5,r18
   2a768:	9809883a 	mov	r4,r19
   2a76c:	002a4b00 	call	2a4b0 <__multiply>
   2a770:	90000726 	beq	r18,zero,2a790 <__pow5mult+0x8c>
   2a774:	91000117 	ldw	r4,4(r18)
   2a778:	98c01317 	ldw	r3,76(r19)
   2a77c:	200890ba 	slli	r4,r4,2
   2a780:	1907883a 	add	r3,r3,r4
   2a784:	19000017 	ldw	r4,0(r3)
   2a788:	91000015 	stw	r4,0(r18)
   2a78c:	1c800015 	stw	r18,0(r3)
   2a790:	8021d07a 	srai	r16,r16,1
   2a794:	1025883a 	mov	r18,r2
   2a798:	803fec1e 	bne	r16,zero,2a74c <__pow5mult+0x48>
   2a79c:	9005883a 	mov	r2,r18
   2a7a0:	dfc00417 	ldw	ra,16(sp)
   2a7a4:	dcc00317 	ldw	r19,12(sp)
   2a7a8:	dc800217 	ldw	r18,8(sp)
   2a7ac:	dc400117 	ldw	r17,4(sp)
   2a7b0:	dc000017 	ldw	r16,0(sp)
   2a7b4:	dec00504 	addi	sp,sp,20
   2a7b8:	f800283a 	ret
   2a7bc:	880d883a 	mov	r6,r17
   2a7c0:	880b883a 	mov	r5,r17
   2a7c4:	9809883a 	mov	r4,r19
   2a7c8:	002a4b00 	call	2a4b0 <__multiply>
   2a7cc:	88800015 	stw	r2,0(r17)
   2a7d0:	10000015 	stw	zero,0(r2)
   2a7d4:	003fdf06 	br	2a754 <__pow5mult+0x50>
   2a7d8:	100490ba 	slli	r2,r2,2
   2a7dc:	00c000f4 	movhi	r3,3
   2a7e0:	000f883a 	mov	r7,zero
   2a7e4:	10c7883a 	add	r3,r2,r3
   2a7e8:	19927417 	ldw	r6,18896(r3)
   2a7ec:	002a0740 	call	2a074 <__multadd>
   2a7f0:	1025883a 	mov	r18,r2
   2a7f4:	003fce06 	br	2a730 <__pow5mult+0x2c>
   2a7f8:	01400044 	movi	r5,1
   2a7fc:	9809883a 	mov	r4,r19
   2a800:	0029fac0 	call	29fac <_Balloc>
   2a804:	1023883a 	mov	r17,r2
   2a808:	10000726 	beq	r2,zero,2a828 <__pow5mult+0x124>
   2a80c:	00809c44 	movi	r2,625
   2a810:	88800515 	stw	r2,20(r17)
   2a814:	00800044 	movi	r2,1
   2a818:	88800415 	stw	r2,16(r17)
   2a81c:	9c401215 	stw	r17,72(r19)
   2a820:	88000015 	stw	zero,0(r17)
   2a824:	003fcc06 	br	2a758 <__pow5mult+0x54>
   2a828:	01c000f4 	movhi	r7,3
   2a82c:	010000f4 	movhi	r4,3
   2a830:	39d25204 	addi	r7,r7,18760
   2a834:	000d883a 	mov	r6,zero
   2a838:	01405004 	movi	r5,320
   2a83c:	21126604 	addi	r4,r4,18840
   2a840:	002cfb00 	call	2cfb0 <__assert_func>

0002a844 <__lshift>:
   2a844:	defff804 	addi	sp,sp,-32
   2a848:	dd800615 	stw	r22,24(sp)
   2a84c:	dc400115 	stw	r17,4(sp)
   2a850:	302dd17a 	srai	r22,r6,5
   2a854:	2c400417 	ldw	r17,16(r5)
   2a858:	28800217 	ldw	r2,8(r5)
   2a85c:	dd000415 	stw	r20,16(sp)
   2a860:	b463883a 	add	r17,r22,r17
   2a864:	dcc00315 	stw	r19,12(sp)
   2a868:	dc800215 	stw	r18,8(sp)
   2a86c:	dc000015 	stw	r16,0(sp)
   2a870:	dfc00715 	stw	ra,28(sp)
   2a874:	dd400515 	stw	r21,20(sp)
   2a878:	8d000044 	addi	r20,r17,1
   2a87c:	2827883a 	mov	r19,r5
   2a880:	3025883a 	mov	r18,r6
   2a884:	29400117 	ldw	r5,4(r5)
   2a888:	2021883a 	mov	r16,r4
   2a88c:	1500030e 	bge	r2,r20,2a89c <__lshift+0x58>
   2a890:	1085883a 	add	r2,r2,r2
   2a894:	29400044 	addi	r5,r5,1
   2a898:	153ffd16 	blt	r2,r20,2a890 <__lshift+0x4c>
   2a89c:	8009883a 	mov	r4,r16
   2a8a0:	0029fac0 	call	29fac <_Balloc>
   2a8a4:	102b883a 	mov	r21,r2
   2a8a8:	10004126 	beq	r2,zero,2a9b0 <__lshift+0x16c>
   2a8ac:	11000504 	addi	r4,r2,20
   2a8b0:	0580050e 	bge	zero,r22,2a8c8 <__lshift+0x84>
   2a8b4:	b02c90ba 	slli	r22,r22,2
   2a8b8:	000b883a 	mov	r5,zero
   2a8bc:	b00d883a 	mov	r6,r22
   2a8c0:	00242600 	call	24260 <memset>
   2a8c4:	1589883a 	add	r4,r2,r22
   2a8c8:	9a400417 	ldw	r9,16(r19)
   2a8cc:	98c00504 	addi	r3,r19,20
   2a8d0:	948007cc 	andi	r18,r18,31
   2a8d4:	481290ba 	slli	r9,r9,2
   2a8d8:	1a53883a 	add	r9,r3,r9
   2a8dc:	90002c26 	beq	r18,zero,2a990 <__lshift+0x14c>
   2a8e0:	01400804 	movi	r5,32
   2a8e4:	2c8bc83a 	sub	r5,r5,r18
   2a8e8:	2005883a 	mov	r2,r4
   2a8ec:	0011883a 	mov	r8,zero
   2a8f0:	19c00017 	ldw	r7,0(r3)
   2a8f4:	10800104 	addi	r2,r2,4
   2a8f8:	18c00104 	addi	r3,r3,4
   2a8fc:	3c8e983a 	sll	r7,r7,r18
   2a900:	3a0eb03a 	or	r7,r7,r8
   2a904:	11ffff15 	stw	r7,-4(r2)
   2a908:	1a3fff17 	ldw	r8,-4(r3)
   2a90c:	4150d83a 	srl	r8,r8,r5
   2a910:	1a7ff736 	bltu	r3,r9,2a8f0 <__lshift+0xac>
   2a914:	98800544 	addi	r2,r19,21
   2a918:	48802336 	bltu	r9,r2,2a9a8 <__lshift+0x164>
   2a91c:	4cc7c83a 	sub	r3,r9,r19
   2a920:	18fffac4 	addi	r3,r3,-21
   2a924:	1806d0ba 	srli	r3,r3,2
   2a928:	18c00044 	addi	r3,r3,1
   2a92c:	180690ba 	slli	r3,r3,2
   2a930:	20c9883a 	add	r4,r4,r3
   2a934:	22000015 	stw	r8,0(r4)
   2a938:	4000011e 	bne	r8,zero,2a940 <__lshift+0xfc>
   2a93c:	8829883a 	mov	r20,r17
   2a940:	ad000415 	stw	r20,16(r21)
   2a944:	98000726 	beq	r19,zero,2a964 <__lshift+0x120>
   2a948:	98c00117 	ldw	r3,4(r19)
   2a94c:	80801317 	ldw	r2,76(r16)
   2a950:	180690ba 	slli	r3,r3,2
   2a954:	10c5883a 	add	r2,r2,r3
   2a958:	10c00017 	ldw	r3,0(r2)
   2a95c:	98c00015 	stw	r3,0(r19)
   2a960:	14c00015 	stw	r19,0(r2)
   2a964:	a805883a 	mov	r2,r21
   2a968:	dfc00717 	ldw	ra,28(sp)
   2a96c:	dd800617 	ldw	r22,24(sp)
   2a970:	dd400517 	ldw	r21,20(sp)
   2a974:	dd000417 	ldw	r20,16(sp)
   2a978:	dcc00317 	ldw	r19,12(sp)
   2a97c:	dc800217 	ldw	r18,8(sp)
   2a980:	dc400117 	ldw	r17,4(sp)
   2a984:	dc000017 	ldw	r16,0(sp)
   2a988:	dec00804 	addi	sp,sp,32
   2a98c:	f800283a 	ret
   2a990:	18800017 	ldw	r2,0(r3)
   2a994:	18c00104 	addi	r3,r3,4
   2a998:	21000104 	addi	r4,r4,4
   2a99c:	20bfff15 	stw	r2,-4(r4)
   2a9a0:	1a7ffb36 	bltu	r3,r9,2a990 <__lshift+0x14c>
   2a9a4:	003fe506 	br	2a93c <__lshift+0xf8>
   2a9a8:	00c00104 	movi	r3,4
   2a9ac:	003fe006 	br	2a930 <__lshift+0xec>
   2a9b0:	01c000f4 	movhi	r7,3
   2a9b4:	010000f4 	movhi	r4,3
   2a9b8:	39d25204 	addi	r7,r7,18760
   2a9bc:	000d883a 	mov	r6,zero
   2a9c0:	01407644 	movi	r5,473
   2a9c4:	21126604 	addi	r4,r4,18840
   2a9c8:	002cfb00 	call	2cfb0 <__assert_func>

0002a9cc <__mcmp>:
   2a9cc:	21800417 	ldw	r6,16(r4)
   2a9d0:	28c00417 	ldw	r3,16(r5)
   2a9d4:	30c5c83a 	sub	r2,r6,r3
   2a9d8:	30c0101e 	bne	r6,r3,2aa1c <__mcmp+0x50>
   2a9dc:	180690ba 	slli	r3,r3,2
   2a9e0:	21000504 	addi	r4,r4,20
   2a9e4:	29400504 	addi	r5,r5,20
   2a9e8:	20cd883a 	add	r6,r4,r3
   2a9ec:	28c7883a 	add	r3,r5,r3
   2a9f0:	00000106 	br	2a9f8 <__mcmp+0x2c>
   2a9f4:	21800a2e 	bgeu	r4,r6,2aa20 <__mcmp+0x54>
   2a9f8:	31ffff17 	ldw	r7,-4(r6)
   2a9fc:	197fff17 	ldw	r5,-4(r3)
   2aa00:	31bfff04 	addi	r6,r6,-4
   2aa04:	18ffff04 	addi	r3,r3,-4
   2aa08:	397ffa26 	beq	r7,r5,2a9f4 <__mcmp+0x28>
   2aa0c:	3940022e 	bgeu	r7,r5,2aa18 <__mcmp+0x4c>
   2aa10:	00bfffc4 	movi	r2,-1
   2aa14:	f800283a 	ret
   2aa18:	00800044 	movi	r2,1
   2aa1c:	f800283a 	ret
   2aa20:	f800283a 	ret

0002aa24 <__mdiff>:
   2aa24:	28c00417 	ldw	r3,16(r5)
   2aa28:	30800417 	ldw	r2,16(r6)
   2aa2c:	defffc04 	addi	sp,sp,-16
   2aa30:	dc800215 	stw	r18,8(sp)
   2aa34:	dc400115 	stw	r17,4(sp)
   2aa38:	dc000015 	stw	r16,0(sp)
   2aa3c:	dfc00315 	stw	ra,12(sp)
   2aa40:	2823883a 	mov	r17,r5
   2aa44:	3021883a 	mov	r16,r6
   2aa48:	18a5c83a 	sub	r18,r3,r2
   2aa4c:	1880121e 	bne	r3,r2,2aa98 <__mdiff+0x74>
   2aa50:	100c90ba 	slli	r6,r2,2
   2aa54:	29400504 	addi	r5,r5,20
   2aa58:	80c00504 	addi	r3,r16,20
   2aa5c:	2985883a 	add	r2,r5,r6
   2aa60:	1987883a 	add	r3,r3,r6
   2aa64:	00000106 	br	2aa6c <__mdiff+0x48>
   2aa68:	28805f2e 	bgeu	r5,r2,2abe8 <__mdiff+0x1c4>
   2aa6c:	11ffff17 	ldw	r7,-4(r2)
   2aa70:	19bfff17 	ldw	r6,-4(r3)
   2aa74:	10bfff04 	addi	r2,r2,-4
   2aa78:	18ffff04 	addi	r3,r3,-4
   2aa7c:	39bffa26 	beq	r7,r6,2aa68 <__mdiff+0x44>
   2aa80:	3980072e 	bgeu	r7,r6,2aaa0 <__mdiff+0x7c>
   2aa84:	8805883a 	mov	r2,r17
   2aa88:	04800044 	movi	r18,1
   2aa8c:	8023883a 	mov	r17,r16
   2aa90:	1021883a 	mov	r16,r2
   2aa94:	00000206 	br	2aaa0 <__mdiff+0x7c>
   2aa98:	903ffa16 	blt	r18,zero,2aa84 <__mdiff+0x60>
   2aa9c:	0025883a 	mov	r18,zero
   2aaa0:	89400117 	ldw	r5,4(r17)
   2aaa4:	0029fac0 	call	29fac <_Balloc>
   2aaa8:	10006326 	beq	r2,zero,2ac38 <__mdiff+0x214>
   2aaac:	8a400417 	ldw	r9,16(r17)
   2aab0:	83800417 	ldw	r14,16(r16)
   2aab4:	89400504 	addi	r5,r17,20
   2aab8:	481490ba 	slli	r10,r9,2
   2aabc:	701c90ba 	slli	r14,r14,2
   2aac0:	81800504 	addi	r6,r16,20
   2aac4:	13400504 	addi	r13,r2,20
   2aac8:	14800315 	stw	r18,12(r2)
   2aacc:	2a95883a 	add	r10,r5,r10
   2aad0:	339d883a 	add	r14,r6,r14
   2aad4:	6819883a 	mov	r12,r13
   2aad8:	2817883a 	mov	r11,r5
   2aadc:	000f883a 	mov	r7,zero
   2aae0:	59000017 	ldw	r4,0(r11)
   2aae4:	32000017 	ldw	r8,0(r6)
   2aae8:	63000104 	addi	r12,r12,4
   2aaec:	20ffffcc 	andi	r3,r4,65535
   2aaf0:	43ffffcc 	andi	r15,r8,65535
   2aaf4:	1bc7c83a 	sub	r3,r3,r15
   2aaf8:	4010d43a 	srli	r8,r8,16
   2aafc:	19c7883a 	add	r3,r3,r7
   2ab00:	2008d43a 	srli	r4,r4,16
   2ab04:	180fd43a 	srai	r7,r3,16
   2ab08:	18ffffcc 	andi	r3,r3,65535
   2ab0c:	2209c83a 	sub	r4,r4,r8
   2ab10:	21c9883a 	add	r4,r4,r7
   2ab14:	2010943a 	slli	r8,r4,16
   2ab18:	31800104 	addi	r6,r6,4
   2ab1c:	200fd43a 	srai	r7,r4,16
   2ab20:	1a06b03a 	or	r3,r3,r8
   2ab24:	60ffff15 	stw	r3,-4(r12)
   2ab28:	5ac00104 	addi	r11,r11,4
   2ab2c:	33bfec36 	bltu	r6,r14,2aae0 <__mdiff+0xbc>
   2ab30:	7409c83a 	sub	r4,r14,r16
   2ab34:	213ffac4 	addi	r4,r4,-21
   2ab38:	84000544 	addi	r16,r16,21
   2ab3c:	200cd0ba 	srli	r6,r4,2
   2ab40:	74002736 	bltu	r14,r16,2abe0 <__mdiff+0x1bc>
   2ab44:	31000044 	addi	r4,r6,1
   2ab48:	200890ba 	slli	r4,r4,2
   2ab4c:	290b883a 	add	r5,r5,r4
   2ab50:	6911883a 	add	r8,r13,r4
   2ab54:	2a802b2e 	bgeu	r5,r10,2ac04 <__mdiff+0x1e0>
   2ab58:	4017883a 	mov	r11,r8
   2ab5c:	280d883a 	mov	r6,r5
   2ab60:	30c00017 	ldw	r3,0(r6)
   2ab64:	5ac00104 	addi	r11,r11,4
   2ab68:	31800104 	addi	r6,r6,4
   2ab6c:	193fffcc 	andi	r4,r3,65535
   2ab70:	21c9883a 	add	r4,r4,r7
   2ab74:	1818d43a 	srli	r12,r3,16
   2ab78:	2009d43a 	srai	r4,r4,16
   2ab7c:	19c7883a 	add	r3,r3,r7
   2ab80:	18ffffcc 	andi	r3,r3,65535
   2ab84:	2309883a 	add	r4,r4,r12
   2ab88:	2018943a 	slli	r12,r4,16
   2ab8c:	200fd43a 	srai	r7,r4,16
   2ab90:	1b06b03a 	or	r3,r3,r12
   2ab94:	58ffff15 	stw	r3,-4(r11)
   2ab98:	32bff136 	bltu	r6,r10,2ab60 <__mdiff+0x13c>
   2ab9c:	513fffc4 	addi	r4,r10,-1
   2aba0:	2149c83a 	sub	r4,r4,r5
   2aba4:	2008d0ba 	srli	r4,r4,2
   2aba8:	200890ba 	slli	r4,r4,2
   2abac:	4109883a 	add	r4,r8,r4
   2abb0:	1800041e 	bne	r3,zero,2abc4 <__mdiff+0x1a0>
   2abb4:	20ffff17 	ldw	r3,-4(r4)
   2abb8:	4a7fffc4 	addi	r9,r9,-1
   2abbc:	213fff04 	addi	r4,r4,-4
   2abc0:	183ffc26 	beq	r3,zero,2abb4 <__mdiff+0x190>
   2abc4:	12400415 	stw	r9,16(r2)
   2abc8:	dfc00317 	ldw	ra,12(sp)
   2abcc:	dc800217 	ldw	r18,8(sp)
   2abd0:	dc400117 	ldw	r17,4(sp)
   2abd4:	dc000017 	ldw	r16,0(sp)
   2abd8:	dec00404 	addi	sp,sp,16
   2abdc:	f800283a 	ret
   2abe0:	01000104 	movi	r4,4
   2abe4:	003fd906 	br	2ab4c <__mdiff+0x128>
   2abe8:	000b883a 	mov	r5,zero
   2abec:	0029fac0 	call	29fac <_Balloc>
   2abf0:	10000a26 	beq	r2,zero,2ac1c <__mdiff+0x1f8>
   2abf4:	00c00044 	movi	r3,1
   2abf8:	10c00415 	stw	r3,16(r2)
   2abfc:	10000515 	stw	zero,20(r2)
   2ac00:	003ff106 	br	2abc8 <__mdiff+0x1a4>
   2ac04:	74000336 	bltu	r14,r16,2ac14 <__mdiff+0x1f0>
   2ac08:	300890ba 	slli	r4,r6,2
   2ac0c:	6909883a 	add	r4,r13,r4
   2ac10:	003fe706 	br	2abb0 <__mdiff+0x18c>
   2ac14:	0009883a 	mov	r4,zero
   2ac18:	003ffc06 	br	2ac0c <__mdiff+0x1e8>
   2ac1c:	01c000f4 	movhi	r7,3
   2ac20:	010000f4 	movhi	r4,3
   2ac24:	39d25204 	addi	r7,r7,18760
   2ac28:	000d883a 	mov	r6,zero
   2ac2c:	01408c84 	movi	r5,562
   2ac30:	21126604 	addi	r4,r4,18840
   2ac34:	002cfb00 	call	2cfb0 <__assert_func>
   2ac38:	01c000f4 	movhi	r7,3
   2ac3c:	010000f4 	movhi	r4,3
   2ac40:	39d25204 	addi	r7,r7,18760
   2ac44:	000d883a 	mov	r6,zero
   2ac48:	01409004 	movi	r5,576
   2ac4c:	21126604 	addi	r4,r4,18840
   2ac50:	002cfb00 	call	2cfb0 <__assert_func>

0002ac54 <__ulp>:
   2ac54:	28dffc2c 	andhi	r3,r5,32752
   2ac58:	00bf3034 	movhi	r2,64704
   2ac5c:	1887883a 	add	r3,r3,r2
   2ac60:	00c0020e 	bge	zero,r3,2ac6c <__ulp+0x18>
   2ac64:	0005883a 	mov	r2,zero
   2ac68:	f800283a 	ret
   2ac6c:	00c7c83a 	sub	r3,zero,r3
   2ac70:	1807d53a 	srai	r3,r3,20
   2ac74:	18800508 	cmpgei	r2,r3,20
   2ac78:	1000041e 	bne	r2,zero,2ac8c <__ulp+0x38>
   2ac7c:	00800234 	movhi	r2,8
   2ac80:	10c7d83a 	sra	r3,r2,r3
   2ac84:	0005883a 	mov	r2,zero
   2ac88:	f800283a 	ret
   2ac8c:	18fffb04 	addi	r3,r3,-20
   2ac90:	188007c8 	cmpgei	r2,r3,31
   2ac94:	10000326 	beq	r2,zero,2aca4 <__ulp+0x50>
   2ac98:	00800044 	movi	r2,1
   2ac9c:	0007883a 	mov	r3,zero
   2aca0:	f800283a 	ret
   2aca4:	00a00034 	movhi	r2,32768
   2aca8:	10c4d83a 	srl	r2,r2,r3
   2acac:	0007883a 	mov	r3,zero
   2acb0:	f800283a 	ret

0002acb4 <__b2d>:
   2acb4:	defffa04 	addi	sp,sp,-24
   2acb8:	dc400115 	stw	r17,4(sp)
   2acbc:	24400417 	ldw	r17,16(r4)
   2acc0:	dc000015 	stw	r16,0(sp)
   2acc4:	24000504 	addi	r16,r4,20
   2acc8:	882290ba 	slli	r17,r17,2
   2accc:	dc800215 	stw	r18,8(sp)
   2acd0:	dd000415 	stw	r20,16(sp)
   2acd4:	8463883a 	add	r17,r16,r17
   2acd8:	8cbfff17 	ldw	r18,-4(r17)
   2acdc:	dcc00315 	stw	r19,12(sp)
   2ace0:	dfc00515 	stw	ra,20(sp)
   2ace4:	9009883a 	mov	r4,r18
   2ace8:	2827883a 	mov	r19,r5
   2acec:	002a2dc0 	call	2a2dc <__hi0bits>
   2acf0:	00c00804 	movi	r3,32
   2acf4:	1889c83a 	sub	r4,r3,r2
   2acf8:	99000015 	stw	r4,0(r19)
   2acfc:	110002c8 	cmpgei	r4,r2,11
   2ad00:	8d3fff04 	addi	r20,r17,-4
   2ad04:	20001b26 	beq	r4,zero,2ad74 <__b2d+0xc0>
   2ad08:	117ffd44 	addi	r5,r2,-11
   2ad0c:	85000e2e 	bgeu	r16,r20,2ad48 <__b2d+0x94>
   2ad10:	88bffe17 	ldw	r2,-8(r17)
   2ad14:	28000e26 	beq	r5,zero,2ad50 <__b2d+0x9c>
   2ad18:	1949c83a 	sub	r4,r3,r5
   2ad1c:	1106d83a 	srl	r3,r2,r4
   2ad20:	9164983a 	sll	r18,r18,r5
   2ad24:	89bffe04 	addi	r6,r17,-8
   2ad28:	1144983a 	sll	r2,r2,r5
   2ad2c:	90c6b03a 	or	r3,r18,r3
   2ad30:	18cffc34 	orhi	r3,r3,16368
   2ad34:	8180072e 	bgeu	r16,r6,2ad54 <__b2d+0xa0>
   2ad38:	897ffd17 	ldw	r5,-12(r17)
   2ad3c:	2908d83a 	srl	r4,r5,r4
   2ad40:	1104b03a 	or	r2,r2,r4
   2ad44:	00000306 	br	2ad54 <__b2d+0xa0>
   2ad48:	108002d8 	cmpnei	r2,r2,11
   2ad4c:	1000161e 	bne	r2,zero,2ada8 <__b2d+0xf4>
   2ad50:	90cffc34 	orhi	r3,r18,16368
   2ad54:	dfc00517 	ldw	ra,20(sp)
   2ad58:	dd000417 	ldw	r20,16(sp)
   2ad5c:	dcc00317 	ldw	r19,12(sp)
   2ad60:	dc800217 	ldw	r18,8(sp)
   2ad64:	dc400117 	ldw	r17,4(sp)
   2ad68:	dc000017 	ldw	r16,0(sp)
   2ad6c:	dec00604 	addi	sp,sp,24
   2ad70:	f800283a 	ret
   2ad74:	014002c4 	movi	r5,11
   2ad78:	288bc83a 	sub	r5,r5,r2
   2ad7c:	9146d83a 	srl	r3,r18,r5
   2ad80:	18cffc34 	orhi	r3,r3,16368
   2ad84:	85000536 	bltu	r16,r20,2ad9c <__b2d+0xe8>
   2ad88:	0009883a 	mov	r4,zero
   2ad8c:	10800544 	addi	r2,r2,21
   2ad90:	90a4983a 	sll	r18,r18,r2
   2ad94:	9104b03a 	or	r2,r18,r4
   2ad98:	003fee06 	br	2ad54 <__b2d+0xa0>
   2ad9c:	893ffe17 	ldw	r4,-8(r17)
   2ada0:	2148d83a 	srl	r4,r4,r5
   2ada4:	003ff906 	br	2ad8c <__b2d+0xd8>
   2ada8:	9164983a 	sll	r18,r18,r5
   2adac:	0005883a 	mov	r2,zero
   2adb0:	003fe706 	br	2ad50 <__b2d+0x9c>

0002adb4 <__d2b>:
   2adb4:	defff804 	addi	sp,sp,-32
   2adb8:	dd000615 	stw	r20,24(sp)
   2adbc:	2829883a 	mov	r20,r5
   2adc0:	01400044 	movi	r5,1
   2adc4:	dcc00515 	stw	r19,20(sp)
   2adc8:	dc000215 	stw	r16,8(sp)
   2adcc:	dfc00715 	stw	ra,28(sp)
   2add0:	dc800415 	stw	r18,16(sp)
   2add4:	dc400315 	stw	r17,12(sp)
   2add8:	3021883a 	mov	r16,r6
   2addc:	3827883a 	mov	r19,r7
   2ade0:	0029fac0 	call	29fac <_Balloc>
   2ade4:	10004226 	beq	r2,zero,2aef0 <__d2b+0x13c>
   2ade8:	8024d53a 	srli	r18,r16,20
   2adec:	1023883a 	mov	r17,r2
   2adf0:	00800434 	movhi	r2,16
   2adf4:	10bfffc4 	addi	r2,r2,-1
   2adf8:	9481ffcc 	andi	r18,r18,2047
   2adfc:	80a0703a 	and	r16,r16,r2
   2ae00:	90000126 	beq	r18,zero,2ae08 <__d2b+0x54>
   2ae04:	84000434 	orhi	r16,r16,16
   2ae08:	dc000115 	stw	r16,4(sp)
   2ae0c:	a0001b26 	beq	r20,zero,2ae7c <__d2b+0xc8>
   2ae10:	d809883a 	mov	r4,sp
   2ae14:	dd000015 	stw	r20,0(sp)
   2ae18:	002a3500 	call	2a350 <__lo0bits>
   2ae1c:	d8c00117 	ldw	r3,4(sp)
   2ae20:	10003026 	beq	r2,zero,2aee4 <__d2b+0x130>
   2ae24:	01000804 	movi	r4,32
   2ae28:	2089c83a 	sub	r4,r4,r2
   2ae2c:	1908983a 	sll	r4,r3,r4
   2ae30:	d9400017 	ldw	r5,0(sp)
   2ae34:	1886d83a 	srl	r3,r3,r2
   2ae38:	2148b03a 	or	r4,r4,r5
   2ae3c:	89000515 	stw	r4,20(r17)
   2ae40:	d8c00115 	stw	r3,4(sp)
   2ae44:	88c00615 	stw	r3,24(r17)
   2ae48:	18002426 	beq	r3,zero,2aedc <__d2b+0x128>
   2ae4c:	04000084 	movi	r16,2
   2ae50:	8c000415 	stw	r16,16(r17)
   2ae54:	9000111e 	bne	r18,zero,2ae9c <__d2b+0xe8>
   2ae58:	800690ba 	slli	r3,r16,2
   2ae5c:	10bef384 	addi	r2,r2,-1074
   2ae60:	98800015 	stw	r2,0(r19)
   2ae64:	88c5883a 	add	r2,r17,r3
   2ae68:	11000417 	ldw	r4,16(r2)
   2ae6c:	8020917a 	slli	r16,r16,5
   2ae70:	002a2dc0 	call	2a2dc <__hi0bits>
   2ae74:	8085c83a 	sub	r2,r16,r2
   2ae78:	00000d06 	br	2aeb0 <__d2b+0xfc>
   2ae7c:	d9000104 	addi	r4,sp,4
   2ae80:	002a3500 	call	2a350 <__lo0bits>
   2ae84:	d8c00117 	ldw	r3,4(sp)
   2ae88:	10800804 	addi	r2,r2,32
   2ae8c:	04000044 	movi	r16,1
   2ae90:	88c00515 	stw	r3,20(r17)
   2ae94:	8c000415 	stw	r16,16(r17)
   2ae98:	903fef26 	beq	r18,zero,2ae58 <__d2b+0xa4>
   2ae9c:	94bef344 	addi	r18,r18,-1075
   2aea0:	90a5883a 	add	r18,r18,r2
   2aea4:	04000d44 	movi	r16,53
   2aea8:	9c800015 	stw	r18,0(r19)
   2aeac:	8085c83a 	sub	r2,r16,r2
   2aeb0:	d8c00817 	ldw	r3,32(sp)
   2aeb4:	18800015 	stw	r2,0(r3)
   2aeb8:	8805883a 	mov	r2,r17
   2aebc:	dfc00717 	ldw	ra,28(sp)
   2aec0:	dd000617 	ldw	r20,24(sp)
   2aec4:	dcc00517 	ldw	r19,20(sp)
   2aec8:	dc800417 	ldw	r18,16(sp)
   2aecc:	dc400317 	ldw	r17,12(sp)
   2aed0:	dc000217 	ldw	r16,8(sp)
   2aed4:	dec00804 	addi	sp,sp,32
   2aed8:	f800283a 	ret
   2aedc:	04000044 	movi	r16,1
   2aee0:	003fec06 	br	2ae94 <__d2b+0xe0>
   2aee4:	d9000017 	ldw	r4,0(sp)
   2aee8:	89000515 	stw	r4,20(r17)
   2aeec:	003fd506 	br	2ae44 <__d2b+0x90>
   2aef0:	01c000f4 	movhi	r7,3
   2aef4:	010000f4 	movhi	r4,3
   2aef8:	39d25204 	addi	r7,r7,18760
   2aefc:	000d883a 	mov	r6,zero
   2af00:	0140c284 	movi	r5,778
   2af04:	21126604 	addi	r4,r4,18840
   2af08:	002cfb00 	call	2cfb0 <__assert_func>

0002af0c <__ratio>:
   2af0c:	defff904 	addi	sp,sp,-28
   2af10:	dc400315 	stw	r17,12(sp)
   2af14:	2823883a 	mov	r17,r5
   2af18:	d80b883a 	mov	r5,sp
   2af1c:	dfc00615 	stw	ra,24(sp)
   2af20:	dcc00515 	stw	r19,20(sp)
   2af24:	dc800415 	stw	r18,16(sp)
   2af28:	2027883a 	mov	r19,r4
   2af2c:	dc000215 	stw	r16,8(sp)
   2af30:	002acb40 	call	2acb4 <__b2d>
   2af34:	d9400104 	addi	r5,sp,4
   2af38:	8809883a 	mov	r4,r17
   2af3c:	1025883a 	mov	r18,r2
   2af40:	1821883a 	mov	r16,r3
   2af44:	002acb40 	call	2acb4 <__b2d>
   2af48:	89000417 	ldw	r4,16(r17)
   2af4c:	9a000417 	ldw	r8,16(r19)
   2af50:	d9400117 	ldw	r5,4(sp)
   2af54:	100d883a 	mov	r6,r2
   2af58:	4111c83a 	sub	r8,r8,r4
   2af5c:	d9000017 	ldw	r4,0(sp)
   2af60:	4010917a 	slli	r8,r8,5
   2af64:	180f883a 	mov	r7,r3
   2af68:	2149c83a 	sub	r4,r4,r5
   2af6c:	4111883a 	add	r8,r8,r4
   2af70:	02000c0e 	bge	zero,r8,2afa4 <__ratio+0x98>
   2af74:	4010953a 	slli	r8,r8,20
   2af78:	4421883a 	add	r16,r8,r16
   2af7c:	9009883a 	mov	r4,r18
   2af80:	800b883a 	mov	r5,r16
   2af84:	002f0a80 	call	2f0a8 <__divdf3>
   2af88:	dfc00617 	ldw	ra,24(sp)
   2af8c:	dcc00517 	ldw	r19,20(sp)
   2af90:	dc800417 	ldw	r18,16(sp)
   2af94:	dc400317 	ldw	r17,12(sp)
   2af98:	dc000217 	ldw	r16,8(sp)
   2af9c:	dec00704 	addi	sp,sp,28
   2afa0:	f800283a 	ret
   2afa4:	00bffc34 	movhi	r2,65520
   2afa8:	4091383a 	mul	r8,r8,r2
   2afac:	40cf883a 	add	r7,r8,r3
   2afb0:	003ff206 	br	2af7c <__ratio+0x70>

0002afb4 <_mprec_log10>:
   2afb4:	defffe04 	addi	sp,sp,-8
   2afb8:	dc000015 	stw	r16,0(sp)
   2afbc:	dfc00115 	stw	ra,4(sp)
   2afc0:	20800608 	cmpgei	r2,r4,24
   2afc4:	2021883a 	mov	r16,r4
   2afc8:	10000f26 	beq	r2,zero,2b008 <_mprec_log10+0x54>
   2afcc:	0009883a 	mov	r4,zero
   2afd0:	014ffc34 	movhi	r5,16368
   2afd4:	000d883a 	mov	r6,zero
   2afd8:	01d00934 	movhi	r7,16420
   2afdc:	002fb780 	call	2fb78 <__muldf3>
   2afe0:	843fffc4 	addi	r16,r16,-1
   2afe4:	1009883a 	mov	r4,r2
   2afe8:	180b883a 	mov	r5,r3
   2afec:	803ff91e 	bne	r16,zero,2afd4 <_mprec_log10+0x20>
   2aff0:	2005883a 	mov	r2,r4
   2aff4:	2807883a 	mov	r3,r5
   2aff8:	dfc00117 	ldw	ra,4(sp)
   2affc:	dc000017 	ldw	r16,0(sp)
   2b000:	dec00204 	addi	sp,sp,8
   2b004:	f800283a 	ret
   2b008:	202090fa 	slli	r16,r4,3
   2b00c:	008000f4 	movhi	r2,3
   2b010:	10928c04 	addi	r2,r2,18992
   2b014:	1405883a 	add	r2,r2,r16
   2b018:	11000017 	ldw	r4,0(r2)
   2b01c:	11400117 	ldw	r5,4(r2)
   2b020:	003ff306 	br	2aff0 <_mprec_log10+0x3c>

0002b024 <__copybits>:
   2b024:	297fffc4 	addi	r5,r5,-1
   2b028:	280fd17a 	srai	r7,r5,5
   2b02c:	31400417 	ldw	r5,16(r6)
   2b030:	30800504 	addi	r2,r6,20
   2b034:	39c00044 	addi	r7,r7,1
   2b038:	280a90ba 	slli	r5,r5,2
   2b03c:	380e90ba 	slli	r7,r7,2
   2b040:	114b883a 	add	r5,r2,r5
   2b044:	21cf883a 	add	r7,r4,r7
   2b048:	11400c2e 	bgeu	r2,r5,2b07c <__copybits+0x58>
   2b04c:	2007883a 	mov	r3,r4
   2b050:	12000017 	ldw	r8,0(r2)
   2b054:	10800104 	addi	r2,r2,4
   2b058:	18c00104 	addi	r3,r3,4
   2b05c:	1a3fff15 	stw	r8,-4(r3)
   2b060:	117ffb36 	bltu	r2,r5,2b050 <__copybits+0x2c>
   2b064:	2985c83a 	sub	r2,r5,r6
   2b068:	10bffac4 	addi	r2,r2,-21
   2b06c:	1004d0ba 	srli	r2,r2,2
   2b070:	10800044 	addi	r2,r2,1
   2b074:	100490ba 	slli	r2,r2,2
   2b078:	2089883a 	add	r4,r4,r2
   2b07c:	21c0072e 	bgeu	r4,r7,2b09c <__copybits+0x78>
   2b080:	39bfffc4 	addi	r6,r7,-1
   2b084:	310dc83a 	sub	r6,r6,r4
   2b088:	300cd0ba 	srli	r6,r6,2
   2b08c:	000b883a 	mov	r5,zero
   2b090:	31800044 	addi	r6,r6,1
   2b094:	300c90ba 	slli	r6,r6,2
   2b098:	00242601 	jmpi	24260 <memset>
   2b09c:	f800283a 	ret

0002b0a0 <__any_on>:
   2b0a0:	20c00417 	ldw	r3,16(r4)
   2b0a4:	280dd17a 	srai	r6,r5,5
   2b0a8:	21000504 	addi	r4,r4,20
   2b0ac:	1980080e 	bge	r3,r6,2b0d0 <__any_on+0x30>
   2b0b0:	180690ba 	slli	r3,r3,2
   2b0b4:	20c5883a 	add	r2,r4,r3
   2b0b8:	20800f2e 	bgeu	r4,r2,2b0f8 <__any_on+0x58>
   2b0bc:	10ffff17 	ldw	r3,-4(r2)
   2b0c0:	10bfff04 	addi	r2,r2,-4
   2b0c4:	183ffc26 	beq	r3,zero,2b0b8 <__any_on+0x18>
   2b0c8:	00800044 	movi	r2,1
   2b0cc:	f800283a 	ret
   2b0d0:	300490ba 	slli	r2,r6,2
   2b0d4:	2085883a 	add	r2,r4,r2
   2b0d8:	30fff70e 	bge	r6,r3,2b0b8 <__any_on+0x18>
   2b0dc:	294007cc 	andi	r5,r5,31
   2b0e0:	283ff526 	beq	r5,zero,2b0b8 <__any_on+0x18>
   2b0e4:	11800017 	ldw	r6,0(r2)
   2b0e8:	3146d83a 	srl	r3,r6,r5
   2b0ec:	1946983a 	sll	r3,r3,r5
   2b0f0:	30fff51e 	bne	r6,r3,2b0c8 <__any_on+0x28>
   2b0f4:	003ff006 	br	2b0b8 <__any_on+0x18>
   2b0f8:	0005883a 	mov	r2,zero
   2b0fc:	f800283a 	ret

0002b100 <_putc_r>:
   2b100:	defffc04 	addi	sp,sp,-16
   2b104:	dc400215 	stw	r17,8(sp)
   2b108:	dfc00315 	stw	ra,12(sp)
   2b10c:	2023883a 	mov	r17,r4
   2b110:	20000226 	beq	r4,zero,2b11c <_putc_r+0x1c>
   2b114:	20800e17 	ldw	r2,56(r4)
   2b118:	10000e26 	beq	r2,zero,2b154 <_putc_r+0x54>
   2b11c:	30800217 	ldw	r2,8(r6)
   2b120:	10bfffc4 	addi	r2,r2,-1
   2b124:	30800215 	stw	r2,8(r6)
   2b128:	10001316 	blt	r2,zero,2b178 <_putc_r+0x78>
   2b12c:	30800017 	ldw	r2,0(r6)
   2b130:	11400005 	stb	r5,0(r2)
   2b134:	30800017 	ldw	r2,0(r6)
   2b138:	10c00044 	addi	r3,r2,1
   2b13c:	30c00015 	stw	r3,0(r6)
   2b140:	10800003 	ldbu	r2,0(r2)
   2b144:	dfc00317 	ldw	ra,12(sp)
   2b148:	dc400217 	ldw	r17,8(sp)
   2b14c:	dec00404 	addi	sp,sp,16
   2b150:	f800283a 	ret
   2b154:	d9800115 	stw	r6,4(sp)
   2b158:	d9400015 	stw	r5,0(sp)
   2b15c:	0028fbc0 	call	28fbc <__sinit>
   2b160:	d9800117 	ldw	r6,4(sp)
   2b164:	d9400017 	ldw	r5,0(sp)
   2b168:	30800217 	ldw	r2,8(r6)
   2b16c:	10bfffc4 	addi	r2,r2,-1
   2b170:	30800215 	stw	r2,8(r6)
   2b174:	103fed0e 	bge	r2,zero,2b12c <_putc_r+0x2c>
   2b178:	30c00617 	ldw	r3,24(r6)
   2b17c:	10c00e16 	blt	r2,r3,2b1b8 <_putc_r+0xb8>
   2b180:	30800017 	ldw	r2,0(r6)
   2b184:	11400005 	stb	r5,0(r2)
   2b188:	30c00017 	ldw	r3,0(r6)
   2b18c:	18800003 	ldbu	r2,0(r3)
   2b190:	108002a0 	cmpeqi	r2,r2,10
   2b194:	1000071e 	bne	r2,zero,2b1b4 <_putc_r+0xb4>
   2b198:	18800044 	addi	r2,r3,1
   2b19c:	30800015 	stw	r2,0(r6)
   2b1a0:	18800003 	ldbu	r2,0(r3)
   2b1a4:	dfc00317 	ldw	ra,12(sp)
   2b1a8:	dc400217 	ldw	r17,8(sp)
   2b1ac:	dec00404 	addi	sp,sp,16
   2b1b0:	f800283a 	ret
   2b1b4:	01400284 	movi	r5,10
   2b1b8:	8809883a 	mov	r4,r17
   2b1bc:	dfc00317 	ldw	ra,12(sp)
   2b1c0:	dc400217 	ldw	r17,8(sp)
   2b1c4:	dec00404 	addi	sp,sp,16
   2b1c8:	002ce501 	jmpi	2ce50 <__swbuf_r>

0002b1cc <putc>:
   2b1cc:	defffc04 	addi	sp,sp,-16
   2b1d0:	008000f4 	movhi	r2,3
   2b1d4:	dc800215 	stw	r18,8(sp)
   2b1d8:	149cd017 	ldw	r18,29504(r2)
   2b1dc:	dc400115 	stw	r17,4(sp)
   2b1e0:	dfc00315 	stw	ra,12(sp)
   2b1e4:	2023883a 	mov	r17,r4
   2b1e8:	90000226 	beq	r18,zero,2b1f4 <putc+0x28>
   2b1ec:	90800e17 	ldw	r2,56(r18)
   2b1f0:	10000f26 	beq	r2,zero,2b230 <putc+0x64>
   2b1f4:	28800217 	ldw	r2,8(r5)
   2b1f8:	10bfffc4 	addi	r2,r2,-1
   2b1fc:	28800215 	stw	r2,8(r5)
   2b200:	10001316 	blt	r2,zero,2b250 <putc+0x84>
   2b204:	28800017 	ldw	r2,0(r5)
   2b208:	14400005 	stb	r17,0(r2)
   2b20c:	28800017 	ldw	r2,0(r5)
   2b210:	10c00044 	addi	r3,r2,1
   2b214:	28c00015 	stw	r3,0(r5)
   2b218:	10800003 	ldbu	r2,0(r2)
   2b21c:	dfc00317 	ldw	ra,12(sp)
   2b220:	dc800217 	ldw	r18,8(sp)
   2b224:	dc400117 	ldw	r17,4(sp)
   2b228:	dec00404 	addi	sp,sp,16
   2b22c:	f800283a 	ret
   2b230:	9009883a 	mov	r4,r18
   2b234:	d9400015 	stw	r5,0(sp)
   2b238:	0028fbc0 	call	28fbc <__sinit>
   2b23c:	d9400017 	ldw	r5,0(sp)
   2b240:	28800217 	ldw	r2,8(r5)
   2b244:	10bfffc4 	addi	r2,r2,-1
   2b248:	28800215 	stw	r2,8(r5)
   2b24c:	103fed0e 	bge	r2,zero,2b204 <putc+0x38>
   2b250:	28c00617 	ldw	r3,24(r5)
   2b254:	10c00a16 	blt	r2,r3,2b280 <putc+0xb4>
   2b258:	28800017 	ldw	r2,0(r5)
   2b25c:	14400005 	stb	r17,0(r2)
   2b260:	28c00017 	ldw	r3,0(r5)
   2b264:	18800003 	ldbu	r2,0(r3)
   2b268:	108002a0 	cmpeqi	r2,r2,10
   2b26c:	10000c1e 	bne	r2,zero,2b2a0 <putc+0xd4>
   2b270:	18800044 	addi	r2,r3,1
   2b274:	28800015 	stw	r2,0(r5)
   2b278:	18800003 	ldbu	r2,0(r3)
   2b27c:	003fe706 	br	2b21c <putc+0x50>
   2b280:	280d883a 	mov	r6,r5
   2b284:	880b883a 	mov	r5,r17
   2b288:	9009883a 	mov	r4,r18
   2b28c:	dfc00317 	ldw	ra,12(sp)
   2b290:	dc800217 	ldw	r18,8(sp)
   2b294:	dc400117 	ldw	r17,4(sp)
   2b298:	dec00404 	addi	sp,sp,16
   2b29c:	002ce501 	jmpi	2ce50 <__swbuf_r>
   2b2a0:	280d883a 	mov	r6,r5
   2b2a4:	01400284 	movi	r5,10
   2b2a8:	003ff706 	br	2b288 <putc+0xbc>

0002b2ac <_read_r>:
   2b2ac:	2807883a 	mov	r3,r5
   2b2b0:	defffe04 	addi	sp,sp,-8
   2b2b4:	dc000015 	stw	r16,0(sp)
   2b2b8:	300b883a 	mov	r5,r6
   2b2bc:	00800134 	movhi	r2,4
   2b2c0:	380d883a 	mov	r6,r7
   2b2c4:	2021883a 	mov	r16,r4
   2b2c8:	1809883a 	mov	r4,r3
   2b2cc:	dfc00115 	stw	ra,4(sp)
   2b2d0:	1025f115 	stw	zero,-26684(r2)
   2b2d4:	00319880 	call	31988 <read>
   2b2d8:	10ffffd8 	cmpnei	r3,r2,-1
   2b2dc:	18000426 	beq	r3,zero,2b2f0 <_read_r+0x44>
   2b2e0:	dfc00117 	ldw	ra,4(sp)
   2b2e4:	dc000017 	ldw	r16,0(sp)
   2b2e8:	dec00204 	addi	sp,sp,8
   2b2ec:	f800283a 	ret
   2b2f0:	00c00134 	movhi	r3,4
   2b2f4:	18e5f117 	ldw	r3,-26684(r3)
   2b2f8:	183ff926 	beq	r3,zero,2b2e0 <_read_r+0x34>
   2b2fc:	80c00015 	stw	r3,0(r16)
   2b300:	dfc00117 	ldw	ra,4(sp)
   2b304:	dc000017 	ldw	r16,0(sp)
   2b308:	dec00204 	addi	sp,sp,8
   2b30c:	f800283a 	ret

0002b310 <_realloc_r>:
   2b310:	defff504 	addi	sp,sp,-44
   2b314:	dd000515 	stw	r20,20(sp)
   2b318:	dfc00a15 	stw	ra,40(sp)
   2b31c:	df000915 	stw	fp,36(sp)
   2b320:	ddc00815 	stw	r23,32(sp)
   2b324:	dd800715 	stw	r22,28(sp)
   2b328:	dd400615 	stw	r21,24(sp)
   2b32c:	dcc00415 	stw	r19,16(sp)
   2b330:	dc800315 	stw	r18,12(sp)
   2b334:	dc400215 	stw	r17,8(sp)
   2b338:	dc000115 	stw	r16,4(sp)
   2b33c:	3029883a 	mov	r20,r6
   2b340:	28008a26 	beq	r5,zero,2b56c <_realloc_r+0x25c>
   2b344:	2821883a 	mov	r16,r5
   2b348:	202b883a 	mov	r21,r4
   2b34c:	00316bc0 	call	316bc <__malloc_lock>
   2b350:	84ffff17 	ldw	r19,-4(r16)
   2b354:	a44002c4 	addi	r17,r20,11
   2b358:	04bfff04 	movi	r18,-4
   2b35c:	888005f0 	cmpltui	r2,r17,23
   2b360:	85bffe04 	addi	r22,r16,-8
   2b364:	9ca4703a 	and	r18,r19,r18
   2b368:	10005a1e 	bne	r2,zero,2b4d4 <_realloc_r+0x1c4>
   2b36c:	00bffe04 	movi	r2,-8
   2b370:	88a2703a 	and	r17,r17,r2
   2b374:	88005916 	blt	r17,zero,2b4dc <_realloc_r+0x1cc>
   2b378:	8d005836 	bltu	r17,r20,2b4dc <_realloc_r+0x1cc>
   2b37c:	94403b0e 	bge	r18,r17,2b46c <_realloc_r+0x15c>
   2b380:	05c000f4 	movhi	r23,3
   2b384:	bdd6bc04 	addi	r23,r23,23280
   2b388:	b9400217 	ldw	r5,8(r23)
   2b38c:	b489883a 	add	r4,r22,r18
   2b390:	20800117 	ldw	r2,4(r4)
   2b394:	29008e26 	beq	r5,r4,2b5d0 <_realloc_r+0x2c0>
   2b398:	00ffff84 	movi	r3,-2
   2b39c:	10c6703a 	and	r3,r2,r3
   2b3a0:	20c7883a 	add	r3,r4,r3
   2b3a4:	18c00117 	ldw	r3,4(r3)
   2b3a8:	18c0004c 	andi	r3,r3,1
   2b3ac:	18004f1e 	bne	r3,zero,2b4ec <_realloc_r+0x1dc>
   2b3b0:	00ffff04 	movi	r3,-4
   2b3b4:	10c4703a 	and	r2,r2,r3
   2b3b8:	9087883a 	add	r3,r18,r2
   2b3bc:	1c40c30e 	bge	r3,r17,2b6cc <_realloc_r+0x3bc>
   2b3c0:	9cc0004c 	andi	r19,r19,1
   2b3c4:	98004b1e 	bne	r19,zero,2b4f4 <_realloc_r+0x1e4>
   2b3c8:	873ffe17 	ldw	fp,-8(r16)
   2b3cc:	00ffff04 	movi	r3,-4
   2b3d0:	b739c83a 	sub	fp,r22,fp
   2b3d4:	e4c00117 	ldw	r19,4(fp)
   2b3d8:	98c6703a 	and	r3,r19,r3
   2b3dc:	20000426 	beq	r4,zero,2b3f0 <_realloc_r+0xe0>
   2b3e0:	90cf883a 	add	r7,r18,r3
   2b3e4:	388f883a 	add	r7,r7,r2
   2b3e8:	2900c226 	beq	r5,r4,2b6f4 <_realloc_r+0x3e4>
   2b3ec:	3c409e0e 	bge	r7,r17,2b668 <_realloc_r+0x358>
   2b3f0:	e0004026 	beq	fp,zero,2b4f4 <_realloc_r+0x1e4>
   2b3f4:	90ef883a 	add	r23,r18,r3
   2b3f8:	bc403e16 	blt	r23,r17,2b4f4 <_realloc_r+0x1e4>
   2b3fc:	e0800317 	ldw	r2,12(fp)
   2b400:	e0c00217 	ldw	r3,8(fp)
   2b404:	91bfff04 	addi	r6,r18,-4
   2b408:	31400968 	cmpgeui	r5,r6,37
   2b40c:	18800315 	stw	r2,12(r3)
   2b410:	10c00215 	stw	r3,8(r2)
   2b414:	e1000204 	addi	r4,fp,8
   2b418:	2800e71e 	bne	r5,zero,2b7b8 <_realloc_r+0x4a8>
   2b41c:	30800530 	cmpltui	r2,r6,20
   2b420:	1000e31e 	bne	r2,zero,2b7b0 <_realloc_r+0x4a0>
   2b424:	80c00017 	ldw	r3,0(r16)
   2b428:	30800728 	cmpgeui	r2,r6,28
   2b42c:	e0c00215 	stw	r3,8(fp)
   2b430:	80c00117 	ldw	r3,4(r16)
   2b434:	e0c00315 	stw	r3,12(fp)
   2b438:	1000fa1e 	bne	r2,zero,2b824 <_realloc_r+0x514>
   2b43c:	84000204 	addi	r16,r16,8
   2b440:	e0800404 	addi	r2,fp,16
   2b444:	80c00017 	ldw	r3,0(r16)
   2b448:	b825883a 	mov	r18,r23
   2b44c:	10c00015 	stw	r3,0(r2)
   2b450:	80c00117 	ldw	r3,4(r16)
   2b454:	e02d883a 	mov	r22,fp
   2b458:	10c00115 	stw	r3,4(r2)
   2b45c:	80c00217 	ldw	r3,8(r16)
   2b460:	2021883a 	mov	r16,r4
   2b464:	10c00215 	stw	r3,8(r2)
   2b468:	e4c00117 	ldw	r19,4(fp)
   2b46c:	9447c83a 	sub	r3,r18,r17
   2b470:	19000430 	cmpltui	r4,r3,16
   2b474:	9cc0004c 	andi	r19,r19,1
   2b478:	b485883a 	add	r2,r22,r18
   2b47c:	20004826 	beq	r4,zero,2b5a0 <_realloc_r+0x290>
   2b480:	94e6b03a 	or	r19,r18,r19
   2b484:	b4c00115 	stw	r19,4(r22)
   2b488:	10c00117 	ldw	r3,4(r2)
   2b48c:	18c00054 	ori	r3,r3,1
   2b490:	10c00115 	stw	r3,4(r2)
   2b494:	a809883a 	mov	r4,r21
   2b498:	00316e00 	call	316e0 <__malloc_unlock>
   2b49c:	8029883a 	mov	r20,r16
   2b4a0:	a005883a 	mov	r2,r20
   2b4a4:	dfc00a17 	ldw	ra,40(sp)
   2b4a8:	df000917 	ldw	fp,36(sp)
   2b4ac:	ddc00817 	ldw	r23,32(sp)
   2b4b0:	dd800717 	ldw	r22,28(sp)
   2b4b4:	dd400617 	ldw	r21,24(sp)
   2b4b8:	dd000517 	ldw	r20,20(sp)
   2b4bc:	dcc00417 	ldw	r19,16(sp)
   2b4c0:	dc800317 	ldw	r18,12(sp)
   2b4c4:	dc400217 	ldw	r17,8(sp)
   2b4c8:	dc000117 	ldw	r16,4(sp)
   2b4cc:	dec00b04 	addi	sp,sp,44
   2b4d0:	f800283a 	ret
   2b4d4:	04400404 	movi	r17,16
   2b4d8:	8d3fa82e 	bgeu	r17,r20,2b37c <_realloc_r+0x6c>
   2b4dc:	00800304 	movi	r2,12
   2b4e0:	a8800015 	stw	r2,0(r21)
   2b4e4:	0029883a 	mov	r20,zero
   2b4e8:	003fed06 	br	2b4a0 <_realloc_r+0x190>
   2b4ec:	9cc0004c 	andi	r19,r19,1
   2b4f0:	98004e26 	beq	r19,zero,2b62c <_realloc_r+0x31c>
   2b4f4:	a00b883a 	mov	r5,r20
   2b4f8:	a809883a 	mov	r4,r21
   2b4fc:	0023aac0 	call	23aac <_malloc_r>
   2b500:	1029883a 	mov	r20,r2
   2b504:	1000bd26 	beq	r2,zero,2b7fc <_realloc_r+0x4ec>
   2b508:	84ffff17 	ldw	r19,-4(r16)
   2b50c:	10fffe04 	addi	r3,r2,-8
   2b510:	00bfff84 	movi	r2,-2
   2b514:	9884703a 	and	r2,r19,r2
   2b518:	b085883a 	add	r2,r22,r2
   2b51c:	10c03e26 	beq	r2,r3,2b618 <_realloc_r+0x308>
   2b520:	91bfff04 	addi	r6,r18,-4
   2b524:	30800968 	cmpgeui	r2,r6,37
   2b528:	10006e1e 	bne	r2,zero,2b6e4 <_realloc_r+0x3d4>
   2b52c:	30800530 	cmpltui	r2,r6,20
   2b530:	10004426 	beq	r2,zero,2b644 <_realloc_r+0x334>
   2b534:	a005883a 	mov	r2,r20
   2b538:	8007883a 	mov	r3,r16
   2b53c:	19000017 	ldw	r4,0(r3)
   2b540:	11000015 	stw	r4,0(r2)
   2b544:	19000117 	ldw	r4,4(r3)
   2b548:	11000115 	stw	r4,4(r2)
   2b54c:	18c00217 	ldw	r3,8(r3)
   2b550:	10c00215 	stw	r3,8(r2)
   2b554:	a809883a 	mov	r4,r21
   2b558:	800b883a 	mov	r5,r16
   2b55c:	00291e00 	call	291e0 <_free_r>
   2b560:	a809883a 	mov	r4,r21
   2b564:	00316e00 	call	316e0 <__malloc_unlock>
   2b568:	003fcd06 	br	2b4a0 <_realloc_r+0x190>
   2b56c:	300b883a 	mov	r5,r6
   2b570:	dfc00a17 	ldw	ra,40(sp)
   2b574:	df000917 	ldw	fp,36(sp)
   2b578:	ddc00817 	ldw	r23,32(sp)
   2b57c:	dd800717 	ldw	r22,28(sp)
   2b580:	dd400617 	ldw	r21,24(sp)
   2b584:	dd000517 	ldw	r20,20(sp)
   2b588:	dcc00417 	ldw	r19,16(sp)
   2b58c:	dc800317 	ldw	r18,12(sp)
   2b590:	dc400217 	ldw	r17,8(sp)
   2b594:	dc000117 	ldw	r16,4(sp)
   2b598:	dec00b04 	addi	sp,sp,44
   2b59c:	0023aac1 	jmpi	23aac <_malloc_r>
   2b5a0:	8ce6b03a 	or	r19,r17,r19
   2b5a4:	b4c00115 	stw	r19,4(r22)
   2b5a8:	b44b883a 	add	r5,r22,r17
   2b5ac:	18c00054 	ori	r3,r3,1
   2b5b0:	28c00115 	stw	r3,4(r5)
   2b5b4:	10c00117 	ldw	r3,4(r2)
   2b5b8:	29400204 	addi	r5,r5,8
   2b5bc:	a809883a 	mov	r4,r21
   2b5c0:	18c00054 	ori	r3,r3,1
   2b5c4:	10c00115 	stw	r3,4(r2)
   2b5c8:	00291e00 	call	291e0 <_free_r>
   2b5cc:	003fb106 	br	2b494 <_realloc_r+0x184>
   2b5d0:	00ffff04 	movi	r3,-4
   2b5d4:	10c4703a 	and	r2,r2,r3
   2b5d8:	1487883a 	add	r3,r2,r18
   2b5dc:	89800404 	addi	r6,r17,16
   2b5e0:	19bf7716 	blt	r3,r6,2b3c0 <_realloc_r+0xb0>
   2b5e4:	b46d883a 	add	r22,r22,r17
   2b5e8:	1c45c83a 	sub	r2,r3,r17
   2b5ec:	bd800215 	stw	r22,8(r23)
   2b5f0:	10800054 	ori	r2,r2,1
   2b5f4:	b0800115 	stw	r2,4(r22)
   2b5f8:	80bfff17 	ldw	r2,-4(r16)
   2b5fc:	a809883a 	mov	r4,r21
   2b600:	8029883a 	mov	r20,r16
   2b604:	1080004c 	andi	r2,r2,1
   2b608:	1444b03a 	or	r2,r2,r17
   2b60c:	80bfff15 	stw	r2,-4(r16)
   2b610:	00316e00 	call	316e0 <__malloc_unlock>
   2b614:	003fa206 	br	2b4a0 <_realloc_r+0x190>
   2b618:	a0bfff17 	ldw	r2,-4(r20)
   2b61c:	00ffff04 	movi	r3,-4
   2b620:	10c4703a 	and	r2,r2,r3
   2b624:	90a5883a 	add	r18,r18,r2
   2b628:	003f9006 	br	2b46c <_realloc_r+0x15c>
   2b62c:	873ffe17 	ldw	fp,-8(r16)
   2b630:	00bfff04 	movi	r2,-4
   2b634:	b739c83a 	sub	fp,r22,fp
   2b638:	e0c00117 	ldw	r3,4(fp)
   2b63c:	1886703a 	and	r3,r3,r2
   2b640:	003f6b06 	br	2b3f0 <_realloc_r+0xe0>
   2b644:	80c00017 	ldw	r3,0(r16)
   2b648:	30800728 	cmpgeui	r2,r6,28
   2b64c:	a0c00015 	stw	r3,0(r20)
   2b650:	80c00117 	ldw	r3,4(r16)
   2b654:	a0c00115 	stw	r3,4(r20)
   2b658:	10004c1e 	bne	r2,zero,2b78c <_realloc_r+0x47c>
   2b65c:	80c00204 	addi	r3,r16,8
   2b660:	a0800204 	addi	r2,r20,8
   2b664:	003fb506 	br	2b53c <_realloc_r+0x22c>
   2b668:	20800317 	ldw	r2,12(r4)
   2b66c:	20c00217 	ldw	r3,8(r4)
   2b670:	91bfff04 	addi	r6,r18,-4
   2b674:	31400968 	cmpgeui	r5,r6,37
   2b678:	18800315 	stw	r2,12(r3)
   2b67c:	10c00215 	stw	r3,8(r2)
   2b680:	e0c00217 	ldw	r3,8(fp)
   2b684:	e0800317 	ldw	r2,12(fp)
   2b688:	e1000204 	addi	r4,fp,8
   2b68c:	18800315 	stw	r2,12(r3)
   2b690:	10c00215 	stw	r3,8(r2)
   2b694:	2800511e 	bne	r5,zero,2b7dc <_realloc_r+0x4cc>
   2b698:	30800530 	cmpltui	r2,r6,20
   2b69c:	10004d1e 	bne	r2,zero,2b7d4 <_realloc_r+0x4c4>
   2b6a0:	80c00017 	ldw	r3,0(r16)
   2b6a4:	30800728 	cmpgeui	r2,r6,28
   2b6a8:	e0c00215 	stw	r3,8(fp)
   2b6ac:	80c00117 	ldw	r3,4(r16)
   2b6b0:	e0c00315 	stw	r3,12(fp)
   2b6b4:	1000641e 	bne	r2,zero,2b848 <_realloc_r+0x538>
   2b6b8:	84000204 	addi	r16,r16,8
   2b6bc:	e0800404 	addi	r2,fp,16
   2b6c0:	80c00017 	ldw	r3,0(r16)
   2b6c4:	3825883a 	mov	r18,r7
   2b6c8:	003f6006 	br	2b44c <_realloc_r+0x13c>
   2b6cc:	20800317 	ldw	r2,12(r4)
   2b6d0:	21000217 	ldw	r4,8(r4)
   2b6d4:	1825883a 	mov	r18,r3
   2b6d8:	20800315 	stw	r2,12(r4)
   2b6dc:	11000215 	stw	r4,8(r2)
   2b6e0:	003f6206 	br	2b46c <_realloc_r+0x15c>
   2b6e4:	800b883a 	mov	r5,r16
   2b6e8:	a009883a 	mov	r4,r20
   2b6ec:	0029e840 	call	29e84 <memmove>
   2b6f0:	003f9806 	br	2b554 <_realloc_r+0x244>
   2b6f4:	88800404 	addi	r2,r17,16
   2b6f8:	38bf3d16 	blt	r7,r2,2b3f0 <_realloc_r+0xe0>
   2b6fc:	e0800317 	ldw	r2,12(fp)
   2b700:	e0c00217 	ldw	r3,8(fp)
   2b704:	91bfff04 	addi	r6,r18,-4
   2b708:	31000968 	cmpgeui	r4,r6,37
   2b70c:	18800315 	stw	r2,12(r3)
   2b710:	10c00215 	stw	r3,8(r2)
   2b714:	e5000204 	addi	r20,fp,8
   2b718:	2000561e 	bne	r4,zero,2b874 <_realloc_r+0x564>
   2b71c:	30800530 	cmpltui	r2,r6,20
   2b720:	1000521e 	bne	r2,zero,2b86c <_realloc_r+0x55c>
   2b724:	80c00017 	ldw	r3,0(r16)
   2b728:	30800728 	cmpgeui	r2,r6,28
   2b72c:	e0c00215 	stw	r3,8(fp)
   2b730:	80c00117 	ldw	r3,4(r16)
   2b734:	e0c00315 	stw	r3,12(fp)
   2b738:	1000541e 	bne	r2,zero,2b88c <_realloc_r+0x57c>
   2b73c:	84000204 	addi	r16,r16,8
   2b740:	e0800404 	addi	r2,fp,16
   2b744:	80c00017 	ldw	r3,0(r16)
   2b748:	10c00015 	stw	r3,0(r2)
   2b74c:	80c00117 	ldw	r3,4(r16)
   2b750:	10c00115 	stw	r3,4(r2)
   2b754:	80c00217 	ldw	r3,8(r16)
   2b758:	10c00215 	stw	r3,8(r2)
   2b75c:	e447883a 	add	r3,fp,r17
   2b760:	3c45c83a 	sub	r2,r7,r17
   2b764:	b8c00215 	stw	r3,8(r23)
   2b768:	10800054 	ori	r2,r2,1
   2b76c:	18800115 	stw	r2,4(r3)
   2b770:	e0800117 	ldw	r2,4(fp)
   2b774:	a809883a 	mov	r4,r21
   2b778:	1080004c 	andi	r2,r2,1
   2b77c:	1444b03a 	or	r2,r2,r17
   2b780:	e0800115 	stw	r2,4(fp)
   2b784:	00316e00 	call	316e0 <__malloc_unlock>
   2b788:	003f4506 	br	2b4a0 <_realloc_r+0x190>
   2b78c:	80800217 	ldw	r2,8(r16)
   2b790:	31800920 	cmpeqi	r6,r6,36
   2b794:	a0800215 	stw	r2,8(r20)
   2b798:	80800317 	ldw	r2,12(r16)
   2b79c:	a0800315 	stw	r2,12(r20)
   2b7a0:	3000191e 	bne	r6,zero,2b808 <_realloc_r+0x4f8>
   2b7a4:	80c00404 	addi	r3,r16,16
   2b7a8:	a0800404 	addi	r2,r20,16
   2b7ac:	003f6306 	br	2b53c <_realloc_r+0x22c>
   2b7b0:	2005883a 	mov	r2,r4
   2b7b4:	003f2306 	br	2b444 <_realloc_r+0x134>
   2b7b8:	800b883a 	mov	r5,r16
   2b7bc:	0029e840 	call	29e84 <memmove>
   2b7c0:	1021883a 	mov	r16,r2
   2b7c4:	e4c00117 	ldw	r19,4(fp)
   2b7c8:	b825883a 	mov	r18,r23
   2b7cc:	e02d883a 	mov	r22,fp
   2b7d0:	003f2606 	br	2b46c <_realloc_r+0x15c>
   2b7d4:	2005883a 	mov	r2,r4
   2b7d8:	003fb906 	br	2b6c0 <_realloc_r+0x3b0>
   2b7dc:	800b883a 	mov	r5,r16
   2b7e0:	d9c00015 	stw	r7,0(sp)
   2b7e4:	0029e840 	call	29e84 <memmove>
   2b7e8:	d9c00017 	ldw	r7,0(sp)
   2b7ec:	1021883a 	mov	r16,r2
   2b7f0:	e02d883a 	mov	r22,fp
   2b7f4:	3825883a 	mov	r18,r7
   2b7f8:	003f1c06 	br	2b46c <_realloc_r+0x15c>
   2b7fc:	a809883a 	mov	r4,r21
   2b800:	00316e00 	call	316e0 <__malloc_unlock>
   2b804:	003f3706 	br	2b4e4 <_realloc_r+0x1d4>
   2b808:	81000417 	ldw	r4,16(r16)
   2b80c:	80c00604 	addi	r3,r16,24
   2b810:	a0800604 	addi	r2,r20,24
   2b814:	a1000415 	stw	r4,16(r20)
   2b818:	81000517 	ldw	r4,20(r16)
   2b81c:	a1000515 	stw	r4,20(r20)
   2b820:	003f4606 	br	2b53c <_realloc_r+0x22c>
   2b824:	80800217 	ldw	r2,8(r16)
   2b828:	31800920 	cmpeqi	r6,r6,36
   2b82c:	e0800415 	stw	r2,16(fp)
   2b830:	80800317 	ldw	r2,12(r16)
   2b834:	e0800515 	stw	r2,20(fp)
   2b838:	30001d1e 	bne	r6,zero,2b8b0 <_realloc_r+0x5a0>
   2b83c:	84000404 	addi	r16,r16,16
   2b840:	e0800604 	addi	r2,fp,24
   2b844:	003eff06 	br	2b444 <_realloc_r+0x134>
   2b848:	80800217 	ldw	r2,8(r16)
   2b84c:	31800920 	cmpeqi	r6,r6,36
   2b850:	e0800415 	stw	r2,16(fp)
   2b854:	80800317 	ldw	r2,12(r16)
   2b858:	e0800515 	stw	r2,20(fp)
   2b85c:	30001b1e 	bne	r6,zero,2b8cc <_realloc_r+0x5bc>
   2b860:	84000404 	addi	r16,r16,16
   2b864:	e0800604 	addi	r2,fp,24
   2b868:	003f9506 	br	2b6c0 <_realloc_r+0x3b0>
   2b86c:	a005883a 	mov	r2,r20
   2b870:	003fb406 	br	2b744 <_realloc_r+0x434>
   2b874:	800b883a 	mov	r5,r16
   2b878:	a009883a 	mov	r4,r20
   2b87c:	d9c00015 	stw	r7,0(sp)
   2b880:	0029e840 	call	29e84 <memmove>
   2b884:	d9c00017 	ldw	r7,0(sp)
   2b888:	003fb406 	br	2b75c <_realloc_r+0x44c>
   2b88c:	80800217 	ldw	r2,8(r16)
   2b890:	31800920 	cmpeqi	r6,r6,36
   2b894:	e0800415 	stw	r2,16(fp)
   2b898:	80800317 	ldw	r2,12(r16)
   2b89c:	e0800515 	stw	r2,20(fp)
   2b8a0:	3000111e 	bne	r6,zero,2b8e8 <_realloc_r+0x5d8>
   2b8a4:	84000404 	addi	r16,r16,16
   2b8a8:	e0800604 	addi	r2,fp,24
   2b8ac:	003fa506 	br	2b744 <_realloc_r+0x434>
   2b8b0:	80c00417 	ldw	r3,16(r16)
   2b8b4:	84000604 	addi	r16,r16,24
   2b8b8:	e0800804 	addi	r2,fp,32
   2b8bc:	e0c00615 	stw	r3,24(fp)
   2b8c0:	80ffff17 	ldw	r3,-4(r16)
   2b8c4:	e0c00715 	stw	r3,28(fp)
   2b8c8:	003ede06 	br	2b444 <_realloc_r+0x134>
   2b8cc:	80c00417 	ldw	r3,16(r16)
   2b8d0:	84000604 	addi	r16,r16,24
   2b8d4:	e0800804 	addi	r2,fp,32
   2b8d8:	e0c00615 	stw	r3,24(fp)
   2b8dc:	80ffff17 	ldw	r3,-4(r16)
   2b8e0:	e0c00715 	stw	r3,28(fp)
   2b8e4:	003f7606 	br	2b6c0 <_realloc_r+0x3b0>
   2b8e8:	80c00417 	ldw	r3,16(r16)
   2b8ec:	84000604 	addi	r16,r16,24
   2b8f0:	e0800804 	addi	r2,fp,32
   2b8f4:	e0c00615 	stw	r3,24(fp)
   2b8f8:	80ffff17 	ldw	r3,-4(r16)
   2b8fc:	e0c00715 	stw	r3,28(fp)
   2b900:	003f9006 	br	2b744 <_realloc_r+0x434>

0002b904 <__srget_r>:
   2b904:	defffd04 	addi	sp,sp,-12
   2b908:	dc400115 	stw	r17,4(sp)
   2b90c:	dc000015 	stw	r16,0(sp)
   2b910:	dfc00215 	stw	ra,8(sp)
   2b914:	2023883a 	mov	r17,r4
   2b918:	2821883a 	mov	r16,r5
   2b91c:	20000226 	beq	r4,zero,2b928 <__srget_r+0x24>
   2b920:	20800e17 	ldw	r2,56(r4)
   2b924:	10001026 	beq	r2,zero,2b968 <__srget_r+0x64>
   2b928:	800b883a 	mov	r5,r16
   2b92c:	8809883a 	mov	r4,r17
   2b930:	00245400 	call	24540 <__srefill_r>
   2b934:	10000e1e 	bne	r2,zero,2b970 <__srget_r+0x6c>
   2b938:	80c00017 	ldw	r3,0(r16)
   2b93c:	80800117 	ldw	r2,4(r16)
   2b940:	19000044 	addi	r4,r3,1
   2b944:	10bfffc4 	addi	r2,r2,-1
   2b948:	80800115 	stw	r2,4(r16)
   2b94c:	81000015 	stw	r4,0(r16)
   2b950:	18800003 	ldbu	r2,0(r3)
   2b954:	dfc00217 	ldw	ra,8(sp)
   2b958:	dc400117 	ldw	r17,4(sp)
   2b95c:	dc000017 	ldw	r16,0(sp)
   2b960:	dec00304 	addi	sp,sp,12
   2b964:	f800283a 	ret
   2b968:	0028fbc0 	call	28fbc <__sinit>
   2b96c:	003fee06 	br	2b928 <__srget_r+0x24>
   2b970:	00bfffc4 	movi	r2,-1
   2b974:	003ff706 	br	2b954 <__srget_r+0x50>

0002b978 <__srget>:
   2b978:	defffd04 	addi	sp,sp,-12
   2b97c:	008000f4 	movhi	r2,3
   2b980:	dc400115 	stw	r17,4(sp)
   2b984:	145cd017 	ldw	r17,29504(r2)
   2b988:	dc000015 	stw	r16,0(sp)
   2b98c:	dfc00215 	stw	ra,8(sp)
   2b990:	2021883a 	mov	r16,r4
   2b994:	88000226 	beq	r17,zero,2b9a0 <__srget+0x28>
   2b998:	88800e17 	ldw	r2,56(r17)
   2b99c:	10001026 	beq	r2,zero,2b9e0 <__srget+0x68>
   2b9a0:	800b883a 	mov	r5,r16
   2b9a4:	8809883a 	mov	r4,r17
   2b9a8:	00245400 	call	24540 <__srefill_r>
   2b9ac:	10000f1e 	bne	r2,zero,2b9ec <__srget+0x74>
   2b9b0:	80c00017 	ldw	r3,0(r16)
   2b9b4:	80800117 	ldw	r2,4(r16)
   2b9b8:	19000044 	addi	r4,r3,1
   2b9bc:	10bfffc4 	addi	r2,r2,-1
   2b9c0:	80800115 	stw	r2,4(r16)
   2b9c4:	81000015 	stw	r4,0(r16)
   2b9c8:	18800003 	ldbu	r2,0(r3)
   2b9cc:	dfc00217 	ldw	ra,8(sp)
   2b9d0:	dc400117 	ldw	r17,4(sp)
   2b9d4:	dc000017 	ldw	r16,0(sp)
   2b9d8:	dec00304 	addi	sp,sp,12
   2b9dc:	f800283a 	ret
   2b9e0:	8809883a 	mov	r4,r17
   2b9e4:	0028fbc0 	call	28fbc <__sinit>
   2b9e8:	003fed06 	br	2b9a0 <__srget+0x28>
   2b9ec:	00bfffc4 	movi	r2,-1
   2b9f0:	003ff606 	br	2b9cc <__srget+0x54>

0002b9f4 <__sprint_r.part.0>:
   2b9f4:	28801917 	ldw	r2,100(r5)
   2b9f8:	defff604 	addi	sp,sp,-40
   2b9fc:	dcc00315 	stw	r19,12(sp)
   2ba00:	dfc00915 	stw	ra,36(sp)
   2ba04:	df000815 	stw	fp,32(sp)
   2ba08:	ddc00715 	stw	r23,28(sp)
   2ba0c:	dd800615 	stw	r22,24(sp)
   2ba10:	dd400515 	stw	r21,20(sp)
   2ba14:	dd000415 	stw	r20,16(sp)
   2ba18:	dc800215 	stw	r18,8(sp)
   2ba1c:	dc400115 	stw	r17,4(sp)
   2ba20:	dc000015 	stw	r16,0(sp)
   2ba24:	1088000c 	andi	r2,r2,8192
   2ba28:	3027883a 	mov	r19,r6
   2ba2c:	10002c26 	beq	r2,zero,2bae0 <__sprint_r.part.0+0xec>
   2ba30:	30800217 	ldw	r2,8(r6)
   2ba34:	35000017 	ldw	r20,0(r6)
   2ba38:	2821883a 	mov	r16,r5
   2ba3c:	2023883a 	mov	r17,r4
   2ba40:	05bfff04 	movi	r22,-4
   2ba44:	10002426 	beq	r2,zero,2bad8 <__sprint_r.part.0+0xe4>
   2ba48:	a5400117 	ldw	r21,4(r20)
   2ba4c:	a5c00017 	ldw	r23,0(r20)
   2ba50:	a824d0ba 	srli	r18,r21,2
   2ba54:	90001b26 	beq	r18,zero,2bac4 <__sprint_r.part.0+0xd0>
   2ba58:	0039883a 	mov	fp,zero
   2ba5c:	00000206 	br	2ba68 <__sprint_r.part.0+0x74>
   2ba60:	bdc00104 	addi	r23,r23,4
   2ba64:	97001626 	beq	r18,fp,2bac0 <__sprint_r.part.0+0xcc>
   2ba68:	b9400017 	ldw	r5,0(r23)
   2ba6c:	800d883a 	mov	r6,r16
   2ba70:	8809883a 	mov	r4,r17
   2ba74:	002d43c0 	call	2d43c <_fputwc_r>
   2ba78:	10bfffe0 	cmpeqi	r2,r2,-1
   2ba7c:	e7000044 	addi	fp,fp,1
   2ba80:	103ff726 	beq	r2,zero,2ba60 <__sprint_r.part.0+0x6c>
   2ba84:	00bfffc4 	movi	r2,-1
   2ba88:	98000215 	stw	zero,8(r19)
   2ba8c:	98000115 	stw	zero,4(r19)
   2ba90:	dfc00917 	ldw	ra,36(sp)
   2ba94:	df000817 	ldw	fp,32(sp)
   2ba98:	ddc00717 	ldw	r23,28(sp)
   2ba9c:	dd800617 	ldw	r22,24(sp)
   2baa0:	dd400517 	ldw	r21,20(sp)
   2baa4:	dd000417 	ldw	r20,16(sp)
   2baa8:	dcc00317 	ldw	r19,12(sp)
   2baac:	dc800217 	ldw	r18,8(sp)
   2bab0:	dc400117 	ldw	r17,4(sp)
   2bab4:	dc000017 	ldw	r16,0(sp)
   2bab8:	dec00a04 	addi	sp,sp,40
   2babc:	f800283a 	ret
   2bac0:	98800217 	ldw	r2,8(r19)
   2bac4:	adaa703a 	and	r21,r21,r22
   2bac8:	1545c83a 	sub	r2,r2,r21
   2bacc:	98800215 	stw	r2,8(r19)
   2bad0:	a5000204 	addi	r20,r20,8
   2bad4:	103fdc1e 	bne	r2,zero,2ba48 <__sprint_r.part.0+0x54>
   2bad8:	0005883a 	mov	r2,zero
   2badc:	003fea06 	br	2ba88 <__sprint_r.part.0+0x94>
   2bae0:	00294e80 	call	294e8 <__sfvwrite_r>
   2bae4:	003fe806 	br	2ba88 <__sprint_r.part.0+0x94>

0002bae8 <__sprint_r>:
   2bae8:	30c00217 	ldw	r3,8(r6)
   2baec:	18000126 	beq	r3,zero,2baf4 <__sprint_r+0xc>
   2baf0:	002b9f41 	jmpi	2b9f4 <__sprint_r.part.0>
   2baf4:	30000115 	stw	zero,4(r6)
   2baf8:	0005883a 	mov	r2,zero
   2bafc:	f800283a 	ret

0002bb00 <___vfiprintf_internal_r>:
   2bb00:	deffcf04 	addi	sp,sp,-196
   2bb04:	dd002b15 	stw	r20,172(sp)
   2bb08:	dc802915 	stw	r18,164(sp)
   2bb0c:	dfc03015 	stw	ra,192(sp)
   2bb10:	df002f15 	stw	fp,188(sp)
   2bb14:	ddc02e15 	stw	r23,184(sp)
   2bb18:	dd802d15 	stw	r22,180(sp)
   2bb1c:	dd402c15 	stw	r21,176(sp)
   2bb20:	dcc02a15 	stw	r19,168(sp)
   2bb24:	dc402815 	stw	r17,160(sp)
   2bb28:	dc002715 	stw	r16,156(sp)
   2bb2c:	d9000015 	stw	r4,0(sp)
   2bb30:	d9c00315 	stw	r7,12(sp)
   2bb34:	2825883a 	mov	r18,r5
   2bb38:	3029883a 	mov	r20,r6
   2bb3c:	20000226 	beq	r4,zero,2bb48 <___vfiprintf_internal_r+0x48>
   2bb40:	20800e17 	ldw	r2,56(r4)
   2bb44:	1001b526 	beq	r2,zero,2c21c <___vfiprintf_internal_r+0x71c>
   2bb48:	9080030b 	ldhu	r2,12(r18)
   2bb4c:	10c8000c 	andi	r3,r2,8192
   2bb50:	1800071e 	bne	r3,zero,2bb70 <___vfiprintf_internal_r+0x70>
   2bb54:	90c01917 	ldw	r3,100(r18)
   2bb58:	11080014 	ori	r4,r2,8192
   2bb5c:	00b7ffc4 	movi	r2,-8193
   2bb60:	1886703a 	and	r3,r3,r2
   2bb64:	9100030d 	sth	r4,12(r18)
   2bb68:	2005883a 	mov	r2,r4
   2bb6c:	90c01915 	stw	r3,100(r18)
   2bb70:	10c0020c 	andi	r3,r2,8
   2bb74:	1800fd26 	beq	r3,zero,2bf6c <___vfiprintf_internal_r+0x46c>
   2bb78:	90c00417 	ldw	r3,16(r18)
   2bb7c:	1800fb26 	beq	r3,zero,2bf6c <___vfiprintf_internal_r+0x46c>
   2bb80:	1080068c 	andi	r2,r2,26
   2bb84:	10800298 	cmpnei	r2,r2,10
   2bb88:	10010026 	beq	r2,zero,2bf8c <___vfiprintf_internal_r+0x48c>
   2bb8c:	dcc01704 	addi	r19,sp,92
   2bb90:	05c000f4 	movhi	r23,3
   2bb94:	dcc00a15 	stw	r19,40(sp)
   2bb98:	d8000c15 	stw	zero,48(sp)
   2bb9c:	d8000b15 	stw	zero,44(sp)
   2bba0:	9811883a 	mov	r8,r19
   2bba4:	d8000515 	stw	zero,20(sp)
   2bba8:	d8000115 	stw	zero,4(sp)
   2bbac:	bdd2be04 	addi	r23,r23,19192
   2bbb0:	a0800007 	ldb	r2,0(r20)
   2bbb4:	1000db26 	beq	r2,zero,2bf24 <___vfiprintf_internal_r+0x424>
   2bbb8:	a021883a 	mov	r16,r20
   2bbbc:	00000306 	br	2bbcc <___vfiprintf_internal_r+0xcc>
   2bbc0:	80800047 	ldb	r2,1(r16)
   2bbc4:	84000044 	addi	r16,r16,1
   2bbc8:	10011826 	beq	r2,zero,2c02c <___vfiprintf_internal_r+0x52c>
   2bbcc:	10800958 	cmpnei	r2,r2,37
   2bbd0:	103ffb1e 	bne	r2,zero,2bbc0 <___vfiprintf_internal_r+0xc0>
   2bbd4:	8523c83a 	sub	r17,r16,r20
   2bbd8:	8501161e 	bne	r16,r20,2c034 <___vfiprintf_internal_r+0x534>
   2bbdc:	80800003 	ldbu	r2,0(r16)
   2bbe0:	10803fcc 	andi	r2,r2,255
   2bbe4:	1080201c 	xori	r2,r2,128
   2bbe8:	10bfe004 	addi	r2,r2,-128
   2bbec:	1000cd26 	beq	r2,zero,2bf24 <___vfiprintf_internal_r+0x424>
   2bbf0:	80800047 	ldb	r2,1(r16)
   2bbf4:	85000044 	addi	r20,r16,1
   2bbf8:	d8000945 	stb	zero,37(sp)
   2bbfc:	027fffc4 	movi	r9,-1
   2bc00:	0023883a 	mov	r17,zero
   2bc04:	0021883a 	mov	r16,zero
   2bc08:	a5000044 	addi	r20,r20,1
   2bc0c:	10fff804 	addi	r3,r2,-32
   2bc10:	19001668 	cmpgeui	r4,r3,89
   2bc14:	20006a1e 	bne	r4,zero,2bdc0 <___vfiprintf_internal_r+0x2c0>
   2bc18:	180690ba 	slli	r3,r3,2
   2bc1c:	010000f4 	movhi	r4,3
   2bc20:	1909883a 	add	r4,r3,r4
   2bc24:	20ef0b17 	ldw	r3,-17364(r4)
   2bc28:	1800683a 	jmp	r3
   2bc2c:	0002c2c0 	call	2c2c <__reset-0x1d3d4>
   2bc30:	0002bdc0 	call	2bdc <__reset-0x1d424>
   2bc34:	0002bdc0 	call	2bdc <__reset-0x1d424>
   2bc38:	0002c2b4 	movhi	zero,2826
   2bc3c:	0002bdc0 	call	2bdc <__reset-0x1d424>
   2bc40:	0002bdc0 	call	2bdc <__reset-0x1d424>
   2bc44:	0002bdc0 	call	2bdc <__reset-0x1d424>
   2bc48:	0002bdc0 	call	2bdc <__reset-0x1d424>
   2bc4c:	0002bdc0 	call	2bdc <__reset-0x1d424>
   2bc50:	0002bdc0 	call	2bdc <__reset-0x1d424>
   2bc54:	0002c230 	cmpltui	zero,zero,2824
   2bc58:	0002c2a4 	muli	zero,zero,2826
   2bc5c:	0002bdc0 	call	2bdc <__reset-0x1d424>
   2bc60:	0002c248 	cmpgei	zero,zero,2825
   2bc64:	0002c254 	movui	zero,2825
   2bc68:	0002bdc0 	call	2bdc <__reset-0x1d424>
   2bc6c:	0002c298 	cmpnei	zero,zero,2826
   2bc70:	0002bd90 	cmplti	zero,zero,2806
   2bc74:	0002bd90 	cmplti	zero,zero,2806
   2bc78:	0002bd90 	cmplti	zero,zero,2806
   2bc7c:	0002bd90 	cmplti	zero,zero,2806
   2bc80:	0002bd90 	cmplti	zero,zero,2806
   2bc84:	0002bd90 	cmplti	zero,zero,2806
   2bc88:	0002bd90 	cmplti	zero,zero,2806
   2bc8c:	0002bd90 	cmplti	zero,zero,2806
   2bc90:	0002bd90 	cmplti	zero,zero,2806
   2bc94:	0002bdc0 	call	2bdc <__reset-0x1d424>
   2bc98:	0002bdc0 	call	2bdc <__reset-0x1d424>
   2bc9c:	0002bdc0 	call	2bdc <__reset-0x1d424>
   2bca0:	0002bdc0 	call	2bdc <__reset-0x1d424>
   2bca4:	0002bdc0 	call	2bdc <__reset-0x1d424>
   2bca8:	0002bdc0 	call	2bdc <__reset-0x1d424>
   2bcac:	0002bdc0 	call	2bdc <__reset-0x1d424>
   2bcb0:	0002bdc0 	call	2bdc <__reset-0x1d424>
   2bcb4:	0002bdc0 	call	2bdc <__reset-0x1d424>
   2bcb8:	0002bdc0 	call	2bdc <__reset-0x1d424>
   2bcbc:	0002bfd4 	movui	zero,2815
   2bcc0:	0002bdc0 	call	2bdc <__reset-0x1d424>
   2bcc4:	0002bdc0 	call	2bdc <__reset-0x1d424>
   2bcc8:	0002bdc0 	call	2bdc <__reset-0x1d424>
   2bccc:	0002bdc0 	call	2bdc <__reset-0x1d424>
   2bcd0:	0002bdc0 	call	2bdc <__reset-0x1d424>
   2bcd4:	0002bdc0 	call	2bdc <__reset-0x1d424>
   2bcd8:	0002bdc0 	call	2bdc <__reset-0x1d424>
   2bcdc:	0002bdc0 	call	2bdc <__reset-0x1d424>
   2bce0:	0002bdc0 	call	2bdc <__reset-0x1d424>
   2bce4:	0002bdc0 	call	2bdc <__reset-0x1d424>
   2bce8:	0002c3dc 	xori	zero,zero,2831
   2bcec:	0002bdc0 	call	2bdc <__reset-0x1d424>
   2bcf0:	0002bdc0 	call	2bdc <__reset-0x1d424>
   2bcf4:	0002bdc0 	call	2bdc <__reset-0x1d424>
   2bcf8:	0002bdc0 	call	2bdc <__reset-0x1d424>
   2bcfc:	0002bdc0 	call	2bdc <__reset-0x1d424>
   2bd00:	0002c378 	rdprs	zero,zero,2829
   2bd04:	0002bdc0 	call	2bdc <__reset-0x1d424>
   2bd08:	0002bdc0 	call	2bdc <__reset-0x1d424>
   2bd0c:	0002cb50 	cmplti	zero,zero,2861
   2bd10:	0002bdc0 	call	2bdc <__reset-0x1d424>
   2bd14:	0002bdc0 	call	2bdc <__reset-0x1d424>
   2bd18:	0002bdc0 	call	2bdc <__reset-0x1d424>
   2bd1c:	0002bdc0 	call	2bdc <__reset-0x1d424>
   2bd20:	0002bdc0 	call	2bdc <__reset-0x1d424>
   2bd24:	0002bdc0 	call	2bdc <__reset-0x1d424>
   2bd28:	0002bdc0 	call	2bdc <__reset-0x1d424>
   2bd2c:	0002bdc0 	call	2bdc <__reset-0x1d424>
   2bd30:	0002bdc0 	call	2bdc <__reset-0x1d424>
   2bd34:	0002bdc0 	call	2bdc <__reset-0x1d424>
   2bd38:	0002c350 	cmplti	zero,zero,2829
   2bd3c:	0002bfd8 	cmpnei	zero,zero,2815
   2bd40:	0002bdc0 	call	2bdc <__reset-0x1d424>
   2bd44:	0002bdc0 	call	2bdc <__reset-0x1d424>
   2bd48:	0002bdc0 	call	2bdc <__reset-0x1d424>
   2bd4c:	0002c344 	movi	zero,2829
   2bd50:	0002bfd8 	cmpnei	zero,zero,2815
   2bd54:	0002bdc0 	call	2bdc <__reset-0x1d424>
   2bd58:	0002bdc0 	call	2bdc <__reset-0x1d424>
   2bd5c:	0002c330 	cmpltui	zero,zero,2828
   2bd60:	0002bdc0 	call	2bdc <__reset-0x1d424>
   2bd64:	0002c300 	call	2c30 <__reset-0x1d3d0>
   2bd68:	0002cbac 	andhi	zero,zero,2862
   2bd6c:	0002c4f0 	cmpltui	zero,zero,2835
   2bd70:	0002c4e4 	muli	zero,zero,2835
   2bd74:	0002bdc0 	call	2bdc <__reset-0x1d424>
   2bd78:	0002c48c 	andi	zero,zero,2834
   2bd7c:	0002bdc0 	call	2bdc <__reset-0x1d424>
   2bd80:	0002cb48 	cmpgei	zero,zero,2861
   2bd84:	0002bdc0 	call	2bdc <__reset-0x1d424>
   2bd88:	0002bdc0 	call	2bdc <__reset-0x1d424>
   2bd8c:	0002cbd8 	cmpnei	zero,zero,2863
   2bd90:	0023883a 	mov	r17,zero
   2bd94:	10fff404 	addi	r3,r2,-48
   2bd98:	a0800007 	ldb	r2,0(r20)
   2bd9c:	8c4002a4 	muli	r17,r17,10
   2bda0:	a5000044 	addi	r20,r20,1
   2bda4:	1c63883a 	add	r17,r3,r17
   2bda8:	10fff404 	addi	r3,r2,-48
   2bdac:	190002b0 	cmpltui	r4,r3,10
   2bdb0:	203ff91e 	bne	r4,zero,2bd98 <___vfiprintf_internal_r+0x298>
   2bdb4:	10fff804 	addi	r3,r2,-32
   2bdb8:	19001668 	cmpgeui	r4,r3,89
   2bdbc:	203f9626 	beq	r4,zero,2bc18 <___vfiprintf_internal_r+0x118>
   2bdc0:	10005826 	beq	r2,zero,2bf24 <___vfiprintf_internal_r+0x424>
   2bdc4:	d8800d05 	stb	r2,52(sp)
   2bdc8:	d8000945 	stb	zero,37(sp)
   2bdcc:	05800044 	movi	r22,1
   2bdd0:	05400044 	movi	r21,1
   2bdd4:	df000d04 	addi	fp,sp,52
   2bdd8:	0013883a 	mov	r9,zero
   2bddc:	8340008c 	andi	r13,r16,2
   2bde0:	68000126 	beq	r13,zero,2bde8 <___vfiprintf_internal_r+0x2e8>
   2bde4:	b5800084 	addi	r22,r22,2
   2bde8:	d9000b17 	ldw	r4,44(sp)
   2bdec:	8300210c 	andi	r12,r16,132
   2bdf0:	d8800c17 	ldw	r2,48(sp)
   2bdf4:	21800044 	addi	r6,r4,1
   2bdf8:	300b883a 	mov	r5,r6
   2bdfc:	6000021e 	bne	r12,zero,2be08 <___vfiprintf_internal_r+0x308>
   2be00:	8d87c83a 	sub	r3,r17,r22
   2be04:	00c28f16 	blt	zero,r3,2c844 <___vfiprintf_internal_r+0xd44>
   2be08:	d8c00947 	ldb	r3,37(sp)
   2be0c:	18000c26 	beq	r3,zero,2be40 <___vfiprintf_internal_r+0x340>
   2be10:	d8c00944 	addi	r3,sp,37
   2be14:	10800044 	addi	r2,r2,1
   2be18:	40c00015 	stw	r3,0(r8)
   2be1c:	00c00044 	movi	r3,1
   2be20:	40c00115 	stw	r3,4(r8)
   2be24:	d8800c15 	stw	r2,48(sp)
   2be28:	d9400b15 	stw	r5,44(sp)
   2be2c:	28c00208 	cmpgei	r3,r5,8
   2be30:	1802681e 	bne	r3,zero,2c7d4 <___vfiprintf_internal_r+0xcd4>
   2be34:	2809883a 	mov	r4,r5
   2be38:	42000204 	addi	r8,r8,8
   2be3c:	29400044 	addi	r5,r5,1
   2be40:	68001726 	beq	r13,zero,2bea0 <___vfiprintf_internal_r+0x3a0>
   2be44:	d8c00984 	addi	r3,sp,38
   2be48:	10800084 	addi	r2,r2,2
   2be4c:	40c00015 	stw	r3,0(r8)
   2be50:	00c00084 	movi	r3,2
   2be54:	40c00115 	stw	r3,4(r8)
   2be58:	d8800c15 	stw	r2,48(sp)
   2be5c:	d9400b15 	stw	r5,44(sp)
   2be60:	28c00208 	cmpgei	r3,r5,8
   2be64:	18027326 	beq	r3,zero,2c834 <___vfiprintf_internal_r+0xd34>
   2be68:	1002f626 	beq	r2,zero,2ca44 <___vfiprintf_internal_r+0xf44>
   2be6c:	d9000017 	ldw	r4,0(sp)
   2be70:	d9800a04 	addi	r6,sp,40
   2be74:	900b883a 	mov	r5,r18
   2be78:	da400415 	stw	r9,16(sp)
   2be7c:	db000215 	stw	r12,8(sp)
   2be80:	002b9f40 	call	2b9f4 <__sprint_r.part.0>
   2be84:	1000291e 	bne	r2,zero,2bf2c <___vfiprintf_internal_r+0x42c>
   2be88:	d9000b17 	ldw	r4,44(sp)
   2be8c:	d8800c17 	ldw	r2,48(sp)
   2be90:	da400417 	ldw	r9,16(sp)
   2be94:	db000217 	ldw	r12,8(sp)
   2be98:	9811883a 	mov	r8,r19
   2be9c:	21400044 	addi	r5,r4,1
   2bea0:	63002018 	cmpnei	r12,r12,128
   2bea4:	6001cf26 	beq	r12,zero,2c5e4 <___vfiprintf_internal_r+0xae4>
   2bea8:	4d53c83a 	sub	r9,r9,r21
   2beac:	02420d16 	blt	zero,r9,2c6e4 <___vfiprintf_internal_r+0xbe4>
   2beb0:	a885883a 	add	r2,r21,r2
   2beb4:	d9400b15 	stw	r5,44(sp)
   2beb8:	47000015 	stw	fp,0(r8)
   2bebc:	45400115 	stw	r21,4(r8)
   2bec0:	d8800c15 	stw	r2,48(sp)
   2bec4:	29400208 	cmpgei	r5,r5,8
   2bec8:	2801c026 	beq	r5,zero,2c5cc <___vfiprintf_internal_r+0xacc>
   2becc:	10007126 	beq	r2,zero,2c094 <___vfiprintf_internal_r+0x594>
   2bed0:	d9000017 	ldw	r4,0(sp)
   2bed4:	d9800a04 	addi	r6,sp,40
   2bed8:	900b883a 	mov	r5,r18
   2bedc:	002b9f40 	call	2b9f4 <__sprint_r.part.0>
   2bee0:	1000121e 	bne	r2,zero,2bf2c <___vfiprintf_internal_r+0x42c>
   2bee4:	d8800c17 	ldw	r2,48(sp)
   2bee8:	9811883a 	mov	r8,r19
   2beec:	8400010c 	andi	r16,r16,4
   2bef0:	80000226 	beq	r16,zero,2befc <___vfiprintf_internal_r+0x3fc>
   2bef4:	8da1c83a 	sub	r16,r17,r22
   2bef8:	04006c16 	blt	zero,r16,2c0ac <___vfiprintf_internal_r+0x5ac>
   2befc:	8d80010e 	bge	r17,r22,2bf04 <___vfiprintf_internal_r+0x404>
   2bf00:	b023883a 	mov	r17,r22
   2bf04:	d8c00117 	ldw	r3,4(sp)
   2bf08:	1c47883a 	add	r3,r3,r17
   2bf0c:	d8c00115 	stw	r3,4(sp)
   2bf10:	1002261e 	bne	r2,zero,2c7ac <___vfiprintf_internal_r+0xcac>
   2bf14:	a0800007 	ldb	r2,0(r20)
   2bf18:	d8000b15 	stw	zero,44(sp)
   2bf1c:	9811883a 	mov	r8,r19
   2bf20:	103f251e 	bne	r2,zero,2bbb8 <___vfiprintf_internal_r+0xb8>
   2bf24:	d8800c17 	ldw	r2,48(sp)
   2bf28:	1003631e 	bne	r2,zero,2ccb8 <___vfiprintf_internal_r+0x11b8>
   2bf2c:	9080030b 	ldhu	r2,12(r18)
   2bf30:	1080100c 	andi	r2,r2,64
   2bf34:	1003741e 	bne	r2,zero,2cd08 <___vfiprintf_internal_r+0x1208>
   2bf38:	d8800117 	ldw	r2,4(sp)
   2bf3c:	dfc03017 	ldw	ra,192(sp)
   2bf40:	df002f17 	ldw	fp,188(sp)
   2bf44:	ddc02e17 	ldw	r23,184(sp)
   2bf48:	dd802d17 	ldw	r22,180(sp)
   2bf4c:	dd402c17 	ldw	r21,176(sp)
   2bf50:	dd002b17 	ldw	r20,172(sp)
   2bf54:	dcc02a17 	ldw	r19,168(sp)
   2bf58:	dc802917 	ldw	r18,164(sp)
   2bf5c:	dc402817 	ldw	r17,160(sp)
   2bf60:	dc002717 	ldw	r16,156(sp)
   2bf64:	dec03104 	addi	sp,sp,196
   2bf68:	f800283a 	ret
   2bf6c:	d9000017 	ldw	r4,0(sp)
   2bf70:	900b883a 	mov	r5,r18
   2bf74:	0026e140 	call	26e14 <__swsetup_r>
   2bf78:	1003631e 	bne	r2,zero,2cd08 <___vfiprintf_internal_r+0x1208>
   2bf7c:	9080030b 	ldhu	r2,12(r18)
   2bf80:	1080068c 	andi	r2,r2,26
   2bf84:	10800298 	cmpnei	r2,r2,10
   2bf88:	103f001e 	bne	r2,zero,2bb8c <___vfiprintf_internal_r+0x8c>
   2bf8c:	9080038f 	ldh	r2,14(r18)
   2bf90:	103efe16 	blt	r2,zero,2bb8c <___vfiprintf_internal_r+0x8c>
   2bf94:	d9c00317 	ldw	r7,12(sp)
   2bf98:	d9000017 	ldw	r4,0(sp)
   2bf9c:	a00d883a 	mov	r6,r20
   2bfa0:	900b883a 	mov	r5,r18
   2bfa4:	dfc03017 	ldw	ra,192(sp)
   2bfa8:	df002f17 	ldw	fp,188(sp)
   2bfac:	ddc02e17 	ldw	r23,184(sp)
   2bfb0:	dd802d17 	ldw	r22,180(sp)
   2bfb4:	dd402c17 	ldw	r21,176(sp)
   2bfb8:	dd002b17 	ldw	r20,172(sp)
   2bfbc:	dcc02a17 	ldw	r19,168(sp)
   2bfc0:	dc802917 	ldw	r18,164(sp)
   2bfc4:	dc402817 	ldw	r17,160(sp)
   2bfc8:	dc002717 	ldw	r16,156(sp)
   2bfcc:	dec03104 	addi	sp,sp,196
   2bfd0:	002cd8c1 	jmpi	2cd8c <__sbprintf>
   2bfd4:	84000414 	ori	r16,r16,16
   2bfd8:	8080080c 	andi	r2,r16,32
   2bfdc:	10006626 	beq	r2,zero,2c178 <___vfiprintf_internal_r+0x678>
   2bfe0:	d8c00317 	ldw	r3,12(sp)
   2bfe4:	18800117 	ldw	r2,4(r3)
   2bfe8:	1d800017 	ldw	r22,0(r3)
   2bfec:	18c00204 	addi	r3,r3,8
   2bff0:	d8c00315 	stw	r3,12(sp)
   2bff4:	102b883a 	mov	r21,r2
   2bff8:	10006d16 	blt	r2,zero,2c1b0 <___vfiprintf_internal_r+0x6b0>
   2bffc:	48bfffd8 	cmpnei	r2,r9,-1
   2c000:	db000943 	ldbu	r12,37(sp)
   2c004:	10007526 	beq	r2,zero,2c1dc <___vfiprintf_internal_r+0x6dc>
   2c008:	00ffdfc4 	movi	r3,-129
   2c00c:	b544b03a 	or	r2,r22,r21
   2c010:	80e0703a 	and	r16,r16,r3
   2c014:	1000711e 	bne	r2,zero,2c1dc <___vfiprintf_internal_r+0x6dc>
   2c018:	48033e1e 	bne	r9,zero,2cd14 <___vfiprintf_internal_r+0x1214>
   2c01c:	002d883a 	mov	r22,zero
   2c020:	002b883a 	mov	r21,zero
   2c024:	9839883a 	mov	fp,r19
   2c028:	00007606 	br	2c204 <___vfiprintf_internal_r+0x704>
   2c02c:	8523c83a 	sub	r17,r16,r20
   2c030:	853fbc26 	beq	r16,r20,2bf24 <___vfiprintf_internal_r+0x424>
   2c034:	d8c00c17 	ldw	r3,48(sp)
   2c038:	d8800b17 	ldw	r2,44(sp)
   2c03c:	45000015 	stw	r20,0(r8)
   2c040:	88c7883a 	add	r3,r17,r3
   2c044:	10800044 	addi	r2,r2,1
   2c048:	d8800b15 	stw	r2,44(sp)
   2c04c:	44400115 	stw	r17,4(r8)
   2c050:	d8c00c15 	stw	r3,48(sp)
   2c054:	10800208 	cmpgei	r2,r2,8
   2c058:	1000061e 	bne	r2,zero,2c074 <___vfiprintf_internal_r+0x574>
   2c05c:	42000204 	addi	r8,r8,8
   2c060:	d8c00117 	ldw	r3,4(sp)
   2c064:	80800003 	ldbu	r2,0(r16)
   2c068:	1c47883a 	add	r3,r3,r17
   2c06c:	d8c00115 	stw	r3,4(sp)
   2c070:	003edb06 	br	2bbe0 <___vfiprintf_internal_r+0xe0>
   2c074:	18025226 	beq	r3,zero,2c9c0 <___vfiprintf_internal_r+0xec0>
   2c078:	d9000017 	ldw	r4,0(sp)
   2c07c:	d9800a04 	addi	r6,sp,40
   2c080:	900b883a 	mov	r5,r18
   2c084:	002b9f40 	call	2b9f4 <__sprint_r.part.0>
   2c088:	103fa81e 	bne	r2,zero,2bf2c <___vfiprintf_internal_r+0x42c>
   2c08c:	9811883a 	mov	r8,r19
   2c090:	003ff306 	br	2c060 <___vfiprintf_internal_r+0x560>
   2c094:	d8000b15 	stw	zero,44(sp)
   2c098:	8400010c 	andi	r16,r16,4
   2c09c:	80022426 	beq	r16,zero,2c930 <___vfiprintf_internal_r+0xe30>
   2c0a0:	8da1c83a 	sub	r16,r17,r22
   2c0a4:	0402220e 	bge	zero,r16,2c930 <___vfiprintf_internal_r+0xe30>
   2c0a8:	9811883a 	mov	r8,r19
   2c0ac:	80c00450 	cmplti	r3,r16,17
   2c0b0:	d9000b17 	ldw	r4,44(sp)
   2c0b4:	01c000f4 	movhi	r7,3
   2c0b8:	18030b1e 	bne	r3,zero,2cce8 <___vfiprintf_internal_r+0x11e8>
   2c0bc:	39d2c204 	addi	r7,r7,19208
   2c0c0:	05400404 	movi	r21,16
   2c0c4:	00000606 	br	2c0e0 <___vfiprintf_internal_r+0x5e0>
   2c0c8:	21400084 	addi	r5,r4,2
   2c0cc:	42000204 	addi	r8,r8,8
   2c0d0:	1809883a 	mov	r4,r3
   2c0d4:	843ffc04 	addi	r16,r16,-16
   2c0d8:	80c00448 	cmpgei	r3,r16,17
   2c0dc:	18001726 	beq	r3,zero,2c13c <___vfiprintf_internal_r+0x63c>
   2c0e0:	20c00044 	addi	r3,r4,1
   2c0e4:	10800404 	addi	r2,r2,16
   2c0e8:	41c00015 	stw	r7,0(r8)
   2c0ec:	45400115 	stw	r21,4(r8)
   2c0f0:	d8800c15 	stw	r2,48(sp)
   2c0f4:	d8c00b15 	stw	r3,44(sp)
   2c0f8:	19400208 	cmpgei	r5,r3,8
   2c0fc:	283ff226 	beq	r5,zero,2c0c8 <___vfiprintf_internal_r+0x5c8>
   2c100:	d9000017 	ldw	r4,0(sp)
   2c104:	d9800a04 	addi	r6,sp,40
   2c108:	900b883a 	mov	r5,r18
   2c10c:	10013126 	beq	r2,zero,2c5d4 <___vfiprintf_internal_r+0xad4>
   2c110:	d9c00215 	stw	r7,8(sp)
   2c114:	002b9f40 	call	2b9f4 <__sprint_r.part.0>
   2c118:	103f841e 	bne	r2,zero,2bf2c <___vfiprintf_internal_r+0x42c>
   2c11c:	d9000b17 	ldw	r4,44(sp)
   2c120:	843ffc04 	addi	r16,r16,-16
   2c124:	80c00448 	cmpgei	r3,r16,17
   2c128:	d8800c17 	ldw	r2,48(sp)
   2c12c:	d9c00217 	ldw	r7,8(sp)
   2c130:	9811883a 	mov	r8,r19
   2c134:	21400044 	addi	r5,r4,1
   2c138:	183fe91e 	bne	r3,zero,2c0e0 <___vfiprintf_internal_r+0x5e0>
   2c13c:	1405883a 	add	r2,r2,r16
   2c140:	d9400b15 	stw	r5,44(sp)
   2c144:	41c00015 	stw	r7,0(r8)
   2c148:	44000115 	stw	r16,4(r8)
   2c14c:	d8800c15 	stw	r2,48(sp)
   2c150:	29400210 	cmplti	r5,r5,8
   2c154:	283f691e 	bne	r5,zero,2befc <___vfiprintf_internal_r+0x3fc>
   2c158:	1001f526 	beq	r2,zero,2c930 <___vfiprintf_internal_r+0xe30>
   2c15c:	d9000017 	ldw	r4,0(sp)
   2c160:	d9800a04 	addi	r6,sp,40
   2c164:	900b883a 	mov	r5,r18
   2c168:	002b9f40 	call	2b9f4 <__sprint_r.part.0>
   2c16c:	103f6f1e 	bne	r2,zero,2bf2c <___vfiprintf_internal_r+0x42c>
   2c170:	d8800c17 	ldw	r2,48(sp)
   2c174:	003f6106 	br	2befc <___vfiprintf_internal_r+0x3fc>
   2c178:	d8c00317 	ldw	r3,12(sp)
   2c17c:	8080040c 	andi	r2,r16,16
   2c180:	1d800017 	ldw	r22,0(r3)
   2c184:	18c00104 	addi	r3,r3,4
   2c188:	d8c00315 	stw	r3,12(sp)
   2c18c:	1000251e 	bne	r2,zero,2c224 <___vfiprintf_internal_r+0x724>
   2c190:	8080100c 	andi	r2,r16,64
   2c194:	10002326 	beq	r2,zero,2c224 <___vfiprintf_internal_r+0x724>
   2c198:	b5bfffcc 	andi	r22,r22,65535
   2c19c:	b5a0001c 	xori	r22,r22,32768
   2c1a0:	b5a00004 	addi	r22,r22,-32768
   2c1a4:	b02bd7fa 	srai	r21,r22,31
   2c1a8:	a805883a 	mov	r2,r21
   2c1ac:	103f930e 	bge	r2,zero,2bffc <___vfiprintf_internal_r+0x4fc>
   2c1b0:	00800b44 	movi	r2,45
   2c1b4:	b006c03a 	cmpne	r3,r22,zero
   2c1b8:	056bc83a 	sub	r21,zero,r21
   2c1bc:	d8800945 	stb	r2,37(sp)
   2c1c0:	48bfffd8 	cmpnei	r2,r9,-1
   2c1c4:	a8ebc83a 	sub	r21,r21,r3
   2c1c8:	05adc83a 	sub	r22,zero,r22
   2c1cc:	10000226 	beq	r2,zero,2c1d8 <___vfiprintf_internal_r+0x6d8>
   2c1d0:	00bfdfc4 	movi	r2,-129
   2c1d4:	80a0703a 	and	r16,r16,r2
   2c1d8:	03000b44 	movi	r12,45
   2c1dc:	a800d41e 	bne	r21,zero,2c530 <___vfiprintf_internal_r+0xa30>
   2c1e0:	b08002a8 	cmpgeui	r2,r22,10
   2c1e4:	1000d21e 	bne	r2,zero,2c530 <___vfiprintf_internal_r+0xa30>
   2c1e8:	b5800c04 	addi	r22,r22,48
   2c1ec:	dd8016c5 	stb	r22,91(sp)
   2c1f0:	482d883a 	mov	r22,r9
   2c1f4:	02400116 	blt	zero,r9,2c1fc <___vfiprintf_internal_r+0x6fc>
   2c1f8:	05800044 	movi	r22,1
   2c1fc:	05400044 	movi	r21,1
   2c200:	df0016c4 	addi	fp,sp,91
   2c204:	63003fcc 	andi	r12,r12,255
   2c208:	6300201c 	xori	r12,r12,128
   2c20c:	633fe004 	addi	r12,r12,-128
   2c210:	603ef226 	beq	r12,zero,2bddc <___vfiprintf_internal_r+0x2dc>
   2c214:	b5800044 	addi	r22,r22,1
   2c218:	003ef006 	br	2bddc <___vfiprintf_internal_r+0x2dc>
   2c21c:	0028fbc0 	call	28fbc <__sinit>
   2c220:	003e4906 	br	2bb48 <___vfiprintf_internal_r+0x48>
   2c224:	b02bd7fa 	srai	r21,r22,31
   2c228:	a805883a 	mov	r2,r21
   2c22c:	003f7206 	br	2bff8 <___vfiprintf_internal_r+0x4f8>
   2c230:	d8800317 	ldw	r2,12(sp)
   2c234:	14400017 	ldw	r17,0(r2)
   2c238:	17000104 	addi	fp,r2,4
   2c23c:	8802200e 	bge	r17,zero,2cac0 <___vfiprintf_internal_r+0xfc0>
   2c240:	0463c83a 	sub	r17,zero,r17
   2c244:	df000315 	stw	fp,12(sp)
   2c248:	a0800007 	ldb	r2,0(r20)
   2c24c:	84000114 	ori	r16,r16,4
   2c250:	003e6d06 	br	2bc08 <___vfiprintf_internal_r+0x108>
   2c254:	a0800007 	ldb	r2,0(r20)
   2c258:	a1000044 	addi	r4,r20,1
   2c25c:	10c00aa0 	cmpeqi	r3,r2,42
   2c260:	1802b11e 	bne	r3,zero,2cd28 <___vfiprintf_internal_r+0x1228>
   2c264:	10fff404 	addi	r3,r2,-48
   2c268:	194002b0 	cmpltui	r5,r3,10
   2c26c:	2029883a 	mov	r20,r4
   2c270:	0013883a 	mov	r9,zero
   2c274:	283e6526 	beq	r5,zero,2bc0c <___vfiprintf_internal_r+0x10c>
   2c278:	a0800007 	ldb	r2,0(r20)
   2c27c:	4a4002a4 	muli	r9,r9,10
   2c280:	a5000044 	addi	r20,r20,1
   2c284:	48d3883a 	add	r9,r9,r3
   2c288:	10fff404 	addi	r3,r2,-48
   2c28c:	190002b0 	cmpltui	r4,r3,10
   2c290:	203ff91e 	bne	r4,zero,2c278 <___vfiprintf_internal_r+0x778>
   2c294:	003e5d06 	br	2bc0c <___vfiprintf_internal_r+0x10c>
   2c298:	a0800007 	ldb	r2,0(r20)
   2c29c:	84002014 	ori	r16,r16,128
   2c2a0:	003e5906 	br	2bc08 <___vfiprintf_internal_r+0x108>
   2c2a4:	00c00ac4 	movi	r3,43
   2c2a8:	a0800007 	ldb	r2,0(r20)
   2c2ac:	d8c00945 	stb	r3,37(sp)
   2c2b0:	003e5506 	br	2bc08 <___vfiprintf_internal_r+0x108>
   2c2b4:	a0800007 	ldb	r2,0(r20)
   2c2b8:	84000054 	ori	r16,r16,1
   2c2bc:	003e5206 	br	2bc08 <___vfiprintf_internal_r+0x108>
   2c2c0:	d8c00947 	ldb	r3,37(sp)
   2c2c4:	a0800003 	ldbu	r2,0(r20)
   2c2c8:	1800091e 	bne	r3,zero,2c2f0 <___vfiprintf_internal_r+0x7f0>
   2c2cc:	10803fcc 	andi	r2,r2,255
   2c2d0:	00c00804 	movi	r3,32
   2c2d4:	1080201c 	xori	r2,r2,128
   2c2d8:	d8c00945 	stb	r3,37(sp)
   2c2dc:	10bfe004 	addi	r2,r2,-128
   2c2e0:	003e4906 	br	2bc08 <___vfiprintf_internal_r+0x108>
   2c2e4:	a0800043 	ldbu	r2,1(r20)
   2c2e8:	84000814 	ori	r16,r16,32
   2c2ec:	a5000044 	addi	r20,r20,1
   2c2f0:	10803fcc 	andi	r2,r2,255
   2c2f4:	1080201c 	xori	r2,r2,128
   2c2f8:	10bfe004 	addi	r2,r2,-128
   2c2fc:	003e4206 	br	2bc08 <___vfiprintf_internal_r+0x108>
   2c300:	8080080c 	andi	r2,r16,32
   2c304:	1001f826 	beq	r2,zero,2cae8 <___vfiprintf_internal_r+0xfe8>
   2c308:	d9000117 	ldw	r4,4(sp)
   2c30c:	d8800317 	ldw	r2,12(sp)
   2c310:	2007d7fa 	srai	r3,r4,31
   2c314:	10800017 	ldw	r2,0(r2)
   2c318:	11000015 	stw	r4,0(r2)
   2c31c:	10c00115 	stw	r3,4(r2)
   2c320:	d8800317 	ldw	r2,12(sp)
   2c324:	10800104 	addi	r2,r2,4
   2c328:	d8800315 	stw	r2,12(sp)
   2c32c:	003e2006 	br	2bbb0 <___vfiprintf_internal_r+0xb0>
   2c330:	a0800007 	ldb	r2,0(r20)
   2c334:	10c01b18 	cmpnei	r3,r2,108
   2c338:	183fea26 	beq	r3,zero,2c2e4 <___vfiprintf_internal_r+0x7e4>
   2c33c:	84000414 	ori	r16,r16,16
   2c340:	003e3106 	br	2bc08 <___vfiprintf_internal_r+0x108>
   2c344:	a0800007 	ldb	r2,0(r20)
   2c348:	84001014 	ori	r16,r16,64
   2c34c:	003e2e06 	br	2bc08 <___vfiprintf_internal_r+0x108>
   2c350:	d8c00317 	ldw	r3,12(sp)
   2c354:	d8000945 	stb	zero,37(sp)
   2c358:	05800044 	movi	r22,1
   2c35c:	18800017 	ldw	r2,0(r3)
   2c360:	18c00104 	addi	r3,r3,4
   2c364:	d8c00315 	stw	r3,12(sp)
   2c368:	d8800d05 	stb	r2,52(sp)
   2c36c:	05400044 	movi	r21,1
   2c370:	df000d04 	addi	fp,sp,52
   2c374:	003e9806 	br	2bdd8 <___vfiprintf_internal_r+0x2d8>
   2c378:	80800414 	ori	r2,r16,16
   2c37c:	10c0080c 	andi	r3,r2,32
   2c380:	18019126 	beq	r3,zero,2c9c8 <___vfiprintf_internal_r+0xec8>
   2c384:	d8c00317 	ldw	r3,12(sp)
   2c388:	d8000945 	stb	zero,37(sp)
   2c38c:	1d800017 	ldw	r22,0(r3)
   2c390:	1d400117 	ldw	r21,4(r3)
   2c394:	18c00204 	addi	r3,r3,8
   2c398:	d8c00315 	stw	r3,12(sp)
   2c39c:	48ffffd8 	cmpnei	r3,r9,-1
   2c3a0:	18019626 	beq	r3,zero,2c9fc <___vfiprintf_internal_r+0xefc>
   2c3a4:	00c00044 	movi	r3,1
   2c3a8:	043fdfc4 	movi	r16,-129
   2c3ac:	b548b03a 	or	r4,r22,r21
   2c3b0:	1420703a 	and	r16,r2,r16
   2c3b4:	2000191e 	bne	r4,zero,2c41c <___vfiprintf_internal_r+0x91c>
   2c3b8:	4802221e 	bne	r9,zero,2cc44 <___vfiprintf_internal_r+0x1144>
   2c3bc:	1801bc1e 	bne	r3,zero,2cab0 <___vfiprintf_internal_r+0xfb0>
   2c3c0:	1540004c 	andi	r21,r2,1
   2c3c4:	a801c126 	beq	r21,zero,2cacc <___vfiprintf_internal_r+0xfcc>
   2c3c8:	00800c04 	movi	r2,48
   2c3cc:	d88016c5 	stb	r2,91(sp)
   2c3d0:	a82d883a 	mov	r22,r21
   2c3d4:	df0016c4 	addi	fp,sp,91
   2c3d8:	003e8006 	br	2bddc <___vfiprintf_internal_r+0x2dc>
   2c3dc:	80800414 	ori	r2,r16,16
   2c3e0:	10c0080c 	andi	r3,r2,32
   2c3e4:	18018826 	beq	r3,zero,2ca08 <___vfiprintf_internal_r+0xf08>
   2c3e8:	d8c00317 	ldw	r3,12(sp)
   2c3ec:	d8000945 	stb	zero,37(sp)
   2c3f0:	1d800017 	ldw	r22,0(r3)
   2c3f4:	1d400117 	ldw	r21,4(r3)
   2c3f8:	18c00204 	addi	r3,r3,8
   2c3fc:	d8c00315 	stw	r3,12(sp)
   2c400:	48ffffd8 	cmpnei	r3,r9,-1
   2c404:	18018d26 	beq	r3,zero,2ca3c <___vfiprintf_internal_r+0xf3c>
   2c408:	043fdfc4 	movi	r16,-129
   2c40c:	b548b03a 	or	r4,r22,r21
   2c410:	0007883a 	mov	r3,zero
   2c414:	1420703a 	and	r16,r2,r16
   2c418:	203fe726 	beq	r4,zero,2c3b8 <___vfiprintf_internal_r+0x8b8>
   2c41c:	18800060 	cmpeqi	r2,r3,1
   2c420:	1002511e 	bne	r2,zero,2cd68 <___vfiprintf_internal_r+0x1268>
   2c424:	18c000a0 	cmpeqi	r3,r3,2
   2c428:	1801481e 	bne	r3,zero,2c94c <___vfiprintf_internal_r+0xe4c>
   2c42c:	9839883a 	mov	fp,r19
   2c430:	a808977a 	slli	r4,r21,29
   2c434:	b006d0fa 	srli	r3,r22,3
   2c438:	a82ad0fa 	srli	r21,r21,3
   2c43c:	b08001cc 	andi	r2,r22,7
   2c440:	10800c04 	addi	r2,r2,48
   2c444:	20ecb03a 	or	r22,r4,r3
   2c448:	e0bfffc5 	stb	r2,-1(fp)
   2c44c:	b546b03a 	or	r3,r22,r21
   2c450:	e00b883a 	mov	r5,fp
   2c454:	e73fffc4 	addi	fp,fp,-1
   2c458:	183ff51e 	bne	r3,zero,2c430 <___vfiprintf_internal_r+0x930>
   2c45c:	80c0004c 	andi	r3,r16,1
   2c460:	18014726 	beq	r3,zero,2c980 <___vfiprintf_internal_r+0xe80>
   2c464:	10800c18 	cmpnei	r2,r2,48
   2c468:	10014526 	beq	r2,zero,2c980 <___vfiprintf_internal_r+0xe80>
   2c46c:	297fff84 	addi	r5,r5,-2
   2c470:	00800c04 	movi	r2,48
   2c474:	e0bfffc5 	stb	r2,-1(fp)
   2c478:	996bc83a 	sub	r21,r19,r5
   2c47c:	482d883a 	mov	r22,r9
   2c480:	4d41a616 	blt	r9,r21,2cb1c <___vfiprintf_internal_r+0x101c>
   2c484:	2839883a 	mov	fp,r5
   2c488:	003e5406 	br	2bddc <___vfiprintf_internal_r+0x2dc>
   2c48c:	d8800317 	ldw	r2,12(sp)
   2c490:	d8000945 	stb	zero,37(sp)
   2c494:	17000017 	ldw	fp,0(r2)
   2c498:	10c00104 	addi	r3,r2,4
   2c49c:	e001f026 	beq	fp,zero,2cc60 <___vfiprintf_internal_r+0x1160>
   2c4a0:	48bfffe0 	cmpeqi	r2,r9,-1
   2c4a4:	1001a01e 	bne	r2,zero,2cb28 <___vfiprintf_internal_r+0x1028>
   2c4a8:	480d883a 	mov	r6,r9
   2c4ac:	000b883a 	mov	r5,zero
   2c4b0:	e009883a 	mov	r4,fp
   2c4b4:	d8c00415 	stw	r3,16(sp)
   2c4b8:	da000315 	stw	r8,12(sp)
   2c4bc:	da400215 	stw	r9,8(sp)
   2c4c0:	0029cb40 	call	29cb4 <memchr>
   2c4c4:	da400217 	ldw	r9,8(sp)
   2c4c8:	da000317 	ldw	r8,12(sp)
   2c4cc:	d8c00417 	ldw	r3,16(sp)
   2c4d0:	1001fe26 	beq	r2,zero,2cccc <___vfiprintf_internal_r+0x11cc>
   2c4d4:	172bc83a 	sub	r21,r2,fp
   2c4d8:	a82d883a 	mov	r22,r21
   2c4dc:	d8c00315 	stw	r3,12(sp)
   2c4e0:	003e3d06 	br	2bdd8 <___vfiprintf_internal_r+0x2d8>
   2c4e4:	a0800007 	ldb	r2,0(r20)
   2c4e8:	84000814 	ori	r16,r16,32
   2c4ec:	003dc606 	br	2bc08 <___vfiprintf_internal_r+0x108>
   2c4f0:	d9000317 	ldw	r4,12(sp)
   2c4f4:	00de0c04 	movi	r3,30768
   2c4f8:	014000f4 	movhi	r5,3
   2c4fc:	d8c0098d 	sth	r3,38(sp)
   2c500:	25800017 	ldw	r22,0(r4)
   2c504:	20c00104 	addi	r3,r4,4
   2c508:	d8c00315 	stw	r3,12(sp)
   2c50c:	28d23e04 	addi	r3,r5,18680
   2c510:	002b883a 	mov	r21,zero
   2c514:	80800094 	ori	r2,r16,2
   2c518:	d8c00515 	stw	r3,20(sp)
   2c51c:	d8000945 	stb	zero,37(sp)
   2c520:	48ffffd8 	cmpnei	r3,r9,-1
   2c524:	18010826 	beq	r3,zero,2c948 <___vfiprintf_internal_r+0xe48>
   2c528:	00c00084 	movi	r3,2
   2c52c:	003f9e06 	br	2c3a8 <___vfiprintf_internal_r+0x8a8>
   2c530:	9839883a 	mov	fp,r19
   2c534:	b009883a 	mov	r4,r22
   2c538:	a80b883a 	mov	r5,r21
   2c53c:	01800284 	movi	r6,10
   2c540:	000f883a 	mov	r7,zero
   2c544:	db000615 	stw	r12,24(sp)
   2c548:	da000415 	stw	r8,16(sp)
   2c54c:	da400215 	stw	r9,8(sp)
   2c550:	002e2940 	call	2e294 <__umoddi3>
   2c554:	10800c04 	addi	r2,r2,48
   2c558:	b009883a 	mov	r4,r22
   2c55c:	a80b883a 	mov	r5,r21
   2c560:	e0bfffc5 	stb	r2,-1(fp)
   2c564:	01800284 	movi	r6,10
   2c568:	000f883a 	mov	r7,zero
   2c56c:	002dd440 	call	2dd44 <__udivdi3>
   2c570:	a809883a 	mov	r4,r21
   2c574:	b00b883a 	mov	r5,r22
   2c578:	da400217 	ldw	r9,8(sp)
   2c57c:	da000417 	ldw	r8,16(sp)
   2c580:	db000617 	ldw	r12,24(sp)
   2c584:	e73fffc4 	addi	fp,fp,-1
   2c588:	102d883a 	mov	r22,r2
   2c58c:	182b883a 	mov	r21,r3
   2c590:	203fe81e 	bne	r4,zero,2c534 <___vfiprintf_internal_r+0xa34>
   2c594:	294002a8 	cmpgeui	r5,r5,10
   2c598:	283fe61e 	bne	r5,zero,2c534 <___vfiprintf_internal_r+0xa34>
   2c59c:	9f2bc83a 	sub	r21,r19,fp
   2c5a0:	482d883a 	mov	r22,r9
   2c5a4:	4d7f170e 	bge	r9,r21,2c204 <___vfiprintf_internal_r+0x704>
   2c5a8:	a82d883a 	mov	r22,r21
   2c5ac:	003f1506 	br	2c204 <___vfiprintf_internal_r+0x704>
   2c5b0:	00c00044 	movi	r3,1
   2c5b4:	a805883a 	mov	r2,r21
   2c5b8:	df001715 	stw	fp,92(sp)
   2c5bc:	dd401815 	stw	r21,96(sp)
   2c5c0:	dd400c15 	stw	r21,48(sp)
   2c5c4:	d8c00b15 	stw	r3,44(sp)
   2c5c8:	9811883a 	mov	r8,r19
   2c5cc:	42000204 	addi	r8,r8,8
   2c5d0:	003e4606 	br	2beec <___vfiprintf_internal_r+0x3ec>
   2c5d4:	01400044 	movi	r5,1
   2c5d8:	0009883a 	mov	r4,zero
   2c5dc:	9811883a 	mov	r8,r19
   2c5e0:	003ebc06 	br	2c0d4 <___vfiprintf_internal_r+0x5d4>
   2c5e4:	8d8fc83a 	sub	r7,r17,r22
   2c5e8:	01fe2f0e 	bge	zero,r7,2bea8 <___vfiprintf_internal_r+0x3a8>
   2c5ec:	38c00450 	cmplti	r3,r7,17
   2c5f0:	1801c01e 	bne	r3,zero,2ccf4 <___vfiprintf_internal_r+0x11f4>
   2c5f4:	00c000f4 	movhi	r3,3
   2c5f8:	18d2be04 	addi	r3,r3,19192
   2c5fc:	d8c00415 	stw	r3,16(sp)
   2c600:	03000404 	movi	r12,16
   2c604:	00000606 	br	2c620 <___vfiprintf_internal_r+0xb20>
   2c608:	21800084 	addi	r6,r4,2
   2c60c:	42000204 	addi	r8,r8,8
   2c610:	1809883a 	mov	r4,r3
   2c614:	39fffc04 	addi	r7,r7,-16
   2c618:	38c00448 	cmpgei	r3,r7,17
   2c61c:	18001b26 	beq	r3,zero,2c68c <___vfiprintf_internal_r+0xb8c>
   2c620:	d9400417 	ldw	r5,16(sp)
   2c624:	20c00044 	addi	r3,r4,1
   2c628:	10800404 	addi	r2,r2,16
   2c62c:	41400015 	stw	r5,0(r8)
   2c630:	43000115 	stw	r12,4(r8)
   2c634:	d8800c15 	stw	r2,48(sp)
   2c638:	d8c00b15 	stw	r3,44(sp)
   2c63c:	19400208 	cmpgei	r5,r3,8
   2c640:	283ff126 	beq	r5,zero,2c608 <___vfiprintf_internal_r+0xb08>
   2c644:	d9000017 	ldw	r4,0(sp)
   2c648:	d9800a04 	addi	r6,sp,40
   2c64c:	900b883a 	mov	r5,r18
   2c650:	10005c26 	beq	r2,zero,2c7c4 <___vfiprintf_internal_r+0xcc4>
   2c654:	d9c00615 	stw	r7,24(sp)
   2c658:	da400215 	stw	r9,8(sp)
   2c65c:	002b9f40 	call	2b9f4 <__sprint_r.part.0>
   2c660:	103e321e 	bne	r2,zero,2bf2c <___vfiprintf_internal_r+0x42c>
   2c664:	d9c00617 	ldw	r7,24(sp)
   2c668:	d9000b17 	ldw	r4,44(sp)
   2c66c:	d8800c17 	ldw	r2,48(sp)
   2c670:	39fffc04 	addi	r7,r7,-16
   2c674:	38c00448 	cmpgei	r3,r7,17
   2c678:	da400217 	ldw	r9,8(sp)
   2c67c:	9811883a 	mov	r8,r19
   2c680:	21800044 	addi	r6,r4,1
   2c684:	03000404 	movi	r12,16
   2c688:	183fe51e 	bne	r3,zero,2c620 <___vfiprintf_internal_r+0xb20>
   2c68c:	d8c00417 	ldw	r3,16(sp)
   2c690:	11c5883a 	add	r2,r2,r7
   2c694:	41c00115 	stw	r7,4(r8)
   2c698:	40c00015 	stw	r3,0(r8)
   2c69c:	d8800c15 	stw	r2,48(sp)
   2c6a0:	d9800b15 	stw	r6,44(sp)
   2c6a4:	30c00208 	cmpgei	r3,r6,8
   2c6a8:	18010b26 	beq	r3,zero,2cad8 <___vfiprintf_internal_r+0xfd8>
   2c6ac:	10017826 	beq	r2,zero,2cc90 <___vfiprintf_internal_r+0x1190>
   2c6b0:	d9000017 	ldw	r4,0(sp)
   2c6b4:	d9800a04 	addi	r6,sp,40
   2c6b8:	900b883a 	mov	r5,r18
   2c6bc:	da400215 	stw	r9,8(sp)
   2c6c0:	002b9f40 	call	2b9f4 <__sprint_r.part.0>
   2c6c4:	103e191e 	bne	r2,zero,2bf2c <___vfiprintf_internal_r+0x42c>
   2c6c8:	da400217 	ldw	r9,8(sp)
   2c6cc:	d9000b17 	ldw	r4,44(sp)
   2c6d0:	d8800c17 	ldw	r2,48(sp)
   2c6d4:	4d53c83a 	sub	r9,r9,r21
   2c6d8:	9811883a 	mov	r8,r19
   2c6dc:	21400044 	addi	r5,r4,1
   2c6e0:	027df30e 	bge	zero,r9,2beb0 <___vfiprintf_internal_r+0x3b0>
   2c6e4:	48c00450 	cmplti	r3,r9,17
   2c6e8:	1801651e 	bne	r3,zero,2cc80 <___vfiprintf_internal_r+0x1180>
   2c6ec:	ddc00415 	stw	r23,16(sp)
   2c6f0:	01c00404 	movi	r7,16
   2c6f4:	00000606 	br	2c710 <___vfiprintf_internal_r+0xc10>
   2c6f8:	21400084 	addi	r5,r4,2
   2c6fc:	42000204 	addi	r8,r8,8
   2c700:	1809883a 	mov	r4,r3
   2c704:	4a7ffc04 	addi	r9,r9,-16
   2c708:	48c00448 	cmpgei	r3,r9,17
   2c70c:	18001826 	beq	r3,zero,2c770 <___vfiprintf_internal_r+0xc70>
   2c710:	20c00044 	addi	r3,r4,1
   2c714:	10800404 	addi	r2,r2,16
   2c718:	45c00015 	stw	r23,0(r8)
   2c71c:	41c00115 	stw	r7,4(r8)
   2c720:	d8800c15 	stw	r2,48(sp)
   2c724:	d8c00b15 	stw	r3,44(sp)
   2c728:	19400208 	cmpgei	r5,r3,8
   2c72c:	283ff226 	beq	r5,zero,2c6f8 <___vfiprintf_internal_r+0xbf8>
   2c730:	d9000017 	ldw	r4,0(sp)
   2c734:	d9800a04 	addi	r6,sp,40
   2c738:	900b883a 	mov	r5,r18
   2c73c:	10001726 	beq	r2,zero,2c79c <___vfiprintf_internal_r+0xc9c>
   2c740:	da400215 	stw	r9,8(sp)
   2c744:	002b9f40 	call	2b9f4 <__sprint_r.part.0>
   2c748:	103df81e 	bne	r2,zero,2bf2c <___vfiprintf_internal_r+0x42c>
   2c74c:	da400217 	ldw	r9,8(sp)
   2c750:	d9000b17 	ldw	r4,44(sp)
   2c754:	d8800c17 	ldw	r2,48(sp)
   2c758:	4a7ffc04 	addi	r9,r9,-16
   2c75c:	48c00448 	cmpgei	r3,r9,17
   2c760:	9811883a 	mov	r8,r19
   2c764:	21400044 	addi	r5,r4,1
   2c768:	01c00404 	movi	r7,16
   2c76c:	183fe81e 	bne	r3,zero,2c710 <___vfiprintf_internal_r+0xc10>
   2c770:	d8c00417 	ldw	r3,16(sp)
   2c774:	1245883a 	add	r2,r2,r9
   2c778:	42400115 	stw	r9,4(r8)
   2c77c:	40c00015 	stw	r3,0(r8)
   2c780:	d8800c15 	stw	r2,48(sp)
   2c784:	d9400b15 	stw	r5,44(sp)
   2c788:	28c00208 	cmpgei	r3,r5,8
   2c78c:	1800811e 	bne	r3,zero,2c994 <___vfiprintf_internal_r+0xe94>
   2c790:	42000204 	addi	r8,r8,8
   2c794:	29400044 	addi	r5,r5,1
   2c798:	003dc506 	br	2beb0 <___vfiprintf_internal_r+0x3b0>
   2c79c:	01400044 	movi	r5,1
   2c7a0:	0009883a 	mov	r4,zero
   2c7a4:	9811883a 	mov	r8,r19
   2c7a8:	003fd606 	br	2c704 <___vfiprintf_internal_r+0xc04>
   2c7ac:	d9000017 	ldw	r4,0(sp)
   2c7b0:	d9800a04 	addi	r6,sp,40
   2c7b4:	900b883a 	mov	r5,r18
   2c7b8:	002b9f40 	call	2b9f4 <__sprint_r.part.0>
   2c7bc:	103dd526 	beq	r2,zero,2bf14 <___vfiprintf_internal_r+0x414>
   2c7c0:	003dda06 	br	2bf2c <___vfiprintf_internal_r+0x42c>
   2c7c4:	01800044 	movi	r6,1
   2c7c8:	0009883a 	mov	r4,zero
   2c7cc:	9811883a 	mov	r8,r19
   2c7d0:	003f9006 	br	2c614 <___vfiprintf_internal_r+0xb14>
   2c7d4:	10001026 	beq	r2,zero,2c818 <___vfiprintf_internal_r+0xd18>
   2c7d8:	d9000017 	ldw	r4,0(sp)
   2c7dc:	d9800a04 	addi	r6,sp,40
   2c7e0:	900b883a 	mov	r5,r18
   2c7e4:	da400615 	stw	r9,24(sp)
   2c7e8:	db000415 	stw	r12,16(sp)
   2c7ec:	db400215 	stw	r13,8(sp)
   2c7f0:	002b9f40 	call	2b9f4 <__sprint_r.part.0>
   2c7f4:	103dcd1e 	bne	r2,zero,2bf2c <___vfiprintf_internal_r+0x42c>
   2c7f8:	d9000b17 	ldw	r4,44(sp)
   2c7fc:	d8800c17 	ldw	r2,48(sp)
   2c800:	da400617 	ldw	r9,24(sp)
   2c804:	db000417 	ldw	r12,16(sp)
   2c808:	db400217 	ldw	r13,8(sp)
   2c80c:	9811883a 	mov	r8,r19
   2c810:	21400044 	addi	r5,r4,1
   2c814:	003d8a06 	br	2be40 <___vfiprintf_internal_r+0x340>
   2c818:	6800bc26 	beq	r13,zero,2cb0c <___vfiprintf_internal_r+0x100c>
   2c81c:	d8800984 	addi	r2,sp,38
   2c820:	d8801715 	stw	r2,92(sp)
   2c824:	00800084 	movi	r2,2
   2c828:	d8801815 	stw	r2,96(sp)
   2c82c:	01400044 	movi	r5,1
   2c830:	9811883a 	mov	r8,r19
   2c834:	2809883a 	mov	r4,r5
   2c838:	42000204 	addi	r8,r8,8
   2c83c:	29400044 	addi	r5,r5,1
   2c840:	003d9706 	br	2bea0 <___vfiprintf_internal_r+0x3a0>
   2c844:	19400450 	cmplti	r5,r3,17
   2c848:	01c000f4 	movhi	r7,3
   2c84c:	2801231e 	bne	r5,zero,2ccdc <___vfiprintf_internal_r+0x11dc>
   2c850:	39d2c204 	addi	r7,r7,19208
   2c854:	03800404 	movi	r14,16
   2c858:	00000706 	br	2c878 <___vfiprintf_internal_r+0xd78>
   2c85c:	23c00084 	addi	r15,r4,2
   2c860:	42000204 	addi	r8,r8,8
   2c864:	3009883a 	mov	r4,r6
   2c868:	18fffc04 	addi	r3,r3,-16
   2c86c:	19400448 	cmpgei	r5,r3,17
   2c870:	28002026 	beq	r5,zero,2c8f4 <___vfiprintf_internal_r+0xdf4>
   2c874:	21800044 	addi	r6,r4,1
   2c878:	10800404 	addi	r2,r2,16
   2c87c:	41c00015 	stw	r7,0(r8)
   2c880:	43800115 	stw	r14,4(r8)
   2c884:	d8800c15 	stw	r2,48(sp)
   2c888:	d9800b15 	stw	r6,44(sp)
   2c88c:	31400208 	cmpgei	r5,r6,8
   2c890:	283ff226 	beq	r5,zero,2c85c <___vfiprintf_internal_r+0xd5c>
   2c894:	d9000017 	ldw	r4,0(sp)
   2c898:	d9800a04 	addi	r6,sp,40
   2c89c:	900b883a 	mov	r5,r18
   2c8a0:	10001f26 	beq	r2,zero,2c920 <___vfiprintf_internal_r+0xe20>
   2c8a4:	d9c00815 	stw	r7,32(sp)
   2c8a8:	d8c00715 	stw	r3,28(sp)
   2c8ac:	da400615 	stw	r9,24(sp)
   2c8b0:	db000415 	stw	r12,16(sp)
   2c8b4:	db400215 	stw	r13,8(sp)
   2c8b8:	002b9f40 	call	2b9f4 <__sprint_r.part.0>
   2c8bc:	103d9b1e 	bne	r2,zero,2bf2c <___vfiprintf_internal_r+0x42c>
   2c8c0:	d8c00717 	ldw	r3,28(sp)
   2c8c4:	d9000b17 	ldw	r4,44(sp)
   2c8c8:	d8800c17 	ldw	r2,48(sp)
   2c8cc:	18fffc04 	addi	r3,r3,-16
   2c8d0:	19400448 	cmpgei	r5,r3,17
   2c8d4:	d9c00817 	ldw	r7,32(sp)
   2c8d8:	da400617 	ldw	r9,24(sp)
   2c8dc:	db000417 	ldw	r12,16(sp)
   2c8e0:	db400217 	ldw	r13,8(sp)
   2c8e4:	9811883a 	mov	r8,r19
   2c8e8:	23c00044 	addi	r15,r4,1
   2c8ec:	03800404 	movi	r14,16
   2c8f0:	283fe01e 	bne	r5,zero,2c874 <___vfiprintf_internal_r+0xd74>
   2c8f4:	10c5883a 	add	r2,r2,r3
   2c8f8:	40c00115 	stw	r3,4(r8)
   2c8fc:	41c00015 	stw	r7,0(r8)
   2c900:	d8800c15 	stw	r2,48(sp)
   2c904:	dbc00b15 	stw	r15,44(sp)
   2c908:	78c00208 	cmpgei	r3,r15,8
   2c90c:	1800511e 	bne	r3,zero,2ca54 <___vfiprintf_internal_r+0xf54>
   2c910:	42000204 	addi	r8,r8,8
   2c914:	79400044 	addi	r5,r15,1
   2c918:	7809883a 	mov	r4,r15
   2c91c:	003d3a06 	br	2be08 <___vfiprintf_internal_r+0x308>
   2c920:	0009883a 	mov	r4,zero
   2c924:	03c00044 	movi	r15,1
   2c928:	9811883a 	mov	r8,r19
   2c92c:	003fce06 	br	2c868 <___vfiprintf_internal_r+0xd68>
   2c930:	8d80010e 	bge	r17,r22,2c938 <___vfiprintf_internal_r+0xe38>
   2c934:	b023883a 	mov	r17,r22
   2c938:	d8800117 	ldw	r2,4(sp)
   2c93c:	1445883a 	add	r2,r2,r17
   2c940:	d8800115 	stw	r2,4(sp)
   2c944:	003d7306 	br	2bf14 <___vfiprintf_internal_r+0x414>
   2c948:	1021883a 	mov	r16,r2
   2c94c:	9839883a 	mov	fp,r19
   2c950:	d9000517 	ldw	r4,20(sp)
   2c954:	b08003cc 	andi	r2,r22,15
   2c958:	a806973a 	slli	r3,r21,28
   2c95c:	b02cd13a 	srli	r22,r22,4
   2c960:	2085883a 	add	r2,r4,r2
   2c964:	10800003 	ldbu	r2,0(r2)
   2c968:	a82ad13a 	srli	r21,r21,4
   2c96c:	1dacb03a 	or	r22,r3,r22
   2c970:	e0bfffc5 	stb	r2,-1(fp)
   2c974:	b544b03a 	or	r2,r22,r21
   2c978:	e73fffc4 	addi	fp,fp,-1
   2c97c:	103ff41e 	bne	r2,zero,2c950 <___vfiprintf_internal_r+0xe50>
   2c980:	9f2bc83a 	sub	r21,r19,fp
   2c984:	482d883a 	mov	r22,r9
   2c988:	4d7d140e 	bge	r9,r21,2bddc <___vfiprintf_internal_r+0x2dc>
   2c98c:	a82d883a 	mov	r22,r21
   2c990:	003d1206 	br	2bddc <___vfiprintf_internal_r+0x2dc>
   2c994:	103f0626 	beq	r2,zero,2c5b0 <___vfiprintf_internal_r+0xab0>
   2c998:	d9000017 	ldw	r4,0(sp)
   2c99c:	d9800a04 	addi	r6,sp,40
   2c9a0:	900b883a 	mov	r5,r18
   2c9a4:	002b9f40 	call	2b9f4 <__sprint_r.part.0>
   2c9a8:	103d601e 	bne	r2,zero,2bf2c <___vfiprintf_internal_r+0x42c>
   2c9ac:	d9400b17 	ldw	r5,44(sp)
   2c9b0:	d8800c17 	ldw	r2,48(sp)
   2c9b4:	9811883a 	mov	r8,r19
   2c9b8:	29400044 	addi	r5,r5,1
   2c9bc:	003d3c06 	br	2beb0 <___vfiprintf_internal_r+0x3b0>
   2c9c0:	d8000b15 	stw	zero,44(sp)
   2c9c4:	003db106 	br	2c08c <___vfiprintf_internal_r+0x58c>
   2c9c8:	d9000317 	ldw	r4,12(sp)
   2c9cc:	10c0040c 	andi	r3,r2,16
   2c9d0:	25800017 	ldw	r22,0(r4)
   2c9d4:	21000104 	addi	r4,r4,4
   2c9d8:	d9000315 	stw	r4,12(sp)
   2c9dc:	1800031e 	bne	r3,zero,2c9ec <___vfiprintf_internal_r+0xeec>
   2c9e0:	10c0100c 	andi	r3,r2,64
   2c9e4:	18000126 	beq	r3,zero,2c9ec <___vfiprintf_internal_r+0xeec>
   2c9e8:	b5bfffcc 	andi	r22,r22,65535
   2c9ec:	d8000945 	stb	zero,37(sp)
   2c9f0:	48ffffd8 	cmpnei	r3,r9,-1
   2c9f4:	002b883a 	mov	r21,zero
   2c9f8:	183e6a1e 	bne	r3,zero,2c3a4 <___vfiprintf_internal_r+0x8a4>
   2c9fc:	1021883a 	mov	r16,r2
   2ca00:	0019883a 	mov	r12,zero
   2ca04:	003df506 	br	2c1dc <___vfiprintf_internal_r+0x6dc>
   2ca08:	d9000317 	ldw	r4,12(sp)
   2ca0c:	10c0040c 	andi	r3,r2,16
   2ca10:	25800017 	ldw	r22,0(r4)
   2ca14:	21000104 	addi	r4,r4,4
   2ca18:	d9000315 	stw	r4,12(sp)
   2ca1c:	1800031e 	bne	r3,zero,2ca2c <___vfiprintf_internal_r+0xf2c>
   2ca20:	10c0100c 	andi	r3,r2,64
   2ca24:	18000126 	beq	r3,zero,2ca2c <___vfiprintf_internal_r+0xf2c>
   2ca28:	b5bfffcc 	andi	r22,r22,65535
   2ca2c:	d8000945 	stb	zero,37(sp)
   2ca30:	48ffffd8 	cmpnei	r3,r9,-1
   2ca34:	002b883a 	mov	r21,zero
   2ca38:	183e731e 	bne	r3,zero,2c408 <___vfiprintf_internal_r+0x908>
   2ca3c:	1021883a 	mov	r16,r2
   2ca40:	003e7a06 	br	2c42c <___vfiprintf_internal_r+0x92c>
   2ca44:	01400044 	movi	r5,1
   2ca48:	0009883a 	mov	r4,zero
   2ca4c:	9811883a 	mov	r8,r19
   2ca50:	003d1306 	br	2bea0 <___vfiprintf_internal_r+0x3a0>
   2ca54:	10005726 	beq	r2,zero,2cbb4 <___vfiprintf_internal_r+0x10b4>
   2ca58:	d9000017 	ldw	r4,0(sp)
   2ca5c:	d9800a04 	addi	r6,sp,40
   2ca60:	900b883a 	mov	r5,r18
   2ca64:	da400615 	stw	r9,24(sp)
   2ca68:	db000415 	stw	r12,16(sp)
   2ca6c:	db400215 	stw	r13,8(sp)
   2ca70:	002b9f40 	call	2b9f4 <__sprint_r.part.0>
   2ca74:	103d2d1e 	bne	r2,zero,2bf2c <___vfiprintf_internal_r+0x42c>
   2ca78:	d9000b17 	ldw	r4,44(sp)
   2ca7c:	d8800c17 	ldw	r2,48(sp)
   2ca80:	da400617 	ldw	r9,24(sp)
   2ca84:	db000417 	ldw	r12,16(sp)
   2ca88:	db400217 	ldw	r13,8(sp)
   2ca8c:	9811883a 	mov	r8,r19
   2ca90:	21400044 	addi	r5,r4,1
   2ca94:	003cdc06 	br	2be08 <___vfiprintf_internal_r+0x308>
   2ca98:	d8000945 	stb	zero,37(sp)
   2ca9c:	48bfffd8 	cmpnei	r2,r9,-1
   2caa0:	103faa26 	beq	r2,zero,2c94c <___vfiprintf_internal_r+0xe4c>
   2caa4:	00bfdfc4 	movi	r2,-129
   2caa8:	80a0703a 	and	r16,r16,r2
   2caac:	4800621e 	bne	r9,zero,2cc38 <___vfiprintf_internal_r+0x1138>
   2cab0:	002d883a 	mov	r22,zero
   2cab4:	002b883a 	mov	r21,zero
   2cab8:	9839883a 	mov	fp,r19
   2cabc:	003cc706 	br	2bddc <___vfiprintf_internal_r+0x2dc>
   2cac0:	a0800007 	ldb	r2,0(r20)
   2cac4:	df000315 	stw	fp,12(sp)
   2cac8:	003c4f06 	br	2bc08 <___vfiprintf_internal_r+0x108>
   2cacc:	002d883a 	mov	r22,zero
   2cad0:	9839883a 	mov	fp,r19
   2cad4:	003cc106 	br	2bddc <___vfiprintf_internal_r+0x2dc>
   2cad8:	42000204 	addi	r8,r8,8
   2cadc:	31400044 	addi	r5,r6,1
   2cae0:	3009883a 	mov	r4,r6
   2cae4:	003cf006 	br	2bea8 <___vfiprintf_internal_r+0x3a8>
   2cae8:	8080040c 	andi	r2,r16,16
   2caec:	10003e1e 	bne	r2,zero,2cbe8 <___vfiprintf_internal_r+0x10e8>
   2caf0:	8400100c 	andi	r16,r16,64
   2caf4:	80003c26 	beq	r16,zero,2cbe8 <___vfiprintf_internal_r+0x10e8>
   2caf8:	d8800317 	ldw	r2,12(sp)
   2cafc:	d8c00117 	ldw	r3,4(sp)
   2cb00:	10800017 	ldw	r2,0(r2)
   2cb04:	10c0000d 	sth	r3,0(r2)
   2cb08:	003e0506 	br	2c320 <___vfiprintf_internal_r+0x820>
   2cb0c:	0009883a 	mov	r4,zero
   2cb10:	01400044 	movi	r5,1
   2cb14:	9811883a 	mov	r8,r19
   2cb18:	003ce106 	br	2bea0 <___vfiprintf_internal_r+0x3a0>
   2cb1c:	a82d883a 	mov	r22,r21
   2cb20:	2839883a 	mov	fp,r5
   2cb24:	003cad06 	br	2bddc <___vfiprintf_internal_r+0x2dc>
   2cb28:	e009883a 	mov	r4,fp
   2cb2c:	da000215 	stw	r8,8(sp)
   2cb30:	d8c00315 	stw	r3,12(sp)
   2cb34:	00248900 	call	24890 <strlen>
   2cb38:	da000217 	ldw	r8,8(sp)
   2cb3c:	102b883a 	mov	r21,r2
   2cb40:	102d883a 	mov	r22,r2
   2cb44:	003ca406 	br	2bdd8 <___vfiprintf_internal_r+0x2d8>
   2cb48:	8005883a 	mov	r2,r16
   2cb4c:	003e0b06 	br	2c37c <___vfiprintf_internal_r+0x87c>
   2cb50:	00c000f4 	movhi	r3,3
   2cb54:	18d23904 	addi	r3,r3,18660
   2cb58:	d8c00515 	stw	r3,20(sp)
   2cb5c:	80c0080c 	andi	r3,r16,32
   2cb60:	18002826 	beq	r3,zero,2cc04 <___vfiprintf_internal_r+0x1104>
   2cb64:	d8c00317 	ldw	r3,12(sp)
   2cb68:	1d800017 	ldw	r22,0(r3)
   2cb6c:	1d400117 	ldw	r21,4(r3)
   2cb70:	18c00204 	addi	r3,r3,8
   2cb74:	d8c00315 	stw	r3,12(sp)
   2cb78:	80c0004c 	andi	r3,r16,1
   2cb7c:	18001f26 	beq	r3,zero,2cbfc <___vfiprintf_internal_r+0x10fc>
   2cb80:	b546b03a 	or	r3,r22,r21
   2cb84:	183fc426 	beq	r3,zero,2ca98 <___vfiprintf_internal_r+0xf98>
   2cb88:	00c00c04 	movi	r3,48
   2cb8c:	d8c00985 	stb	r3,38(sp)
   2cb90:	d88009c5 	stb	r2,39(sp)
   2cb94:	d8000945 	stb	zero,37(sp)
   2cb98:	48bfffd8 	cmpnei	r2,r9,-1
   2cb9c:	80c00094 	ori	r3,r16,2
   2cba0:	10006d1e 	bne	r2,zero,2cd58 <___vfiprintf_internal_r+0x1258>
   2cba4:	1821883a 	mov	r16,r3
   2cba8:	003f6806 	br	2c94c <___vfiprintf_internal_r+0xe4c>
   2cbac:	8005883a 	mov	r2,r16
   2cbb0:	003e0b06 	br	2c3e0 <___vfiprintf_internal_r+0x8e0>
   2cbb4:	d8c00947 	ldb	r3,37(sp)
   2cbb8:	18003b26 	beq	r3,zero,2cca8 <___vfiprintf_internal_r+0x11a8>
   2cbbc:	d8800944 	addi	r2,sp,37
   2cbc0:	d8801715 	stw	r2,92(sp)
   2cbc4:	00800044 	movi	r2,1
   2cbc8:	d8801815 	stw	r2,96(sp)
   2cbcc:	01400044 	movi	r5,1
   2cbd0:	9811883a 	mov	r8,r19
   2cbd4:	003c9706 	br	2be34 <___vfiprintf_internal_r+0x334>
   2cbd8:	00c000f4 	movhi	r3,3
   2cbdc:	18d23e04 	addi	r3,r3,18680
   2cbe0:	d8c00515 	stw	r3,20(sp)
   2cbe4:	003fdd06 	br	2cb5c <___vfiprintf_internal_r+0x105c>
   2cbe8:	d8800317 	ldw	r2,12(sp)
   2cbec:	d8c00117 	ldw	r3,4(sp)
   2cbf0:	10800017 	ldw	r2,0(r2)
   2cbf4:	10c00015 	stw	r3,0(r2)
   2cbf8:	003dc906 	br	2c320 <___vfiprintf_internal_r+0x820>
   2cbfc:	8005883a 	mov	r2,r16
   2cc00:	003e4606 	br	2c51c <___vfiprintf_internal_r+0xa1c>
   2cc04:	d9000317 	ldw	r4,12(sp)
   2cc08:	80c0040c 	andi	r3,r16,16
   2cc0c:	25800017 	ldw	r22,0(r4)
   2cc10:	21000104 	addi	r4,r4,4
   2cc14:	d9000315 	stw	r4,12(sp)
   2cc18:	1800051e 	bne	r3,zero,2cc30 <___vfiprintf_internal_r+0x1130>
   2cc1c:	80c0100c 	andi	r3,r16,64
   2cc20:	18000326 	beq	r3,zero,2cc30 <___vfiprintf_internal_r+0x1130>
   2cc24:	b5bfffcc 	andi	r22,r22,65535
   2cc28:	002b883a 	mov	r21,zero
   2cc2c:	003fd206 	br	2cb78 <___vfiprintf_internal_r+0x1078>
   2cc30:	002b883a 	mov	r21,zero
   2cc34:	003fd006 	br	2cb78 <___vfiprintf_internal_r+0x1078>
   2cc38:	002d883a 	mov	r22,zero
   2cc3c:	002b883a 	mov	r21,zero
   2cc40:	003f4206 	br	2c94c <___vfiprintf_internal_r+0xe4c>
   2cc44:	18800060 	cmpeqi	r2,r3,1
   2cc48:	1000341e 	bne	r2,zero,2cd1c <___vfiprintf_internal_r+0x121c>
   2cc4c:	18c000a0 	cmpeqi	r3,r3,2
   2cc50:	183ff91e 	bne	r3,zero,2cc38 <___vfiprintf_internal_r+0x1138>
   2cc54:	002d883a 	mov	r22,zero
   2cc58:	002b883a 	mov	r21,zero
   2cc5c:	003df306 	br	2c42c <___vfiprintf_internal_r+0x92c>
   2cc60:	488001f0 	cmpltui	r2,r9,7
   2cc64:	482b883a 	mov	r21,r9
   2cc68:	10000d26 	beq	r2,zero,2cca0 <___vfiprintf_internal_r+0x11a0>
   2cc6c:	070000f4 	movhi	fp,3
   2cc70:	a82d883a 	mov	r22,r21
   2cc74:	d8c00315 	stw	r3,12(sp)
   2cc78:	e7124304 	addi	fp,fp,18700
   2cc7c:	003c5606 	br	2bdd8 <___vfiprintf_internal_r+0x2d8>
   2cc80:	00c000f4 	movhi	r3,3
   2cc84:	18d2be04 	addi	r3,r3,19192
   2cc88:	d8c00415 	stw	r3,16(sp)
   2cc8c:	003eb806 	br	2c770 <___vfiprintf_internal_r+0xc70>
   2cc90:	01400044 	movi	r5,1
   2cc94:	0009883a 	mov	r4,zero
   2cc98:	9811883a 	mov	r8,r19
   2cc9c:	003c8206 	br	2bea8 <___vfiprintf_internal_r+0x3a8>
   2cca0:	05400184 	movi	r21,6
   2cca4:	003ff106 	br	2cc6c <___vfiprintf_internal_r+0x116c>
   2cca8:	0009883a 	mov	r4,zero
   2ccac:	01400044 	movi	r5,1
   2ccb0:	9811883a 	mov	r8,r19
   2ccb4:	003c6206 	br	2be40 <___vfiprintf_internal_r+0x340>
   2ccb8:	d9000017 	ldw	r4,0(sp)
   2ccbc:	d9800a04 	addi	r6,sp,40
   2ccc0:	900b883a 	mov	r5,r18
   2ccc4:	002b9f40 	call	2b9f4 <__sprint_r.part.0>
   2ccc8:	003c9806 	br	2bf2c <___vfiprintf_internal_r+0x42c>
   2cccc:	482d883a 	mov	r22,r9
   2ccd0:	d8c00315 	stw	r3,12(sp)
   2ccd4:	482b883a 	mov	r21,r9
   2ccd8:	003c3f06 	br	2bdd8 <___vfiprintf_internal_r+0x2d8>
   2ccdc:	301f883a 	mov	r15,r6
   2cce0:	39d2c204 	addi	r7,r7,19208
   2cce4:	003f0306 	br	2c8f4 <___vfiprintf_internal_r+0xdf4>
   2cce8:	21400044 	addi	r5,r4,1
   2ccec:	39d2c204 	addi	r7,r7,19208
   2ccf0:	003d1206 	br	2c13c <___vfiprintf_internal_r+0x63c>
   2ccf4:	00c000f4 	movhi	r3,3
   2ccf8:	18d2be04 	addi	r3,r3,19192
   2ccfc:	280d883a 	mov	r6,r5
   2cd00:	d8c00415 	stw	r3,16(sp)
   2cd04:	003e6106 	br	2c68c <___vfiprintf_internal_r+0xb8c>
   2cd08:	00bfffc4 	movi	r2,-1
   2cd0c:	d8800115 	stw	r2,4(sp)
   2cd10:	003c8906 	br	2bf38 <___vfiprintf_internal_r+0x438>
   2cd14:	05800c04 	movi	r22,48
   2cd18:	003d3406 	br	2c1ec <___vfiprintf_internal_r+0x6ec>
   2cd1c:	0019883a 	mov	r12,zero
   2cd20:	05800c04 	movi	r22,48
   2cd24:	003d3106 	br	2c1ec <___vfiprintf_internal_r+0x6ec>
   2cd28:	d8800317 	ldw	r2,12(sp)
   2cd2c:	12400017 	ldw	r9,0(r2)
   2cd30:	17000104 	addi	fp,r2,4
   2cd34:	4800010e 	bge	r9,zero,2cd3c <___vfiprintf_internal_r+0x123c>
   2cd38:	027fffc4 	movi	r9,-1
   2cd3c:	a0800043 	ldbu	r2,1(r20)
   2cd40:	df000315 	stw	fp,12(sp)
   2cd44:	2029883a 	mov	r20,r4
   2cd48:	10803fcc 	andi	r2,r2,255
   2cd4c:	1080201c 	xori	r2,r2,128
   2cd50:	10bfe004 	addi	r2,r2,-128
   2cd54:	003bac06 	br	2bc08 <___vfiprintf_internal_r+0x108>
   2cd58:	00bfdfc4 	movi	r2,-129
   2cd5c:	8084703a 	and	r2,r16,r2
   2cd60:	14000094 	ori	r16,r2,2
   2cd64:	003ef906 	br	2c94c <___vfiprintf_internal_r+0xe4c>
   2cd68:	0019883a 	mov	r12,zero
   2cd6c:	003d1b06 	br	2c1dc <___vfiprintf_internal_r+0x6dc>

0002cd70 <__vfiprintf_internal>:
   2cd70:	00c000f4 	movhi	r3,3
   2cd74:	2005883a 	mov	r2,r4
   2cd78:	191cd017 	ldw	r4,29504(r3)
   2cd7c:	300f883a 	mov	r7,r6
   2cd80:	280d883a 	mov	r6,r5
   2cd84:	100b883a 	mov	r5,r2
   2cd88:	002bb001 	jmpi	2bb00 <___vfiprintf_internal_r>

0002cd8c <__sbprintf>:
   2cd8c:	28c0038b 	ldhu	r3,14(r5)
   2cd90:	2880030b 	ldhu	r2,12(r5)
   2cd94:	2ac01917 	ldw	r11,100(r5)
   2cd98:	1806943a 	slli	r3,r3,16
   2cd9c:	2a800717 	ldw	r10,28(r5)
   2cda0:	2a400917 	ldw	r9,36(r5)
   2cda4:	defee204 	addi	sp,sp,-1144
   2cda8:	10bfff4c 	andi	r2,r2,65533
   2cdac:	10c4b03a 	or	r2,r2,r3
   2cdb0:	da001a04 	addi	r8,sp,104
   2cdb4:	00c10004 	movi	r3,1024
   2cdb8:	dc011a15 	stw	r16,1128(sp)
   2cdbc:	2821883a 	mov	r16,r5
   2cdc0:	d80b883a 	mov	r5,sp
   2cdc4:	dc811c15 	stw	r18,1136(sp)
   2cdc8:	dc411b15 	stw	r17,1132(sp)
   2cdcc:	dfc11d15 	stw	ra,1140(sp)
   2cdd0:	2025883a 	mov	r18,r4
   2cdd4:	dac01915 	stw	r11,100(sp)
   2cdd8:	d8800315 	stw	r2,12(sp)
   2cddc:	da800715 	stw	r10,28(sp)
   2cde0:	da400915 	stw	r9,36(sp)
   2cde4:	da000015 	stw	r8,0(sp)
   2cde8:	da000415 	stw	r8,16(sp)
   2cdec:	d8c00215 	stw	r3,8(sp)
   2cdf0:	d8c00515 	stw	r3,20(sp)
   2cdf4:	d8000615 	stw	zero,24(sp)
   2cdf8:	002bb000 	call	2bb00 <___vfiprintf_internal_r>
   2cdfc:	1023883a 	mov	r17,r2
   2ce00:	10000d0e 	bge	r2,zero,2ce38 <__sbprintf+0xac>
   2ce04:	d880030b 	ldhu	r2,12(sp)
   2ce08:	1080100c 	andi	r2,r2,64
   2ce0c:	10000326 	beq	r2,zero,2ce1c <__sbprintf+0x90>
   2ce10:	8080030b 	ldhu	r2,12(r16)
   2ce14:	10801014 	ori	r2,r2,64
   2ce18:	8080030d 	sth	r2,12(r16)
   2ce1c:	8805883a 	mov	r2,r17
   2ce20:	dfc11d17 	ldw	ra,1140(sp)
   2ce24:	dc811c17 	ldw	r18,1136(sp)
   2ce28:	dc411b17 	ldw	r17,1132(sp)
   2ce2c:	dc011a17 	ldw	r16,1128(sp)
   2ce30:	dec11e04 	addi	sp,sp,1144
   2ce34:	f800283a 	ret
   2ce38:	d80b883a 	mov	r5,sp
   2ce3c:	9009883a 	mov	r4,r18
   2ce40:	0028ba40 	call	28ba4 <_fflush_r>
   2ce44:	103fef26 	beq	r2,zero,2ce04 <__sbprintf+0x78>
   2ce48:	047fffc4 	movi	r17,-1
   2ce4c:	003fed06 	br	2ce04 <__sbprintf+0x78>

0002ce50 <__swbuf_r>:
   2ce50:	defffb04 	addi	sp,sp,-20
   2ce54:	dcc00315 	stw	r19,12(sp)
   2ce58:	dc400115 	stw	r17,4(sp)
   2ce5c:	dc000015 	stw	r16,0(sp)
   2ce60:	dfc00415 	stw	ra,16(sp)
   2ce64:	dc800215 	stw	r18,8(sp)
   2ce68:	2027883a 	mov	r19,r4
   2ce6c:	2823883a 	mov	r17,r5
   2ce70:	3021883a 	mov	r16,r6
   2ce74:	20000226 	beq	r4,zero,2ce80 <__swbuf_r+0x30>
   2ce78:	20800e17 	ldw	r2,56(r4)
   2ce7c:	10003e26 	beq	r2,zero,2cf78 <__swbuf_r+0x128>
   2ce80:	80800617 	ldw	r2,24(r16)
   2ce84:	80c0030b 	ldhu	r3,12(r16)
   2ce88:	80800215 	stw	r2,8(r16)
   2ce8c:	1880020c 	andi	r2,r3,8
   2ce90:	10001f26 	beq	r2,zero,2cf10 <__swbuf_r+0xc0>
   2ce94:	80800417 	ldw	r2,16(r16)
   2ce98:	10001d26 	beq	r2,zero,2cf10 <__swbuf_r+0xc0>
   2ce9c:	1948000c 	andi	r5,r3,8192
   2cea0:	8c803fcc 	andi	r18,r17,255
   2cea4:	28002326 	beq	r5,zero,2cf34 <__swbuf_r+0xe4>
   2cea8:	80c00017 	ldw	r3,0(r16)
   2ceac:	81000517 	ldw	r4,20(r16)
   2ceb0:	1885c83a 	sub	r2,r3,r2
   2ceb4:	1100290e 	bge	r2,r4,2cf5c <__swbuf_r+0x10c>
   2ceb8:	10800044 	addi	r2,r2,1
   2cebc:	81400217 	ldw	r5,8(r16)
   2cec0:	19000044 	addi	r4,r3,1
   2cec4:	81000015 	stw	r4,0(r16)
   2cec8:	297fffc4 	addi	r5,r5,-1
   2cecc:	81400215 	stw	r5,8(r16)
   2ced0:	1c400005 	stb	r17,0(r3)
   2ced4:	80c00517 	ldw	r3,20(r16)
   2ced8:	18802926 	beq	r3,r2,2cf80 <__swbuf_r+0x130>
   2cedc:	8080030b 	ldhu	r2,12(r16)
   2cee0:	1080004c 	andi	r2,r2,1
   2cee4:	10000226 	beq	r2,zero,2cef0 <__swbuf_r+0xa0>
   2cee8:	90800298 	cmpnei	r2,r18,10
   2ceec:	10002426 	beq	r2,zero,2cf80 <__swbuf_r+0x130>
   2cef0:	9005883a 	mov	r2,r18
   2cef4:	dfc00417 	ldw	ra,16(sp)
   2cef8:	dcc00317 	ldw	r19,12(sp)
   2cefc:	dc800217 	ldw	r18,8(sp)
   2cf00:	dc400117 	ldw	r17,4(sp)
   2cf04:	dc000017 	ldw	r16,0(sp)
   2cf08:	dec00504 	addi	sp,sp,20
   2cf0c:	f800283a 	ret
   2cf10:	800b883a 	mov	r5,r16
   2cf14:	9809883a 	mov	r4,r19
   2cf18:	0026e140 	call	26e14 <__swsetup_r>
   2cf1c:	10001c1e 	bne	r2,zero,2cf90 <__swbuf_r+0x140>
   2cf20:	80c0030b 	ldhu	r3,12(r16)
   2cf24:	80800417 	ldw	r2,16(r16)
   2cf28:	8c803fcc 	andi	r18,r17,255
   2cf2c:	1948000c 	andi	r5,r3,8192
   2cf30:	283fdd1e 	bne	r5,zero,2cea8 <__swbuf_r+0x58>
   2cf34:	81001917 	ldw	r4,100(r16)
   2cf38:	18c80014 	ori	r3,r3,8192
   2cf3c:	0177ffc4 	movi	r5,-8193
   2cf40:	2148703a 	and	r4,r4,r5
   2cf44:	80c0030d 	sth	r3,12(r16)
   2cf48:	80c00017 	ldw	r3,0(r16)
   2cf4c:	81001915 	stw	r4,100(r16)
   2cf50:	81000517 	ldw	r4,20(r16)
   2cf54:	1885c83a 	sub	r2,r3,r2
   2cf58:	113fd716 	blt	r2,r4,2ceb8 <__swbuf_r+0x68>
   2cf5c:	800b883a 	mov	r5,r16
   2cf60:	9809883a 	mov	r4,r19
   2cf64:	0028ba40 	call	28ba4 <_fflush_r>
   2cf68:	1000091e 	bne	r2,zero,2cf90 <__swbuf_r+0x140>
   2cf6c:	80c00017 	ldw	r3,0(r16)
   2cf70:	00800044 	movi	r2,1
   2cf74:	003fd106 	br	2cebc <__swbuf_r+0x6c>
   2cf78:	0028fbc0 	call	28fbc <__sinit>
   2cf7c:	003fc006 	br	2ce80 <__swbuf_r+0x30>
   2cf80:	800b883a 	mov	r5,r16
   2cf84:	9809883a 	mov	r4,r19
   2cf88:	0028ba40 	call	28ba4 <_fflush_r>
   2cf8c:	103fd826 	beq	r2,zero,2cef0 <__swbuf_r+0xa0>
   2cf90:	04bfffc4 	movi	r18,-1
   2cf94:	003fd606 	br	2cef0 <__swbuf_r+0xa0>

0002cf98 <__swbuf>:
   2cf98:	00c000f4 	movhi	r3,3
   2cf9c:	2005883a 	mov	r2,r4
   2cfa0:	191cd017 	ldw	r4,29504(r3)
   2cfa4:	280d883a 	mov	r6,r5
   2cfa8:	100b883a 	mov	r5,r2
   2cfac:	002ce501 	jmpi	2ce50 <__swbuf_r>

0002cfb0 <__assert_func>:
   2cfb0:	008000f4 	movhi	r2,3
   2cfb4:	121cd017 	ldw	r8,29504(r2)
   2cfb8:	defffc04 	addi	sp,sp,-16
   2cfbc:	3807883a 	mov	r3,r7
   2cfc0:	3005883a 	mov	r2,r6
   2cfc4:	dfc00315 	stw	ra,12(sp)
   2cfc8:	42400317 	ldw	r9,12(r8)
   2cfcc:	200f883a 	mov	r7,r4
   2cfd0:	2811883a 	mov	r8,r5
   2cfd4:	180d883a 	mov	r6,r3
   2cfd8:	10000a26 	beq	r2,zero,2d004 <__assert_func+0x54>
   2cfdc:	00c000f4 	movhi	r3,3
   2cfe0:	18d2c604 	addi	r3,r3,19224
   2cfe4:	014000f4 	movhi	r5,3
   2cfe8:	2952ca04 	addi	r5,r5,19240
   2cfec:	4809883a 	mov	r4,r9
   2cff0:	d8c00115 	stw	r3,4(sp)
   2cff4:	da000015 	stw	r8,0(sp)
   2cff8:	d8800215 	stw	r2,8(sp)
   2cffc:	002d2a00 	call	2d2a0 <fiprintf>
   2d000:	002d8080 	call	2d808 <abort>
   2d004:	00c000f4 	movhi	r3,3
   2d008:	18d2c904 	addi	r3,r3,19236
   2d00c:	1805883a 	mov	r2,r3
   2d010:	003ff406 	br	2cfe4 <__assert_func+0x34>

0002d014 <__assert>:
   2d014:	deffff04 	addi	sp,sp,-4
   2d018:	300f883a 	mov	r7,r6
   2d01c:	000d883a 	mov	r6,zero
   2d020:	dfc00015 	stw	ra,0(sp)
   2d024:	002cfb00 	call	2cfb0 <__assert_func>

0002d028 <_calloc_r>:
   2d028:	2804d43a 	srli	r2,r5,16
   2d02c:	deffff04 	addi	sp,sp,-4
   2d030:	dfc00015 	stw	ra,0(sp)
   2d034:	3006d43a 	srli	r3,r6,16
   2d038:	10002a1e 	bne	r2,zero,2d0e4 <_calloc_r+0xbc>
   2d03c:	1800411e 	bne	r3,zero,2d144 <_calloc_r+0x11c>
   2d040:	31bfffcc 	andi	r6,r6,65535
   2d044:	297fffcc 	andi	r5,r5,65535
   2d048:	298b383a 	mul	r5,r5,r6
   2d04c:	0023aac0 	call	23aac <_malloc_r>
   2d050:	1009883a 	mov	r4,r2
   2d054:	10003626 	beq	r2,zero,2d130 <_calloc_r+0x108>
   2d058:	11bfff17 	ldw	r6,-4(r2)
   2d05c:	00bfff04 	movi	r2,-4
   2d060:	308c703a 	and	r6,r6,r2
   2d064:	31bfff04 	addi	r6,r6,-4
   2d068:	30800968 	cmpgeui	r2,r6,37
   2d06c:	10000c1e 	bne	r2,zero,2d0a0 <_calloc_r+0x78>
   2d070:	30800530 	cmpltui	r2,r6,20
   2d074:	1000111e 	bne	r2,zero,2d0bc <_calloc_r+0x94>
   2d078:	20000015 	stw	zero,0(r4)
   2d07c:	20000115 	stw	zero,4(r4)
   2d080:	30800728 	cmpgeui	r2,r6,28
   2d084:	10001526 	beq	r2,zero,2d0dc <_calloc_r+0xb4>
   2d088:	20000215 	stw	zero,8(r4)
   2d08c:	20000315 	stw	zero,12(r4)
   2d090:	31800920 	cmpeqi	r6,r6,36
   2d094:	3000311e 	bne	r6,zero,2d15c <_calloc_r+0x134>
   2d098:	20800404 	addi	r2,r4,16
   2d09c:	00000806 	br	2d0c0 <_calloc_r+0x98>
   2d0a0:	000b883a 	mov	r5,zero
   2d0a4:	00242600 	call	24260 <memset>
   2d0a8:	1009883a 	mov	r4,r2
   2d0ac:	2005883a 	mov	r2,r4
   2d0b0:	dfc00017 	ldw	ra,0(sp)
   2d0b4:	dec00104 	addi	sp,sp,4
   2d0b8:	f800283a 	ret
   2d0bc:	2005883a 	mov	r2,r4
   2d0c0:	10000015 	stw	zero,0(r2)
   2d0c4:	10000115 	stw	zero,4(r2)
   2d0c8:	10000215 	stw	zero,8(r2)
   2d0cc:	2005883a 	mov	r2,r4
   2d0d0:	dfc00017 	ldw	ra,0(sp)
   2d0d4:	dec00104 	addi	sp,sp,4
   2d0d8:	f800283a 	ret
   2d0dc:	20800204 	addi	r2,r4,8
   2d0e0:	003ff706 	br	2d0c0 <_calloc_r+0x98>
   2d0e4:	1800191e 	bne	r3,zero,2d14c <_calloc_r+0x124>
   2d0e8:	1007883a 	mov	r3,r2
   2d0ec:	3005883a 	mov	r2,r6
   2d0f0:	297fffcc 	andi	r5,r5,65535
   2d0f4:	31bfffcc 	andi	r6,r6,65535
   2d0f8:	298b383a 	mul	r5,r5,r6
   2d0fc:	18ffffcc 	andi	r3,r3,65535
   2d100:	10bfffcc 	andi	r2,r2,65535
   2d104:	10c5383a 	mul	r2,r2,r3
   2d108:	2806d43a 	srli	r3,r5,16
   2d10c:	10c5883a 	add	r2,r2,r3
   2d110:	1006d43a 	srli	r3,r2,16
   2d114:	18000d1e 	bne	r3,zero,2d14c <_calloc_r+0x124>
   2d118:	1004943a 	slli	r2,r2,16
   2d11c:	297fffcc 	andi	r5,r5,65535
   2d120:	114ab03a 	or	r5,r2,r5
   2d124:	0023aac0 	call	23aac <_malloc_r>
   2d128:	1009883a 	mov	r4,r2
   2d12c:	103fca1e 	bne	r2,zero,2d058 <_calloc_r+0x30>
   2d130:	0009883a 	mov	r4,zero
   2d134:	2005883a 	mov	r2,r4
   2d138:	dfc00017 	ldw	ra,0(sp)
   2d13c:	dec00104 	addi	sp,sp,4
   2d140:	f800283a 	ret
   2d144:	2805883a 	mov	r2,r5
   2d148:	003fe906 	br	2d0f0 <_calloc_r+0xc8>
   2d14c:	002d16c0 	call	2d16c <__errno>
   2d150:	00c00304 	movi	r3,12
   2d154:	10c00015 	stw	r3,0(r2)
   2d158:	003ff506 	br	2d130 <_calloc_r+0x108>
   2d15c:	20000415 	stw	zero,16(r4)
   2d160:	20800604 	addi	r2,r4,24
   2d164:	20000515 	stw	zero,20(r4)
   2d168:	003fd506 	br	2d0c0 <_calloc_r+0x98>

0002d16c <__errno>:
   2d16c:	008000f4 	movhi	r2,3
   2d170:	109cd017 	ldw	r2,29504(r2)
   2d174:	f800283a 	ret

0002d178 <_fclose_r>:
   2d178:	defffc04 	addi	sp,sp,-16
   2d17c:	dfc00315 	stw	ra,12(sp)
   2d180:	dc800215 	stw	r18,8(sp)
   2d184:	dc400115 	stw	r17,4(sp)
   2d188:	dc000015 	stw	r16,0(sp)
   2d18c:	28000726 	beq	r5,zero,2d1ac <_fclose_r+0x34>
   2d190:	2821883a 	mov	r16,r5
   2d194:	2023883a 	mov	r17,r4
   2d198:	20000226 	beq	r4,zero,2d1a4 <_fclose_r+0x2c>
   2d19c:	20800e17 	ldw	r2,56(r4)
   2d1a0:	10002726 	beq	r2,zero,2d240 <_fclose_r+0xc8>
   2d1a4:	8080030f 	ldh	r2,12(r16)
   2d1a8:	1000081e 	bne	r2,zero,2d1cc <_fclose_r+0x54>
   2d1ac:	0025883a 	mov	r18,zero
   2d1b0:	9005883a 	mov	r2,r18
   2d1b4:	dfc00317 	ldw	ra,12(sp)
   2d1b8:	dc800217 	ldw	r18,8(sp)
   2d1bc:	dc400117 	ldw	r17,4(sp)
   2d1c0:	dc000017 	ldw	r16,0(sp)
   2d1c4:	dec00404 	addi	sp,sp,16
   2d1c8:	f800283a 	ret
   2d1cc:	800b883a 	mov	r5,r16
   2d1d0:	8809883a 	mov	r4,r17
   2d1d4:	002899c0 	call	2899c <__sflush_r>
   2d1d8:	80c00b17 	ldw	r3,44(r16)
   2d1dc:	1025883a 	mov	r18,r2
   2d1e0:	18000426 	beq	r3,zero,2d1f4 <_fclose_r+0x7c>
   2d1e4:	81400717 	ldw	r5,28(r16)
   2d1e8:	8809883a 	mov	r4,r17
   2d1ec:	183ee83a 	callr	r3
   2d1f0:	10001716 	blt	r2,zero,2d250 <_fclose_r+0xd8>
   2d1f4:	8080030b 	ldhu	r2,12(r16)
   2d1f8:	1080200c 	andi	r2,r2,128
   2d1fc:	1000181e 	bne	r2,zero,2d260 <_fclose_r+0xe8>
   2d200:	81400c17 	ldw	r5,48(r16)
   2d204:	28000526 	beq	r5,zero,2d21c <_fclose_r+0xa4>
   2d208:	80801004 	addi	r2,r16,64
   2d20c:	28800226 	beq	r5,r2,2d218 <_fclose_r+0xa0>
   2d210:	8809883a 	mov	r4,r17
   2d214:	00291e00 	call	291e0 <_free_r>
   2d218:	80000c15 	stw	zero,48(r16)
   2d21c:	81401117 	ldw	r5,68(r16)
   2d220:	28000326 	beq	r5,zero,2d230 <_fclose_r+0xb8>
   2d224:	8809883a 	mov	r4,r17
   2d228:	00291e00 	call	291e0 <_free_r>
   2d22c:	80001115 	stw	zero,68(r16)
   2d230:	0028fcc0 	call	28fcc <__sfp_lock_acquire>
   2d234:	8000030d 	sth	zero,12(r16)
   2d238:	0028fd00 	call	28fd0 <__sfp_lock_release>
   2d23c:	003fdc06 	br	2d1b0 <_fclose_r+0x38>
   2d240:	0028fbc0 	call	28fbc <__sinit>
   2d244:	8080030f 	ldh	r2,12(r16)
   2d248:	103fd826 	beq	r2,zero,2d1ac <_fclose_r+0x34>
   2d24c:	003fdf06 	br	2d1cc <_fclose_r+0x54>
   2d250:	8080030b 	ldhu	r2,12(r16)
   2d254:	04bfffc4 	movi	r18,-1
   2d258:	1080200c 	andi	r2,r2,128
   2d25c:	103fe826 	beq	r2,zero,2d200 <_fclose_r+0x88>
   2d260:	81400417 	ldw	r5,16(r16)
   2d264:	8809883a 	mov	r4,r17
   2d268:	00291e00 	call	291e0 <_free_r>
   2d26c:	003fe406 	br	2d200 <_fclose_r+0x88>

0002d270 <fclose>:
   2d270:	008000f4 	movhi	r2,3
   2d274:	200b883a 	mov	r5,r4
   2d278:	111cd017 	ldw	r4,29504(r2)
   2d27c:	002d1781 	jmpi	2d178 <_fclose_r>

0002d280 <_fiprintf_r>:
   2d280:	defffe04 	addi	sp,sp,-8
   2d284:	dfc00015 	stw	ra,0(sp)
   2d288:	d9c00115 	stw	r7,4(sp)
   2d28c:	d9c00104 	addi	r7,sp,4
   2d290:	002d6d40 	call	2d6d4 <_vfiprintf_r>
   2d294:	dfc00017 	ldw	ra,0(sp)
   2d298:	dec00204 	addi	sp,sp,8
   2d29c:	f800283a 	ret

0002d2a0 <fiprintf>:
   2d2a0:	defffd04 	addi	sp,sp,-12
   2d2a4:	2005883a 	mov	r2,r4
   2d2a8:	dfc00015 	stw	ra,0(sp)
   2d2ac:	d9800115 	stw	r6,4(sp)
   2d2b0:	d9c00215 	stw	r7,8(sp)
   2d2b4:	00c000f4 	movhi	r3,3
   2d2b8:	191cd017 	ldw	r4,29504(r3)
   2d2bc:	280d883a 	mov	r6,r5
   2d2c0:	d9c00104 	addi	r7,sp,4
   2d2c4:	100b883a 	mov	r5,r2
   2d2c8:	002d6d40 	call	2d6d4 <_vfiprintf_r>
   2d2cc:	dfc00017 	ldw	ra,0(sp)
   2d2d0:	dec00304 	addi	sp,sp,12
   2d2d4:	f800283a 	ret

0002d2d8 <__fputwc>:
   2d2d8:	defff904 	addi	sp,sp,-28
   2d2dc:	dcc00415 	stw	r19,16(sp)
   2d2e0:	dc800315 	stw	r18,12(sp)
   2d2e4:	dc000115 	stw	r16,4(sp)
   2d2e8:	dfc00615 	stw	ra,24(sp)
   2d2ec:	dd000515 	stw	r20,20(sp)
   2d2f0:	dc400215 	stw	r17,8(sp)
   2d2f4:	2027883a 	mov	r19,r4
   2d2f8:	2825883a 	mov	r18,r5
   2d2fc:	3021883a 	mov	r16,r6
   2d300:	002d54c0 	call	2d54c <__locale_mb_cur_max>
   2d304:	10800058 	cmpnei	r2,r2,1
   2d308:	1000071e 	bne	r2,zero,2d328 <__fputwc+0x50>
   2d30c:	90bfffc4 	addi	r2,r18,-1
   2d310:	10803fe8 	cmpgeui	r2,r2,255
   2d314:	1000041e 	bne	r2,zero,2d328 <__fputwc+0x50>
   2d318:	900b883a 	mov	r5,r18
   2d31c:	dc8000c5 	stb	r18,3(sp)
   2d320:	05000044 	movi	r20,1
   2d324:	00000a06 	br	2d350 <__fputwc+0x78>
   2d328:	81c01704 	addi	r7,r16,92
   2d32c:	900d883a 	mov	r6,r18
   2d330:	d94000c4 	addi	r5,sp,3
   2d334:	9809883a 	mov	r4,r19
   2d338:	002d6d80 	call	2d6d8 <_wcrtomb_r>
   2d33c:	1029883a 	mov	r20,r2
   2d340:	10bfffd8 	cmpnei	r2,r2,-1
   2d344:	10003826 	beq	r2,zero,2d428 <__fputwc+0x150>
   2d348:	a0001f26 	beq	r20,zero,2d3c8 <__fputwc+0xf0>
   2d34c:	d94000c3 	ldbu	r5,3(sp)
   2d350:	0023883a 	mov	r17,zero
   2d354:	00000a06 	br	2d380 <__fputwc+0xa8>
   2d358:	80800017 	ldw	r2,0(r16)
   2d35c:	11400005 	stb	r5,0(r2)
   2d360:	80c00017 	ldw	r3,0(r16)
   2d364:	18c00044 	addi	r3,r3,1
   2d368:	80c00015 	stw	r3,0(r16)
   2d36c:	8c400044 	addi	r17,r17,1
   2d370:	d88000c4 	addi	r2,sp,3
   2d374:	1447883a 	add	r3,r2,r17
   2d378:	8d00132e 	bgeu	r17,r20,2d3c8 <__fputwc+0xf0>
   2d37c:	19400003 	ldbu	r5,0(r3)
   2d380:	80c00217 	ldw	r3,8(r16)
   2d384:	18ffffc4 	addi	r3,r3,-1
   2d388:	80c00215 	stw	r3,8(r16)
   2d38c:	183ff20e 	bge	r3,zero,2d358 <__fputwc+0x80>
   2d390:	80800617 	ldw	r2,24(r16)
   2d394:	18801516 	blt	r3,r2,2d3ec <__fputwc+0x114>
   2d398:	80800017 	ldw	r2,0(r16)
   2d39c:	11400005 	stb	r5,0(r2)
   2d3a0:	80800017 	ldw	r2,0(r16)
   2d3a4:	10c00003 	ldbu	r3,0(r2)
   2d3a8:	10800044 	addi	r2,r2,1
   2d3ac:	18c002a0 	cmpeqi	r3,r3,10
   2d3b0:	1800161e 	bne	r3,zero,2d40c <__fputwc+0x134>
   2d3b4:	80800015 	stw	r2,0(r16)
   2d3b8:	8c400044 	addi	r17,r17,1
   2d3bc:	d88000c4 	addi	r2,sp,3
   2d3c0:	1447883a 	add	r3,r2,r17
   2d3c4:	8d3fed36 	bltu	r17,r20,2d37c <__fputwc+0xa4>
   2d3c8:	9005883a 	mov	r2,r18
   2d3cc:	dfc00617 	ldw	ra,24(sp)
   2d3d0:	dd000517 	ldw	r20,20(sp)
   2d3d4:	dcc00417 	ldw	r19,16(sp)
   2d3d8:	dc800317 	ldw	r18,12(sp)
   2d3dc:	dc400217 	ldw	r17,8(sp)
   2d3e0:	dc000117 	ldw	r16,4(sp)
   2d3e4:	dec00704 	addi	sp,sp,28
   2d3e8:	f800283a 	ret
   2d3ec:	29403fcc 	andi	r5,r5,255
   2d3f0:	800d883a 	mov	r6,r16
   2d3f4:	9809883a 	mov	r4,r19
   2d3f8:	002ce500 	call	2ce50 <__swbuf_r>
   2d3fc:	10bfffe0 	cmpeqi	r2,r2,-1
   2d400:	103fda26 	beq	r2,zero,2d36c <__fputwc+0x94>
   2d404:	00bfffc4 	movi	r2,-1
   2d408:	003ff006 	br	2d3cc <__fputwc+0xf4>
   2d40c:	800d883a 	mov	r6,r16
   2d410:	01400284 	movi	r5,10
   2d414:	9809883a 	mov	r4,r19
   2d418:	002ce500 	call	2ce50 <__swbuf_r>
   2d41c:	10bfffe0 	cmpeqi	r2,r2,-1
   2d420:	103fd226 	beq	r2,zero,2d36c <__fputwc+0x94>
   2d424:	003ff706 	br	2d404 <__fputwc+0x12c>
   2d428:	8080030b 	ldhu	r2,12(r16)
   2d42c:	10801014 	ori	r2,r2,64
   2d430:	8080030d 	sth	r2,12(r16)
   2d434:	00bfffc4 	movi	r2,-1
   2d438:	003fe406 	br	2d3cc <__fputwc+0xf4>

0002d43c <_fputwc_r>:
   2d43c:	3080030b 	ldhu	r2,12(r6)
   2d440:	10c8000c 	andi	r3,r2,8192
   2d444:	1800051e 	bne	r3,zero,2d45c <_fputwc_r+0x20>
   2d448:	30c01917 	ldw	r3,100(r6)
   2d44c:	10880014 	ori	r2,r2,8192
   2d450:	3080030d 	sth	r2,12(r6)
   2d454:	18880014 	ori	r2,r3,8192
   2d458:	30801915 	stw	r2,100(r6)
   2d45c:	002d2d81 	jmpi	2d2d8 <__fputwc>

0002d460 <fputwc>:
   2d460:	defffc04 	addi	sp,sp,-16
   2d464:	008000f4 	movhi	r2,3
   2d468:	dc000215 	stw	r16,8(sp)
   2d46c:	141cd017 	ldw	r16,29504(r2)
   2d470:	dfc00315 	stw	ra,12(sp)
   2d474:	280d883a 	mov	r6,r5
   2d478:	200b883a 	mov	r5,r4
   2d47c:	80000226 	beq	r16,zero,2d488 <fputwc+0x28>
   2d480:	80800e17 	ldw	r2,56(r16)
   2d484:	10000d26 	beq	r2,zero,2d4bc <fputwc+0x5c>
   2d488:	3080030b 	ldhu	r2,12(r6)
   2d48c:	10c8000c 	andi	r3,r2,8192
   2d490:	1800051e 	bne	r3,zero,2d4a8 <fputwc+0x48>
   2d494:	30c01917 	ldw	r3,100(r6)
   2d498:	10880014 	ori	r2,r2,8192
   2d49c:	3080030d 	sth	r2,12(r6)
   2d4a0:	18880014 	ori	r2,r3,8192
   2d4a4:	30801915 	stw	r2,100(r6)
   2d4a8:	8009883a 	mov	r4,r16
   2d4ac:	dfc00317 	ldw	ra,12(sp)
   2d4b0:	dc000217 	ldw	r16,8(sp)
   2d4b4:	dec00404 	addi	sp,sp,16
   2d4b8:	002d2d81 	jmpi	2d2d8 <__fputwc>
   2d4bc:	d9000015 	stw	r4,0(sp)
   2d4c0:	8009883a 	mov	r4,r16
   2d4c4:	d9800115 	stw	r6,4(sp)
   2d4c8:	0028fbc0 	call	28fbc <__sinit>
   2d4cc:	d9800117 	ldw	r6,4(sp)
   2d4d0:	d9400017 	ldw	r5,0(sp)
   2d4d4:	003fec06 	br	2d488 <fputwc+0x28>

0002d4d8 <_setlocale_r>:
   2d4d8:	30001626 	beq	r6,zero,2d534 <_setlocale_r+0x5c>
   2d4dc:	014000f4 	movhi	r5,3
   2d4e0:	defffe04 	addi	sp,sp,-8
   2d4e4:	2952d704 	addi	r5,r5,19292
   2d4e8:	3009883a 	mov	r4,r6
   2d4ec:	dc000015 	stw	r16,0(sp)
   2d4f0:	dfc00115 	stw	ra,4(sp)
   2d4f4:	3021883a 	mov	r16,r6
   2d4f8:	002d61c0 	call	2d61c <strcmp>
   2d4fc:	1000061e 	bne	r2,zero,2d518 <_setlocale_r+0x40>
   2d500:	008000f4 	movhi	r2,3
   2d504:	1092d604 	addi	r2,r2,19288
   2d508:	dfc00117 	ldw	ra,4(sp)
   2d50c:	dc000017 	ldw	r16,0(sp)
   2d510:	dec00204 	addi	sp,sp,8
   2d514:	f800283a 	ret
   2d518:	80800003 	ldbu	r2,0(r16)
   2d51c:	10bfef44 	addi	r2,r2,-67
   2d520:	10000726 	beq	r2,zero,2d540 <_setlocale_r+0x68>
   2d524:	80800003 	ldbu	r2,0(r16)
   2d528:	103ff526 	beq	r2,zero,2d500 <_setlocale_r+0x28>
   2d52c:	0005883a 	mov	r2,zero
   2d530:	003ff506 	br	2d508 <_setlocale_r+0x30>
   2d534:	008000f4 	movhi	r2,3
   2d538:	1092d604 	addi	r2,r2,19288
   2d53c:	f800283a 	ret
   2d540:	80800043 	ldbu	r2,1(r16)
   2d544:	103fee26 	beq	r2,zero,2d500 <_setlocale_r+0x28>
   2d548:	003ff606 	br	2d524 <_setlocale_r+0x4c>

0002d54c <__locale_mb_cur_max>:
   2d54c:	008000f4 	movhi	r2,3
   2d550:	10980807 	ldb	r2,24608(r2)
   2d554:	f800283a 	ret

0002d558 <setlocale>:
   2d558:	28001626 	beq	r5,zero,2d5b4 <setlocale+0x5c>
   2d55c:	defffe04 	addi	sp,sp,-8
   2d560:	dc000015 	stw	r16,0(sp)
   2d564:	2821883a 	mov	r16,r5
   2d568:	014000f4 	movhi	r5,3
   2d56c:	2952d704 	addi	r5,r5,19292
   2d570:	8009883a 	mov	r4,r16
   2d574:	dfc00115 	stw	ra,4(sp)
   2d578:	002d61c0 	call	2d61c <strcmp>
   2d57c:	1000061e 	bne	r2,zero,2d598 <setlocale+0x40>
   2d580:	008000f4 	movhi	r2,3
   2d584:	1092d604 	addi	r2,r2,19288
   2d588:	dfc00117 	ldw	ra,4(sp)
   2d58c:	dc000017 	ldw	r16,0(sp)
   2d590:	dec00204 	addi	sp,sp,8
   2d594:	f800283a 	ret
   2d598:	80800003 	ldbu	r2,0(r16)
   2d59c:	10bfef44 	addi	r2,r2,-67
   2d5a0:	10000726 	beq	r2,zero,2d5c0 <setlocale+0x68>
   2d5a4:	80800003 	ldbu	r2,0(r16)
   2d5a8:	103ff526 	beq	r2,zero,2d580 <setlocale+0x28>
   2d5ac:	0005883a 	mov	r2,zero
   2d5b0:	003ff506 	br	2d588 <setlocale+0x30>
   2d5b4:	008000f4 	movhi	r2,3
   2d5b8:	1092d604 	addi	r2,r2,19288
   2d5bc:	f800283a 	ret
   2d5c0:	80800043 	ldbu	r2,1(r16)
   2d5c4:	103fee26 	beq	r2,zero,2d580 <setlocale+0x28>
   2d5c8:	003ff606 	br	2d5a4 <setlocale+0x4c>

0002d5cc <_mbtowc_r>:
   2d5cc:	008000f4 	movhi	r2,3
   2d5d0:	1097f717 	ldw	r2,24540(r2)
   2d5d4:	1000683a 	jmp	r2

0002d5d8 <__ascii_mbtowc>:
   2d5d8:	deffff04 	addi	sp,sp,-4
   2d5dc:	28000826 	beq	r5,zero,2d600 <__ascii_mbtowc+0x28>
   2d5e0:	30000926 	beq	r6,zero,2d608 <__ascii_mbtowc+0x30>
   2d5e4:	38000b26 	beq	r7,zero,2d614 <__ascii_mbtowc+0x3c>
   2d5e8:	30800003 	ldbu	r2,0(r6)
   2d5ec:	28800015 	stw	r2,0(r5)
   2d5f0:	30800003 	ldbu	r2,0(r6)
   2d5f4:	1004c03a 	cmpne	r2,r2,zero
   2d5f8:	dec00104 	addi	sp,sp,4
   2d5fc:	f800283a 	ret
   2d600:	d80b883a 	mov	r5,sp
   2d604:	303ff71e 	bne	r6,zero,2d5e4 <__ascii_mbtowc+0xc>
   2d608:	0005883a 	mov	r2,zero
   2d60c:	dec00104 	addi	sp,sp,4
   2d610:	f800283a 	ret
   2d614:	00bfff84 	movi	r2,-2
   2d618:	003ff706 	br	2d5f8 <__ascii_mbtowc+0x20>

0002d61c <strcmp>:
   2d61c:	2144b03a 	or	r2,r4,r5
   2d620:	108000cc 	andi	r2,r2,3
   2d624:	1000141e 	bne	r2,zero,2d678 <strcmp+0x5c>
   2d628:	20800017 	ldw	r2,0(r4)
   2d62c:	28c00017 	ldw	r3,0(r5)
   2d630:	10c0111e 	bne	r2,r3,2d678 <strcmp+0x5c>
   2d634:	01ffbff4 	movhi	r7,65279
   2d638:	01a02074 	movhi	r6,32897
   2d63c:	39ffbfc4 	addi	r7,r7,-257
   2d640:	31a02004 	addi	r6,r6,-32640
   2d644:	00000306 	br	2d654 <strcmp+0x38>
   2d648:	20800017 	ldw	r2,0(r4)
   2d64c:	28c00017 	ldw	r3,0(r5)
   2d650:	10c0091e 	bne	r2,r3,2d678 <strcmp+0x5c>
   2d654:	11c7883a 	add	r3,r2,r7
   2d658:	0084303a 	nor	r2,zero,r2
   2d65c:	1884703a 	and	r2,r3,r2
   2d660:	1184703a 	and	r2,r2,r6
   2d664:	21000104 	addi	r4,r4,4
   2d668:	29400104 	addi	r5,r5,4
   2d66c:	103ff626 	beq	r2,zero,2d648 <strcmp+0x2c>
   2d670:	0005883a 	mov	r2,zero
   2d674:	f800283a 	ret
   2d678:	20c00003 	ldbu	r3,0(r4)
   2d67c:	18803fcc 	andi	r2,r3,255
   2d680:	1080201c 	xori	r2,r2,128
   2d684:	10bfe004 	addi	r2,r2,-128
   2d688:	1000071e 	bne	r2,zero,2d6a8 <strcmp+0x8c>
   2d68c:	00000a06 	br	2d6b8 <strcmp+0x9c>
   2d690:	20c00003 	ldbu	r3,0(r4)
   2d694:	29400044 	addi	r5,r5,1
   2d698:	18803fcc 	andi	r2,r3,255
   2d69c:	1080201c 	xori	r2,r2,128
   2d6a0:	10bfe004 	addi	r2,r2,-128
   2d6a4:	10000726 	beq	r2,zero,2d6c4 <strcmp+0xa8>
   2d6a8:	29800007 	ldb	r6,0(r5)
   2d6ac:	21000044 	addi	r4,r4,1
   2d6b0:	30bff726 	beq	r6,r2,2d690 <strcmp+0x74>
   2d6b4:	18803fcc 	andi	r2,r3,255
   2d6b8:	28c00003 	ldbu	r3,0(r5)
   2d6bc:	10c5c83a 	sub	r2,r2,r3
   2d6c0:	f800283a 	ret
   2d6c4:	28c00003 	ldbu	r3,0(r5)
   2d6c8:	0005883a 	mov	r2,zero
   2d6cc:	10c5c83a 	sub	r2,r2,r3
   2d6d0:	f800283a 	ret

0002d6d4 <_vfiprintf_r>:
   2d6d4:	002bb001 	jmpi	2bb00 <___vfiprintf_internal_r>

0002d6d8 <_wcrtomb_r>:
   2d6d8:	defffa04 	addi	sp,sp,-24
   2d6dc:	dc400415 	stw	r17,16(sp)
   2d6e0:	dc000315 	stw	r16,12(sp)
   2d6e4:	008000f4 	movhi	r2,3
   2d6e8:	dfc00515 	stw	ra,20(sp)
   2d6ec:	1097f617 	ldw	r2,24536(r2)
   2d6f0:	2023883a 	mov	r17,r4
   2d6f4:	3821883a 	mov	r16,r7
   2d6f8:	28000826 	beq	r5,zero,2d71c <_wcrtomb_r+0x44>
   2d6fc:	103ee83a 	callr	r2
   2d700:	10ffffd8 	cmpnei	r3,r2,-1
   2d704:	18000a26 	beq	r3,zero,2d730 <_wcrtomb_r+0x58>
   2d708:	dfc00517 	ldw	ra,20(sp)
   2d70c:	dc400417 	ldw	r17,16(sp)
   2d710:	dc000317 	ldw	r16,12(sp)
   2d714:	dec00604 	addi	sp,sp,24
   2d718:	f800283a 	ret
   2d71c:	000d883a 	mov	r6,zero
   2d720:	d9400084 	addi	r5,sp,2
   2d724:	103ee83a 	callr	r2
   2d728:	10ffffd8 	cmpnei	r3,r2,-1
   2d72c:	183ff61e 	bne	r3,zero,2d708 <_wcrtomb_r+0x30>
   2d730:	00802284 	movi	r2,138
   2d734:	80000015 	stw	zero,0(r16)
   2d738:	88800015 	stw	r2,0(r17)
   2d73c:	00bfffc4 	movi	r2,-1
   2d740:	003ff106 	br	2d708 <_wcrtomb_r+0x30>

0002d744 <wcrtomb>:
   2d744:	defffa04 	addi	sp,sp,-24
   2d748:	00c000f4 	movhi	r3,3
   2d74c:	dc400415 	stw	r17,16(sp)
   2d750:	dc000315 	stw	r16,12(sp)
   2d754:	1c5cd017 	ldw	r17,29504(r3)
   2d758:	dfc00515 	stw	ra,20(sp)
   2d75c:	00c000f4 	movhi	r3,3
   2d760:	18d7f617 	ldw	r3,24536(r3)
   2d764:	3021883a 	mov	r16,r6
   2d768:	20000c26 	beq	r4,zero,2d79c <wcrtomb+0x58>
   2d76c:	280d883a 	mov	r6,r5
   2d770:	800f883a 	mov	r7,r16
   2d774:	200b883a 	mov	r5,r4
   2d778:	8809883a 	mov	r4,r17
   2d77c:	183ee83a 	callr	r3
   2d780:	10ffffd8 	cmpnei	r3,r2,-1
   2d784:	18000c26 	beq	r3,zero,2d7b8 <wcrtomb+0x74>
   2d788:	dfc00517 	ldw	ra,20(sp)
   2d78c:	dc400417 	ldw	r17,16(sp)
   2d790:	dc000317 	ldw	r16,12(sp)
   2d794:	dec00604 	addi	sp,sp,24
   2d798:	f800283a 	ret
   2d79c:	300f883a 	mov	r7,r6
   2d7a0:	d9400084 	addi	r5,sp,2
   2d7a4:	000d883a 	mov	r6,zero
   2d7a8:	8809883a 	mov	r4,r17
   2d7ac:	183ee83a 	callr	r3
   2d7b0:	10ffffd8 	cmpnei	r3,r2,-1
   2d7b4:	183ff41e 	bne	r3,zero,2d788 <wcrtomb+0x44>
   2d7b8:	00802284 	movi	r2,138
   2d7bc:	80000015 	stw	zero,0(r16)
   2d7c0:	88800015 	stw	r2,0(r17)
   2d7c4:	00bfffc4 	movi	r2,-1
   2d7c8:	003fef06 	br	2d788 <wcrtomb+0x44>

0002d7cc <_wctomb_r>:
   2d7cc:	008000f4 	movhi	r2,3
   2d7d0:	1097f617 	ldw	r2,24536(r2)
   2d7d4:	1000683a 	jmp	r2

0002d7d8 <__ascii_wctomb>:
   2d7d8:	28000926 	beq	r5,zero,2d800 <__ascii_wctomb+0x28>
   2d7dc:	30804030 	cmpltui	r2,r6,256
   2d7e0:	10000326 	beq	r2,zero,2d7f0 <__ascii_wctomb+0x18>
   2d7e4:	29800005 	stb	r6,0(r5)
   2d7e8:	00800044 	movi	r2,1
   2d7ec:	f800283a 	ret
   2d7f0:	00802284 	movi	r2,138
   2d7f4:	20800015 	stw	r2,0(r4)
   2d7f8:	00bfffc4 	movi	r2,-1
   2d7fc:	f800283a 	ret
   2d800:	0005883a 	mov	r2,zero
   2d804:	f800283a 	ret

0002d808 <abort>:
   2d808:	deffff04 	addi	sp,sp,-4
   2d80c:	01000184 	movi	r4,6
   2d810:	dfc00015 	stw	ra,0(sp)
   2d814:	002da780 	call	2da78 <raise>
   2d818:	01000044 	movi	r4,1
   2d81c:	0030f900 	call	30f90 <_exit>

0002d820 <_init_signal_r>:
   2d820:	2080b717 	ldw	r2,732(r4)
   2d824:	10000226 	beq	r2,zero,2d830 <_init_signal_r+0x10>
   2d828:	0005883a 	mov	r2,zero
   2d82c:	f800283a 	ret
   2d830:	defffe04 	addi	sp,sp,-8
   2d834:	01402004 	movi	r5,128
   2d838:	dc000015 	stw	r16,0(sp)
   2d83c:	dfc00115 	stw	ra,4(sp)
   2d840:	2021883a 	mov	r16,r4
   2d844:	0023aac0 	call	23aac <_malloc_r>
   2d848:	8080b715 	stw	r2,732(r16)
   2d84c:	1009883a 	mov	r4,r2
   2d850:	10000826 	beq	r2,zero,2d874 <_init_signal_r+0x54>
   2d854:	01802004 	movi	r6,128
   2d858:	000b883a 	mov	r5,zero
   2d85c:	00242600 	call	24260 <memset>
   2d860:	0005883a 	mov	r2,zero
   2d864:	dfc00117 	ldw	ra,4(sp)
   2d868:	dc000017 	ldw	r16,0(sp)
   2d86c:	dec00204 	addi	sp,sp,8
   2d870:	f800283a 	ret
   2d874:	00bfffc4 	movi	r2,-1
   2d878:	003ffa06 	br	2d864 <_init_signal_r+0x44>

0002d87c <_signal_r>:
   2d87c:	defffc04 	addi	sp,sp,-16
   2d880:	dc400115 	stw	r17,4(sp)
   2d884:	dfc00315 	stw	ra,12(sp)
   2d888:	dc800215 	stw	r18,8(sp)
   2d88c:	dc000015 	stw	r16,0(sp)
   2d890:	28800830 	cmpltui	r2,r5,32
   2d894:	2023883a 	mov	r17,r4
   2d898:	10000e26 	beq	r2,zero,2d8d4 <_signal_r+0x58>
   2d89c:	20c0b717 	ldw	r3,732(r4)
   2d8a0:	2821883a 	mov	r16,r5
   2d8a4:	3025883a 	mov	r18,r6
   2d8a8:	18000e26 	beq	r3,zero,2d8e4 <_signal_r+0x68>
   2d8ac:	802090ba 	slli	r16,r16,2
   2d8b0:	1c07883a 	add	r3,r3,r16
   2d8b4:	18800017 	ldw	r2,0(r3)
   2d8b8:	1c800015 	stw	r18,0(r3)
   2d8bc:	dfc00317 	ldw	ra,12(sp)
   2d8c0:	dc800217 	ldw	r18,8(sp)
   2d8c4:	dc400117 	ldw	r17,4(sp)
   2d8c8:	dc000017 	ldw	r16,0(sp)
   2d8cc:	dec00404 	addi	sp,sp,16
   2d8d0:	f800283a 	ret
   2d8d4:	00800584 	movi	r2,22
   2d8d8:	20800015 	stw	r2,0(r4)
   2d8dc:	00bfffc4 	movi	r2,-1
   2d8e0:	003ff606 	br	2d8bc <_signal_r+0x40>
   2d8e4:	01402004 	movi	r5,128
   2d8e8:	0023aac0 	call	23aac <_malloc_r>
   2d8ec:	8880b715 	stw	r2,732(r17)
   2d8f0:	103ffa26 	beq	r2,zero,2d8dc <_signal_r+0x60>
   2d8f4:	01802004 	movi	r6,128
   2d8f8:	000b883a 	mov	r5,zero
   2d8fc:	1009883a 	mov	r4,r2
   2d900:	00242600 	call	24260 <memset>
   2d904:	1007883a 	mov	r3,r2
   2d908:	003fe806 	br	2d8ac <_signal_r+0x30>

0002d90c <_raise_r>:
   2d90c:	28800830 	cmpltui	r2,r5,32
   2d910:	10002626 	beq	r2,zero,2d9ac <_raise_r+0xa0>
   2d914:	2080b717 	ldw	r2,732(r4)
   2d918:	defffd04 	addi	sp,sp,-12
   2d91c:	dc000115 	stw	r16,4(sp)
   2d920:	dfc00215 	stw	ra,8(sp)
   2d924:	2821883a 	mov	r16,r5
   2d928:	10001026 	beq	r2,zero,2d96c <_raise_r+0x60>
   2d92c:	280690ba 	slli	r3,r5,2
   2d930:	10c5883a 	add	r2,r2,r3
   2d934:	10c00017 	ldw	r3,0(r2)
   2d938:	18000c26 	beq	r3,zero,2d96c <_raise_r+0x60>
   2d93c:	19400060 	cmpeqi	r5,r3,1
   2d940:	2800051e 	bne	r5,zero,2d958 <_raise_r+0x4c>
   2d944:	197fffd8 	cmpnei	r5,r3,-1
   2d948:	28001126 	beq	r5,zero,2d990 <_raise_r+0x84>
   2d94c:	10000015 	stw	zero,0(r2)
   2d950:	8009883a 	mov	r4,r16
   2d954:	183ee83a 	callr	r3
   2d958:	0005883a 	mov	r2,zero
   2d95c:	dfc00217 	ldw	ra,8(sp)
   2d960:	dc000117 	ldw	r16,4(sp)
   2d964:	dec00304 	addi	sp,sp,12
   2d968:	f800283a 	ret
   2d96c:	d9000015 	stw	r4,0(sp)
   2d970:	002dd400 	call	2dd40 <_getpid_r>
   2d974:	d9000017 	ldw	r4,0(sp)
   2d978:	800d883a 	mov	r6,r16
   2d97c:	100b883a 	mov	r5,r2
   2d980:	dfc00217 	ldw	ra,8(sp)
   2d984:	dc000117 	ldw	r16,4(sp)
   2d988:	dec00304 	addi	sp,sp,12
   2d98c:	002dce01 	jmpi	2dce0 <_kill_r>
   2d990:	00800584 	movi	r2,22
   2d994:	20800015 	stw	r2,0(r4)
   2d998:	00800044 	movi	r2,1
   2d99c:	dfc00217 	ldw	ra,8(sp)
   2d9a0:	dc000117 	ldw	r16,4(sp)
   2d9a4:	dec00304 	addi	sp,sp,12
   2d9a8:	f800283a 	ret
   2d9ac:	00800584 	movi	r2,22
   2d9b0:	20800015 	stw	r2,0(r4)
   2d9b4:	00bfffc4 	movi	r2,-1
   2d9b8:	f800283a 	ret

0002d9bc <__sigtramp_r>:
   2d9bc:	28800830 	cmpltui	r2,r5,32
   2d9c0:	10002b26 	beq	r2,zero,2da70 <__sigtramp_r+0xb4>
   2d9c4:	20c0b717 	ldw	r3,732(r4)
   2d9c8:	defffd04 	addi	sp,sp,-12
   2d9cc:	dc400115 	stw	r17,4(sp)
   2d9d0:	dc000015 	stw	r16,0(sp)
   2d9d4:	dfc00215 	stw	ra,8(sp)
   2d9d8:	2821883a 	mov	r16,r5
   2d9dc:	2023883a 	mov	r17,r4
   2d9e0:	18001726 	beq	r3,zero,2da40 <__sigtramp_r+0x84>
   2d9e4:	800490ba 	slli	r2,r16,2
   2d9e8:	1887883a 	add	r3,r3,r2
   2d9ec:	18800017 	ldw	r2,0(r3)
   2d9f0:	10000d26 	beq	r2,zero,2da28 <__sigtramp_r+0x6c>
   2d9f4:	113fffe0 	cmpeqi	r4,r2,-1
   2d9f8:	20000f1e 	bne	r4,zero,2da38 <__sigtramp_r+0x7c>
   2d9fc:	11000060 	cmpeqi	r4,r2,1
   2da00:	20000b1e 	bne	r4,zero,2da30 <__sigtramp_r+0x74>
   2da04:	18000015 	stw	zero,0(r3)
   2da08:	8009883a 	mov	r4,r16
   2da0c:	103ee83a 	callr	r2
   2da10:	0005883a 	mov	r2,zero
   2da14:	dfc00217 	ldw	ra,8(sp)
   2da18:	dc400117 	ldw	r17,4(sp)
   2da1c:	dc000017 	ldw	r16,0(sp)
   2da20:	dec00304 	addi	sp,sp,12
   2da24:	f800283a 	ret
   2da28:	00800044 	movi	r2,1
   2da2c:	003ff906 	br	2da14 <__sigtramp_r+0x58>
   2da30:	008000c4 	movi	r2,3
   2da34:	003ff706 	br	2da14 <__sigtramp_r+0x58>
   2da38:	00800084 	movi	r2,2
   2da3c:	003ff506 	br	2da14 <__sigtramp_r+0x58>
   2da40:	01402004 	movi	r5,128
   2da44:	0023aac0 	call	23aac <_malloc_r>
   2da48:	8880b715 	stw	r2,732(r17)
   2da4c:	10000626 	beq	r2,zero,2da68 <__sigtramp_r+0xac>
   2da50:	01802004 	movi	r6,128
   2da54:	000b883a 	mov	r5,zero
   2da58:	1009883a 	mov	r4,r2
   2da5c:	00242600 	call	24260 <memset>
   2da60:	1007883a 	mov	r3,r2
   2da64:	003fdf06 	br	2d9e4 <__sigtramp_r+0x28>
   2da68:	00bfffc4 	movi	r2,-1
   2da6c:	003fe906 	br	2da14 <__sigtramp_r+0x58>
   2da70:	00bfffc4 	movi	r2,-1
   2da74:	f800283a 	ret

0002da78 <raise>:
   2da78:	defffd04 	addi	sp,sp,-12
   2da7c:	dc400115 	stw	r17,4(sp)
   2da80:	00c000f4 	movhi	r3,3
   2da84:	dfc00215 	stw	ra,8(sp)
   2da88:	dc000015 	stw	r16,0(sp)
   2da8c:	20800830 	cmpltui	r2,r4,32
   2da90:	1c5cd017 	ldw	r17,29504(r3)
   2da94:	10002126 	beq	r2,zero,2db1c <raise+0xa4>
   2da98:	8880b717 	ldw	r2,732(r17)
   2da9c:	2021883a 	mov	r16,r4
   2daa0:	10001026 	beq	r2,zero,2dae4 <raise+0x6c>
   2daa4:	200690ba 	slli	r3,r4,2
   2daa8:	10c5883a 	add	r2,r2,r3
   2daac:	10c00017 	ldw	r3,0(r2)
   2dab0:	18000c26 	beq	r3,zero,2dae4 <raise+0x6c>
   2dab4:	19400060 	cmpeqi	r5,r3,1
   2dab8:	2800041e 	bne	r5,zero,2dacc <raise+0x54>
   2dabc:	197fffd8 	cmpnei	r5,r3,-1
   2dac0:	28001226 	beq	r5,zero,2db0c <raise+0x94>
   2dac4:	10000015 	stw	zero,0(r2)
   2dac8:	183ee83a 	callr	r3
   2dacc:	0005883a 	mov	r2,zero
   2dad0:	dfc00217 	ldw	ra,8(sp)
   2dad4:	dc400117 	ldw	r17,4(sp)
   2dad8:	dc000017 	ldw	r16,0(sp)
   2dadc:	dec00304 	addi	sp,sp,12
   2dae0:	f800283a 	ret
   2dae4:	8809883a 	mov	r4,r17
   2dae8:	002dd400 	call	2dd40 <_getpid_r>
   2daec:	800d883a 	mov	r6,r16
   2daf0:	100b883a 	mov	r5,r2
   2daf4:	8809883a 	mov	r4,r17
   2daf8:	dfc00217 	ldw	ra,8(sp)
   2dafc:	dc400117 	ldw	r17,4(sp)
   2db00:	dc000017 	ldw	r16,0(sp)
   2db04:	dec00304 	addi	sp,sp,12
   2db08:	002dce01 	jmpi	2dce0 <_kill_r>
   2db0c:	00800584 	movi	r2,22
   2db10:	88800015 	stw	r2,0(r17)
   2db14:	00800044 	movi	r2,1
   2db18:	003fed06 	br	2dad0 <raise+0x58>
   2db1c:	00800584 	movi	r2,22
   2db20:	88800015 	stw	r2,0(r17)
   2db24:	00bfffc4 	movi	r2,-1
   2db28:	003fe906 	br	2dad0 <raise+0x58>

0002db2c <signal>:
   2db2c:	defffc04 	addi	sp,sp,-16
   2db30:	dc800215 	stw	r18,8(sp)
   2db34:	00c000f4 	movhi	r3,3
   2db38:	dfc00315 	stw	ra,12(sp)
   2db3c:	dc400115 	stw	r17,4(sp)
   2db40:	dc000015 	stw	r16,0(sp)
   2db44:	20800830 	cmpltui	r2,r4,32
   2db48:	1c9cd017 	ldw	r18,29504(r3)
   2db4c:	10000e26 	beq	r2,zero,2db88 <signal+0x5c>
   2db50:	2021883a 	mov	r16,r4
   2db54:	9100b717 	ldw	r4,732(r18)
   2db58:	2823883a 	mov	r17,r5
   2db5c:	20000e26 	beq	r4,zero,2db98 <signal+0x6c>
   2db60:	802090ba 	slli	r16,r16,2
   2db64:	2409883a 	add	r4,r4,r16
   2db68:	20800017 	ldw	r2,0(r4)
   2db6c:	24400015 	stw	r17,0(r4)
   2db70:	dfc00317 	ldw	ra,12(sp)
   2db74:	dc800217 	ldw	r18,8(sp)
   2db78:	dc400117 	ldw	r17,4(sp)
   2db7c:	dc000017 	ldw	r16,0(sp)
   2db80:	dec00404 	addi	sp,sp,16
   2db84:	f800283a 	ret
   2db88:	00800584 	movi	r2,22
   2db8c:	90800015 	stw	r2,0(r18)
   2db90:	00bfffc4 	movi	r2,-1
   2db94:	003ff606 	br	2db70 <signal+0x44>
   2db98:	9009883a 	mov	r4,r18
   2db9c:	01402004 	movi	r5,128
   2dba0:	0023aac0 	call	23aac <_malloc_r>
   2dba4:	9080b715 	stw	r2,732(r18)
   2dba8:	1009883a 	mov	r4,r2
   2dbac:	103ff826 	beq	r2,zero,2db90 <signal+0x64>
   2dbb0:	01802004 	movi	r6,128
   2dbb4:	000b883a 	mov	r5,zero
   2dbb8:	00242600 	call	24260 <memset>
   2dbbc:	1009883a 	mov	r4,r2
   2dbc0:	003fe706 	br	2db60 <signal+0x34>

0002dbc4 <_init_signal>:
   2dbc4:	defffe04 	addi	sp,sp,-8
   2dbc8:	008000f4 	movhi	r2,3
   2dbcc:	dc000015 	stw	r16,0(sp)
   2dbd0:	141cd017 	ldw	r16,29504(r2)
   2dbd4:	dfc00115 	stw	ra,4(sp)
   2dbd8:	8080b717 	ldw	r2,732(r16)
   2dbdc:	10000526 	beq	r2,zero,2dbf4 <_init_signal+0x30>
   2dbe0:	0005883a 	mov	r2,zero
   2dbe4:	dfc00117 	ldw	ra,4(sp)
   2dbe8:	dc000017 	ldw	r16,0(sp)
   2dbec:	dec00204 	addi	sp,sp,8
   2dbf0:	f800283a 	ret
   2dbf4:	8009883a 	mov	r4,r16
   2dbf8:	01402004 	movi	r5,128
   2dbfc:	0023aac0 	call	23aac <_malloc_r>
   2dc00:	8080b715 	stw	r2,732(r16)
   2dc04:	1009883a 	mov	r4,r2
   2dc08:	10000426 	beq	r2,zero,2dc1c <_init_signal+0x58>
   2dc0c:	01802004 	movi	r6,128
   2dc10:	000b883a 	mov	r5,zero
   2dc14:	00242600 	call	24260 <memset>
   2dc18:	003ff106 	br	2dbe0 <_init_signal+0x1c>
   2dc1c:	00bfffc4 	movi	r2,-1
   2dc20:	003ff006 	br	2dbe4 <_init_signal+0x20>

0002dc24 <__sigtramp>:
   2dc24:	defffd04 	addi	sp,sp,-12
   2dc28:	dc400115 	stw	r17,4(sp)
   2dc2c:	00c000f4 	movhi	r3,3
   2dc30:	dfc00215 	stw	ra,8(sp)
   2dc34:	dc000015 	stw	r16,0(sp)
   2dc38:	20800830 	cmpltui	r2,r4,32
   2dc3c:	1c5cd017 	ldw	r17,29504(r3)
   2dc40:	10002526 	beq	r2,zero,2dcd8 <__sigtramp+0xb4>
   2dc44:	88c0b717 	ldw	r3,732(r17)
   2dc48:	2021883a 	mov	r16,r4
   2dc4c:	18001726 	beq	r3,zero,2dcac <__sigtramp+0x88>
   2dc50:	800490ba 	slli	r2,r16,2
   2dc54:	1887883a 	add	r3,r3,r2
   2dc58:	18800017 	ldw	r2,0(r3)
   2dc5c:	10000d26 	beq	r2,zero,2dc94 <__sigtramp+0x70>
   2dc60:	113fffe0 	cmpeqi	r4,r2,-1
   2dc64:	20000f1e 	bne	r4,zero,2dca4 <__sigtramp+0x80>
   2dc68:	11000060 	cmpeqi	r4,r2,1
   2dc6c:	20000b1e 	bne	r4,zero,2dc9c <__sigtramp+0x78>
   2dc70:	18000015 	stw	zero,0(r3)
   2dc74:	8009883a 	mov	r4,r16
   2dc78:	103ee83a 	callr	r2
   2dc7c:	0005883a 	mov	r2,zero
   2dc80:	dfc00217 	ldw	ra,8(sp)
   2dc84:	dc400117 	ldw	r17,4(sp)
   2dc88:	dc000017 	ldw	r16,0(sp)
   2dc8c:	dec00304 	addi	sp,sp,12
   2dc90:	f800283a 	ret
   2dc94:	00800044 	movi	r2,1
   2dc98:	003ff906 	br	2dc80 <__sigtramp+0x5c>
   2dc9c:	008000c4 	movi	r2,3
   2dca0:	003ff706 	br	2dc80 <__sigtramp+0x5c>
   2dca4:	00800084 	movi	r2,2
   2dca8:	003ff506 	br	2dc80 <__sigtramp+0x5c>
   2dcac:	01402004 	movi	r5,128
   2dcb0:	8809883a 	mov	r4,r17
   2dcb4:	0023aac0 	call	23aac <_malloc_r>
   2dcb8:	8880b715 	stw	r2,732(r17)
   2dcbc:	10000626 	beq	r2,zero,2dcd8 <__sigtramp+0xb4>
   2dcc0:	01802004 	movi	r6,128
   2dcc4:	000b883a 	mov	r5,zero
   2dcc8:	1009883a 	mov	r4,r2
   2dccc:	00242600 	call	24260 <memset>
   2dcd0:	1007883a 	mov	r3,r2
   2dcd4:	003fde06 	br	2dc50 <__sigtramp+0x2c>
   2dcd8:	00bfffc4 	movi	r2,-1
   2dcdc:	003fe806 	br	2dc80 <__sigtramp+0x5c>

0002dce0 <_kill_r>:
   2dce0:	2807883a 	mov	r3,r5
   2dce4:	defffe04 	addi	sp,sp,-8
   2dce8:	dc000015 	stw	r16,0(sp)
   2dcec:	00800134 	movhi	r2,4
   2dcf0:	300b883a 	mov	r5,r6
   2dcf4:	2021883a 	mov	r16,r4
   2dcf8:	1809883a 	mov	r4,r3
   2dcfc:	dfc00115 	stw	ra,4(sp)
   2dd00:	1025f115 	stw	zero,-26684(r2)
   2dd04:	00313540 	call	31354 <kill>
   2dd08:	10ffffd8 	cmpnei	r3,r2,-1
   2dd0c:	18000426 	beq	r3,zero,2dd20 <_kill_r+0x40>
   2dd10:	dfc00117 	ldw	ra,4(sp)
   2dd14:	dc000017 	ldw	r16,0(sp)
   2dd18:	dec00204 	addi	sp,sp,8
   2dd1c:	f800283a 	ret
   2dd20:	00c00134 	movhi	r3,4
   2dd24:	18e5f117 	ldw	r3,-26684(r3)
   2dd28:	183ff926 	beq	r3,zero,2dd10 <_kill_r+0x30>
   2dd2c:	80c00015 	stw	r3,0(r16)
   2dd30:	dfc00117 	ldw	ra,4(sp)
   2dd34:	dc000017 	ldw	r16,0(sp)
   2dd38:	dec00204 	addi	sp,sp,8
   2dd3c:	f800283a 	ret

0002dd40 <_getpid_r>:
   2dd40:	00312181 	jmpi	31218 <getpid>

0002dd44 <__udivdi3>:
   2dd44:	defff504 	addi	sp,sp,-44
   2dd48:	dc800315 	stw	r18,12(sp)
   2dd4c:	dc000115 	stw	r16,4(sp)
   2dd50:	dfc00a15 	stw	ra,40(sp)
   2dd54:	df000915 	stw	fp,36(sp)
   2dd58:	ddc00815 	stw	r23,32(sp)
   2dd5c:	dd800715 	stw	r22,28(sp)
   2dd60:	dd400615 	stw	r21,24(sp)
   2dd64:	dd000515 	stw	r20,20(sp)
   2dd68:	dcc00415 	stw	r19,16(sp)
   2dd6c:	dc400215 	stw	r17,8(sp)
   2dd70:	2025883a 	mov	r18,r4
   2dd74:	2821883a 	mov	r16,r5
   2dd78:	3800401e 	bne	r7,zero,2de7c <__udivdi3+0x138>
   2dd7c:	3023883a 	mov	r17,r6
   2dd80:	2027883a 	mov	r19,r4
   2dd84:	29805d2e 	bgeu	r5,r6,2defc <__udivdi3+0x1b8>
   2dd88:	00bfffd4 	movui	r2,65535
   2dd8c:	282d883a 	mov	r22,r5
   2dd90:	1180982e 	bgeu	r2,r6,2dff4 <__udivdi3+0x2b0>
   2dd94:	00804034 	movhi	r2,256
   2dd98:	30812536 	bltu	r6,r2,2e230 <__udivdi3+0x4ec>
   2dd9c:	00c00604 	movi	r3,24
   2dda0:	30cad83a 	srl	r5,r6,r3
   2dda4:	008000f4 	movhi	r2,3
   2dda8:	01000804 	movi	r4,32
   2ddac:	2885883a 	add	r2,r5,r2
   2ddb0:	10937b03 	ldbu	r2,19948(r2)
   2ddb4:	10c5883a 	add	r2,r2,r3
   2ddb8:	2087c83a 	sub	r3,r4,r2
   2ddbc:	20800526 	beq	r4,r2,2ddd4 <__udivdi3+0x90>
   2ddc0:	80ec983a 	sll	r22,r16,r3
   2ddc4:	9084d83a 	srl	r2,r18,r2
   2ddc8:	30e2983a 	sll	r17,r6,r3
   2ddcc:	90e6983a 	sll	r19,r18,r3
   2ddd0:	15acb03a 	or	r22,r2,r22
   2ddd4:	882ad43a 	srli	r21,r17,16
   2ddd8:	b009883a 	mov	r4,r22
   2dddc:	8d3fffcc 	andi	r20,r17,65535
   2dde0:	a80b883a 	mov	r5,r21
   2dde4:	00230800 	call	23080 <__umodsi3>
   2dde8:	b009883a 	mov	r4,r22
   2ddec:	a80b883a 	mov	r5,r21
   2ddf0:	1025883a 	mov	r18,r2
   2ddf4:	002301c0 	call	2301c <__udivsi3>
   2ddf8:	9008943a 	slli	r4,r18,16
   2ddfc:	9806d43a 	srli	r3,r19,16
   2de00:	1021883a 	mov	r16,r2
   2de04:	a085383a 	mul	r2,r20,r2
   2de08:	20c8b03a 	or	r4,r4,r3
   2de0c:	2080052e 	bgeu	r4,r2,2de24 <__udivdi3+0xe0>
   2de10:	2449883a 	add	r4,r4,r17
   2de14:	80ffffc4 	addi	r3,r16,-1
   2de18:	24400136 	bltu	r4,r17,2de20 <__udivdi3+0xdc>
   2de1c:	20811a36 	bltu	r4,r2,2e288 <__udivdi3+0x544>
   2de20:	1821883a 	mov	r16,r3
   2de24:	20a5c83a 	sub	r18,r4,r2
   2de28:	9009883a 	mov	r4,r18
   2de2c:	a80b883a 	mov	r5,r21
   2de30:	00230800 	call	23080 <__umodsi3>
   2de34:	9009883a 	mov	r4,r18
   2de38:	a80b883a 	mov	r5,r21
   2de3c:	1025883a 	mov	r18,r2
   2de40:	002301c0 	call	2301c <__udivsi3>
   2de44:	9006943a 	slli	r3,r18,16
   2de48:	a0a9383a 	mul	r20,r20,r2
   2de4c:	9cffffcc 	andi	r19,r19,65535
   2de50:	1cc6b03a 	or	r3,r3,r19
   2de54:	1d00052e 	bgeu	r3,r20,2de6c <__udivdi3+0x128>
   2de58:	88c7883a 	add	r3,r17,r3
   2de5c:	113fffc4 	addi	r4,r2,-1
   2de60:	1c400136 	bltu	r3,r17,2de68 <__udivdi3+0x124>
   2de64:	1d010136 	bltu	r3,r20,2e26c <__udivdi3+0x528>
   2de68:	2005883a 	mov	r2,r4
   2de6c:	800c943a 	slli	r6,r16,16
   2de70:	0007883a 	mov	r3,zero
   2de74:	3084b03a 	or	r2,r6,r2
   2de78:	00000306 	br	2de88 <__udivdi3+0x144>
   2de7c:	29c00e2e 	bgeu	r5,r7,2deb8 <__udivdi3+0x174>
   2de80:	0007883a 	mov	r3,zero
   2de84:	0005883a 	mov	r2,zero
   2de88:	dfc00a17 	ldw	ra,40(sp)
   2de8c:	df000917 	ldw	fp,36(sp)
   2de90:	ddc00817 	ldw	r23,32(sp)
   2de94:	dd800717 	ldw	r22,28(sp)
   2de98:	dd400617 	ldw	r21,24(sp)
   2de9c:	dd000517 	ldw	r20,20(sp)
   2dea0:	dcc00417 	ldw	r19,16(sp)
   2dea4:	dc800317 	ldw	r18,12(sp)
   2dea8:	dc400217 	ldw	r17,8(sp)
   2deac:	dc000117 	ldw	r16,4(sp)
   2deb0:	dec00b04 	addi	sp,sp,44
   2deb4:	f800283a 	ret
   2deb8:	00bfffd4 	movui	r2,65535
   2debc:	11c0562e 	bgeu	r2,r7,2e018 <__udivdi3+0x2d4>
   2dec0:	00804034 	movhi	r2,256
   2dec4:	3880d836 	bltu	r7,r2,2e228 <__udivdi3+0x4e4>
   2dec8:	00c00604 	movi	r3,24
   2decc:	38cad83a 	srl	r5,r7,r3
   2ded0:	008000f4 	movhi	r2,3
   2ded4:	01000804 	movi	r4,32
   2ded8:	2885883a 	add	r2,r5,r2
   2dedc:	10937b03 	ldbu	r2,19948(r2)
   2dee0:	10c5883a 	add	r2,r2,r3
   2dee4:	20adc83a 	sub	r22,r4,r2
   2dee8:	2080801e 	bne	r4,r2,2e0ec <__udivdi3+0x3a8>
   2deec:	3c00d236 	bltu	r7,r16,2e238 <__udivdi3+0x4f4>
   2def0:	9185403a 	cmpgeu	r2,r18,r6
   2def4:	0007883a 	mov	r3,zero
   2def8:	003fe306 	br	2de88 <__udivdi3+0x144>
   2defc:	3000401e 	bne	r6,zero,2e000 <__udivdi3+0x2bc>
   2df00:	000b883a 	mov	r5,zero
   2df04:	01000044 	movi	r4,1
   2df08:	002301c0 	call	2301c <__udivsi3>
   2df0c:	1023883a 	mov	r17,r2
   2df10:	88804028 	cmpgeui	r2,r17,256
   2df14:	100490fa 	slli	r2,r2,3
   2df18:	888ad83a 	srl	r5,r17,r2
   2df1c:	00c000f4 	movhi	r3,3
   2df20:	01000804 	movi	r4,32
   2df24:	28c7883a 	add	r3,r5,r3
   2df28:	18d37b03 	ldbu	r3,19948(r3)
   2df2c:	1887883a 	add	r3,r3,r2
   2df30:	20cdc83a 	sub	r6,r4,r3
   2df34:	20c03b1e 	bne	r4,r3,2e024 <__udivdi3+0x2e0>
   2df38:	8828d43a 	srli	r20,r17,16
   2df3c:	8461c83a 	sub	r16,r16,r17
   2df40:	8d7fffcc 	andi	r21,r17,65535
   2df44:	00c00044 	movi	r3,1
   2df48:	8009883a 	mov	r4,r16
   2df4c:	a00b883a 	mov	r5,r20
   2df50:	d8c00015 	stw	r3,0(sp)
   2df54:	00230800 	call	23080 <__umodsi3>
   2df58:	8009883a 	mov	r4,r16
   2df5c:	a00b883a 	mov	r5,r20
   2df60:	1025883a 	mov	r18,r2
   2df64:	002301c0 	call	2301c <__udivsi3>
   2df68:	9008943a 	slli	r4,r18,16
   2df6c:	980ad43a 	srli	r5,r19,16
   2df70:	1021883a 	mov	r16,r2
   2df74:	1545383a 	mul	r2,r2,r21
   2df78:	2148b03a 	or	r4,r4,r5
   2df7c:	d8c00017 	ldw	r3,0(sp)
   2df80:	2080052e 	bgeu	r4,r2,2df98 <__udivdi3+0x254>
   2df84:	2449883a 	add	r4,r4,r17
   2df88:	817fffc4 	addi	r5,r16,-1
   2df8c:	24400136 	bltu	r4,r17,2df94 <__udivdi3+0x250>
   2df90:	2080b836 	bltu	r4,r2,2e274 <__udivdi3+0x530>
   2df94:	2821883a 	mov	r16,r5
   2df98:	20a5c83a 	sub	r18,r4,r2
   2df9c:	9009883a 	mov	r4,r18
   2dfa0:	a00b883a 	mov	r5,r20
   2dfa4:	d8c00015 	stw	r3,0(sp)
   2dfa8:	00230800 	call	23080 <__umodsi3>
   2dfac:	9009883a 	mov	r4,r18
   2dfb0:	a00b883a 	mov	r5,r20
   2dfb4:	1025883a 	mov	r18,r2
   2dfb8:	002301c0 	call	2301c <__udivsi3>
   2dfbc:	9008943a 	slli	r4,r18,16
   2dfc0:	156b383a 	mul	r21,r2,r21
   2dfc4:	9cffffcc 	andi	r19,r19,65535
   2dfc8:	24c8b03a 	or	r4,r4,r19
   2dfcc:	d8c00017 	ldw	r3,0(sp)
   2dfd0:	2540052e 	bgeu	r4,r21,2dfe8 <__udivdi3+0x2a4>
   2dfd4:	8909883a 	add	r4,r17,r4
   2dfd8:	117fffc4 	addi	r5,r2,-1
   2dfdc:	24400136 	bltu	r4,r17,2dfe4 <__udivdi3+0x2a0>
   2dfe0:	2540a036 	bltu	r4,r21,2e264 <__udivdi3+0x520>
   2dfe4:	2805883a 	mov	r2,r5
   2dfe8:	800c943a 	slli	r6,r16,16
   2dfec:	3084b03a 	or	r2,r6,r2
   2dff0:	003fa506 	br	2de88 <__udivdi3+0x144>
   2dff4:	30c04028 	cmpgeui	r3,r6,256
   2dff8:	180690fa 	slli	r3,r3,3
   2dffc:	003f6806 	br	2dda0 <__udivdi3+0x5c>
   2e000:	00bfffd4 	movui	r2,65535
   2e004:	11bfc22e 	bgeu	r2,r6,2df10 <__udivdi3+0x1cc>
   2e008:	00804034 	movhi	r2,256
   2e00c:	30809c2e 	bgeu	r6,r2,2e280 <__udivdi3+0x53c>
   2e010:	00800404 	movi	r2,16
   2e014:	003fc006 	br	2df18 <__udivdi3+0x1d4>
   2e018:	38c04028 	cmpgeui	r3,r7,256
   2e01c:	180690fa 	slli	r3,r3,3
   2e020:	003faa06 	br	2decc <__udivdi3+0x188>
   2e024:	89a2983a 	sll	r17,r17,r6
   2e028:	80ead83a 	srl	r21,r16,r3
   2e02c:	81a0983a 	sll	r16,r16,r6
   2e030:	8828d43a 	srli	r20,r17,16
   2e034:	90c6d83a 	srl	r3,r18,r3
   2e038:	a809883a 	mov	r4,r21
   2e03c:	a00b883a 	mov	r5,r20
   2e040:	1c2cb03a 	or	r22,r3,r16
   2e044:	91a6983a 	sll	r19,r18,r6
   2e048:	00230800 	call	23080 <__umodsi3>
   2e04c:	a809883a 	mov	r4,r21
   2e050:	a00b883a 	mov	r5,r20
   2e054:	1021883a 	mov	r16,r2
   2e058:	002301c0 	call	2301c <__udivsi3>
   2e05c:	8008943a 	slli	r4,r16,16
   2e060:	b00ad43a 	srli	r5,r22,16
   2e064:	8d7fffcc 	andi	r21,r17,65535
   2e068:	1025883a 	mov	r18,r2
   2e06c:	a885383a 	mul	r2,r21,r2
   2e070:	2148b03a 	or	r4,r4,r5
   2e074:	2080062e 	bgeu	r4,r2,2e090 <__udivdi3+0x34c>
   2e078:	2449883a 	add	r4,r4,r17
   2e07c:	90ffffc4 	addi	r3,r18,-1
   2e080:	24407636 	bltu	r4,r17,2e25c <__udivdi3+0x518>
   2e084:	2080752e 	bgeu	r4,r2,2e25c <__udivdi3+0x518>
   2e088:	94bfff84 	addi	r18,r18,-2
   2e08c:	2449883a 	add	r4,r4,r17
   2e090:	20a1c83a 	sub	r16,r4,r2
   2e094:	8009883a 	mov	r4,r16
   2e098:	a00b883a 	mov	r5,r20
   2e09c:	00230800 	call	23080 <__umodsi3>
   2e0a0:	8009883a 	mov	r4,r16
   2e0a4:	a00b883a 	mov	r5,r20
   2e0a8:	1021883a 	mov	r16,r2
   2e0ac:	8020943a 	slli	r16,r16,16
   2e0b0:	002301c0 	call	2301c <__udivsi3>
   2e0b4:	a889383a 	mul	r4,r21,r2
   2e0b8:	b5bfffcc 	andi	r22,r22,65535
   2e0bc:	85a0b03a 	or	r16,r16,r22
   2e0c0:	8100062e 	bgeu	r16,r4,2e0dc <__udivdi3+0x398>
   2e0c4:	8461883a 	add	r16,r16,r17
   2e0c8:	10ffffc4 	addi	r3,r2,-1
   2e0cc:	84405f36 	bltu	r16,r17,2e24c <__udivdi3+0x508>
   2e0d0:	81005e2e 	bgeu	r16,r4,2e24c <__udivdi3+0x508>
   2e0d4:	10bfff84 	addi	r2,r2,-2
   2e0d8:	8461883a 	add	r16,r16,r17
   2e0dc:	9006943a 	slli	r3,r18,16
   2e0e0:	8121c83a 	sub	r16,r16,r4
   2e0e4:	1886b03a 	or	r3,r3,r2
   2e0e8:	003f9706 	br	2df48 <__udivdi3+0x204>
   2e0ec:	30aed83a 	srl	r23,r6,r2
   2e0f0:	3d8e983a 	sll	r7,r7,r22
   2e0f4:	80a8d83a 	srl	r20,r16,r2
   2e0f8:	90a2d83a 	srl	r17,r18,r2
   2e0fc:	b9eeb03a 	or	r23,r23,r7
   2e100:	b826d43a 	srli	r19,r23,16
   2e104:	8584983a 	sll	r2,r16,r22
   2e108:	a009883a 	mov	r4,r20
   2e10c:	980b883a 	mov	r5,r19
   2e110:	35aa983a 	sll	r21,r6,r22
   2e114:	88a2b03a 	or	r17,r17,r2
   2e118:	00230800 	call	23080 <__umodsi3>
   2e11c:	a009883a 	mov	r4,r20
   2e120:	980b883a 	mov	r5,r19
   2e124:	1029883a 	mov	r20,r2
   2e128:	002301c0 	call	2301c <__udivsi3>
   2e12c:	a008943a 	slli	r4,r20,16
   2e130:	8806d43a 	srli	r3,r17,16
   2e134:	bf3fffcc 	andi	fp,r23,65535
   2e138:	1021883a 	mov	r16,r2
   2e13c:	e085383a 	mul	r2,fp,r2
   2e140:	20c8b03a 	or	r4,r4,r3
   2e144:	2080062e 	bgeu	r4,r2,2e160 <__udivdi3+0x41c>
   2e148:	25c9883a 	add	r4,r4,r23
   2e14c:	80ffffc4 	addi	r3,r16,-1
   2e150:	25c04036 	bltu	r4,r23,2e254 <__udivdi3+0x510>
   2e154:	20803f2e 	bgeu	r4,r2,2e254 <__udivdi3+0x510>
   2e158:	843fff84 	addi	r16,r16,-2
   2e15c:	25c9883a 	add	r4,r4,r23
   2e160:	20a9c83a 	sub	r20,r4,r2
   2e164:	980b883a 	mov	r5,r19
   2e168:	a009883a 	mov	r4,r20
   2e16c:	00230800 	call	23080 <__umodsi3>
   2e170:	980b883a 	mov	r5,r19
   2e174:	a009883a 	mov	r4,r20
   2e178:	1027883a 	mov	r19,r2
   2e17c:	002301c0 	call	2301c <__udivsi3>
   2e180:	9806943a 	slli	r3,r19,16
   2e184:	e0b9383a 	mul	fp,fp,r2
   2e188:	8c7fffcc 	andi	r17,r17,65535
   2e18c:	1c46b03a 	or	r3,r3,r17
   2e190:	1009883a 	mov	r4,r2
   2e194:	1f00062e 	bgeu	r3,fp,2e1b0 <__udivdi3+0x46c>
   2e198:	1dc7883a 	add	r3,r3,r23
   2e19c:	10bfffc4 	addi	r2,r2,-1
   2e1a0:	1dc02836 	bltu	r3,r23,2e244 <__udivdi3+0x500>
   2e1a4:	1f00272e 	bgeu	r3,fp,2e244 <__udivdi3+0x500>
   2e1a8:	213fff84 	addi	r4,r4,-2
   2e1ac:	1dc7883a 	add	r3,r3,r23
   2e1b0:	8004943a 	slli	r2,r16,16
   2e1b4:	a80ed43a 	srli	r7,r21,16
   2e1b8:	217fffcc 	andi	r5,r4,65535
   2e1bc:	1104b03a 	or	r2,r2,r4
   2e1c0:	1008d43a 	srli	r4,r2,16
   2e1c4:	ad7fffcc 	andi	r21,r21,65535
   2e1c8:	2d51383a 	mul	r8,r5,r21
   2e1cc:	256b383a 	mul	r21,r4,r21
   2e1d0:	29cb383a 	mul	r5,r5,r7
   2e1d4:	400cd43a 	srli	r6,r8,16
   2e1d8:	21c9383a 	mul	r4,r4,r7
   2e1dc:	2d4b883a 	add	r5,r5,r21
   2e1e0:	314b883a 	add	r5,r6,r5
   2e1e4:	1f07c83a 	sub	r3,r3,fp
   2e1e8:	2d40022e 	bgeu	r5,r21,2e1f4 <__udivdi3+0x4b0>
   2e1ec:	01800074 	movhi	r6,1
   2e1f0:	2189883a 	add	r4,r4,r6
   2e1f4:	280cd43a 	srli	r6,r5,16
   2e1f8:	3109883a 	add	r4,r6,r4
   2e1fc:	19000836 	bltu	r3,r4,2e220 <__udivdi3+0x4dc>
   2e200:	19000226 	beq	r3,r4,2e20c <__udivdi3+0x4c8>
   2e204:	0007883a 	mov	r3,zero
   2e208:	003f1f06 	br	2de88 <__udivdi3+0x144>
   2e20c:	280a943a 	slli	r5,r5,16
   2e210:	9588983a 	sll	r4,r18,r22
   2e214:	423fffcc 	andi	r8,r8,65535
   2e218:	2a0b883a 	add	r5,r5,r8
   2e21c:	217ff92e 	bgeu	r4,r5,2e204 <__udivdi3+0x4c0>
   2e220:	10bfffc4 	addi	r2,r2,-1
   2e224:	003ff706 	br	2e204 <__udivdi3+0x4c0>
   2e228:	00c00404 	movi	r3,16
   2e22c:	003f2706 	br	2decc <__udivdi3+0x188>
   2e230:	00c00404 	movi	r3,16
   2e234:	003eda06 	br	2dda0 <__udivdi3+0x5c>
   2e238:	0007883a 	mov	r3,zero
   2e23c:	00800044 	movi	r2,1
   2e240:	003f1106 	br	2de88 <__udivdi3+0x144>
   2e244:	1009883a 	mov	r4,r2
   2e248:	003fd906 	br	2e1b0 <__udivdi3+0x46c>
   2e24c:	1805883a 	mov	r2,r3
   2e250:	003fa206 	br	2e0dc <__udivdi3+0x398>
   2e254:	1821883a 	mov	r16,r3
   2e258:	003fc106 	br	2e160 <__udivdi3+0x41c>
   2e25c:	1825883a 	mov	r18,r3
   2e260:	003f8b06 	br	2e090 <__udivdi3+0x34c>
   2e264:	10bfff84 	addi	r2,r2,-2
   2e268:	003f5f06 	br	2dfe8 <__udivdi3+0x2a4>
   2e26c:	10bfff84 	addi	r2,r2,-2
   2e270:	003efe06 	br	2de6c <__udivdi3+0x128>
   2e274:	843fff84 	addi	r16,r16,-2
   2e278:	2449883a 	add	r4,r4,r17
   2e27c:	003f4606 	br	2df98 <__udivdi3+0x254>
   2e280:	00800604 	movi	r2,24
   2e284:	003f2406 	br	2df18 <__udivdi3+0x1d4>
   2e288:	843fff84 	addi	r16,r16,-2
   2e28c:	2449883a 	add	r4,r4,r17
   2e290:	003ee406 	br	2de24 <__udivdi3+0xe0>

0002e294 <__umoddi3>:
   2e294:	defff504 	addi	sp,sp,-44
   2e298:	dcc00415 	stw	r19,16(sp)
   2e29c:	dc000115 	stw	r16,4(sp)
   2e2a0:	dfc00a15 	stw	ra,40(sp)
   2e2a4:	df000915 	stw	fp,36(sp)
   2e2a8:	ddc00815 	stw	r23,32(sp)
   2e2ac:	dd800715 	stw	r22,28(sp)
   2e2b0:	dd400615 	stw	r21,24(sp)
   2e2b4:	dd000515 	stw	r20,20(sp)
   2e2b8:	dc800315 	stw	r18,12(sp)
   2e2bc:	dc400215 	stw	r17,8(sp)
   2e2c0:	2827883a 	mov	r19,r5
   2e2c4:	2021883a 	mov	r16,r4
   2e2c8:	38003b1e 	bne	r7,zero,2e3b8 <__umoddi3+0x124>
   2e2cc:	3029883a 	mov	r20,r6
   2e2d0:	2025883a 	mov	r18,r4
   2e2d4:	29805d2e 	bgeu	r5,r6,2e44c <__umoddi3+0x1b8>
   2e2d8:	00bfffd4 	movui	r2,65535
   2e2dc:	282f883a 	mov	r23,r5
   2e2e0:	11808e2e 	bgeu	r2,r6,2e51c <__umoddi3+0x288>
   2e2e4:	00804034 	movhi	r2,256
   2e2e8:	30811e36 	bltu	r6,r2,2e764 <__umoddi3+0x4d0>
   2e2ec:	00c00604 	movi	r3,24
   2e2f0:	30cad83a 	srl	r5,r6,r3
   2e2f4:	008000f4 	movhi	r2,3
   2e2f8:	01000804 	movi	r4,32
   2e2fc:	2885883a 	add	r2,r5,r2
   2e300:	10937b03 	ldbu	r2,19948(r2)
   2e304:	10c5883a 	add	r2,r2,r3
   2e308:	20a3c83a 	sub	r17,r4,r2
   2e30c:	20800526 	beq	r4,r2,2e324 <__umoddi3+0x90>
   2e310:	9c6e983a 	sll	r23,r19,r17
   2e314:	8084d83a 	srl	r2,r16,r2
   2e318:	3468983a 	sll	r20,r6,r17
   2e31c:	8464983a 	sll	r18,r16,r17
   2e320:	15eeb03a 	or	r23,r2,r23
   2e324:	a02cd43a 	srli	r22,r20,16
   2e328:	b809883a 	mov	r4,r23
   2e32c:	a57fffcc 	andi	r21,r20,65535
   2e330:	b00b883a 	mov	r5,r22
   2e334:	00230800 	call	23080 <__umodsi3>
   2e338:	b809883a 	mov	r4,r23
   2e33c:	b00b883a 	mov	r5,r22
   2e340:	1021883a 	mov	r16,r2
   2e344:	002301c0 	call	2301c <__udivsi3>
   2e348:	8008943a 	slli	r4,r16,16
   2e34c:	9006d43a 	srli	r3,r18,16
   2e350:	a885383a 	mul	r2,r21,r2
   2e354:	20c8b03a 	or	r4,r4,r3
   2e358:	2080032e 	bgeu	r4,r2,2e368 <__umoddi3+0xd4>
   2e35c:	2509883a 	add	r4,r4,r20
   2e360:	25000136 	bltu	r4,r20,2e368 <__umoddi3+0xd4>
   2e364:	20810d36 	bltu	r4,r2,2e79c <__umoddi3+0x508>
   2e368:	20a7c83a 	sub	r19,r4,r2
   2e36c:	b00b883a 	mov	r5,r22
   2e370:	9809883a 	mov	r4,r19
   2e374:	00230800 	call	23080 <__umodsi3>
   2e378:	1021883a 	mov	r16,r2
   2e37c:	b00b883a 	mov	r5,r22
   2e380:	9809883a 	mov	r4,r19
   2e384:	8020943a 	slli	r16,r16,16
   2e388:	002301c0 	call	2301c <__udivsi3>
   2e38c:	a8ab383a 	mul	r21,r21,r2
   2e390:	94bfffcc 	andi	r18,r18,65535
   2e394:	84a0b03a 	or	r16,r16,r18
   2e398:	8540032e 	bgeu	r16,r21,2e3a8 <__umoddi3+0x114>
   2e39c:	8521883a 	add	r16,r16,r20
   2e3a0:	85000136 	bltu	r16,r20,2e3a8 <__umoddi3+0x114>
   2e3a4:	8540f736 	bltu	r16,r21,2e784 <__umoddi3+0x4f0>
   2e3a8:	8561c83a 	sub	r16,r16,r21
   2e3ac:	8444d83a 	srl	r2,r16,r17
   2e3b0:	0007883a 	mov	r3,zero
   2e3b4:	00000406 	br	2e3c8 <__umoddi3+0x134>
   2e3b8:	2807883a 	mov	r3,r5
   2e3bc:	200b883a 	mov	r5,r4
   2e3c0:	99c00d2e 	bgeu	r19,r7,2e3f8 <__umoddi3+0x164>
   2e3c4:	2005883a 	mov	r2,r4
   2e3c8:	dfc00a17 	ldw	ra,40(sp)
   2e3cc:	df000917 	ldw	fp,36(sp)
   2e3d0:	ddc00817 	ldw	r23,32(sp)
   2e3d4:	dd800717 	ldw	r22,28(sp)
   2e3d8:	dd400617 	ldw	r21,24(sp)
   2e3dc:	dd000517 	ldw	r20,20(sp)
   2e3e0:	dcc00417 	ldw	r19,16(sp)
   2e3e4:	dc800317 	ldw	r18,12(sp)
   2e3e8:	dc400217 	ldw	r17,8(sp)
   2e3ec:	dc000117 	ldw	r16,4(sp)
   2e3f0:	dec00b04 	addi	sp,sp,44
   2e3f4:	f800283a 	ret
   2e3f8:	00bfffd4 	movui	r2,65535
   2e3fc:	11c0502e 	bgeu	r2,r7,2e540 <__umoddi3+0x2ac>
   2e400:	00804034 	movhi	r2,256
   2e404:	3880d936 	bltu	r7,r2,2e76c <__umoddi3+0x4d8>
   2e408:	01000604 	movi	r4,24
   2e40c:	3912d83a 	srl	r9,r7,r4
   2e410:	008000f4 	movhi	r2,3
   2e414:	02000804 	movi	r8,32
   2e418:	4885883a 	add	r2,r9,r2
   2e41c:	15137b03 	ldbu	r20,19948(r2)
   2e420:	a129883a 	add	r20,r20,r4
   2e424:	4525c83a 	sub	r18,r8,r20
   2e428:	4500731e 	bne	r8,r20,2e5f8 <__umoddi3+0x364>
   2e42c:	3cc00136 	bltu	r7,r19,2e434 <__umoddi3+0x1a0>
   2e430:	81800436 	bltu	r16,r6,2e444 <__umoddi3+0x1b0>
   2e434:	818bc83a 	sub	r5,r16,r6
   2e438:	99cfc83a 	sub	r7,r19,r7
   2e43c:	8147803a 	cmpltu	r3,r16,r5
   2e440:	38c7c83a 	sub	r3,r7,r3
   2e444:	2805883a 	mov	r2,r5
   2e448:	003fdf06 	br	2e3c8 <__umoddi3+0x134>
   2e44c:	3000361e 	bne	r6,zero,2e528 <__umoddi3+0x294>
   2e450:	000b883a 	mov	r5,zero
   2e454:	01000044 	movi	r4,1
   2e458:	002301c0 	call	2301c <__udivsi3>
   2e45c:	1029883a 	mov	r20,r2
   2e460:	a0804028 	cmpgeui	r2,r20,256
   2e464:	100490fa 	slli	r2,r2,3
   2e468:	a08ad83a 	srl	r5,r20,r2
   2e46c:	00c000f4 	movhi	r3,3
   2e470:	01000804 	movi	r4,32
   2e474:	28c7883a 	add	r3,r5,r3
   2e478:	1dd37b03 	ldbu	r23,19948(r3)
   2e47c:	b8af883a 	add	r23,r23,r2
   2e480:	25e3c83a 	sub	r17,r4,r23
   2e484:	25c0311e 	bne	r4,r23,2e54c <__umoddi3+0x2b8>
   2e488:	a02ad43a 	srli	r21,r20,16
   2e48c:	9d27c83a 	sub	r19,r19,r20
   2e490:	a5bfffcc 	andi	r22,r20,65535
   2e494:	a80b883a 	mov	r5,r21
   2e498:	9809883a 	mov	r4,r19
   2e49c:	00230800 	call	23080 <__umodsi3>
   2e4a0:	9809883a 	mov	r4,r19
   2e4a4:	a80b883a 	mov	r5,r21
   2e4a8:	1021883a 	mov	r16,r2
   2e4ac:	002301c0 	call	2301c <__udivsi3>
   2e4b0:	8008943a 	slli	r4,r16,16
   2e4b4:	9006d43a 	srli	r3,r18,16
   2e4b8:	1585383a 	mul	r2,r2,r22
   2e4bc:	20c8b03a 	or	r4,r4,r3
   2e4c0:	2080032e 	bgeu	r4,r2,2e4d0 <__umoddi3+0x23c>
   2e4c4:	2509883a 	add	r4,r4,r20
   2e4c8:	25000136 	bltu	r4,r20,2e4d0 <__umoddi3+0x23c>
   2e4cc:	2080af36 	bltu	r4,r2,2e78c <__umoddi3+0x4f8>
   2e4d0:	20a7c83a 	sub	r19,r4,r2
   2e4d4:	a80b883a 	mov	r5,r21
   2e4d8:	9809883a 	mov	r4,r19
   2e4dc:	00230800 	call	23080 <__umodsi3>
   2e4e0:	1021883a 	mov	r16,r2
   2e4e4:	a80b883a 	mov	r5,r21
   2e4e8:	9809883a 	mov	r4,r19
   2e4ec:	8020943a 	slli	r16,r16,16
   2e4f0:	002301c0 	call	2301c <__udivsi3>
   2e4f4:	1585383a 	mul	r2,r2,r22
   2e4f8:	94bfffcc 	andi	r18,r18,65535
   2e4fc:	84a0b03a 	or	r16,r16,r18
   2e500:	8080042e 	bgeu	r16,r2,2e514 <__umoddi3+0x280>
   2e504:	8521883a 	add	r16,r16,r20
   2e508:	85000236 	bltu	r16,r20,2e514 <__umoddi3+0x280>
   2e50c:	8080012e 	bgeu	r16,r2,2e514 <__umoddi3+0x280>
   2e510:	8521883a 	add	r16,r16,r20
   2e514:	80a1c83a 	sub	r16,r16,r2
   2e518:	003fa406 	br	2e3ac <__umoddi3+0x118>
   2e51c:	30c04028 	cmpgeui	r3,r6,256
   2e520:	180690fa 	slli	r3,r3,3
   2e524:	003f7206 	br	2e2f0 <__umoddi3+0x5c>
   2e528:	00bfffd4 	movui	r2,65535
   2e52c:	11bfcc2e 	bgeu	r2,r6,2e460 <__umoddi3+0x1cc>
   2e530:	00804034 	movhi	r2,256
   2e534:	3080972e 	bgeu	r6,r2,2e794 <__umoddi3+0x500>
   2e538:	00800404 	movi	r2,16
   2e53c:	003fca06 	br	2e468 <__umoddi3+0x1d4>
   2e540:	39004028 	cmpgeui	r4,r7,256
   2e544:	200890fa 	slli	r4,r4,3
   2e548:	003fb006 	br	2e40c <__umoddi3+0x178>
   2e54c:	a468983a 	sll	r20,r20,r17
   2e550:	9decd83a 	srl	r22,r19,r23
   2e554:	85eed83a 	srl	r23,r16,r23
   2e558:	a02ad43a 	srli	r21,r20,16
   2e55c:	b009883a 	mov	r4,r22
   2e560:	9c66983a 	sll	r19,r19,r17
   2e564:	a80b883a 	mov	r5,r21
   2e568:	00230800 	call	23080 <__umodsi3>
   2e56c:	b009883a 	mov	r4,r22
   2e570:	a80b883a 	mov	r5,r21
   2e574:	1025883a 	mov	r18,r2
   2e578:	bceeb03a 	or	r23,r23,r19
   2e57c:	002301c0 	call	2301c <__udivsi3>
   2e580:	9008943a 	slli	r4,r18,16
   2e584:	b806d43a 	srli	r3,r23,16
   2e588:	a5bfffcc 	andi	r22,r20,65535
   2e58c:	b085383a 	mul	r2,r22,r2
   2e590:	20c8b03a 	or	r4,r4,r3
   2e594:	8464983a 	sll	r18,r16,r17
   2e598:	2080042e 	bgeu	r4,r2,2e5ac <__umoddi3+0x318>
   2e59c:	2509883a 	add	r4,r4,r20
   2e5a0:	25000236 	bltu	r4,r20,2e5ac <__umoddi3+0x318>
   2e5a4:	2080012e 	bgeu	r4,r2,2e5ac <__umoddi3+0x318>
   2e5a8:	2509883a 	add	r4,r4,r20
   2e5ac:	20a1c83a 	sub	r16,r4,r2
   2e5b0:	a80b883a 	mov	r5,r21
   2e5b4:	8009883a 	mov	r4,r16
   2e5b8:	00230800 	call	23080 <__umodsi3>
   2e5bc:	1027883a 	mov	r19,r2
   2e5c0:	a80b883a 	mov	r5,r21
   2e5c4:	8009883a 	mov	r4,r16
   2e5c8:	9826943a 	slli	r19,r19,16
   2e5cc:	002301c0 	call	2301c <__udivsi3>
   2e5d0:	b085383a 	mul	r2,r22,r2
   2e5d4:	bdffffcc 	andi	r23,r23,65535
   2e5d8:	9de6b03a 	or	r19,r19,r23
   2e5dc:	9880042e 	bgeu	r19,r2,2e5f0 <__umoddi3+0x35c>
   2e5e0:	9d27883a 	add	r19,r19,r20
   2e5e4:	9d000236 	bltu	r19,r20,2e5f0 <__umoddi3+0x35c>
   2e5e8:	9880012e 	bgeu	r19,r2,2e5f0 <__umoddi3+0x35c>
   2e5ec:	9d27883a 	add	r19,r19,r20
   2e5f0:	98a7c83a 	sub	r19,r19,r2
   2e5f4:	003fa706 	br	2e494 <__umoddi3+0x200>
   2e5f8:	352cd83a 	srl	r22,r6,r20
   2e5fc:	3c8e983a 	sll	r7,r7,r18
   2e600:	9d2ed83a 	srl	r23,r19,r20
   2e604:	8504d83a 	srl	r2,r16,r20
   2e608:	b1ecb03a 	or	r22,r22,r7
   2e60c:	b02ad43a 	srli	r21,r22,16
   2e610:	9ca6983a 	sll	r19,r19,r18
   2e614:	b809883a 	mov	r4,r23
   2e618:	a80b883a 	mov	r5,r21
   2e61c:	34a2983a 	sll	r17,r6,r18
   2e620:	14e6b03a 	or	r19,r2,r19
   2e624:	00230800 	call	23080 <__umodsi3>
   2e628:	b809883a 	mov	r4,r23
   2e62c:	a80b883a 	mov	r5,r21
   2e630:	102f883a 	mov	r23,r2
   2e634:	002301c0 	call	2301c <__udivsi3>
   2e638:	b808943a 	slli	r4,r23,16
   2e63c:	9806d43a 	srli	r3,r19,16
   2e640:	b1bfffcc 	andi	r6,r22,65535
   2e644:	1039883a 	mov	fp,r2
   2e648:	3085383a 	mul	r2,r6,r2
   2e64c:	20c8b03a 	or	r4,r4,r3
   2e650:	84ae983a 	sll	r23,r16,r18
   2e654:	2080062e 	bgeu	r4,r2,2e670 <__umoddi3+0x3dc>
   2e658:	2589883a 	add	r4,r4,r22
   2e65c:	e0ffffc4 	addi	r3,fp,-1
   2e660:	25804636 	bltu	r4,r22,2e77c <__umoddi3+0x4e8>
   2e664:	2080452e 	bgeu	r4,r2,2e77c <__umoddi3+0x4e8>
   2e668:	e73fff84 	addi	fp,fp,-2
   2e66c:	2589883a 	add	r4,r4,r22
   2e670:	20a1c83a 	sub	r16,r4,r2
   2e674:	8009883a 	mov	r4,r16
   2e678:	a80b883a 	mov	r5,r21
   2e67c:	d9800015 	stw	r6,0(sp)
   2e680:	00230800 	call	23080 <__umodsi3>
   2e684:	a80b883a 	mov	r5,r21
   2e688:	8009883a 	mov	r4,r16
   2e68c:	1021883a 	mov	r16,r2
   2e690:	002301c0 	call	2301c <__udivsi3>
   2e694:	d9800017 	ldw	r6,0(sp)
   2e698:	8006943a 	slli	r3,r16,16
   2e69c:	9cffffcc 	andi	r19,r19,65535
   2e6a0:	308b383a 	mul	r5,r6,r2
   2e6a4:	1cc6b03a 	or	r3,r3,r19
   2e6a8:	1940062e 	bgeu	r3,r5,2e6c4 <__umoddi3+0x430>
   2e6ac:	1d87883a 	add	r3,r3,r22
   2e6b0:	113fffc4 	addi	r4,r2,-1
   2e6b4:	1d802f36 	bltu	r3,r22,2e774 <__umoddi3+0x4e0>
   2e6b8:	19402e2e 	bgeu	r3,r5,2e774 <__umoddi3+0x4e0>
   2e6bc:	10bfff84 	addi	r2,r2,-2
   2e6c0:	1d87883a 	add	r3,r3,r22
   2e6c4:	e038943a 	slli	fp,fp,16
   2e6c8:	113fffcc 	andi	r4,r2,65535
   2e6cc:	8810d43a 	srli	r8,r17,16
   2e6d0:	e0b8b03a 	or	fp,fp,r2
   2e6d4:	e038d43a 	srli	fp,fp,16
   2e6d8:	89bfffcc 	andi	r6,r17,65535
   2e6dc:	218f383a 	mul	r7,r4,r6
   2e6e0:	e18d383a 	mul	r6,fp,r6
   2e6e4:	2209383a 	mul	r4,r4,r8
   2e6e8:	3804d43a 	srli	r2,r7,16
   2e6ec:	e239383a 	mul	fp,fp,r8
   2e6f0:	2189883a 	add	r4,r4,r6
   2e6f4:	1105883a 	add	r2,r2,r4
   2e6f8:	1947c83a 	sub	r3,r3,r5
   2e6fc:	1180022e 	bgeu	r2,r6,2e708 <__umoddi3+0x474>
   2e700:	01000074 	movhi	r4,1
   2e704:	e139883a 	add	fp,fp,r4
   2e708:	1008d43a 	srli	r4,r2,16
   2e70c:	1004943a 	slli	r2,r2,16
   2e710:	39ffffcc 	andi	r7,r7,65535
   2e714:	2709883a 	add	r4,r4,fp
   2e718:	11c5883a 	add	r2,r2,r7
   2e71c:	19000b36 	bltu	r3,r4,2e74c <__umoddi3+0x4b8>
   2e720:	19000926 	beq	r3,r4,2e748 <__umoddi3+0x4b4>
   2e724:	b885c83a 	sub	r2,r23,r2
   2e728:	b8af803a 	cmpltu	r23,r23,r2
   2e72c:	1907c83a 	sub	r3,r3,r4
   2e730:	1dc7c83a 	sub	r3,r3,r23
   2e734:	1d28983a 	sll	r20,r3,r20
   2e738:	1484d83a 	srl	r2,r2,r18
   2e73c:	1c86d83a 	srl	r3,r3,r18
   2e740:	a084b03a 	or	r2,r20,r2
   2e744:	003f2006 	br	2e3c8 <__umoddi3+0x134>
   2e748:	b8bff62e 	bgeu	r23,r2,2e724 <__umoddi3+0x490>
   2e74c:	1463c83a 	sub	r17,r2,r17
   2e750:	1445803a 	cmpltu	r2,r2,r17
   2e754:	1585883a 	add	r2,r2,r22
   2e758:	2089c83a 	sub	r4,r4,r2
   2e75c:	8805883a 	mov	r2,r17
   2e760:	003ff006 	br	2e724 <__umoddi3+0x490>
   2e764:	00c00404 	movi	r3,16
   2e768:	003ee106 	br	2e2f0 <__umoddi3+0x5c>
   2e76c:	01000404 	movi	r4,16
   2e770:	003f2606 	br	2e40c <__umoddi3+0x178>
   2e774:	2005883a 	mov	r2,r4
   2e778:	003fd206 	br	2e6c4 <__umoddi3+0x430>
   2e77c:	1839883a 	mov	fp,r3
   2e780:	003fbb06 	br	2e670 <__umoddi3+0x3dc>
   2e784:	8521883a 	add	r16,r16,r20
   2e788:	003f0706 	br	2e3a8 <__umoddi3+0x114>
   2e78c:	2509883a 	add	r4,r4,r20
   2e790:	003f4f06 	br	2e4d0 <__umoddi3+0x23c>
   2e794:	00800604 	movi	r2,24
   2e798:	003f3306 	br	2e468 <__umoddi3+0x1d4>
   2e79c:	2509883a 	add	r4,r4,r20
   2e7a0:	003ef106 	br	2e368 <__umoddi3+0xd4>

0002e7a4 <__adddf3>:
   2e7a4:	00c00434 	movhi	r3,16
   2e7a8:	18ffffc4 	addi	r3,r3,-1
   2e7ac:	defffa04 	addi	sp,sp,-24
   2e7b0:	2810d7fa 	srli	r8,r5,31
   2e7b4:	3804d53a 	srli	r2,r7,20
   2e7b8:	28d4703a 	and	r10,r5,r3
   2e7bc:	38d2703a 	and	r9,r7,r3
   2e7c0:	280ad53a 	srli	r5,r5,20
   2e7c4:	501490fa 	slli	r10,r10,3
   2e7c8:	481290fa 	slli	r9,r9,3
   2e7cc:	3016d77a 	srli	r11,r6,29
   2e7d0:	dc400115 	stw	r17,4(sp)
   2e7d4:	380ed7fa 	srli	r7,r7,31
   2e7d8:	2022d77a 	srli	r17,r4,29
   2e7dc:	dd000415 	stw	r20,16(sp)
   2e7e0:	dcc00315 	stw	r19,12(sp)
   2e7e4:	dc000015 	stw	r16,0(sp)
   2e7e8:	1081ffcc 	andi	r2,r2,2047
   2e7ec:	2c01ffcc 	andi	r16,r5,2047
   2e7f0:	dfc00515 	stw	ra,20(sp)
   2e7f4:	dc800215 	stw	r18,8(sp)
   2e7f8:	201890fa 	slli	r12,r4,3
   2e7fc:	301a90fa 	slli	r13,r6,3
   2e800:	4027883a 	mov	r19,r8
   2e804:	45003fcc 	andi	r20,r8,255
   2e808:	8aa2b03a 	or	r17,r17,r10
   2e80c:	5a56b03a 	or	r11,r11,r9
   2e810:	808bc83a 	sub	r5,r16,r2
   2e814:	41c07526 	beq	r8,r7,2e9ec <__adddf3+0x248>
   2e818:	0140540e 	bge	zero,r5,2e96c <__adddf3+0x1c8>
   2e81c:	10008b26 	beq	r2,zero,2ea4c <__adddf3+0x2a8>
   2e820:	8081ffe0 	cmpeqi	r2,r16,2047
   2e824:	10010d1e 	bne	r2,zero,2ec5c <__adddf3+0x4b8>
   2e828:	28800e48 	cmpgei	r2,r5,57
   2e82c:	1000c11e 	bne	r2,zero,2eb34 <__adddf3+0x390>
   2e830:	5ac02034 	orhi	r11,r11,128
   2e834:	28800808 	cmpgei	r2,r5,32
   2e838:	1001461e 	bne	r2,zero,2ed54 <__adddf3+0x5b0>
   2e83c:	00800804 	movi	r2,32
   2e840:	1145c83a 	sub	r2,r2,r5
   2e844:	58a4983a 	sll	r18,r11,r2
   2e848:	6946d83a 	srl	r3,r13,r5
   2e84c:	6884983a 	sll	r2,r13,r2
   2e850:	594ad83a 	srl	r5,r11,r5
   2e854:	90e4b03a 	or	r18,r18,r3
   2e858:	1004c03a 	cmpne	r2,r2,zero
   2e85c:	90a4b03a 	or	r18,r18,r2
   2e860:	8963c83a 	sub	r17,r17,r5
   2e864:	64a5c83a 	sub	r18,r12,r18
   2e868:	6485803a 	cmpltu	r2,r12,r18
   2e86c:	88a3c83a 	sub	r17,r17,r2
   2e870:	8880202c 	andhi	r2,r17,128
   2e874:	1000b826 	beq	r2,zero,2eb58 <__adddf3+0x3b4>
   2e878:	00802034 	movhi	r2,128
   2e87c:	10bfffc4 	addi	r2,r2,-1
   2e880:	88a2703a 	and	r17,r17,r2
   2e884:	8800d026 	beq	r17,zero,2ebc8 <__adddf3+0x424>
   2e888:	8809883a 	mov	r4,r17
   2e88c:	0030e080 	call	30e08 <__clzsi2>
   2e890:	113ffe04 	addi	r4,r2,-8
   2e894:	00c00804 	movi	r3,32
   2e898:	1905c83a 	sub	r2,r3,r4
   2e89c:	9084d83a 	srl	r2,r18,r2
   2e8a0:	8922983a 	sll	r17,r17,r4
   2e8a4:	9124983a 	sll	r18,r18,r4
   2e8a8:	1444b03a 	or	r2,r2,r17
   2e8ac:	2400ff16 	blt	r4,r16,2ecac <__adddf3+0x508>
   2e8b0:	2409c83a 	sub	r4,r4,r16
   2e8b4:	21000044 	addi	r4,r4,1
   2e8b8:	1907c83a 	sub	r3,r3,r4
   2e8bc:	90ca983a 	sll	r5,r18,r3
   2e8c0:	9122d83a 	srl	r17,r18,r4
   2e8c4:	280ac03a 	cmpne	r5,r5,zero
   2e8c8:	10c6983a 	sll	r3,r2,r3
   2e8cc:	894ab03a 	or	r5,r17,r5
   2e8d0:	1122d83a 	srl	r17,r2,r4
   2e8d4:	0021883a 	mov	r16,zero
   2e8d8:	1964b03a 	or	r18,r3,r5
   2e8dc:	908001cc 	andi	r2,r18,7
   2e8e0:	10000726 	beq	r2,zero,2e900 <__adddf3+0x15c>
   2e8e4:	908003cc 	andi	r2,r18,15
   2e8e8:	10800120 	cmpeqi	r2,r2,4
   2e8ec:	1000041e 	bne	r2,zero,2e900 <__adddf3+0x15c>
   2e8f0:	90800104 	addi	r2,r18,4
   2e8f4:	14a5803a 	cmpltu	r18,r2,r18
   2e8f8:	8ca3883a 	add	r17,r17,r18
   2e8fc:	1025883a 	mov	r18,r2
   2e900:	8880202c 	andhi	r2,r17,128
   2e904:	1000c926 	beq	r2,zero,2ec2c <__adddf3+0x488>
   2e908:	8081ffa0 	cmpeqi	r2,r16,2046
   2e90c:	84000044 	addi	r16,r16,1
   2e910:	1000841e 	bne	r2,zero,2eb24 <__adddf3+0x380>
   2e914:	013fe034 	movhi	r4,65408
   2e918:	213fffc4 	addi	r4,r4,-1
   2e91c:	8908703a 	and	r4,r17,r4
   2e920:	2004977a 	slli	r2,r4,29
   2e924:	2008927a 	slli	r4,r4,9
   2e928:	9024d0fa 	srli	r18,r18,3
   2e92c:	80c1ffcc 	andi	r3,r16,2047
   2e930:	2008d33a 	srli	r4,r4,12
   2e934:	1484b03a 	or	r2,r2,r18
   2e938:	a027883a 	mov	r19,r20
   2e93c:	1806953a 	slli	r3,r3,20
   2e940:	982697fa 	slli	r19,r19,31
   2e944:	1906b03a 	or	r3,r3,r4
   2e948:	1cc6b03a 	or	r3,r3,r19
   2e94c:	dfc00517 	ldw	ra,20(sp)
   2e950:	dd000417 	ldw	r20,16(sp)
   2e954:	dcc00317 	ldw	r19,12(sp)
   2e958:	dc800217 	ldw	r18,8(sp)
   2e95c:	dc400117 	ldw	r17,4(sp)
   2e960:	dc000017 	ldw	r16,0(sp)
   2e964:	dec00604 	addi	sp,sp,24
   2e968:	f800283a 	ret
   2e96c:	3a803fcc 	andi	r10,r7,255
   2e970:	28004026 	beq	r5,zero,2ea74 <__adddf3+0x2d0>
   2e974:	140bc83a 	sub	r5,r2,r16
   2e978:	8000e61e 	bne	r16,zero,2ed14 <__adddf3+0x570>
   2e97c:	8b06b03a 	or	r3,r17,r12
   2e980:	1800c426 	beq	r3,zero,2ec94 <__adddf3+0x4f0>
   2e984:	28ffffc4 	addi	r3,r5,-1
   2e988:	18017a26 	beq	r3,zero,2ef74 <__adddf3+0x7d0>
   2e98c:	2941ffe0 	cmpeqi	r5,r5,2047
   2e990:	28019a1e 	bne	r5,zero,2effc <__adddf3+0x858>
   2e994:	19000e48 	cmpgei	r4,r3,57
   2e998:	20010c1e 	bne	r4,zero,2edcc <__adddf3+0x628>
   2e99c:	180b883a 	mov	r5,r3
   2e9a0:	28c00808 	cmpgei	r3,r5,32
   2e9a4:	1801521e 	bne	r3,zero,2eef0 <__adddf3+0x74c>
   2e9a8:	00c00804 	movi	r3,32
   2e9ac:	1947c83a 	sub	r3,r3,r5
   2e9b0:	88e4983a 	sll	r18,r17,r3
   2e9b4:	6148d83a 	srl	r4,r12,r5
   2e9b8:	60c6983a 	sll	r3,r12,r3
   2e9bc:	894ad83a 	srl	r5,r17,r5
   2e9c0:	9124b03a 	or	r18,r18,r4
   2e9c4:	1806c03a 	cmpne	r3,r3,zero
   2e9c8:	90e4b03a 	or	r18,r18,r3
   2e9cc:	5957c83a 	sub	r11,r11,r5
   2e9d0:	6ca5c83a 	sub	r18,r13,r18
   2e9d4:	6c9b803a 	cmpltu	r13,r13,r18
   2e9d8:	5b63c83a 	sub	r17,r11,r13
   2e9dc:	3827883a 	mov	r19,r7
   2e9e0:	1021883a 	mov	r16,r2
   2e9e4:	5029883a 	mov	r20,r10
   2e9e8:	003fa106 	br	2e870 <__adddf3+0xcc>
   2e9ec:	01405d0e 	bge	zero,r5,2eb64 <__adddf3+0x3c0>
   2e9f0:	1000351e 	bne	r2,zero,2eac8 <__adddf3+0x324>
   2e9f4:	5b44b03a 	or	r2,r11,r13
   2e9f8:	1000a926 	beq	r2,zero,2eca0 <__adddf3+0x4fc>
   2e9fc:	28bfffc4 	addi	r2,r5,-1
   2ea00:	10004e26 	beq	r2,zero,2eb3c <__adddf3+0x398>
   2ea04:	2941ffe0 	cmpeqi	r5,r5,2047
   2ea08:	2801121e 	bne	r5,zero,2ee54 <__adddf3+0x6b0>
   2ea0c:	10c00e48 	cmpgei	r3,r2,57
   2ea10:	1800311e 	bne	r3,zero,2ead8 <__adddf3+0x334>
   2ea14:	100b883a 	mov	r5,r2
   2ea18:	28800808 	cmpgei	r2,r5,32
   2ea1c:	1001181e 	bne	r2,zero,2ee80 <__adddf3+0x6dc>
   2ea20:	00800804 	movi	r2,32
   2ea24:	1145c83a 	sub	r2,r2,r5
   2ea28:	58a4983a 	sll	r18,r11,r2
   2ea2c:	6946d83a 	srl	r3,r13,r5
   2ea30:	6884983a 	sll	r2,r13,r2
   2ea34:	594ad83a 	srl	r5,r11,r5
   2ea38:	90e4b03a 	or	r18,r18,r3
   2ea3c:	1004c03a 	cmpne	r2,r2,zero
   2ea40:	90a4b03a 	or	r18,r18,r2
   2ea44:	8963883a 	add	r17,r17,r5
   2ea48:	00002406 	br	2eadc <__adddf3+0x338>
   2ea4c:	5b44b03a 	or	r2,r11,r13
   2ea50:	10009326 	beq	r2,zero,2eca0 <__adddf3+0x4fc>
   2ea54:	28bfffc4 	addi	r2,r5,-1
   2ea58:	1000f826 	beq	r2,zero,2ee3c <__adddf3+0x698>
   2ea5c:	2941ffe0 	cmpeqi	r5,r5,2047
   2ea60:	2800fc1e 	bne	r5,zero,2ee54 <__adddf3+0x6b0>
   2ea64:	10c00e48 	cmpgei	r3,r2,57
   2ea68:	1800321e 	bne	r3,zero,2eb34 <__adddf3+0x390>
   2ea6c:	100b883a 	mov	r5,r2
   2ea70:	003f7006 	br	2e834 <__adddf3+0x90>
   2ea74:	80800044 	addi	r2,r16,1
   2ea78:	1081ff8c 	andi	r2,r2,2046
   2ea7c:	1000ab1e 	bne	r2,zero,2ed2c <__adddf3+0x588>
   2ea80:	8b0ab03a 	or	r5,r17,r12
   2ea84:	5b44b03a 	or	r2,r11,r13
   2ea88:	8000e71e 	bne	r16,zero,2ee28 <__adddf3+0x684>
   2ea8c:	28014126 	beq	r5,zero,2ef94 <__adddf3+0x7f0>
   2ea90:	10010626 	beq	r2,zero,2eeac <__adddf3+0x708>
   2ea94:	6365c83a 	sub	r18,r12,r13
   2ea98:	6485803a 	cmpltu	r2,r12,r18
   2ea9c:	8ac7c83a 	sub	r3,r17,r11
   2eaa0:	1887c83a 	sub	r3,r3,r2
   2eaa4:	1880202c 	andhi	r2,r3,128
   2eaa8:	10017326 	beq	r2,zero,2f078 <__adddf3+0x8d4>
   2eaac:	6b25c83a 	sub	r18,r13,r12
   2eab0:	5c57c83a 	sub	r11,r11,r17
   2eab4:	6c9b803a 	cmpltu	r13,r13,r18
   2eab8:	5b63c83a 	sub	r17,r11,r13
   2eabc:	3827883a 	mov	r19,r7
   2eac0:	5029883a 	mov	r20,r10
   2eac4:	003f8506 	br	2e8dc <__adddf3+0x138>
   2eac8:	8081ffe0 	cmpeqi	r2,r16,2047
   2eacc:	1000631e 	bne	r2,zero,2ec5c <__adddf3+0x4b8>
   2ead0:	28800e48 	cmpgei	r2,r5,57
   2ead4:	1000aa26 	beq	r2,zero,2ed80 <__adddf3+0x5dc>
   2ead8:	04800044 	movi	r18,1
   2eadc:	9325883a 	add	r18,r18,r12
   2eae0:	9305803a 	cmpltu	r2,r18,r12
   2eae4:	88a3883a 	add	r17,r17,r2
   2eae8:	8880202c 	andhi	r2,r17,128
   2eaec:	10001a26 	beq	r2,zero,2eb58 <__adddf3+0x3b4>
   2eaf0:	84000044 	addi	r16,r16,1
   2eaf4:	8081ffe0 	cmpeqi	r2,r16,2047
   2eaf8:	10000a1e 	bne	r2,zero,2eb24 <__adddf3+0x380>
   2eafc:	00bfe034 	movhi	r2,65408
   2eb00:	10bfffc4 	addi	r2,r2,-1
   2eb04:	9006d07a 	srli	r3,r18,1
   2eb08:	8884703a 	and	r2,r17,r2
   2eb0c:	100897fa 	slli	r4,r2,31
   2eb10:	9480004c 	andi	r18,r18,1
   2eb14:	1c86b03a 	or	r3,r3,r18
   2eb18:	1022d07a 	srli	r17,r2,1
   2eb1c:	20e4b03a 	or	r18,r4,r3
   2eb20:	003f6e06 	br	2e8dc <__adddf3+0x138>
   2eb24:	00c1ffc4 	movi	r3,2047
   2eb28:	0009883a 	mov	r4,zero
   2eb2c:	0005883a 	mov	r2,zero
   2eb30:	003f8206 	br	2e93c <__adddf3+0x198>
   2eb34:	04800044 	movi	r18,1
   2eb38:	003f4a06 	br	2e864 <__adddf3+0xc0>
   2eb3c:	6365883a 	add	r18,r12,r13
   2eb40:	8ad7883a 	add	r11,r17,r11
   2eb44:	9305803a 	cmpltu	r2,r18,r12
   2eb48:	58a3883a 	add	r17,r11,r2
   2eb4c:	8880202c 	andhi	r2,r17,128
   2eb50:	1001061e 	bne	r2,zero,2ef6c <__adddf3+0x7c8>
   2eb54:	04000044 	movi	r16,1
   2eb58:	908001cc 	andi	r2,r18,7
   2eb5c:	103f611e 	bne	r2,zero,2e8e4 <__adddf3+0x140>
   2eb60:	00006906 	br	2ed08 <__adddf3+0x564>
   2eb64:	28005626 	beq	r5,zero,2ecc0 <__adddf3+0x51c>
   2eb68:	140bc83a 	sub	r5,r2,r16
   2eb6c:	80008626 	beq	r16,zero,2ed88 <__adddf3+0x5e4>
   2eb70:	10c1ffe0 	cmpeqi	r3,r2,2047
   2eb74:	1801101e 	bne	r3,zero,2efb8 <__adddf3+0x814>
   2eb78:	28c00e48 	cmpgei	r3,r5,57
   2eb7c:	1800da1e 	bne	r3,zero,2eee8 <__adddf3+0x744>
   2eb80:	8c402034 	orhi	r17,r17,128
   2eb84:	28c00808 	cmpgei	r3,r5,32
   2eb88:	1801241e 	bne	r3,zero,2f01c <__adddf3+0x878>
   2eb8c:	00c00804 	movi	r3,32
   2eb90:	1947c83a 	sub	r3,r3,r5
   2eb94:	88e4983a 	sll	r18,r17,r3
   2eb98:	6148d83a 	srl	r4,r12,r5
   2eb9c:	60c6983a 	sll	r3,r12,r3
   2eba0:	894ad83a 	srl	r5,r17,r5
   2eba4:	9124b03a 	or	r18,r18,r4
   2eba8:	1806c03a 	cmpne	r3,r3,zero
   2ebac:	90e4b03a 	or	r18,r18,r3
   2ebb0:	5957883a 	add	r11,r11,r5
   2ebb4:	9365883a 	add	r18,r18,r13
   2ebb8:	935b803a 	cmpltu	r13,r18,r13
   2ebbc:	6ae3883a 	add	r17,r13,r11
   2ebc0:	1021883a 	mov	r16,r2
   2ebc4:	003fc806 	br	2eae8 <__adddf3+0x344>
   2ebc8:	9009883a 	mov	r4,r18
   2ebcc:	0030e080 	call	30e08 <__clzsi2>
   2ebd0:	11000604 	addi	r4,r2,24
   2ebd4:	20c00808 	cmpgei	r3,r4,32
   2ebd8:	183f2e26 	beq	r3,zero,2e894 <__adddf3+0xf0>
   2ebdc:	10bffe04 	addi	r2,r2,-8
   2ebe0:	9084983a 	sll	r2,r18,r2
   2ebe4:	24007216 	blt	r4,r16,2edb0 <__adddf3+0x60c>
   2ebe8:	2425c83a 	sub	r18,r4,r16
   2ebec:	91000044 	addi	r4,r18,1
   2ebf0:	20c00808 	cmpgei	r3,r4,32
   2ebf4:	18012426 	beq	r3,zero,2f088 <__adddf3+0x8e4>
   2ebf8:	94bff844 	addi	r18,r18,-31
   2ebfc:	20c00820 	cmpeqi	r3,r4,32
   2ec00:	14a4d83a 	srl	r18,r2,r18
   2ec04:	1800051e 	bne	r3,zero,2ec1c <__adddf3+0x478>
   2ec08:	00c01004 	movi	r3,64
   2ec0c:	1907c83a 	sub	r3,r3,r4
   2ec10:	10c4983a 	sll	r2,r2,r3
   2ec14:	1004c03a 	cmpne	r2,r2,zero
   2ec18:	90a4b03a 	or	r18,r18,r2
   2ec1c:	908001cc 	andi	r2,r18,7
   2ec20:	0021883a 	mov	r16,zero
   2ec24:	103f2f1e 	bne	r2,zero,2e8e4 <__adddf3+0x140>
   2ec28:	00003706 	br	2ed08 <__adddf3+0x564>
   2ec2c:	9004d0fa 	srli	r2,r18,3
   2ec30:	880a977a 	slli	r5,r17,29
   2ec34:	8101ffe0 	cmpeqi	r4,r16,2047
   2ec38:	8806d0fa 	srli	r3,r17,3
   2ec3c:	2884b03a 	or	r2,r5,r2
   2ec40:	20000c1e 	bne	r4,zero,2ec74 <__adddf3+0x4d0>
   2ec44:	01000434 	movhi	r4,16
   2ec48:	213fffc4 	addi	r4,r4,-1
   2ec4c:	1908703a 	and	r4,r3,r4
   2ec50:	80c1ffcc 	andi	r3,r16,2047
   2ec54:	003f3906 	br	2e93c <__adddf3+0x198>
   2ec58:	1000b31e 	bne	r2,zero,2ef28 <__adddf3+0x784>
   2ec5c:	880a977a 	slli	r5,r17,29
   2ec60:	00880034 	movhi	r2,8192
   2ec64:	10bfffc4 	addi	r2,r2,-1
   2ec68:	8806d0fa 	srli	r3,r17,3
   2ec6c:	2084703a 	and	r2,r4,r2
   2ec70:	1144b03a 	or	r2,r2,r5
   2ec74:	10c8b03a 	or	r4,r2,r3
   2ec78:	20010726 	beq	r4,zero,2f098 <__adddf3+0x8f4>
   2ec7c:	01400434 	movhi	r5,16
   2ec80:	19000234 	orhi	r4,r3,8
   2ec84:	297fffc4 	addi	r5,r5,-1
   2ec88:	2148703a 	and	r4,r4,r5
   2ec8c:	00c1ffc4 	movi	r3,2047
   2ec90:	003f2a06 	br	2e93c <__adddf3+0x198>
   2ec94:	6819883a 	mov	r12,r13
   2ec98:	5823883a 	mov	r17,r11
   2ec9c:	3827883a 	mov	r19,r7
   2eca0:	6004d0fa 	srli	r2,r12,3
   2eca4:	2821883a 	mov	r16,r5
   2eca8:	003fe106 	br	2ec30 <__adddf3+0x48c>
   2ecac:	047fe034 	movhi	r17,65408
   2ecb0:	8c7fffc4 	addi	r17,r17,-1
   2ecb4:	8121c83a 	sub	r16,r16,r4
   2ecb8:	1462703a 	and	r17,r2,r17
   2ecbc:	003f0706 	br	2e8dc <__adddf3+0x138>
   2ecc0:	80c00044 	addi	r3,r16,1
   2ecc4:	1881ff8c 	andi	r2,r3,2046
   2ecc8:	1000421e 	bne	r2,zero,2edd4 <__adddf3+0x630>
   2eccc:	8b04b03a 	or	r2,r17,r12
   2ecd0:	8000921e 	bne	r16,zero,2ef1c <__adddf3+0x778>
   2ecd4:	1000c226 	beq	r2,zero,2efe0 <__adddf3+0x83c>
   2ecd8:	5b44b03a 	or	r2,r11,r13
   2ecdc:	10007326 	beq	r2,zero,2eeac <__adddf3+0x708>
   2ece0:	6365883a 	add	r18,r12,r13
   2ece4:	9305803a 	cmpltu	r2,r18,r12
   2ece8:	8ad7883a 	add	r11,r17,r11
   2ecec:	58a3883a 	add	r17,r11,r2
   2ecf0:	8880202c 	andhi	r2,r17,128
   2ecf4:	10000426 	beq	r2,zero,2ed08 <__adddf3+0x564>
   2ecf8:	00bfe034 	movhi	r2,65408
   2ecfc:	10bfffc4 	addi	r2,r2,-1
   2ed00:	88a2703a 	and	r17,r17,r2
   2ed04:	04000044 	movi	r16,1
   2ed08:	800b883a 	mov	r5,r16
   2ed0c:	9019883a 	mov	r12,r18
   2ed10:	003fe306 	br	2eca0 <__adddf3+0x4fc>
   2ed14:	10c1ffe0 	cmpeqi	r3,r2,2047
   2ed18:	18006b1e 	bne	r3,zero,2eec8 <__adddf3+0x724>
   2ed1c:	28c00e48 	cmpgei	r3,r5,57
   2ed20:	18002a1e 	bne	r3,zero,2edcc <__adddf3+0x628>
   2ed24:	8c402034 	orhi	r17,r17,128
   2ed28:	003f1d06 	br	2e9a0 <__adddf3+0x1fc>
   2ed2c:	6365c83a 	sub	r18,r12,r13
   2ed30:	6485803a 	cmpltu	r2,r12,r18
   2ed34:	8ac7c83a 	sub	r3,r17,r11
   2ed38:	1887c83a 	sub	r3,r3,r2
   2ed3c:	1880202c 	andhi	r2,r3,128
   2ed40:	1000321e 	bne	r2,zero,2ee0c <__adddf3+0x668>
   2ed44:	90c4b03a 	or	r2,r18,r3
   2ed48:	10004926 	beq	r2,zero,2ee70 <__adddf3+0x6cc>
   2ed4c:	1823883a 	mov	r17,r3
   2ed50:	003ecc06 	br	2e884 <__adddf3+0xe0>
   2ed54:	28bff804 	addi	r2,r5,-32
   2ed58:	28c00820 	cmpeqi	r3,r5,32
   2ed5c:	5884d83a 	srl	r2,r11,r2
   2ed60:	1800041e 	bne	r3,zero,2ed74 <__adddf3+0x5d0>
   2ed64:	00c01004 	movi	r3,64
   2ed68:	1947c83a 	sub	r3,r3,r5
   2ed6c:	58c6983a 	sll	r3,r11,r3
   2ed70:	68dab03a 	or	r13,r13,r3
   2ed74:	6824c03a 	cmpne	r18,r13,zero
   2ed78:	90a4b03a 	or	r18,r18,r2
   2ed7c:	003eb906 	br	2e864 <__adddf3+0xc0>
   2ed80:	5ac02034 	orhi	r11,r11,128
   2ed84:	003f2406 	br	2ea18 <__adddf3+0x274>
   2ed88:	8b06b03a 	or	r3,r17,r12
   2ed8c:	18009126 	beq	r3,zero,2efd4 <__adddf3+0x830>
   2ed90:	28ffffc4 	addi	r3,r5,-1
   2ed94:	1800ac26 	beq	r3,zero,2f048 <__adddf3+0x8a4>
   2ed98:	2941ffe0 	cmpeqi	r5,r5,2047
   2ed9c:	2800861e 	bne	r5,zero,2efb8 <__adddf3+0x814>
   2eda0:	19000e48 	cmpgei	r4,r3,57
   2eda4:	2000501e 	bne	r4,zero,2eee8 <__adddf3+0x744>
   2eda8:	180b883a 	mov	r5,r3
   2edac:	003f7506 	br	2eb84 <__adddf3+0x3e0>
   2edb0:	00ffe034 	movhi	r3,65408
   2edb4:	18ffffc4 	addi	r3,r3,-1
   2edb8:	10c6703a 	and	r3,r2,r3
   2edbc:	1804977a 	slli	r2,r3,29
   2edc0:	8121c83a 	sub	r16,r16,r4
   2edc4:	1806d0fa 	srli	r3,r3,3
   2edc8:	003f9e06 	br	2ec44 <__adddf3+0x4a0>
   2edcc:	04800044 	movi	r18,1
   2edd0:	003eff06 	br	2e9d0 <__adddf3+0x22c>
   2edd4:	1881ffe0 	cmpeqi	r2,r3,2047
   2edd8:	103f521e 	bne	r2,zero,2eb24 <__adddf3+0x380>
   2eddc:	6349883a 	add	r4,r12,r13
   2ede0:	8ad7883a 	add	r11,r17,r11
   2ede4:	2305803a 	cmpltu	r2,r4,r12
   2ede8:	5885883a 	add	r2,r11,r2
   2edec:	2008d07a 	srli	r4,r4,1
   2edf0:	102497fa 	slli	r18,r2,31
   2edf4:	1022d07a 	srli	r17,r2,1
   2edf8:	208001cc 	andi	r2,r4,7
   2edfc:	9124b03a 	or	r18,r18,r4
   2ee00:	1821883a 	mov	r16,r3
   2ee04:	103eb71e 	bne	r2,zero,2e8e4 <__adddf3+0x140>
   2ee08:	003fbf06 	br	2ed08 <__adddf3+0x564>
   2ee0c:	6b25c83a 	sub	r18,r13,r12
   2ee10:	5c57c83a 	sub	r11,r11,r17
   2ee14:	6c9b803a 	cmpltu	r13,r13,r18
   2ee18:	5b63c83a 	sub	r17,r11,r13
   2ee1c:	3827883a 	mov	r19,r7
   2ee20:	5029883a 	mov	r20,r10
   2ee24:	003e9706 	br	2e884 <__adddf3+0xe0>
   2ee28:	283f8b1e 	bne	r5,zero,2ec58 <__adddf3+0x4b4>
   2ee2c:	1000261e 	bne	r2,zero,2eec8 <__adddf3+0x724>
   2ee30:	00bfffc4 	movi	r2,-1
   2ee34:	0027883a 	mov	r19,zero
   2ee38:	003f9006 	br	2ec7c <__adddf3+0x4d8>
   2ee3c:	6365c83a 	sub	r18,r12,r13
   2ee40:	8ad7c83a 	sub	r11,r17,r11
   2ee44:	6485803a 	cmpltu	r2,r12,r18
   2ee48:	58a3c83a 	sub	r17,r11,r2
   2ee4c:	04000044 	movi	r16,1
   2ee50:	003e8706 	br	2e870 <__adddf3+0xcc>
   2ee54:	8804977a 	slli	r2,r17,29
   2ee58:	00c80034 	movhi	r3,8192
   2ee5c:	18ffffc4 	addi	r3,r3,-1
   2ee60:	20c8703a 	and	r4,r4,r3
   2ee64:	2084b03a 	or	r2,r4,r2
   2ee68:	8806d0fa 	srli	r3,r17,3
   2ee6c:	003f8106 	br	2ec74 <__adddf3+0x4d0>
   2ee70:	0027883a 	mov	r19,zero
   2ee74:	0007883a 	mov	r3,zero
   2ee78:	0009883a 	mov	r4,zero
   2ee7c:	003eaf06 	br	2e93c <__adddf3+0x198>
   2ee80:	28bff804 	addi	r2,r5,-32
   2ee84:	28c00820 	cmpeqi	r3,r5,32
   2ee88:	5884d83a 	srl	r2,r11,r2
   2ee8c:	1800041e 	bne	r3,zero,2eea0 <__adddf3+0x6fc>
   2ee90:	00c01004 	movi	r3,64
   2ee94:	1947c83a 	sub	r3,r3,r5
   2ee98:	58c6983a 	sll	r3,r11,r3
   2ee9c:	68dab03a 	or	r13,r13,r3
   2eea0:	6824c03a 	cmpne	r18,r13,zero
   2eea4:	90a4b03a 	or	r18,r18,r2
   2eea8:	003f0c06 	br	2eadc <__adddf3+0x338>
   2eeac:	880a977a 	slli	r5,r17,29
   2eeb0:	00880034 	movhi	r2,8192
   2eeb4:	10bfffc4 	addi	r2,r2,-1
   2eeb8:	2084703a 	and	r2,r4,r2
   2eebc:	8806d0fa 	srli	r3,r17,3
   2eec0:	1144b03a 	or	r2,r2,r5
   2eec4:	003f5f06 	br	2ec44 <__adddf3+0x4a0>
   2eec8:	5804977a 	slli	r2,r11,29
   2eecc:	00c80034 	movhi	r3,8192
   2eed0:	18ffffc4 	addi	r3,r3,-1
   2eed4:	30c8703a 	and	r4,r6,r3
   2eed8:	1104b03a 	or	r2,r2,r4
   2eedc:	5806d0fa 	srli	r3,r11,3
   2eee0:	3827883a 	mov	r19,r7
   2eee4:	003f6306 	br	2ec74 <__adddf3+0x4d0>
   2eee8:	04800044 	movi	r18,1
   2eeec:	003f3106 	br	2ebb4 <__adddf3+0x410>
   2eef0:	28fff804 	addi	r3,r5,-32
   2eef4:	29000820 	cmpeqi	r4,r5,32
   2eef8:	88c6d83a 	srl	r3,r17,r3
   2eefc:	2000041e 	bne	r4,zero,2ef10 <__adddf3+0x76c>
   2ef00:	01001004 	movi	r4,64
   2ef04:	2149c83a 	sub	r4,r4,r5
   2ef08:	8908983a 	sll	r4,r17,r4
   2ef0c:	6118b03a 	or	r12,r12,r4
   2ef10:	6024c03a 	cmpne	r18,r12,zero
   2ef14:	90e4b03a 	or	r18,r18,r3
   2ef18:	003ead06 	br	2e9d0 <__adddf3+0x22c>
   2ef1c:	10004f26 	beq	r2,zero,2f05c <__adddf3+0x8b8>
   2ef20:	5b5ab03a 	or	r13,r11,r13
   2ef24:	683f4d26 	beq	r13,zero,2ec5c <__adddf3+0x4b8>
   2ef28:	8806d0fa 	srli	r3,r17,3
   2ef2c:	01480034 	movhi	r5,8192
   2ef30:	8822977a 	slli	r17,r17,29
   2ef34:	297fffc4 	addi	r5,r5,-1
   2ef38:	2144703a 	and	r2,r4,r5
   2ef3c:	1900022c 	andhi	r4,r3,8
   2ef40:	1444b03a 	or	r2,r2,r17
   2ef44:	203f4b26 	beq	r4,zero,2ec74 <__adddf3+0x4d0>
   2ef48:	5808d0fa 	srli	r4,r11,3
   2ef4c:	2200022c 	andhi	r8,r4,8
   2ef50:	403f481e 	bne	r8,zero,2ec74 <__adddf3+0x4d0>
   2ef54:	5804977a 	slli	r2,r11,29
   2ef58:	314a703a 	and	r5,r6,r5
   2ef5c:	3827883a 	mov	r19,r7
   2ef60:	2884b03a 	or	r2,r5,r2
   2ef64:	2007883a 	mov	r3,r4
   2ef68:	003f4206 	br	2ec74 <__adddf3+0x4d0>
   2ef6c:	04000084 	movi	r16,2
   2ef70:	003ee206 	br	2eafc <__adddf3+0x358>
   2ef74:	6b25c83a 	sub	r18,r13,r12
   2ef78:	5c57c83a 	sub	r11,r11,r17
   2ef7c:	6c9b803a 	cmpltu	r13,r13,r18
   2ef80:	5b63c83a 	sub	r17,r11,r13
   2ef84:	3827883a 	mov	r19,r7
   2ef88:	5029883a 	mov	r20,r10
   2ef8c:	04000044 	movi	r16,1
   2ef90:	003e3706 	br	2e870 <__adddf3+0xcc>
   2ef94:	103fb626 	beq	r2,zero,2ee70 <__adddf3+0x6cc>
   2ef98:	5808977a 	slli	r4,r11,29
   2ef9c:	00880034 	movhi	r2,8192
   2efa0:	10bfffc4 	addi	r2,r2,-1
   2efa4:	3084703a 	and	r2,r6,r2
   2efa8:	5806d0fa 	srli	r3,r11,3
   2efac:	1104b03a 	or	r2,r2,r4
   2efb0:	3827883a 	mov	r19,r7
   2efb4:	003f2306 	br	2ec44 <__adddf3+0x4a0>
   2efb8:	5808977a 	slli	r4,r11,29
   2efbc:	00880034 	movhi	r2,8192
   2efc0:	10bfffc4 	addi	r2,r2,-1
   2efc4:	3084703a 	and	r2,r6,r2
   2efc8:	5806d0fa 	srli	r3,r11,3
   2efcc:	1104b03a 	or	r2,r2,r4
   2efd0:	003f2806 	br	2ec74 <__adddf3+0x4d0>
   2efd4:	6819883a 	mov	r12,r13
   2efd8:	5823883a 	mov	r17,r11
   2efdc:	003f3006 	br	2eca0 <__adddf3+0x4fc>
   2efe0:	5808977a 	slli	r4,r11,29
   2efe4:	00880034 	movhi	r2,8192
   2efe8:	10bfffc4 	addi	r2,r2,-1
   2efec:	3084703a 	and	r2,r6,r2
   2eff0:	5806d0fa 	srli	r3,r11,3
   2eff4:	1104b03a 	or	r2,r2,r4
   2eff8:	003f1206 	br	2ec44 <__adddf3+0x4a0>
   2effc:	5808977a 	slli	r4,r11,29
   2f000:	00880034 	movhi	r2,8192
   2f004:	10bfffc4 	addi	r2,r2,-1
   2f008:	3084703a 	and	r2,r6,r2
   2f00c:	5806d0fa 	srli	r3,r11,3
   2f010:	1104b03a 	or	r2,r2,r4
   2f014:	3827883a 	mov	r19,r7
   2f018:	003f1606 	br	2ec74 <__adddf3+0x4d0>
   2f01c:	28fff804 	addi	r3,r5,-32
   2f020:	29000820 	cmpeqi	r4,r5,32
   2f024:	88c6d83a 	srl	r3,r17,r3
   2f028:	2000041e 	bne	r4,zero,2f03c <__adddf3+0x898>
   2f02c:	01001004 	movi	r4,64
   2f030:	2149c83a 	sub	r4,r4,r5
   2f034:	8908983a 	sll	r4,r17,r4
   2f038:	6118b03a 	or	r12,r12,r4
   2f03c:	6024c03a 	cmpne	r18,r12,zero
   2f040:	90e4b03a 	or	r18,r18,r3
   2f044:	003edb06 	br	2ebb4 <__adddf3+0x410>
   2f048:	6365883a 	add	r18,r12,r13
   2f04c:	8ad7883a 	add	r11,r17,r11
   2f050:	935b803a 	cmpltu	r13,r18,r13
   2f054:	5b63883a 	add	r17,r11,r13
   2f058:	003ebc06 	br	2eb4c <__adddf3+0x3a8>
   2f05c:	5804977a 	slli	r2,r11,29
   2f060:	00c80034 	movhi	r3,8192
   2f064:	18ffffc4 	addi	r3,r3,-1
   2f068:	30cc703a 	and	r6,r6,r3
   2f06c:	1184b03a 	or	r2,r2,r6
   2f070:	5806d0fa 	srli	r3,r11,3
   2f074:	003eff06 	br	2ec74 <__adddf3+0x4d0>
   2f078:	90c4b03a 	or	r2,r18,r3
   2f07c:	103f7c26 	beq	r2,zero,2ee70 <__adddf3+0x6cc>
   2f080:	1823883a 	mov	r17,r3
   2f084:	003f2006 	br	2ed08 <__adddf3+0x564>
   2f088:	00c00804 	movi	r3,32
   2f08c:	1907c83a 	sub	r3,r3,r4
   2f090:	000b883a 	mov	r5,zero
   2f094:	003e0c06 	br	2e8c8 <__adddf3+0x124>
   2f098:	0005883a 	mov	r2,zero
   2f09c:	00c1ffc4 	movi	r3,2047
   2f0a0:	0009883a 	mov	r4,zero
   2f0a4:	003e2506 	br	2e93c <__adddf3+0x198>

0002f0a8 <__divdf3>:
   2f0a8:	2806d53a 	srli	r3,r5,20
   2f0ac:	defff304 	addi	sp,sp,-52
   2f0b0:	00800434 	movhi	r2,16
   2f0b4:	dd800915 	stw	r22,36(sp)
   2f0b8:	dd400815 	stw	r21,32(sp)
   2f0bc:	dd000715 	stw	r20,28(sp)
   2f0c0:	dc400415 	stw	r17,16(sp)
   2f0c4:	dc000315 	stw	r16,12(sp)
   2f0c8:	10bfffc4 	addi	r2,r2,-1
   2f0cc:	dfc00c15 	stw	ra,48(sp)
   2f0d0:	df000b15 	stw	fp,44(sp)
   2f0d4:	ddc00a15 	stw	r23,40(sp)
   2f0d8:	dcc00615 	stw	r19,24(sp)
   2f0dc:	dc800515 	stw	r18,20(sp)
   2f0e0:	18c1ffcc 	andi	r3,r3,2047
   2f0e4:	282cd7fa 	srli	r22,r5,31
   2f0e8:	302b883a 	mov	r21,r6
   2f0ec:	3821883a 	mov	r16,r7
   2f0f0:	2029883a 	mov	r20,r4
   2f0f4:	28a2703a 	and	r17,r5,r2
   2f0f8:	18010d26 	beq	r3,zero,2f530 <__divdf3+0x488>
   2f0fc:	1881ffe0 	cmpeqi	r2,r3,2047
   2f100:	10011e1e 	bne	r2,zero,2f57c <__divdf3+0x4d4>
   2f104:	880a90fa 	slli	r5,r17,3
   2f108:	2008d77a 	srli	r4,r4,29
   2f10c:	a02890fa 	slli	r20,r20,3
   2f110:	1cff0044 	addi	r19,r3,-1023
   2f114:	2148b03a 	or	r4,r4,r5
   2f118:	24802034 	orhi	r18,r4,128
   2f11c:	0023883a 	mov	r17,zero
   2f120:	0039883a 	mov	fp,zero
   2f124:	8006d53a 	srli	r3,r16,20
   2f128:	00800434 	movhi	r2,16
   2f12c:	10bfffc4 	addi	r2,r2,-1
   2f130:	18c1ffcc 	andi	r3,r3,2047
   2f134:	802ed7fa 	srli	r23,r16,31
   2f138:	80a0703a 	and	r16,r16,r2
   2f13c:	1800eb26 	beq	r3,zero,2f4ec <__divdf3+0x444>
   2f140:	1881ffe0 	cmpeqi	r2,r3,2047
   2f144:	1001141e 	bne	r2,zero,2f598 <__divdf3+0x4f0>
   2f148:	802090fa 	slli	r16,r16,3
   2f14c:	a804d77a 	srli	r2,r21,29
   2f150:	a80e90fa 	slli	r7,r21,3
   2f154:	18ff0044 	addi	r3,r3,-1023
   2f158:	1420b03a 	or	r16,r2,r16
   2f15c:	98e7c83a 	sub	r19,r19,r3
   2f160:	84002034 	orhi	r16,r16,128
   2f164:	0007883a 	mov	r3,zero
   2f168:	88800428 	cmpgeui	r2,r17,16
   2f16c:	b5eaf03a 	xor	r21,r22,r23
   2f170:	1000391e 	bne	r2,zero,2f258 <__divdf3+0x1b0>
   2f174:	882290ba 	slli	r17,r17,2
   2f178:	008000f4 	movhi	r2,3
   2f17c:	8885883a 	add	r2,r17,r2
   2f180:	10bc6217 	ldw	r2,-3704(r2)
   2f184:	1000683a 	jmp	r2
   2f188:	0002f258 	cmpnei	zero,zero,3017
   2f18c:	0002f240 	call	2f24 <__reset-0x1d0dc>
   2f190:	0002f1f0 	cmpltui	zero,zero,3015
   2f194:	0002f250 	cmplti	zero,zero,3017
   2f198:	0002f1f0 	cmpltui	zero,zero,3015
   2f19c:	0002f5fc 	xorhi	zero,zero,3031
   2f1a0:	0002f1f0 	cmpltui	zero,zero,3015
   2f1a4:	0002f250 	cmplti	zero,zero,3017
   2f1a8:	0002f240 	call	2f24 <__reset-0x1d0dc>
   2f1ac:	0002f240 	call	2f24 <__reset-0x1d0dc>
   2f1b0:	0002f5fc 	xorhi	zero,zero,3031
   2f1b4:	0002f250 	cmplti	zero,zero,3017
   2f1b8:	0002f1c8 	cmpgei	zero,zero,3015
   2f1bc:	0002f1c8 	cmpgei	zero,zero,3015
   2f1c0:	0002f1c8 	cmpgei	zero,zero,3015
   2f1c4:	0002f68c 	andi	zero,zero,3034
   2f1c8:	b02b883a 	mov	r21,r22
   2f1cc:	9021883a 	mov	r16,r18
   2f1d0:	a00f883a 	mov	r7,r20
   2f1d4:	e007883a 	mov	r3,fp
   2f1d8:	188000a0 	cmpeqi	r2,r3,2
   2f1dc:	1000181e 	bne	r2,zero,2f240 <__divdf3+0x198>
   2f1e0:	188000e0 	cmpeqi	r2,r3,3
   2f1e4:	1001b61e 	bne	r2,zero,2f8c0 <__divdf3+0x818>
   2f1e8:	18c00060 	cmpeqi	r3,r3,1
   2f1ec:	1800ac26 	beq	r3,zero,2f4a0 <__divdf3+0x3f8>
   2f1f0:	000b883a 	mov	r5,zero
   2f1f4:	0009883a 	mov	r4,zero
   2f1f8:	0029883a 	mov	r20,zero
   2f1fc:	2806953a 	slli	r3,r5,20
   2f200:	a82a97fa 	slli	r21,r21,31
   2f204:	a005883a 	mov	r2,r20
   2f208:	1906b03a 	or	r3,r3,r4
   2f20c:	1d46b03a 	or	r3,r3,r21
   2f210:	dfc00c17 	ldw	ra,48(sp)
   2f214:	df000b17 	ldw	fp,44(sp)
   2f218:	ddc00a17 	ldw	r23,40(sp)
   2f21c:	dd800917 	ldw	r22,36(sp)
   2f220:	dd400817 	ldw	r21,32(sp)
   2f224:	dd000717 	ldw	r20,28(sp)
   2f228:	dcc00617 	ldw	r19,24(sp)
   2f22c:	dc800517 	ldw	r18,20(sp)
   2f230:	dc400417 	ldw	r17,16(sp)
   2f234:	dc000317 	ldw	r16,12(sp)
   2f238:	dec00d04 	addi	sp,sp,52
   2f23c:	f800283a 	ret
   2f240:	0141ffc4 	movi	r5,2047
   2f244:	0009883a 	mov	r4,zero
   2f248:	0029883a 	mov	r20,zero
   2f24c:	003feb06 	br	2f1fc <__divdf3+0x154>
   2f250:	b82b883a 	mov	r21,r23
   2f254:	003fe006 	br	2f1d8 <__divdf3+0x130>
   2f258:	84812636 	bltu	r16,r18,2f6f4 <__divdf3+0x64c>
   2f25c:	84812426 	beq	r16,r18,2f6f0 <__divdf3+0x648>
   2f260:	9cffffc4 	addi	r19,r19,-1
   2f264:	a023883a 	mov	r17,r20
   2f268:	0007883a 	mov	r3,zero
   2f26c:	8020923a 	slli	r16,r16,8
   2f270:	3828d63a 	srli	r20,r7,24
   2f274:	9009883a 	mov	r4,r18
   2f278:	802cd43a 	srli	r22,r16,16
   2f27c:	d8c00015 	stw	r3,0(sp)
   2f280:	382e923a 	slli	r23,r7,8
   2f284:	b00b883a 	mov	r5,r22
   2f288:	002301c0 	call	2301c <__udivsi3>
   2f28c:	9009883a 	mov	r4,r18
   2f290:	b00b883a 	mov	r5,r22
   2f294:	a428b03a 	or	r20,r20,r16
   2f298:	1021883a 	mov	r16,r2
   2f29c:	00230800 	call	23080 <__umodsi3>
   2f2a0:	1004943a 	slli	r2,r2,16
   2f2a4:	8808d43a 	srli	r4,r17,16
   2f2a8:	a4bfffcc 	andi	r18,r20,65535
   2f2ac:	940b383a 	mul	r5,r18,r16
   2f2b0:	2088b03a 	or	r4,r4,r2
   2f2b4:	d8c00017 	ldw	r3,0(sp)
   2f2b8:	2140042e 	bgeu	r4,r5,2f2cc <__divdf3+0x224>
   2f2bc:	2509883a 	add	r4,r4,r20
   2f2c0:	80bfffc4 	addi	r2,r16,-1
   2f2c4:	25013b2e 	bgeu	r4,r20,2f7b4 <__divdf3+0x70c>
   2f2c8:	1021883a 	mov	r16,r2
   2f2cc:	2179c83a 	sub	fp,r4,r5
   2f2d0:	e009883a 	mov	r4,fp
   2f2d4:	b00b883a 	mov	r5,r22
   2f2d8:	d8c00015 	stw	r3,0(sp)
   2f2dc:	002301c0 	call	2301c <__udivsi3>
   2f2e0:	e009883a 	mov	r4,fp
   2f2e4:	b00b883a 	mov	r5,r22
   2f2e8:	1039883a 	mov	fp,r2
   2f2ec:	00230800 	call	23080 <__umodsi3>
   2f2f0:	1004943a 	slli	r2,r2,16
   2f2f4:	9715383a 	mul	r10,r18,fp
   2f2f8:	893fffcc 	andi	r4,r17,65535
   2f2fc:	2088b03a 	or	r4,r4,r2
   2f300:	d8c00017 	ldw	r3,0(sp)
   2f304:	2280042e 	bgeu	r4,r10,2f318 <__divdf3+0x270>
   2f308:	2509883a 	add	r4,r4,r20
   2f30c:	e0bfffc4 	addi	r2,fp,-1
   2f310:	2501242e 	bgeu	r4,r20,2f7a4 <__divdf3+0x6fc>
   2f314:	1039883a 	mov	fp,r2
   2f318:	8020943a 	slli	r16,r16,16
   2f31c:	b80cd43a 	srli	r6,r23,16
   2f320:	ba3fffcc 	andi	r8,r23,65535
   2f324:	8720b03a 	or	r16,r16,fp
   2f328:	80bfffcc 	andi	r2,r16,65535
   2f32c:	800ed43a 	srli	r7,r16,16
   2f330:	1213383a 	mul	r9,r2,r8
   2f334:	308b383a 	mul	r5,r6,r2
   2f338:	3a17383a 	mul	r11,r7,r8
   2f33c:	4804d43a 	srli	r2,r9,16
   2f340:	398f383a 	mul	r7,r7,r6
   2f344:	2acb883a 	add	r5,r5,r11
   2f348:	1145883a 	add	r2,r2,r5
   2f34c:	2289c83a 	sub	r4,r4,r10
   2f350:	12c0022e 	bgeu	r2,r11,2f35c <__divdf3+0x2b4>
   2f354:	01400074 	movhi	r5,1
   2f358:	394f883a 	add	r7,r7,r5
   2f35c:	100ad43a 	srli	r5,r2,16
   2f360:	1038943a 	slli	fp,r2,16
   2f364:	4a7fffcc 	andi	r9,r9,65535
   2f368:	29c5883a 	add	r2,r5,r7
   2f36c:	e279883a 	add	fp,fp,r9
   2f370:	20800236 	bltu	r4,r2,2f37c <__divdf3+0x2d4>
   2f374:	20800a1e 	bne	r4,r2,2f3a0 <__divdf3+0x2f8>
   2f378:	1f00092e 	bgeu	r3,fp,2f3a0 <__divdf3+0x2f8>
   2f37c:	1dc7883a 	add	r3,r3,r23
   2f380:	1dcb803a 	cmpltu	r5,r3,r23
   2f384:	2d0b883a 	add	r5,r5,r20
   2f388:	2149883a 	add	r4,r4,r5
   2f38c:	817fffc4 	addi	r5,r16,-1
   2f390:	a101012e 	bgeu	r20,r4,2f798 <__divdf3+0x6f0>
   2f394:	20813236 	bltu	r4,r2,2f860 <__divdf3+0x7b8>
   2f398:	11013026 	beq	r2,r4,2f85c <__divdf3+0x7b4>
   2f39c:	2821883a 	mov	r16,r5
   2f3a0:	1f39c83a 	sub	fp,r3,fp
   2f3a4:	2089c83a 	sub	r4,r4,r2
   2f3a8:	1f07803a 	cmpltu	r3,r3,fp
   2f3ac:	da000115 	stw	r8,4(sp)
   2f3b0:	d9800015 	stw	r6,0(sp)
   2f3b4:	20e3c83a 	sub	r17,r4,r3
   2f3b8:	a4411726 	beq	r20,r17,2f818 <__divdf3+0x770>
   2f3bc:	b00b883a 	mov	r5,r22
   2f3c0:	8809883a 	mov	r4,r17
   2f3c4:	002301c0 	call	2301c <__udivsi3>
   2f3c8:	8809883a 	mov	r4,r17
   2f3cc:	b00b883a 	mov	r5,r22
   2f3d0:	d8800215 	stw	r2,8(sp)
   2f3d4:	00230800 	call	23080 <__umodsi3>
   2f3d8:	d9c00217 	ldw	r7,8(sp)
   2f3dc:	1004943a 	slli	r2,r2,16
   2f3e0:	e008d43a 	srli	r4,fp,16
   2f3e4:	91c7383a 	mul	r3,r18,r7
   2f3e8:	d9800017 	ldw	r6,0(sp)
   2f3ec:	2088b03a 	or	r4,r4,r2
   2f3f0:	da000117 	ldw	r8,4(sp)
   2f3f4:	20c0e136 	bltu	r4,r3,2f77c <__divdf3+0x6d4>
   2f3f8:	20e3c83a 	sub	r17,r4,r3
   2f3fc:	8809883a 	mov	r4,r17
   2f400:	b00b883a 	mov	r5,r22
   2f404:	da000215 	stw	r8,8(sp)
   2f408:	d9c00115 	stw	r7,4(sp)
   2f40c:	d9800015 	stw	r6,0(sp)
   2f410:	002301c0 	call	2301c <__udivsi3>
   2f414:	8809883a 	mov	r4,r17
   2f418:	b00b883a 	mov	r5,r22
   2f41c:	1023883a 	mov	r17,r2
   2f420:	00230800 	call	23080 <__umodsi3>
   2f424:	1004943a 	slli	r2,r2,16
   2f428:	9465383a 	mul	r18,r18,r17
   2f42c:	e73fffcc 	andi	fp,fp,65535
   2f430:	e0b8b03a 	or	fp,fp,r2
   2f434:	d9800017 	ldw	r6,0(sp)
   2f438:	d9c00117 	ldw	r7,4(sp)
   2f43c:	da000217 	ldw	r8,8(sp)
   2f440:	e480c736 	bltu	fp,r18,2f760 <__divdf3+0x6b8>
   2f444:	380e943a 	slli	r7,r7,16
   2f448:	e4b9c83a 	sub	fp,fp,r18
   2f44c:	3c4eb03a 	or	r7,r7,r17
   2f450:	38bfffcc 	andi	r2,r7,65535
   2f454:	380ad43a 	srli	r5,r7,16
   2f458:	4089383a 	mul	r4,r8,r2
   2f45c:	3087383a 	mul	r3,r6,r2
   2f460:	2a11383a 	mul	r8,r5,r8
   2f464:	2004d43a 	srli	r2,r4,16
   2f468:	314d383a 	mul	r6,r6,r5
   2f46c:	1a07883a 	add	r3,r3,r8
   2f470:	10c5883a 	add	r2,r2,r3
   2f474:	1200022e 	bgeu	r2,r8,2f480 <__divdf3+0x3d8>
   2f478:	00c00074 	movhi	r3,1
   2f47c:	30cd883a 	add	r6,r6,r3
   2f480:	1006d43a 	srli	r3,r2,16
   2f484:	1004943a 	slli	r2,r2,16
   2f488:	213fffcc 	andi	r4,r4,65535
   2f48c:	1987883a 	add	r3,r3,r6
   2f490:	1105883a 	add	r2,r2,r4
   2f494:	e0c08f36 	bltu	fp,r3,2f6d4 <__divdf3+0x62c>
   2f498:	e0c08d26 	beq	fp,r3,2f6d0 <__divdf3+0x628>
   2f49c:	39c00054 	ori	r7,r7,1
   2f4a0:	9940ffc4 	addi	r5,r19,1023
   2f4a4:	01405c0e 	bge	zero,r5,2f618 <__divdf3+0x570>
   2f4a8:	388001cc 	andi	r2,r7,7
   2f4ac:	1000e21e 	bne	r2,zero,2f838 <__divdf3+0x790>
   2f4b0:	8080402c 	andhi	r2,r16,256
   2f4b4:	10000426 	beq	r2,zero,2f4c8 <__divdf3+0x420>
   2f4b8:	00bfc034 	movhi	r2,65280
   2f4bc:	10bfffc4 	addi	r2,r2,-1
   2f4c0:	80a0703a 	and	r16,r16,r2
   2f4c4:	99410004 	addi	r5,r19,1024
   2f4c8:	2881ffc8 	cmpgei	r2,r5,2047
   2f4cc:	103f5c1e 	bne	r2,zero,2f240 <__divdf3+0x198>
   2f4d0:	380ed0fa 	srli	r7,r7,3
   2f4d4:	8028977a 	slli	r20,r16,29
   2f4d8:	8008927a 	slli	r4,r16,9
   2f4dc:	2941ffcc 	andi	r5,r5,2047
   2f4e0:	a1e8b03a 	or	r20,r20,r7
   2f4e4:	2008d33a 	srli	r4,r4,12
   2f4e8:	003f4406 	br	2f1fc <__divdf3+0x154>
   2f4ec:	854eb03a 	or	r7,r16,r21
   2f4f0:	38003e26 	beq	r7,zero,2f5ec <__divdf3+0x544>
   2f4f4:	80008f26 	beq	r16,zero,2f734 <__divdf3+0x68c>
   2f4f8:	8009883a 	mov	r4,r16
   2f4fc:	0030e080 	call	30e08 <__clzsi2>
   2f500:	113ffd44 	addi	r4,r2,-11
   2f504:	00c00744 	movi	r3,29
   2f508:	11fffe04 	addi	r7,r2,-8
   2f50c:	1907c83a 	sub	r3,r3,r4
   2f510:	81e0983a 	sll	r16,r16,r7
   2f514:	a8c6d83a 	srl	r3,r21,r3
   2f518:	a9ce983a 	sll	r7,r21,r7
   2f51c:	1c20b03a 	or	r16,r3,r16
   2f520:	14c5883a 	add	r2,r2,r19
   2f524:	14c0fcc4 	addi	r19,r2,1011
   2f528:	0007883a 	mov	r3,zero
   2f52c:	003f0e06 	br	2f168 <__divdf3+0xc0>
   2f530:	2464b03a 	or	r18,r4,r17
   2f534:	2027883a 	mov	r19,r4
   2f538:	90002726 	beq	r18,zero,2f5d8 <__divdf3+0x530>
   2f53c:	88007326 	beq	r17,zero,2f70c <__divdf3+0x664>
   2f540:	8809883a 	mov	r4,r17
   2f544:	0030e080 	call	30e08 <__clzsi2>
   2f548:	10fffd44 	addi	r3,r2,-11
   2f54c:	01000744 	movi	r4,29
   2f550:	153ffe04 	addi	r20,r2,-8
   2f554:	20c9c83a 	sub	r4,r4,r3
   2f558:	8d0a983a 	sll	r5,r17,r20
   2f55c:	9908d83a 	srl	r4,r19,r4
   2f560:	9d28983a 	sll	r20,r19,r20
   2f564:	2164b03a 	or	r18,r4,r5
   2f568:	00ff0344 	movi	r3,-1011
   2f56c:	18a7c83a 	sub	r19,r3,r2
   2f570:	0023883a 	mov	r17,zero
   2f574:	0039883a 	mov	fp,zero
   2f578:	003eea06 	br	2f124 <__divdf3+0x7c>
   2f57c:	2464b03a 	or	r18,r4,r17
   2f580:	9000101e 	bne	r18,zero,2f5c4 <__divdf3+0x51c>
   2f584:	0029883a 	mov	r20,zero
   2f588:	04400204 	movi	r17,8
   2f58c:	04c1ffc4 	movi	r19,2047
   2f590:	07000084 	movi	fp,2
   2f594:	003ee306 	br	2f124 <__divdf3+0x7c>
   2f598:	854eb03a 	or	r7,r16,r21
   2f59c:	9cfe0044 	addi	r19,r19,-2047
   2f5a0:	3800041e 	bne	r7,zero,2f5b4 <__divdf3+0x50c>
   2f5a4:	8c400094 	ori	r17,r17,2
   2f5a8:	0021883a 	mov	r16,zero
   2f5ac:	00c00084 	movi	r3,2
   2f5b0:	003eed06 	br	2f168 <__divdf3+0xc0>
   2f5b4:	8c4000d4 	ori	r17,r17,3
   2f5b8:	a80f883a 	mov	r7,r21
   2f5bc:	00c000c4 	movi	r3,3
   2f5c0:	003ee906 	br	2f168 <__divdf3+0xc0>
   2f5c4:	8825883a 	mov	r18,r17
   2f5c8:	04c1ffc4 	movi	r19,2047
   2f5cc:	04400304 	movi	r17,12
   2f5d0:	070000c4 	movi	fp,3
   2f5d4:	003ed306 	br	2f124 <__divdf3+0x7c>
   2f5d8:	0029883a 	mov	r20,zero
   2f5dc:	04400104 	movi	r17,4
   2f5e0:	0027883a 	mov	r19,zero
   2f5e4:	07000044 	movi	fp,1
   2f5e8:	003ece06 	br	2f124 <__divdf3+0x7c>
   2f5ec:	8c400054 	ori	r17,r17,1
   2f5f0:	0021883a 	mov	r16,zero
   2f5f4:	00c00044 	movi	r3,1
   2f5f8:	003edb06 	br	2f168 <__divdf3+0xc0>
   2f5fc:	01000434 	movhi	r4,16
   2f600:	002b883a 	mov	r21,zero
   2f604:	213fffc4 	addi	r4,r4,-1
   2f608:	053fffc4 	movi	r20,-1
   2f60c:	0141ffc4 	movi	r5,2047
   2f610:	003efa06 	br	2f1fc <__divdf3+0x154>
   2f614:	01ffffc4 	movi	r7,-1
   2f618:	00800044 	movi	r2,1
   2f61c:	1145c83a 	sub	r2,r2,r5
   2f620:	10c00e48 	cmpgei	r3,r2,57
   2f624:	183ef21e 	bne	r3,zero,2f1f0 <__divdf3+0x148>
   2f628:	10c00808 	cmpgei	r3,r2,32
   2f62c:	1800651e 	bne	r3,zero,2f7c4 <__divdf3+0x71c>
   2f630:	98c10784 	addi	r3,r19,1054
   2f634:	80e8983a 	sll	r20,r16,r3
   2f638:	3888d83a 	srl	r4,r7,r2
   2f63c:	38c6983a 	sll	r3,r7,r3
   2f640:	80a0d83a 	srl	r16,r16,r2
   2f644:	a128b03a 	or	r20,r20,r4
   2f648:	1806c03a 	cmpne	r3,r3,zero
   2f64c:	a0e8b03a 	or	r20,r20,r3
   2f650:	a08001cc 	andi	r2,r20,7
   2f654:	10000726 	beq	r2,zero,2f674 <__divdf3+0x5cc>
   2f658:	a08003cc 	andi	r2,r20,15
   2f65c:	10800120 	cmpeqi	r2,r2,4
   2f660:	1000041e 	bne	r2,zero,2f674 <__divdf3+0x5cc>
   2f664:	a0800104 	addi	r2,r20,4
   2f668:	1529803a 	cmpltu	r20,r2,r20
   2f66c:	8521883a 	add	r16,r16,r20
   2f670:	1029883a 	mov	r20,r2
   2f674:	8080202c 	andhi	r2,r16,128
   2f678:	10008d26 	beq	r2,zero,2f8b0 <__divdf3+0x808>
   2f67c:	01400044 	movi	r5,1
   2f680:	0009883a 	mov	r4,zero
   2f684:	0029883a 	mov	r20,zero
   2f688:	003edc06 	br	2f1fc <__divdf3+0x154>
   2f68c:	9080022c 	andhi	r2,r18,8
   2f690:	10000926 	beq	r2,zero,2f6b8 <__divdf3+0x610>
   2f694:	8080022c 	andhi	r2,r16,8
   2f698:	1000071e 	bne	r2,zero,2f6b8 <__divdf3+0x610>
   2f69c:	00800434 	movhi	r2,16
   2f6a0:	81000234 	orhi	r4,r16,8
   2f6a4:	10bfffc4 	addi	r2,r2,-1
   2f6a8:	2088703a 	and	r4,r4,r2
   2f6ac:	b82b883a 	mov	r21,r23
   2f6b0:	3829883a 	mov	r20,r7
   2f6b4:	003fd506 	br	2f60c <__divdf3+0x564>
   2f6b8:	00800434 	movhi	r2,16
   2f6bc:	91000234 	orhi	r4,r18,8
   2f6c0:	10bfffc4 	addi	r2,r2,-1
   2f6c4:	2088703a 	and	r4,r4,r2
   2f6c8:	b02b883a 	mov	r21,r22
   2f6cc:	003fcf06 	br	2f60c <__divdf3+0x564>
   2f6d0:	103f7326 	beq	r2,zero,2f4a0 <__divdf3+0x3f8>
   2f6d4:	a739883a 	add	fp,r20,fp
   2f6d8:	393fffc4 	addi	r4,r7,-1
   2f6dc:	e5004a36 	bltu	fp,r20,2f808 <__divdf3+0x760>
   2f6e0:	e0c06536 	bltu	fp,r3,2f878 <__divdf3+0x7d0>
   2f6e4:	e0c07c26 	beq	fp,r3,2f8d8 <__divdf3+0x830>
   2f6e8:	200f883a 	mov	r7,r4
   2f6ec:	003f6b06 	br	2f49c <__divdf3+0x3f4>
   2f6f0:	a1fedb36 	bltu	r20,r7,2f260 <__divdf3+0x1b8>
   2f6f4:	902297fa 	slli	r17,r18,31
   2f6f8:	a004d07a 	srli	r2,r20,1
   2f6fc:	9024d07a 	srli	r18,r18,1
   2f700:	a00697fa 	slli	r3,r20,31
   2f704:	88a2b03a 	or	r17,r17,r2
   2f708:	003ed806 	br	2f26c <__divdf3+0x1c4>
   2f70c:	0030e080 	call	30e08 <__clzsi2>
   2f710:	10c00544 	addi	r3,r2,21
   2f714:	19400748 	cmpgei	r5,r3,29
   2f718:	1009883a 	mov	r4,r2
   2f71c:	10800804 	addi	r2,r2,32
   2f720:	283f8a26 	beq	r5,zero,2f54c <__divdf3+0x4a4>
   2f724:	213ffe04 	addi	r4,r4,-8
   2f728:	a124983a 	sll	r18,r20,r4
   2f72c:	0029883a 	mov	r20,zero
   2f730:	003f8d06 	br	2f568 <__divdf3+0x4c0>
   2f734:	a809883a 	mov	r4,r21
   2f738:	0030e080 	call	30e08 <__clzsi2>
   2f73c:	11000544 	addi	r4,r2,21
   2f740:	21400748 	cmpgei	r5,r4,29
   2f744:	1007883a 	mov	r3,r2
   2f748:	10800804 	addi	r2,r2,32
   2f74c:	283f6d26 	beq	r5,zero,2f504 <__divdf3+0x45c>
   2f750:	18fffe04 	addi	r3,r3,-8
   2f754:	a8e0983a 	sll	r16,r21,r3
   2f758:	000f883a 	mov	r7,zero
   2f75c:	003f7006 	br	2f520 <__divdf3+0x478>
   2f760:	e539883a 	add	fp,fp,r20
   2f764:	88bfffc4 	addi	r2,r17,-1
   2f768:	e5003a36 	bltu	fp,r20,2f854 <__divdf3+0x7ac>
   2f76c:	e480392e 	bgeu	fp,r18,2f854 <__divdf3+0x7ac>
   2f770:	8c7fff84 	addi	r17,r17,-2
   2f774:	e539883a 	add	fp,fp,r20
   2f778:	003f3206 	br	2f444 <__divdf3+0x39c>
   2f77c:	2509883a 	add	r4,r4,r20
   2f780:	38bfffc4 	addi	r2,r7,-1
   2f784:	25003136 	bltu	r4,r20,2f84c <__divdf3+0x7a4>
   2f788:	20c0302e 	bgeu	r4,r3,2f84c <__divdf3+0x7a4>
   2f78c:	39ffff84 	addi	r7,r7,-2
   2f790:	2509883a 	add	r4,r4,r20
   2f794:	003f1806 	br	2f3f8 <__divdf3+0x350>
   2f798:	a13f001e 	bne	r20,r4,2f39c <__divdf3+0x2f4>
   2f79c:	1dfeff36 	bltu	r3,r23,2f39c <__divdf3+0x2f4>
   2f7a0:	003efc06 	br	2f394 <__divdf3+0x2ec>
   2f7a4:	22bedb2e 	bgeu	r4,r10,2f314 <__divdf3+0x26c>
   2f7a8:	e73fff84 	addi	fp,fp,-2
   2f7ac:	2509883a 	add	r4,r4,r20
   2f7b0:	003ed906 	br	2f318 <__divdf3+0x270>
   2f7b4:	217ec42e 	bgeu	r4,r5,2f2c8 <__divdf3+0x220>
   2f7b8:	843fff84 	addi	r16,r16,-2
   2f7bc:	2509883a 	add	r4,r4,r20
   2f7c0:	003ec206 	br	2f2cc <__divdf3+0x224>
   2f7c4:	013ff844 	movi	r4,-31
   2f7c8:	2149c83a 	sub	r4,r4,r5
   2f7cc:	10800820 	cmpeqi	r2,r2,32
   2f7d0:	8108d83a 	srl	r4,r16,r4
   2f7d4:	1000031e 	bne	r2,zero,2f7e4 <__divdf3+0x73c>
   2f7d8:	98c10f84 	addi	r3,r19,1086
   2f7dc:	80c6983a 	sll	r3,r16,r3
   2f7e0:	38ceb03a 	or	r7,r7,r3
   2f7e4:	3828c03a 	cmpne	r20,r7,zero
   2f7e8:	a128b03a 	or	r20,r20,r4
   2f7ec:	a40001cc 	andi	r16,r20,7
   2f7f0:	8000291e 	bne	r16,zero,2f898 <__divdf3+0x7f0>
   2f7f4:	0009883a 	mov	r4,zero
   2f7f8:	a028d0fa 	srli	r20,r20,3
   2f7fc:	000b883a 	mov	r5,zero
   2f800:	a428b03a 	or	r20,r20,r16
   2f804:	003e7d06 	br	2f1fc <__divdf3+0x154>
   2f808:	200f883a 	mov	r7,r4
   2f80c:	e0ff231e 	bne	fp,r3,2f49c <__divdf3+0x3f4>
   2f810:	15ff221e 	bne	r2,r23,2f49c <__divdf3+0x3f4>
   2f814:	003f2206 	br	2f4a0 <__divdf3+0x3f8>
   2f818:	98bf0088 	cmpgei	r2,r19,-1022
   2f81c:	9940ffc4 	addi	r5,r19,1023
   2f820:	103f7c26 	beq	r2,zero,2f614 <__divdf3+0x56c>
   2f824:	00bfffc4 	movi	r2,-1
   2f828:	11c00104 	addi	r7,r2,4
   2f82c:	3885803a 	cmpltu	r2,r7,r2
   2f830:	80a1883a 	add	r16,r16,r2
   2f834:	003f1e06 	br	2f4b0 <__divdf3+0x408>
   2f838:	388003cc 	andi	r2,r7,15
   2f83c:	10800120 	cmpeqi	r2,r2,4
   2f840:	103f1b1e 	bne	r2,zero,2f4b0 <__divdf3+0x408>
   2f844:	3805883a 	mov	r2,r7
   2f848:	003ff706 	br	2f828 <__divdf3+0x780>
   2f84c:	100f883a 	mov	r7,r2
   2f850:	003ee906 	br	2f3f8 <__divdf3+0x350>
   2f854:	1023883a 	mov	r17,r2
   2f858:	003efa06 	br	2f444 <__divdf3+0x39c>
   2f85c:	1f3ecf2e 	bgeu	r3,fp,2f39c <__divdf3+0x2f4>
   2f860:	1dc7883a 	add	r3,r3,r23
   2f864:	1dcb803a 	cmpltu	r5,r3,r23
   2f868:	2d0b883a 	add	r5,r5,r20
   2f86c:	843fff84 	addi	r16,r16,-2
   2f870:	2149883a 	add	r4,r4,r5
   2f874:	003eca06 	br	2f3a0 <__divdf3+0x2f8>
   2f878:	bdc9883a 	add	r4,r23,r23
   2f87c:	25ef803a 	cmpltu	r23,r4,r23
   2f880:	bd2f883a 	add	r23,r23,r20
   2f884:	e5f9883a 	add	fp,fp,r23
   2f888:	39ffff84 	addi	r7,r7,-2
   2f88c:	202f883a 	mov	r23,r4
   2f890:	e0ffdf26 	beq	fp,r3,2f810 <__divdf3+0x768>
   2f894:	003f0106 	br	2f49c <__divdf3+0x3f4>
   2f898:	a08003cc 	andi	r2,r20,15
   2f89c:	10800120 	cmpeqi	r2,r2,4
   2f8a0:	1000111e 	bne	r2,zero,2f8e8 <__divdf3+0x840>
   2f8a4:	a0800104 	addi	r2,r20,4
   2f8a8:	1521803a 	cmpltu	r16,r2,r20
   2f8ac:	1029883a 	mov	r20,r2
   2f8b0:	8008927a 	slli	r4,r16,9
   2f8b4:	8020977a 	slli	r16,r16,29
   2f8b8:	2008d33a 	srli	r4,r4,12
   2f8bc:	003fce06 	br	2f7f8 <__divdf3+0x750>
   2f8c0:	00800434 	movhi	r2,16
   2f8c4:	81000234 	orhi	r4,r16,8
   2f8c8:	10bfffc4 	addi	r2,r2,-1
   2f8cc:	2088703a 	and	r4,r4,r2
   2f8d0:	3829883a 	mov	r20,r7
   2f8d4:	003f4d06 	br	2f60c <__divdf3+0x564>
   2f8d8:	b8bfe736 	bltu	r23,r2,2f878 <__divdf3+0x7d0>
   2f8dc:	200f883a 	mov	r7,r4
   2f8e0:	15feee1e 	bne	r2,r23,2f49c <__divdf3+0x3f4>
   2f8e4:	003eee06 	br	2f4a0 <__divdf3+0x3f8>
   2f8e8:	0021883a 	mov	r16,zero
   2f8ec:	003ff006 	br	2f8b0 <__divdf3+0x808>

0002f8f0 <__eqdf2>:
   2f8f0:	2810d53a 	srli	r8,r5,20
   2f8f4:	3804d53a 	srli	r2,r7,20
   2f8f8:	00c00434 	movhi	r3,16
   2f8fc:	4201ffcc 	andi	r8,r8,2047
   2f900:	18ffffc4 	addi	r3,r3,-1
   2f904:	4241ffe0 	cmpeqi	r9,r8,2047
   2f908:	2816d7fa 	srli	r11,r5,31
   2f90c:	3814d7fa 	srli	r10,r7,31
   2f910:	28ca703a 	and	r5,r5,r3
   2f914:	38ce703a 	and	r7,r7,r3
   2f918:	1081ffcc 	andi	r2,r2,2047
   2f91c:	4800061e 	bne	r9,zero,2f938 <__eqdf2+0x48>
   2f920:	10c1ffe0 	cmpeqi	r3,r2,2047
   2f924:	1800061e 	bne	r3,zero,2f940 <__eqdf2+0x50>
   2f928:	4080051e 	bne	r8,r2,2f940 <__eqdf2+0x50>
   2f92c:	00800044 	movi	r2,1
   2f930:	29c00b26 	beq	r5,r7,2f960 <__eqdf2+0x70>
   2f934:	f800283a 	ret
   2f938:	1081ffd8 	cmpnei	r2,r2,2047
   2f93c:	10000226 	beq	r2,zero,2f948 <__eqdf2+0x58>
   2f940:	00800044 	movi	r2,1
   2f944:	f800283a 	ret
   2f948:	29cab03a 	or	r5,r5,r7
   2f94c:	2984b03a 	or	r2,r5,r6
   2f950:	1104b03a 	or	r2,r2,r4
   2f954:	103ffa1e 	bne	r2,zero,2f940 <__eqdf2+0x50>
   2f958:	5a84c03a 	cmpne	r2,r11,r10
   2f95c:	f800283a 	ret
   2f960:	21800126 	beq	r4,r6,2f968 <__eqdf2+0x78>
   2f964:	f800283a 	ret
   2f968:	5a800426 	beq	r11,r10,2f97c <__eqdf2+0x8c>
   2f96c:	403ffd1e 	bne	r8,zero,2f964 <__eqdf2+0x74>
   2f970:	290ab03a 	or	r5,r5,r4
   2f974:	2804c03a 	cmpne	r2,r5,zero
   2f978:	f800283a 	ret
   2f97c:	0005883a 	mov	r2,zero
   2f980:	003ff806 	br	2f964 <__eqdf2+0x74>

0002f984 <__gedf2>:
   2f984:	2810d53a 	srli	r8,r5,20
   2f988:	3812d53a 	srli	r9,r7,20
   2f98c:	00c00434 	movhi	r3,16
   2f990:	4201ffcc 	andi	r8,r8,2047
   2f994:	18ffffc4 	addi	r3,r3,-1
   2f998:	4281ffd8 	cmpnei	r10,r8,2047
   2f99c:	2816d7fa 	srli	r11,r5,31
   2f9a0:	3804d7fa 	srli	r2,r7,31
   2f9a4:	28ca703a 	and	r5,r5,r3
   2f9a8:	38ce703a 	and	r7,r7,r3
   2f9ac:	48c1ffcc 	andi	r3,r9,2047
   2f9b0:	50001426 	beq	r10,zero,2fa04 <__gedf2+0x80>
   2f9b4:	1a41ffd8 	cmpnei	r9,r3,2047
   2f9b8:	48000926 	beq	r9,zero,2f9e0 <__gedf2+0x5c>
   2f9bc:	40001b1e 	bne	r8,zero,2fa2c <__gedf2+0xa8>
   2f9c0:	2910b03a 	or	r8,r5,r4
   2f9c4:	1800161e 	bne	r3,zero,2fa20 <__gedf2+0x9c>
   2f9c8:	3986b03a 	or	r3,r7,r6
   2f9cc:	18002126 	beq	r3,zero,2fa54 <__gedf2+0xd0>
   2f9d0:	4000291e 	bne	r8,zero,2fa78 <__gedf2+0xf4>
   2f9d4:	1000111e 	bne	r2,zero,2fa1c <__gedf2+0x98>
   2f9d8:	00bfffc4 	movi	r2,-1
   2f9dc:	f800283a 	ret
   2f9e0:	398eb03a 	or	r7,r7,r6
   2f9e4:	3800221e 	bne	r7,zero,2fa70 <__gedf2+0xec>
   2f9e8:	4000021e 	bne	r8,zero,2f9f4 <__gedf2+0x70>
   2f9ec:	2908b03a 	or	r4,r5,r4
   2f9f0:	203ff826 	beq	r4,zero,2f9d4 <__gedf2+0x50>
   2f9f4:	5880071e 	bne	r11,r2,2fa14 <__gedf2+0x90>
   2f9f8:	583ff726 	beq	r11,zero,2f9d8 <__gedf2+0x54>
   2f9fc:	5805883a 	mov	r2,r11
   2fa00:	f800283a 	ret
   2fa04:	290ab03a 	or	r5,r5,r4
   2fa08:	2800191e 	bne	r5,zero,2fa70 <__gedf2+0xec>
   2fa0c:	1901ffe0 	cmpeqi	r4,r3,2047
   2fa10:	2000131e 	bne	r4,zero,2fa60 <__gedf2+0xdc>
   2fa14:	00800044 	movi	r2,1
   2fa18:	583fef1e 	bne	r11,zero,2f9d8 <__gedf2+0x54>
   2fa1c:	f800283a 	ret
   2fa20:	403ff41e 	bne	r8,zero,2f9f4 <__gedf2+0x70>
   2fa24:	103ffd1e 	bne	r2,zero,2fa1c <__gedf2+0x98>
   2fa28:	003feb06 	br	2f9d8 <__gedf2+0x54>
   2fa2c:	183ff926 	beq	r3,zero,2fa14 <__gedf2+0x90>
   2fa30:	58bff81e 	bne	r11,r2,2fa14 <__gedf2+0x90>
   2fa34:	1a3ff716 	blt	r3,r8,2fa14 <__gedf2+0x90>
   2fa38:	40ffef16 	blt	r8,r3,2f9f8 <__gedf2+0x74>
   2fa3c:	397ff536 	bltu	r7,r5,2fa14 <__gedf2+0x90>
   2fa40:	29ffed1e 	bne	r5,r7,2f9f8 <__gedf2+0x74>
   2fa44:	313ff336 	bltu	r6,r4,2fa14 <__gedf2+0x90>
   2fa48:	21bfeb36 	bltu	r4,r6,2f9f8 <__gedf2+0x74>
   2fa4c:	0005883a 	mov	r2,zero
   2fa50:	f800283a 	ret
   2fa54:	0005883a 	mov	r2,zero
   2fa58:	403fee1e 	bne	r8,zero,2fa14 <__gedf2+0x90>
   2fa5c:	f800283a 	ret
   2fa60:	398eb03a 	or	r7,r7,r6
   2fa64:	3800021e 	bne	r7,zero,2fa70 <__gedf2+0xec>
   2fa68:	58bff826 	beq	r11,r2,2fa4c <__gedf2+0xc8>
   2fa6c:	003fe906 	br	2fa14 <__gedf2+0x90>
   2fa70:	00bfff84 	movi	r2,-2
   2fa74:	f800283a 	ret
   2fa78:	58bff026 	beq	r11,r2,2fa3c <__gedf2+0xb8>
   2fa7c:	003fe506 	br	2fa14 <__gedf2+0x90>

0002fa80 <__ledf2>:
   2fa80:	2810d53a 	srli	r8,r5,20
   2fa84:	3812d53a 	srli	r9,r7,20
   2fa88:	00c00434 	movhi	r3,16
   2fa8c:	4201ffcc 	andi	r8,r8,2047
   2fa90:	18ffffc4 	addi	r3,r3,-1
   2fa94:	4281ffd8 	cmpnei	r10,r8,2047
   2fa98:	2816d7fa 	srli	r11,r5,31
   2fa9c:	3804d7fa 	srli	r2,r7,31
   2faa0:	28ca703a 	and	r5,r5,r3
   2faa4:	38ce703a 	and	r7,r7,r3
   2faa8:	48c1ffcc 	andi	r3,r9,2047
   2faac:	50001426 	beq	r10,zero,2fb00 <__ledf2+0x80>
   2fab0:	1a41ffd8 	cmpnei	r9,r3,2047
   2fab4:	48000926 	beq	r9,zero,2fadc <__ledf2+0x5c>
   2fab8:	4000191e 	bne	r8,zero,2fb20 <__ledf2+0xa0>
   2fabc:	2910b03a 	or	r8,r5,r4
   2fac0:	1800221e 	bne	r3,zero,2fb4c <__ledf2+0xcc>
   2fac4:	3986b03a 	or	r3,r7,r6
   2fac8:	18002326 	beq	r3,zero,2fb58 <__ledf2+0xd8>
   2facc:	4000281e 	bne	r8,zero,2fb70 <__ledf2+0xf0>
   2fad0:	10000a1e 	bne	r2,zero,2fafc <__ledf2+0x7c>
   2fad4:	00bfffc4 	movi	r2,-1
   2fad8:	f800283a 	ret
   2fadc:	398eb03a 	or	r7,r7,r6
   2fae0:	38000d1e 	bne	r7,zero,2fb18 <__ledf2+0x98>
   2fae4:	4000021e 	bne	r8,zero,2faf0 <__ledf2+0x70>
   2fae8:	290ab03a 	or	r5,r5,r4
   2faec:	283ff826 	beq	r5,zero,2fad0 <__ledf2+0x50>
   2faf0:	58801326 	beq	r11,r2,2fb40 <__ledf2+0xc0>
   2faf4:	00800044 	movi	r2,1
   2faf8:	583ff61e 	bne	r11,zero,2fad4 <__ledf2+0x54>
   2fafc:	f800283a 	ret
   2fb00:	290ab03a 	or	r5,r5,r4
   2fb04:	2800041e 	bne	r5,zero,2fb18 <__ledf2+0x98>
   2fb08:	1901ffe0 	cmpeqi	r4,r3,2047
   2fb0c:	203ff926 	beq	r4,zero,2faf4 <__ledf2+0x74>
   2fb10:	398eb03a 	or	r7,r7,r6
   2fb14:	38001326 	beq	r7,zero,2fb64 <__ledf2+0xe4>
   2fb18:	00800084 	movi	r2,2
   2fb1c:	f800283a 	ret
   2fb20:	183ff426 	beq	r3,zero,2faf4 <__ledf2+0x74>
   2fb24:	58bff31e 	bne	r11,r2,2faf4 <__ledf2+0x74>
   2fb28:	1a3ff216 	blt	r3,r8,2faf4 <__ledf2+0x74>
   2fb2c:	40c00416 	blt	r8,r3,2fb40 <__ledf2+0xc0>
   2fb30:	397ff036 	bltu	r7,r5,2faf4 <__ledf2+0x74>
   2fb34:	29c0021e 	bne	r5,r7,2fb40 <__ledf2+0xc0>
   2fb38:	313fee36 	bltu	r6,r4,2faf4 <__ledf2+0x74>
   2fb3c:	21800a2e 	bgeu	r4,r6,2fb68 <__ledf2+0xe8>
   2fb40:	583fe426 	beq	r11,zero,2fad4 <__ledf2+0x54>
   2fb44:	5805883a 	mov	r2,r11
   2fb48:	f800283a 	ret
   2fb4c:	403fe81e 	bne	r8,zero,2faf0 <__ledf2+0x70>
   2fb50:	103fea1e 	bne	r2,zero,2fafc <__ledf2+0x7c>
   2fb54:	003fdf06 	br	2fad4 <__ledf2+0x54>
   2fb58:	0005883a 	mov	r2,zero
   2fb5c:	403fe726 	beq	r8,zero,2fafc <__ledf2+0x7c>
   2fb60:	003fe406 	br	2faf4 <__ledf2+0x74>
   2fb64:	58bfe31e 	bne	r11,r2,2faf4 <__ledf2+0x74>
   2fb68:	0005883a 	mov	r2,zero
   2fb6c:	f800283a 	ret
   2fb70:	58bfef26 	beq	r11,r2,2fb30 <__ledf2+0xb0>
   2fb74:	003fdf06 	br	2faf4 <__ledf2+0x74>

0002fb78 <__muldf3>:
   2fb78:	defff304 	addi	sp,sp,-52
   2fb7c:	2804d53a 	srli	r2,r5,20
   2fb80:	df000b15 	stw	fp,44(sp)
   2fb84:	2838d7fa 	srli	fp,r5,31
   2fb88:	00c00434 	movhi	r3,16
   2fb8c:	ddc00a15 	stw	r23,40(sp)
   2fb90:	dd400815 	stw	r21,32(sp)
   2fb94:	dc400415 	stw	r17,16(sp)
   2fb98:	dc000315 	stw	r16,12(sp)
   2fb9c:	18ffffc4 	addi	r3,r3,-1
   2fba0:	dfc00c15 	stw	ra,48(sp)
   2fba4:	dd800915 	stw	r22,36(sp)
   2fba8:	dd000715 	stw	r20,28(sp)
   2fbac:	dcc00615 	stw	r19,24(sp)
   2fbb0:	dc800515 	stw	r18,20(sp)
   2fbb4:	1081ffcc 	andi	r2,r2,2047
   2fbb8:	2021883a 	mov	r16,r4
   2fbbc:	382f883a 	mov	r23,r7
   2fbc0:	28e2703a 	and	r17,r5,r3
   2fbc4:	e02b883a 	mov	r21,fp
   2fbc8:	10009126 	beq	r2,zero,2fe10 <__muldf3+0x298>
   2fbcc:	10c1ffe0 	cmpeqi	r3,r2,2047
   2fbd0:	1800a41e 	bne	r3,zero,2fe64 <__muldf3+0x2ec>
   2fbd4:	882290fa 	slli	r17,r17,3
   2fbd8:	2006d77a 	srli	r3,r4,29
   2fbdc:	202890fa 	slli	r20,r4,3
   2fbe0:	14ff0044 	addi	r19,r2,-1023
   2fbe4:	1c62b03a 	or	r17,r3,r17
   2fbe8:	8c402034 	orhi	r17,r17,128
   2fbec:	0025883a 	mov	r18,zero
   2fbf0:	000f883a 	mov	r7,zero
   2fbf4:	b804d53a 	srli	r2,r23,20
   2fbf8:	04000434 	movhi	r16,16
   2fbfc:	843fffc4 	addi	r16,r16,-1
   2fc00:	1081ffcc 	andi	r2,r2,2047
   2fc04:	b80ad7fa 	srli	r5,r23,31
   2fc08:	302d883a 	mov	r22,r6
   2fc0c:	bc20703a 	and	r16,r23,r16
   2fc10:	10006526 	beq	r2,zero,2fda8 <__muldf3+0x230>
   2fc14:	10c1ffe0 	cmpeqi	r3,r2,2047
   2fc18:	1800291e 	bne	r3,zero,2fcc0 <__muldf3+0x148>
   2fc1c:	3006d77a 	srli	r3,r6,29
   2fc20:	800890fa 	slli	r4,r16,3
   2fc24:	10bf0044 	addi	r2,r2,-1023
   2fc28:	14c5883a 	add	r2,r2,r19
   2fc2c:	1920b03a 	or	r16,r3,r4
   2fc30:	90c002c8 	cmpgei	r3,r18,11
   2fc34:	302c90fa 	slli	r22,r6,3
   2fc38:	84002034 	orhi	r16,r16,128
   2fc3c:	0009883a 	mov	r4,zero
   2fc40:	14c00044 	addi	r19,r2,1
   2fc44:	18002c1e 	bne	r3,zero,2fcf8 <__muldf3+0x180>
   2fc48:	2f2af03a 	xor	r21,r5,fp
   2fc4c:	90c000c8 	cmpgei	r3,r18,3
   2fc50:	1800251e 	bne	r3,zero,2fce8 <__muldf3+0x170>
   2fc54:	94bfffc4 	addi	r18,r18,-1
   2fc58:	948000a8 	cmpgeui	r18,r18,2
   2fc5c:	9000cb1e 	bne	r18,zero,2ff8c <__muldf3+0x414>
   2fc60:	208000a0 	cmpeqi	r2,r4,2
   2fc64:	1000861e 	bne	r2,zero,2fe80 <__muldf3+0x308>
   2fc68:	21000060 	cmpeqi	r4,r4,1
   2fc6c:	20002b26 	beq	r4,zero,2fd1c <__muldf3+0x1a4>
   2fc70:	0009883a 	mov	r4,zero
   2fc74:	0021883a 	mov	r16,zero
   2fc78:	0029883a 	mov	r20,zero
   2fc7c:	2006953a 	slli	r3,r4,20
   2fc80:	a82a97fa 	slli	r21,r21,31
   2fc84:	a005883a 	mov	r2,r20
   2fc88:	1c06b03a 	or	r3,r3,r16
   2fc8c:	1d46b03a 	or	r3,r3,r21
   2fc90:	dfc00c17 	ldw	ra,48(sp)
   2fc94:	df000b17 	ldw	fp,44(sp)
   2fc98:	ddc00a17 	ldw	r23,40(sp)
   2fc9c:	dd800917 	ldw	r22,36(sp)
   2fca0:	dd400817 	ldw	r21,32(sp)
   2fca4:	dd000717 	ldw	r20,28(sp)
   2fca8:	dcc00617 	ldw	r19,24(sp)
   2fcac:	dc800517 	ldw	r18,20(sp)
   2fcb0:	dc400417 	ldw	r17,16(sp)
   2fcb4:	dc000317 	ldw	r16,12(sp)
   2fcb8:	dec00d04 	addi	sp,sp,52
   2fcbc:	f800283a 	ret
   2fcc0:	8186b03a 	or	r3,r16,r6
   2fcc4:	9881ffc4 	addi	r2,r19,2047
   2fcc8:	18007726 	beq	r3,zero,2fea8 <__muldf3+0x330>
   2fccc:	948000d4 	ori	r18,r18,3
   2fcd0:	90c002c8 	cmpgei	r3,r18,11
   2fcd4:	2f38f03a 	xor	fp,r5,fp
   2fcd8:	9cc20004 	addi	r19,r19,2048
   2fcdc:	1801501e 	bne	r3,zero,30220 <__muldf3+0x6a8>
   2fce0:	e02b883a 	mov	r21,fp
   2fce4:	010000c4 	movi	r4,3
   2fce8:	00c00044 	movi	r3,1
   2fcec:	1c86983a 	sll	r3,r3,r18
   2fcf0:	19814c0c 	andi	r6,r3,1328
   2fcf4:	30002326 	beq	r6,zero,2fd84 <__muldf3+0x20c>
   2fcf8:	388000a0 	cmpeqi	r2,r7,2
   2fcfc:	1000601e 	bne	r2,zero,2fe80 <__muldf3+0x308>
   2fd00:	388000e0 	cmpeqi	r2,r7,3
   2fd04:	10010b1e 	bne	r2,zero,30134 <__muldf3+0x5bc>
   2fd08:	3809883a 	mov	r4,r7
   2fd0c:	21000060 	cmpeqi	r4,r4,1
   2fd10:	8821883a 	mov	r16,r17
   2fd14:	a02d883a 	mov	r22,r20
   2fd18:	203fd51e 	bne	r4,zero,2fc70 <__muldf3+0xf8>
   2fd1c:	98c0ffc4 	addi	r3,r19,1023
   2fd20:	00c07d0e 	bge	zero,r3,2ff18 <__muldf3+0x3a0>
   2fd24:	b08001cc 	andi	r2,r22,7
   2fd28:	10000726 	beq	r2,zero,2fd48 <__muldf3+0x1d0>
   2fd2c:	b08003cc 	andi	r2,r22,15
   2fd30:	10800120 	cmpeqi	r2,r2,4
   2fd34:	1000041e 	bne	r2,zero,2fd48 <__muldf3+0x1d0>
   2fd38:	b0800104 	addi	r2,r22,4
   2fd3c:	15ad803a 	cmpltu	r22,r2,r22
   2fd40:	85a1883a 	add	r16,r16,r22
   2fd44:	102d883a 	mov	r22,r2
   2fd48:	8080402c 	andhi	r2,r16,256
   2fd4c:	10000426 	beq	r2,zero,2fd60 <__muldf3+0x1e8>
   2fd50:	00bfc034 	movhi	r2,65280
   2fd54:	10bfffc4 	addi	r2,r2,-1
   2fd58:	80a0703a 	and	r16,r16,r2
   2fd5c:	98c10004 	addi	r3,r19,1024
   2fd60:	1881ffc8 	cmpgei	r2,r3,2047
   2fd64:	1000461e 	bne	r2,zero,2fe80 <__muldf3+0x308>
   2fd68:	8028977a 	slli	r20,r16,29
   2fd6c:	b02cd0fa 	srli	r22,r22,3
   2fd70:	8020927a 	slli	r16,r16,9
   2fd74:	1901ffcc 	andi	r4,r3,2047
   2fd78:	a5a8b03a 	or	r20,r20,r22
   2fd7c:	8020d33a 	srli	r16,r16,12
   2fd80:	003fbe06 	br	2fc7c <__muldf3+0x104>
   2fd84:	1980900c 	andi	r6,r3,576
   2fd88:	3000411e 	bne	r6,zero,2fe90 <__muldf3+0x318>
   2fd8c:	18c0220c 	andi	r3,r3,136
   2fd90:	18007e26 	beq	r3,zero,2ff8c <__muldf3+0x414>
   2fd94:	282b883a 	mov	r21,r5
   2fd98:	8023883a 	mov	r17,r16
   2fd9c:	b029883a 	mov	r20,r22
   2fda0:	200f883a 	mov	r7,r4
   2fda4:	003fd406 	br	2fcf8 <__muldf3+0x180>
   2fda8:	8184b03a 	or	r2,r16,r6
   2fdac:	10005126 	beq	r2,zero,2fef4 <__muldf3+0x37c>
   2fdb0:	d9800215 	stw	r6,8(sp)
   2fdb4:	d9400115 	stw	r5,4(sp)
   2fdb8:	d9c00015 	stw	r7,0(sp)
   2fdbc:	8000ec26 	beq	r16,zero,30170 <__muldf3+0x5f8>
   2fdc0:	8009883a 	mov	r4,r16
   2fdc4:	0030e080 	call	30e08 <__clzsi2>
   2fdc8:	d9c00017 	ldw	r7,0(sp)
   2fdcc:	d9400117 	ldw	r5,4(sp)
   2fdd0:	d9800217 	ldw	r6,8(sp)
   2fdd4:	113ffd44 	addi	r4,r2,-11
   2fdd8:	00c00744 	movi	r3,29
   2fddc:	15bffe04 	addi	r22,r2,-8
   2fde0:	1907c83a 	sub	r3,r3,r4
   2fde4:	85a0983a 	sll	r16,r16,r22
   2fde8:	30c6d83a 	srl	r3,r6,r3
   2fdec:	35ac983a 	sll	r22,r6,r22
   2fdf0:	1c20b03a 	or	r16,r3,r16
   2fdf4:	9885c83a 	sub	r2,r19,r2
   2fdf8:	10bf0344 	addi	r2,r2,-1011
   2fdfc:	90c002c8 	cmpgei	r3,r18,11
   2fe00:	0009883a 	mov	r4,zero
   2fe04:	14c00044 	addi	r19,r2,1
   2fe08:	183f8f26 	beq	r3,zero,2fc48 <__muldf3+0xd0>
   2fe0c:	003fba06 	br	2fcf8 <__muldf3+0x180>
   2fe10:	2468b03a 	or	r20,r4,r17
   2fe14:	a0003226 	beq	r20,zero,2fee0 <__muldf3+0x368>
   2fe18:	d9800015 	stw	r6,0(sp)
   2fe1c:	8800ca26 	beq	r17,zero,30148 <__muldf3+0x5d0>
   2fe20:	8809883a 	mov	r4,r17
   2fe24:	0030e080 	call	30e08 <__clzsi2>
   2fe28:	d9800017 	ldw	r6,0(sp)
   2fe2c:	1009883a 	mov	r4,r2
   2fe30:	117ffd44 	addi	r5,r2,-11
   2fe34:	00c00744 	movi	r3,29
   2fe38:	253ffe04 	addi	r20,r4,-8
   2fe3c:	1947c83a 	sub	r3,r3,r5
   2fe40:	8d22983a 	sll	r17,r17,r20
   2fe44:	80c6d83a 	srl	r3,r16,r3
   2fe48:	8528983a 	sll	r20,r16,r20
   2fe4c:	1c62b03a 	or	r17,r3,r17
   2fe50:	00bf0344 	movi	r2,-1011
   2fe54:	1127c83a 	sub	r19,r2,r4
   2fe58:	0025883a 	mov	r18,zero
   2fe5c:	000f883a 	mov	r7,zero
   2fe60:	003f6406 	br	2fbf4 <__muldf3+0x7c>
   2fe64:	2468b03a 	or	r20,r4,r17
   2fe68:	a000181e 	bne	r20,zero,2fecc <__muldf3+0x354>
   2fe6c:	0023883a 	mov	r17,zero
   2fe70:	04800204 	movi	r18,8
   2fe74:	04c1ffc4 	movi	r19,2047
   2fe78:	01c00084 	movi	r7,2
   2fe7c:	003f5d06 	br	2fbf4 <__muldf3+0x7c>
   2fe80:	0101ffc4 	movi	r4,2047
   2fe84:	0021883a 	mov	r16,zero
   2fe88:	0029883a 	mov	r20,zero
   2fe8c:	003f7b06 	br	2fc7c <__muldf3+0x104>
   2fe90:	04000434 	movhi	r16,16
   2fe94:	002b883a 	mov	r21,zero
   2fe98:	843fffc4 	addi	r16,r16,-1
   2fe9c:	053fffc4 	movi	r20,-1
   2fea0:	0101ffc4 	movi	r4,2047
   2fea4:	003f7506 	br	2fc7c <__muldf3+0x104>
   2fea8:	94800094 	ori	r18,r18,2
   2feac:	90c002c8 	cmpgei	r3,r18,11
   2feb0:	9cc20004 	addi	r19,r19,2048
   2feb4:	183f901e 	bne	r3,zero,2fcf8 <__muldf3+0x180>
   2feb8:	2f2af03a 	xor	r21,r5,fp
   2febc:	002d883a 	mov	r22,zero
   2fec0:	0021883a 	mov	r16,zero
   2fec4:	01000084 	movi	r4,2
   2fec8:	003f6006 	br	2fc4c <__muldf3+0xd4>
   2fecc:	2029883a 	mov	r20,r4
   2fed0:	04800304 	movi	r18,12
   2fed4:	04c1ffc4 	movi	r19,2047
   2fed8:	01c000c4 	movi	r7,3
   2fedc:	003f4506 	br	2fbf4 <__muldf3+0x7c>
   2fee0:	0023883a 	mov	r17,zero
   2fee4:	04800104 	movi	r18,4
   2fee8:	0027883a 	mov	r19,zero
   2feec:	01c00044 	movi	r7,1
   2fef0:	003f4006 	br	2fbf4 <__muldf3+0x7c>
   2fef4:	94800054 	ori	r18,r18,1
   2fef8:	9805883a 	mov	r2,r19
   2fefc:	90c002c8 	cmpgei	r3,r18,11
   2ff00:	0021883a 	mov	r16,zero
   2ff04:	002d883a 	mov	r22,zero
   2ff08:	01000044 	movi	r4,1
   2ff0c:	14c00044 	addi	r19,r2,1
   2ff10:	183f4d26 	beq	r3,zero,2fc48 <__muldf3+0xd0>
   2ff14:	003f7806 	br	2fcf8 <__muldf3+0x180>
   2ff18:	01000044 	movi	r4,1
   2ff1c:	20c9c83a 	sub	r4,r4,r3
   2ff20:	20800e48 	cmpgei	r2,r4,57
   2ff24:	103f521e 	bne	r2,zero,2fc70 <__muldf3+0xf8>
   2ff28:	20800808 	cmpgei	r2,r4,32
   2ff2c:	1000a11e 	bne	r2,zero,301b4 <__muldf3+0x63c>
   2ff30:	9cc10784 	addi	r19,r19,1054
   2ff34:	b104d83a 	srl	r2,r22,r4
   2ff38:	84e8983a 	sll	r20,r16,r19
   2ff3c:	b4e6983a 	sll	r19,r22,r19
   2ff40:	8108d83a 	srl	r4,r16,r4
   2ff44:	a0a8b03a 	or	r20,r20,r2
   2ff48:	9826c03a 	cmpne	r19,r19,zero
   2ff4c:	a4e8b03a 	or	r20,r20,r19
   2ff50:	a08001cc 	andi	r2,r20,7
   2ff54:	10000726 	beq	r2,zero,2ff74 <__muldf3+0x3fc>
   2ff58:	a08003cc 	andi	r2,r20,15
   2ff5c:	10800120 	cmpeqi	r2,r2,4
   2ff60:	1000041e 	bne	r2,zero,2ff74 <__muldf3+0x3fc>
   2ff64:	a0800104 	addi	r2,r20,4
   2ff68:	1529803a 	cmpltu	r20,r2,r20
   2ff6c:	2509883a 	add	r4,r4,r20
   2ff70:	1029883a 	mov	r20,r2
   2ff74:	2080202c 	andhi	r2,r4,128
   2ff78:	1000a526 	beq	r2,zero,30210 <__muldf3+0x698>
   2ff7c:	01000044 	movi	r4,1
   2ff80:	0021883a 	mov	r16,zero
   2ff84:	0029883a 	mov	r20,zero
   2ff88:	003f3c06 	br	2fc7c <__muldf3+0x104>
   2ff8c:	a018d43a 	srli	r12,r20,16
   2ff90:	b010d43a 	srli	r8,r22,16
   2ff94:	a53fffcc 	andi	r20,r20,65535
   2ff98:	b5bfffcc 	andi	r22,r22,65535
   2ff9c:	b509383a 	mul	r4,r22,r20
   2ffa0:	658d383a 	mul	r6,r12,r22
   2ffa4:	450b383a 	mul	r5,r8,r20
   2ffa8:	2006d43a 	srli	r3,r4,16
   2ffac:	620f383a 	mul	r7,r12,r8
   2ffb0:	298b883a 	add	r5,r5,r6
   2ffb4:	1947883a 	add	r3,r3,r5
   2ffb8:	1980022e 	bgeu	r3,r6,2ffc4 <__muldf3+0x44c>
   2ffbc:	01400074 	movhi	r5,1
   2ffc0:	394f883a 	add	r7,r7,r5
   2ffc4:	8014d43a 	srli	r10,r16,16
   2ffc8:	843fffcc 	andi	r16,r16,65535
   2ffcc:	8517383a 	mul	r11,r16,r20
   2ffd0:	641b383a 	mul	r13,r12,r16
   2ffd4:	5529383a 	mul	r20,r10,r20
   2ffd8:	580ad43a 	srli	r5,r11,16
   2ffdc:	180c943a 	slli	r6,r3,16
   2ffe0:	a369883a 	add	r20,r20,r13
   2ffe4:	227fffcc 	andi	r9,r4,65535
   2ffe8:	2d0b883a 	add	r5,r5,r20
   2ffec:	1808d43a 	srli	r4,r3,16
   2fff0:	6299383a 	mul	r12,r12,r10
   2fff4:	324d883a 	add	r6,r6,r9
   2fff8:	2b40022e 	bgeu	r5,r13,30004 <__muldf3+0x48c>
   2fffc:	00c00074 	movhi	r3,1
   30000:	60d9883a 	add	r12,r12,r3
   30004:	881ad43a 	srli	r13,r17,16
   30008:	8c7fffcc 	andi	r17,r17,65535
   3000c:	b45f383a 	mul	r15,r22,r17
   30010:	445d383a 	mul	r14,r8,r17
   30014:	6dad383a 	mul	r22,r13,r22
   30018:	2812943a 	slli	r9,r5,16
   3001c:	7806d43a 	srli	r3,r15,16
   30020:	280ad43a 	srli	r5,r5,16
   30024:	5affffcc 	andi	r11,r11,65535
   30028:	759d883a 	add	r14,r14,r22
   3002c:	4ad3883a 	add	r9,r9,r11
   30030:	1b87883a 	add	r3,r3,r14
   30034:	4365383a 	mul	r18,r8,r13
   30038:	2b17883a 	add	r11,r5,r12
   3003c:	2249883a 	add	r4,r4,r9
   30040:	1d80022e 	bgeu	r3,r22,3004c <__muldf3+0x4d4>
   30044:	01400074 	movhi	r5,1
   30048:	9165883a 	add	r18,r18,r5
   3004c:	8459383a 	mul	r12,r16,r17
   30050:	5463383a 	mul	r17,r10,r17
   30054:	6c21383a 	mul	r16,r13,r16
   30058:	6010d43a 	srli	r8,r12,16
   3005c:	181cd43a 	srli	r14,r3,16
   30060:	180a943a 	slli	r5,r3,16
   30064:	8c23883a 	add	r17,r17,r16
   30068:	78ffffcc 	andi	r3,r15,65535
   3006c:	4451883a 	add	r8,r8,r17
   30070:	5355383a 	mul	r10,r10,r13
   30074:	749d883a 	add	r14,r14,r18
   30078:	28cb883a 	add	r5,r5,r3
   3007c:	4400022e 	bgeu	r8,r16,30088 <__muldf3+0x510>
   30080:	00c00074 	movhi	r3,1
   30084:	50d5883a 	add	r10,r10,r3
   30088:	4006943a 	slli	r3,r8,16
   3008c:	633fffcc 	andi	r12,r12,65535
   30090:	21c9883a 	add	r4,r4,r7
   30094:	1b07883a 	add	r3,r3,r12
   30098:	2253803a 	cmpltu	r9,r4,r9
   3009c:	1ac7883a 	add	r3,r3,r11
   300a0:	2149883a 	add	r4,r4,r5
   300a4:	1a5b883a 	add	r13,r3,r9
   300a8:	214b803a 	cmpltu	r5,r4,r5
   300ac:	6b8f883a 	add	r7,r13,r14
   300b0:	4010d43a 	srli	r8,r8,16
   300b4:	3959883a 	add	r12,r7,r5
   300b8:	1ae1803a 	cmpltu	r16,r3,r11
   300bc:	6a5b803a 	cmpltu	r13,r13,r9
   300c0:	614b803a 	cmpltu	r5,r12,r5
   300c4:	8360b03a 	or	r16,r16,r13
   300c8:	3b8f803a 	cmpltu	r7,r7,r14
   300cc:	394eb03a 	or	r7,r7,r5
   300d0:	8221883a 	add	r16,r16,r8
   300d4:	202c927a 	slli	r22,r4,9
   300d8:	81e1883a 	add	r16,r16,r7
   300dc:	82a1883a 	add	r16,r16,r10
   300e0:	8020927a 	slli	r16,r16,9
   300e4:	2008d5fa 	srli	r4,r4,23
   300e8:	600ad5fa 	srli	r5,r12,23
   300ec:	6006927a 	slli	r3,r12,9
   300f0:	b1acb03a 	or	r22,r22,r6
   300f4:	b02cc03a 	cmpne	r22,r22,zero
   300f8:	b12cb03a 	or	r22,r22,r4
   300fc:	8100402c 	andhi	r4,r16,256
   30100:	b0ecb03a 	or	r22,r22,r3
   30104:	8160b03a 	or	r16,r16,r5
   30108:	20002826 	beq	r4,zero,301ac <__muldf3+0x634>
   3010c:	b006d07a 	srli	r3,r22,1
   30110:	800497fa 	slli	r2,r16,31
   30114:	b580004c 	andi	r22,r22,1
   30118:	1d86b03a 	or	r3,r3,r22
   3011c:	8020d07a 	srli	r16,r16,1
   30120:	18acb03a 	or	r22,r3,r2
   30124:	003efd06 	br	2fd1c <__muldf3+0x1a4>
   30128:	282b883a 	mov	r21,r5
   3012c:	8023883a 	mov	r17,r16
   30130:	3029883a 	mov	r20,r6
   30134:	00800434 	movhi	r2,16
   30138:	8c000234 	orhi	r16,r17,8
   3013c:	10bfffc4 	addi	r2,r2,-1
   30140:	80a0703a 	and	r16,r16,r2
   30144:	003f5606 	br	2fea0 <__muldf3+0x328>
   30148:	0030e080 	call	30e08 <__clzsi2>
   3014c:	11400544 	addi	r5,r2,21
   30150:	28c00748 	cmpgei	r3,r5,29
   30154:	d9800017 	ldw	r6,0(sp)
   30158:	11000804 	addi	r4,r2,32
   3015c:	183f3526 	beq	r3,zero,2fe34 <__muldf3+0x2bc>
   30160:	10bffe04 	addi	r2,r2,-8
   30164:	80a2983a 	sll	r17,r16,r2
   30168:	0029883a 	mov	r20,zero
   3016c:	003f3806 	br	2fe50 <__muldf3+0x2d8>
   30170:	3009883a 	mov	r4,r6
   30174:	0030e080 	call	30e08 <__clzsi2>
   30178:	11000544 	addi	r4,r2,21
   3017c:	22000748 	cmpgei	r8,r4,29
   30180:	1007883a 	mov	r3,r2
   30184:	d9c00017 	ldw	r7,0(sp)
   30188:	d9400117 	ldw	r5,4(sp)
   3018c:	d9800217 	ldw	r6,8(sp)
   30190:	10800804 	addi	r2,r2,32
   30194:	403f1026 	beq	r8,zero,2fdd8 <__muldf3+0x260>
   30198:	18fffe04 	addi	r3,r3,-8
   3019c:	b0c6983a 	sll	r3,r22,r3
   301a0:	002d883a 	mov	r22,zero
   301a4:	1821883a 	mov	r16,r3
   301a8:	003f1206 	br	2fdf4 <__muldf3+0x27c>
   301ac:	1027883a 	mov	r19,r2
   301b0:	003eda06 	br	2fd1c <__muldf3+0x1a4>
   301b4:	00bff844 	movi	r2,-31
   301b8:	10c7c83a 	sub	r3,r2,r3
   301bc:	21000820 	cmpeqi	r4,r4,32
   301c0:	80c6d83a 	srl	r3,r16,r3
   301c4:	2000031e 	bne	r4,zero,301d4 <__muldf3+0x65c>
   301c8:	9cc10f84 	addi	r19,r19,1086
   301cc:	84e6983a 	sll	r19,r16,r19
   301d0:	b4ecb03a 	or	r22,r22,r19
   301d4:	b028c03a 	cmpne	r20,r22,zero
   301d8:	a0e8b03a 	or	r20,r20,r3
   301dc:	a08001cc 	andi	r2,r20,7
   301e0:	1000051e 	bne	r2,zero,301f8 <__muldf3+0x680>
   301e4:	0021883a 	mov	r16,zero
   301e8:	a028d0fa 	srli	r20,r20,3
   301ec:	0009883a 	mov	r4,zero
   301f0:	a0a8b03a 	or	r20,r20,r2
   301f4:	003ea106 	br	2fc7c <__muldf3+0x104>
   301f8:	a08003cc 	andi	r2,r20,15
   301fc:	10800120 	cmpeqi	r2,r2,4
   30200:	1000111e 	bne	r2,zero,30248 <__muldf3+0x6d0>
   30204:	a0800104 	addi	r2,r20,4
   30208:	1509803a 	cmpltu	r4,r2,r20
   3020c:	1029883a 	mov	r20,r2
   30210:	2020927a 	slli	r16,r4,9
   30214:	2004977a 	slli	r2,r4,29
   30218:	8020d33a 	srli	r16,r16,12
   3021c:	003ff206 	br	301e8 <__muldf3+0x670>
   30220:	948003e0 	cmpeqi	r18,r18,15
   30224:	903fc026 	beq	r18,zero,30128 <__muldf3+0x5b0>
   30228:	8880022c 	andhi	r2,r17,8
   3022c:	103fc126 	beq	r2,zero,30134 <__muldf3+0x5bc>
   30230:	b9c0022c 	andhi	r7,r23,8
   30234:	383fbf1e 	bne	r7,zero,30134 <__muldf3+0x5bc>
   30238:	84000234 	orhi	r16,r16,8
   3023c:	282b883a 	mov	r21,r5
   30240:	3029883a 	mov	r20,r6
   30244:	003f1606 	br	2fea0 <__muldf3+0x328>
   30248:	0009883a 	mov	r4,zero
   3024c:	003ff006 	br	30210 <__muldf3+0x698>

00030250 <__subdf3>:
   30250:	00800434 	movhi	r2,16
   30254:	3806d53a 	srli	r3,r7,20
   30258:	10bfffc4 	addi	r2,r2,-1
   3025c:	defffa04 	addi	sp,sp,-24
   30260:	2890703a 	and	r8,r5,r2
   30264:	3884703a 	and	r2,r7,r2
   30268:	2812d7fa 	srli	r9,r5,31
   3026c:	401090fa 	slli	r8,r8,3
   30270:	280ad53a 	srli	r5,r5,20
   30274:	100490fa 	slli	r2,r2,3
   30278:	3016d77a 	srli	r11,r6,29
   3027c:	dc400115 	stw	r17,4(sp)
   30280:	2022d77a 	srli	r17,r4,29
   30284:	18c1ffcc 	andi	r3,r3,2047
   30288:	dd000415 	stw	r20,16(sp)
   3028c:	dcc00315 	stw	r19,12(sp)
   30290:	dc000015 	stw	r16,0(sp)
   30294:	dfc00515 	stw	ra,20(sp)
   30298:	dc800215 	stw	r18,8(sp)
   3029c:	1a81ffd8 	cmpnei	r10,r3,2047
   302a0:	2c01ffcc 	andi	r16,r5,2047
   302a4:	380ed7fa 	srli	r7,r7,31
   302a8:	201890fa 	slli	r12,r4,3
   302ac:	301a90fa 	slli	r13,r6,3
   302b0:	4829883a 	mov	r20,r9
   302b4:	4cc03fcc 	andi	r19,r9,255
   302b8:	8a22b03a 	or	r17,r17,r8
   302bc:	588ab03a 	or	r5,r11,r2
   302c0:	50007126 	beq	r10,zero,30488 <__subdf3+0x238>
   302c4:	39c0005c 	xori	r7,r7,1
   302c8:	3813883a 	mov	r9,r7
   302cc:	3a803fcc 	andi	r10,r7,255
   302d0:	80d1c83a 	sub	r8,r16,r3
   302d4:	99c05526 	beq	r19,r7,3042c <__subdf3+0x1dc>
   302d8:	0202320e 	bge	zero,r8,30ba4 <__subdf3+0x954>
   302dc:	18008426 	beq	r3,zero,304f0 <__subdf3+0x2a0>
   302e0:	8081ffe0 	cmpeqi	r2,r16,2047
   302e4:	10011b1e 	bne	r2,zero,30754 <__subdf3+0x504>
   302e8:	40800e48 	cmpgei	r2,r8,57
   302ec:	1000881e 	bne	r2,zero,30510 <__subdf3+0x2c0>
   302f0:	29402034 	orhi	r5,r5,128
   302f4:	40800808 	cmpgei	r2,r8,32
   302f8:	1001451e 	bne	r2,zero,30810 <__subdf3+0x5c0>
   302fc:	00800804 	movi	r2,32
   30300:	1205c83a 	sub	r2,r2,r8
   30304:	28a4983a 	sll	r18,r5,r2
   30308:	6a06d83a 	srl	r3,r13,r8
   3030c:	6884983a 	sll	r2,r13,r2
   30310:	2a10d83a 	srl	r8,r5,r8
   30314:	90e4b03a 	or	r18,r18,r3
   30318:	1004c03a 	cmpne	r2,r2,zero
   3031c:	90a4b03a 	or	r18,r18,r2
   30320:	8a23c83a 	sub	r17,r17,r8
   30324:	64a5c83a 	sub	r18,r12,r18
   30328:	6485803a 	cmpltu	r2,r12,r18
   3032c:	88a3c83a 	sub	r17,r17,r2
   30330:	8880202c 	andhi	r2,r17,128
   30334:	1000ae26 	beq	r2,zero,305f0 <__subdf3+0x3a0>
   30338:	00802034 	movhi	r2,128
   3033c:	10bfffc4 	addi	r2,r2,-1
   30340:	88a2703a 	and	r17,r17,r2
   30344:	8800de26 	beq	r17,zero,306c0 <__subdf3+0x470>
   30348:	8809883a 	mov	r4,r17
   3034c:	0030e080 	call	30e08 <__clzsi2>
   30350:	10fffe04 	addi	r3,r2,-8
   30354:	01000804 	movi	r4,32
   30358:	20c5c83a 	sub	r2,r4,r3
   3035c:	9084d83a 	srl	r2,r18,r2
   30360:	88e2983a 	sll	r17,r17,r3
   30364:	90e4983a 	sll	r18,r18,r3
   30368:	1444b03a 	or	r2,r2,r17
   3036c:	1c010516 	blt	r3,r16,30784 <__subdf3+0x534>
   30370:	1c07c83a 	sub	r3,r3,r16
   30374:	18c00044 	addi	r3,r3,1
   30378:	20c9c83a 	sub	r4,r4,r3
   3037c:	910a983a 	sll	r5,r18,r4
   30380:	90e2d83a 	srl	r17,r18,r3
   30384:	280ac03a 	cmpne	r5,r5,zero
   30388:	1108983a 	sll	r4,r2,r4
   3038c:	894ab03a 	or	r5,r17,r5
   30390:	10e2d83a 	srl	r17,r2,r3
   30394:	0021883a 	mov	r16,zero
   30398:	2164b03a 	or	r18,r4,r5
   3039c:	908001cc 	andi	r2,r18,7
   303a0:	10000726 	beq	r2,zero,303c0 <__subdf3+0x170>
   303a4:	908003cc 	andi	r2,r18,15
   303a8:	10800120 	cmpeqi	r2,r2,4
   303ac:	1000041e 	bne	r2,zero,303c0 <__subdf3+0x170>
   303b0:	90800104 	addi	r2,r18,4
   303b4:	14a5803a 	cmpltu	r18,r2,r18
   303b8:	8ca3883a 	add	r17,r17,r18
   303bc:	1025883a 	mov	r18,r2
   303c0:	8880202c 	andhi	r2,r17,128
   303c4:	1000d726 	beq	r2,zero,30724 <__subdf3+0x4d4>
   303c8:	8081ffa0 	cmpeqi	r2,r16,2046
   303cc:	84000044 	addi	r16,r16,1
   303d0:	10007c1e 	bne	r2,zero,305c4 <__subdf3+0x374>
   303d4:	013fe034 	movhi	r4,65408
   303d8:	213fffc4 	addi	r4,r4,-1
   303dc:	8908703a 	and	r4,r17,r4
   303e0:	2004977a 	slli	r2,r4,29
   303e4:	2008927a 	slli	r4,r4,9
   303e8:	9024d0fa 	srli	r18,r18,3
   303ec:	80c1ffcc 	andi	r3,r16,2047
   303f0:	2008d33a 	srli	r4,r4,12
   303f4:	1484b03a 	or	r2,r2,r18
   303f8:	9d00004c 	andi	r20,r19,1
   303fc:	1806953a 	slli	r3,r3,20
   30400:	a02897fa 	slli	r20,r20,31
   30404:	1906b03a 	or	r3,r3,r4
   30408:	1d06b03a 	or	r3,r3,r20
   3040c:	dfc00517 	ldw	ra,20(sp)
   30410:	dd000417 	ldw	r20,16(sp)
   30414:	dcc00317 	ldw	r19,12(sp)
   30418:	dc800217 	ldw	r18,8(sp)
   3041c:	dc400117 	ldw	r17,4(sp)
   30420:	dc000017 	ldw	r16,0(sp)
   30424:	dec00604 	addi	sp,sp,24
   30428:	f800283a 	ret
   3042c:	0201e60e 	bge	zero,r8,30bc8 <__subdf3+0x978>
   30430:	18004d1e 	bne	r3,zero,30568 <__subdf3+0x318>
   30434:	2b44b03a 	or	r2,r5,r13
   30438:	1000d026 	beq	r2,zero,3077c <__subdf3+0x52c>
   3043c:	823fffc4 	addi	r8,r16,-1
   30440:	40006426 	beq	r8,zero,305d4 <__subdf3+0x384>
   30444:	8081ffe0 	cmpeqi	r2,r16,2047
   30448:	10018e1e 	bne	r2,zero,30a84 <__subdf3+0x834>
   3044c:	40800e48 	cmpgei	r2,r8,57
   30450:	1000491e 	bne	r2,zero,30578 <__subdf3+0x328>
   30454:	40800808 	cmpgei	r2,r8,32
   30458:	1001431e 	bne	r2,zero,30968 <__subdf3+0x718>
   3045c:	00800804 	movi	r2,32
   30460:	1205c83a 	sub	r2,r2,r8
   30464:	28a4983a 	sll	r18,r5,r2
   30468:	6a06d83a 	srl	r3,r13,r8
   3046c:	6884983a 	sll	r2,r13,r2
   30470:	2a10d83a 	srl	r8,r5,r8
   30474:	90e4b03a 	or	r18,r18,r3
   30478:	1004c03a 	cmpne	r2,r2,zero
   3047c:	90a4b03a 	or	r18,r18,r2
   30480:	8a23883a 	add	r17,r17,r8
   30484:	00003d06 	br	3057c <__subdf3+0x32c>
   30488:	2b44b03a 	or	r2,r5,r13
   3048c:	823e0044 	addi	r8,r16,-2047
   30490:	1000211e 	bne	r2,zero,30518 <__subdf3+0x2c8>
   30494:	39c0005c 	xori	r7,r7,1
   30498:	3813883a 	mov	r9,r7
   3049c:	3a803fcc 	andi	r10,r7,255
   304a0:	99c06b26 	beq	r19,r7,30650 <__subdf3+0x400>
   304a4:	40005526 	beq	r8,zero,305fc <__subdf3+0x3ac>
   304a8:	8000201e 	bne	r16,zero,3052c <__subdf3+0x2dc>
   304ac:	0401ffc4 	movi	r16,2047
   304b0:	8b04b03a 	or	r2,r17,r12
   304b4:	1000ae26 	beq	r2,zero,30770 <__subdf3+0x520>
   304b8:	80bfffc4 	addi	r2,r16,-1
   304bc:	10015e26 	beq	r2,zero,30a38 <__subdf3+0x7e8>
   304c0:	8401ffe0 	cmpeqi	r16,r16,2047
   304c4:	8001801e 	bne	r16,zero,30ac8 <__subdf3+0x878>
   304c8:	11000e48 	cmpgei	r4,r2,57
   304cc:	5027883a 	mov	r19,r10
   304d0:	4829883a 	mov	r20,r9
   304d4:	20011326 	beq	r4,zero,30924 <__subdf3+0x6d4>
   304d8:	04800044 	movi	r18,1
   304dc:	6ca5c83a 	sub	r18,r13,r18
   304e0:	6c9b803a 	cmpltu	r13,r13,r18
   304e4:	2b63c83a 	sub	r17,r5,r13
   304e8:	1821883a 	mov	r16,r3
   304ec:	003f9006 	br	30330 <__subdf3+0xe0>
   304f0:	2b44b03a 	or	r2,r5,r13
   304f4:	1000a126 	beq	r2,zero,3077c <__subdf3+0x52c>
   304f8:	823fffc4 	addi	r8,r16,-1
   304fc:	4000fe26 	beq	r8,zero,308f8 <__subdf3+0x6a8>
   30500:	8081ffe0 	cmpeqi	r2,r16,2047
   30504:	1000931e 	bne	r2,zero,30754 <__subdf3+0x504>
   30508:	40800e48 	cmpgei	r2,r8,57
   3050c:	103f7926 	beq	r2,zero,302f4 <__subdf3+0xa4>
   30510:	04800044 	movi	r18,1
   30514:	003f8306 	br	30324 <__subdf3+0xd4>
   30518:	3a803fcc 	andi	r10,r7,255
   3051c:	99c04c26 	beq	r19,r7,30650 <__subdf3+0x400>
   30520:	40003626 	beq	r8,zero,305fc <__subdf3+0x3ac>
   30524:	3813883a 	mov	r9,r7
   30528:	803fe026 	beq	r16,zero,304ac <__subdf3+0x25c>
   3052c:	2804977a 	slli	r2,r5,29
   30530:	00c80034 	movhi	r3,8192
   30534:	18ffffc4 	addi	r3,r3,-1
   30538:	280ad0fa 	srli	r5,r5,3
   3053c:	30c6703a 	and	r3,r6,r3
   30540:	10c4b03a 	or	r2,r2,r3
   30544:	4829883a 	mov	r20,r9
   30548:	1146b03a 	or	r3,r2,r5
   3054c:	18019126 	beq	r3,zero,30b94 <__subdf3+0x944>
   30550:	00c00434 	movhi	r3,16
   30554:	18ffffc4 	addi	r3,r3,-1
   30558:	29000234 	orhi	r4,r5,8
   3055c:	20c8703a 	and	r4,r4,r3
   30560:	00c1ffc4 	movi	r3,2047
   30564:	003fa506 	br	303fc <__subdf3+0x1ac>
   30568:	8081ffe0 	cmpeqi	r2,r16,2047
   3056c:	1000791e 	bne	r2,zero,30754 <__subdf3+0x504>
   30570:	40800e48 	cmpgei	r2,r8,57
   30574:	1000b126 	beq	r2,zero,3083c <__subdf3+0x5ec>
   30578:	04800044 	movi	r18,1
   3057c:	9325883a 	add	r18,r18,r12
   30580:	9305803a 	cmpltu	r2,r18,r12
   30584:	88a3883a 	add	r17,r17,r2
   30588:	8880202c 	andhi	r2,r17,128
   3058c:	10001826 	beq	r2,zero,305f0 <__subdf3+0x3a0>
   30590:	84000044 	addi	r16,r16,1
   30594:	8081ffe0 	cmpeqi	r2,r16,2047
   30598:	10000a1e 	bne	r2,zero,305c4 <__subdf3+0x374>
   3059c:	00bfe034 	movhi	r2,65408
   305a0:	10bfffc4 	addi	r2,r2,-1
   305a4:	9006d07a 	srli	r3,r18,1
   305a8:	8884703a 	and	r2,r17,r2
   305ac:	100897fa 	slli	r4,r2,31
   305b0:	9480004c 	andi	r18,r18,1
   305b4:	1c86b03a 	or	r3,r3,r18
   305b8:	1022d07a 	srli	r17,r2,1
   305bc:	20e4b03a 	or	r18,r4,r3
   305c0:	003f7606 	br	3039c <__subdf3+0x14c>
   305c4:	00c1ffc4 	movi	r3,2047
   305c8:	0009883a 	mov	r4,zero
   305cc:	0005883a 	mov	r2,zero
   305d0:	003f8a06 	br	303fc <__subdf3+0x1ac>
   305d4:	6365883a 	add	r18,r12,r13
   305d8:	894b883a 	add	r5,r17,r5
   305dc:	9305803a 	cmpltu	r2,r18,r12
   305e0:	28a3883a 	add	r17,r5,r2
   305e4:	8880202c 	andhi	r2,r17,128
   305e8:	1001241e 	bne	r2,zero,30a7c <__subdf3+0x82c>
   305ec:	04000044 	movi	r16,1
   305f0:	908001cc 	andi	r2,r18,7
   305f4:	103f6b1e 	bne	r2,zero,303a4 <__subdf3+0x154>
   305f8:	00007906 	br	307e0 <__subdf3+0x590>
   305fc:	80800044 	addi	r2,r16,1
   30600:	1081ff8c 	andi	r2,r2,2046
   30604:	1000781e 	bne	r2,zero,307e8 <__subdf3+0x598>
   30608:	2b44b03a 	or	r2,r5,r13
   3060c:	8b06b03a 	or	r3,r17,r12
   30610:	8000af1e 	bne	r16,zero,308d0 <__subdf3+0x680>
   30614:	18011026 	beq	r3,zero,30a58 <__subdf3+0x808>
   30618:	1000de26 	beq	r2,zero,30994 <__subdf3+0x744>
   3061c:	6365c83a 	sub	r18,r12,r13
   30620:	6485803a 	cmpltu	r2,r12,r18
   30624:	8947c83a 	sub	r3,r17,r5
   30628:	1887c83a 	sub	r3,r3,r2
   3062c:	1880202c 	andhi	r2,r3,128
   30630:	10014426 	beq	r2,zero,30b44 <__subdf3+0x8f4>
   30634:	6b25c83a 	sub	r18,r13,r12
   30638:	2c4bc83a 	sub	r5,r5,r17
   3063c:	6c9b803a 	cmpltu	r13,r13,r18
   30640:	2b63c83a 	sub	r17,r5,r13
   30644:	5029883a 	mov	r20,r10
   30648:	5027883a 	mov	r19,r10
   3064c:	003f5306 	br	3039c <__subdf3+0x14c>
   30650:	40005126 	beq	r8,zero,30798 <__subdf3+0x548>
   30654:	80007b1e 	bne	r16,zero,30844 <__subdf3+0x5f4>
   30658:	0401ffc4 	movi	r16,2047
   3065c:	8b04b03a 	or	r2,r17,r12
   30660:	10010f26 	beq	r2,zero,30aa0 <__subdf3+0x850>
   30664:	80bfffc4 	addi	r2,r16,-1
   30668:	10012a26 	beq	r2,zero,30b14 <__subdf3+0x8c4>
   3066c:	8401ffe0 	cmpeqi	r16,r16,2047
   30670:	80013d1e 	bne	r16,zero,30b68 <__subdf3+0x918>
   30674:	11000e48 	cmpgei	r4,r2,57
   30678:	2000cd1e 	bne	r4,zero,309b0 <__subdf3+0x760>
   3067c:	11000808 	cmpgei	r4,r2,32
   30680:	2001191e 	bne	r4,zero,30ae8 <__subdf3+0x898>
   30684:	01000804 	movi	r4,32
   30688:	2089c83a 	sub	r4,r4,r2
   3068c:	8924983a 	sll	r18,r17,r4
   30690:	608cd83a 	srl	r6,r12,r2
   30694:	6108983a 	sll	r4,r12,r4
   30698:	8884d83a 	srl	r2,r17,r2
   3069c:	91a4b03a 	or	r18,r18,r6
   306a0:	2008c03a 	cmpne	r4,r4,zero
   306a4:	9124b03a 	or	r18,r18,r4
   306a8:	288b883a 	add	r5,r5,r2
   306ac:	9365883a 	add	r18,r18,r13
   306b0:	935b803a 	cmpltu	r13,r18,r13
   306b4:	6963883a 	add	r17,r13,r5
   306b8:	1821883a 	mov	r16,r3
   306bc:	003fb206 	br	30588 <__subdf3+0x338>
   306c0:	9009883a 	mov	r4,r18
   306c4:	0030e080 	call	30e08 <__clzsi2>
   306c8:	10c00604 	addi	r3,r2,24
   306cc:	19000808 	cmpgei	r4,r3,32
   306d0:	203f2026 	beq	r4,zero,30354 <__subdf3+0x104>
   306d4:	10bffe04 	addi	r2,r2,-8
   306d8:	9084983a 	sll	r2,r18,r2
   306dc:	1c006016 	blt	r3,r16,30860 <__subdf3+0x610>
   306e0:	1c25c83a 	sub	r18,r3,r16
   306e4:	90c00044 	addi	r3,r18,1
   306e8:	19000808 	cmpgei	r4,r3,32
   306ec:	20012526 	beq	r4,zero,30b84 <__subdf3+0x934>
   306f0:	94bff844 	addi	r18,r18,-31
   306f4:	19000820 	cmpeqi	r4,r3,32
   306f8:	14a4d83a 	srl	r18,r2,r18
   306fc:	2000051e 	bne	r4,zero,30714 <__subdf3+0x4c4>
   30700:	01001004 	movi	r4,64
   30704:	20c7c83a 	sub	r3,r4,r3
   30708:	10c4983a 	sll	r2,r2,r3
   3070c:	1004c03a 	cmpne	r2,r2,zero
   30710:	90a4b03a 	or	r18,r18,r2
   30714:	908001cc 	andi	r2,r18,7
   30718:	0021883a 	mov	r16,zero
   3071c:	103f211e 	bne	r2,zero,303a4 <__subdf3+0x154>
   30720:	00002f06 	br	307e0 <__subdf3+0x590>
   30724:	9004d0fa 	srli	r2,r18,3
   30728:	8808977a 	slli	r4,r17,29
   3072c:	80c1ffe0 	cmpeqi	r3,r16,2047
   30730:	880ad0fa 	srli	r5,r17,3
   30734:	2084b03a 	or	r2,r4,r2
   30738:	183f831e 	bne	r3,zero,30548 <__subdf3+0x2f8>
   3073c:	01000434 	movhi	r4,16
   30740:	213fffc4 	addi	r4,r4,-1
   30744:	2908703a 	and	r4,r5,r4
   30748:	80c1ffcc 	andi	r3,r16,2047
   3074c:	003f2b06 	br	303fc <__subdf3+0x1ac>
   30750:	1000a71e 	bne	r2,zero,309f0 <__subdf3+0x7a0>
   30754:	8806977a 	slli	r3,r17,29
   30758:	00880034 	movhi	r2,8192
   3075c:	10bfffc4 	addi	r2,r2,-1
   30760:	2084703a 	and	r2,r4,r2
   30764:	880ad0fa 	srli	r5,r17,3
   30768:	10c4b03a 	or	r2,r2,r3
   3076c:	003f7606 	br	30548 <__subdf3+0x2f8>
   30770:	6819883a 	mov	r12,r13
   30774:	2823883a 	mov	r17,r5
   30778:	4829883a 	mov	r20,r9
   3077c:	6004d0fa 	srli	r2,r12,3
   30780:	003fe906 	br	30728 <__subdf3+0x4d8>
   30784:	047fe034 	movhi	r17,65408
   30788:	8c7fffc4 	addi	r17,r17,-1
   3078c:	80e1c83a 	sub	r16,r16,r3
   30790:	1462703a 	and	r17,r2,r17
   30794:	003f0106 	br	3039c <__subdf3+0x14c>
   30798:	80c00044 	addi	r3,r16,1
   3079c:	1881ff8c 	andi	r2,r3,2046
   307a0:	1000361e 	bne	r2,zero,3087c <__subdf3+0x62c>
   307a4:	8b04b03a 	or	r2,r17,r12
   307a8:	80008e1e 	bne	r16,zero,309e4 <__subdf3+0x794>
   307ac:	1000bf26 	beq	r2,zero,30aac <__subdf3+0x85c>
   307b0:	2b44b03a 	or	r2,r5,r13
   307b4:	10007726 	beq	r2,zero,30994 <__subdf3+0x744>
   307b8:	6365883a 	add	r18,r12,r13
   307bc:	9305803a 	cmpltu	r2,r18,r12
   307c0:	894b883a 	add	r5,r17,r5
   307c4:	28a3883a 	add	r17,r5,r2
   307c8:	8880202c 	andhi	r2,r17,128
   307cc:	10000426 	beq	r2,zero,307e0 <__subdf3+0x590>
   307d0:	00bfe034 	movhi	r2,65408
   307d4:	10bfffc4 	addi	r2,r2,-1
   307d8:	88a2703a 	and	r17,r17,r2
   307dc:	04000044 	movi	r16,1
   307e0:	9019883a 	mov	r12,r18
   307e4:	003fe506 	br	3077c <__subdf3+0x52c>
   307e8:	6365c83a 	sub	r18,r12,r13
   307ec:	6485803a 	cmpltu	r2,r12,r18
   307f0:	8947c83a 	sub	r3,r17,r5
   307f4:	1887c83a 	sub	r3,r3,r2
   307f8:	1880202c 	andhi	r2,r3,128
   307fc:	10002d1e 	bne	r2,zero,308b4 <__subdf3+0x664>
   30800:	90c4b03a 	or	r2,r18,r3
   30804:	10005426 	beq	r2,zero,30958 <__subdf3+0x708>
   30808:	1823883a 	mov	r17,r3
   3080c:	003ecd06 	br	30344 <__subdf3+0xf4>
   30810:	40bff804 	addi	r2,r8,-32
   30814:	40c00820 	cmpeqi	r3,r8,32
   30818:	2884d83a 	srl	r2,r5,r2
   3081c:	1800041e 	bne	r3,zero,30830 <__subdf3+0x5e0>
   30820:	00c01004 	movi	r3,64
   30824:	1a07c83a 	sub	r3,r3,r8
   30828:	28c6983a 	sll	r3,r5,r3
   3082c:	68dab03a 	or	r13,r13,r3
   30830:	6824c03a 	cmpne	r18,r13,zero
   30834:	90a4b03a 	or	r18,r18,r2
   30838:	003eba06 	br	30324 <__subdf3+0xd4>
   3083c:	29402034 	orhi	r5,r5,128
   30840:	003f0406 	br	30454 <__subdf3+0x204>
   30844:	2804977a 	slli	r2,r5,29
   30848:	00c80034 	movhi	r3,8192
   3084c:	18ffffc4 	addi	r3,r3,-1
   30850:	30c6703a 	and	r3,r6,r3
   30854:	280ad0fa 	srli	r5,r5,3
   30858:	10c4b03a 	or	r2,r2,r3
   3085c:	003f3a06 	br	30548 <__subdf3+0x2f8>
   30860:	017fe034 	movhi	r5,65408
   30864:	297fffc4 	addi	r5,r5,-1
   30868:	114a703a 	and	r5,r2,r5
   3086c:	2804977a 	slli	r2,r5,29
   30870:	80e1c83a 	sub	r16,r16,r3
   30874:	280ad0fa 	srli	r5,r5,3
   30878:	003fb006 	br	3073c <__subdf3+0x4ec>
   3087c:	1881ffe0 	cmpeqi	r2,r3,2047
   30880:	103f501e 	bne	r2,zero,305c4 <__subdf3+0x374>
   30884:	6349883a 	add	r4,r12,r13
   30888:	894b883a 	add	r5,r17,r5
   3088c:	2305803a 	cmpltu	r2,r4,r12
   30890:	2885883a 	add	r2,r5,r2
   30894:	2008d07a 	srli	r4,r4,1
   30898:	102497fa 	slli	r18,r2,31
   3089c:	1022d07a 	srli	r17,r2,1
   308a0:	208001cc 	andi	r2,r4,7
   308a4:	9124b03a 	or	r18,r18,r4
   308a8:	1821883a 	mov	r16,r3
   308ac:	103ebd1e 	bne	r2,zero,303a4 <__subdf3+0x154>
   308b0:	003fcb06 	br	307e0 <__subdf3+0x590>
   308b4:	6b25c83a 	sub	r18,r13,r12
   308b8:	2c4bc83a 	sub	r5,r5,r17
   308bc:	6c9b803a 	cmpltu	r13,r13,r18
   308c0:	2b63c83a 	sub	r17,r5,r13
   308c4:	5029883a 	mov	r20,r10
   308c8:	5027883a 	mov	r19,r10
   308cc:	003e9d06 	br	30344 <__subdf3+0xf4>
   308d0:	183f9f1e 	bne	r3,zero,30750 <__subdf3+0x500>
   308d4:	10009f26 	beq	r2,zero,30b54 <__subdf3+0x904>
   308d8:	2804977a 	slli	r2,r5,29
   308dc:	00c80034 	movhi	r3,8192
   308e0:	18ffffc4 	addi	r3,r3,-1
   308e4:	30c6703a 	and	r3,r6,r3
   308e8:	280ad0fa 	srli	r5,r5,3
   308ec:	5029883a 	mov	r20,r10
   308f0:	10c4b03a 	or	r2,r2,r3
   308f4:	003f1406 	br	30548 <__subdf3+0x2f8>
   308f8:	6365c83a 	sub	r18,r12,r13
   308fc:	894bc83a 	sub	r5,r17,r5
   30900:	6485803a 	cmpltu	r2,r12,r18
   30904:	28a3c83a 	sub	r17,r5,r2
   30908:	04000044 	movi	r16,1
   3090c:	003e8806 	br	30330 <__subdf3+0xe0>
   30910:	11000e48 	cmpgei	r4,r2,57
   30914:	2000a81e 	bne	r4,zero,30bb8 <__subdf3+0x968>
   30918:	8c402034 	orhi	r17,r17,128
   3091c:	5027883a 	mov	r19,r10
   30920:	3829883a 	mov	r20,r7
   30924:	11000808 	cmpgei	r4,r2,32
   30928:	2000231e 	bne	r4,zero,309b8 <__subdf3+0x768>
   3092c:	01000804 	movi	r4,32
   30930:	2089c83a 	sub	r4,r4,r2
   30934:	8924983a 	sll	r18,r17,r4
   30938:	608cd83a 	srl	r6,r12,r2
   3093c:	6108983a 	sll	r4,r12,r4
   30940:	8884d83a 	srl	r2,r17,r2
   30944:	91a4b03a 	or	r18,r18,r6
   30948:	2008c03a 	cmpne	r4,r4,zero
   3094c:	9124b03a 	or	r18,r18,r4
   30950:	288bc83a 	sub	r5,r5,r2
   30954:	003ee106 	br	304dc <__subdf3+0x28c>
   30958:	0029883a 	mov	r20,zero
   3095c:	0007883a 	mov	r3,zero
   30960:	0009883a 	mov	r4,zero
   30964:	003ea506 	br	303fc <__subdf3+0x1ac>
   30968:	40bff804 	addi	r2,r8,-32
   3096c:	40c00820 	cmpeqi	r3,r8,32
   30970:	2884d83a 	srl	r2,r5,r2
   30974:	1800041e 	bne	r3,zero,30988 <__subdf3+0x738>
   30978:	00c01004 	movi	r3,64
   3097c:	1a07c83a 	sub	r3,r3,r8
   30980:	28c6983a 	sll	r3,r5,r3
   30984:	68dab03a 	or	r13,r13,r3
   30988:	6824c03a 	cmpne	r18,r13,zero
   3098c:	90a4b03a 	or	r18,r18,r2
   30990:	003efa06 	br	3057c <__subdf3+0x32c>
   30994:	8806977a 	slli	r3,r17,29
   30998:	00880034 	movhi	r2,8192
   3099c:	10bfffc4 	addi	r2,r2,-1
   309a0:	2084703a 	and	r2,r4,r2
   309a4:	880ad0fa 	srli	r5,r17,3
   309a8:	10c4b03a 	or	r2,r2,r3
   309ac:	003f6306 	br	3073c <__subdf3+0x4ec>
   309b0:	04800044 	movi	r18,1
   309b4:	003f3d06 	br	306ac <__subdf3+0x45c>
   309b8:	113ff804 	addi	r4,r2,-32
   309bc:	11800820 	cmpeqi	r6,r2,32
   309c0:	8908d83a 	srl	r4,r17,r4
   309c4:	3000041e 	bne	r6,zero,309d8 <__subdf3+0x788>
   309c8:	01801004 	movi	r6,64
   309cc:	3085c83a 	sub	r2,r6,r2
   309d0:	8884983a 	sll	r2,r17,r2
   309d4:	6098b03a 	or	r12,r12,r2
   309d8:	6024c03a 	cmpne	r18,r12,zero
   309dc:	9124b03a 	or	r18,r18,r4
   309e0:	003ebe06 	br	304dc <__subdf3+0x28c>
   309e4:	10005026 	beq	r2,zero,30b28 <__subdf3+0x8d8>
   309e8:	2b5ab03a 	or	r13,r5,r13
   309ec:	683f5926 	beq	r13,zero,30754 <__subdf3+0x504>
   309f0:	880ed0fa 	srli	r7,r17,3
   309f4:	00c80034 	movhi	r3,8192
   309f8:	8822977a 	slli	r17,r17,29
   309fc:	18ffffc4 	addi	r3,r3,-1
   30a00:	20c4703a 	and	r2,r4,r3
   30a04:	3900022c 	andhi	r4,r7,8
   30a08:	1444b03a 	or	r2,r2,r17
   30a0c:	20000826 	beq	r4,zero,30a30 <__subdf3+0x7e0>
   30a10:	2808d0fa 	srli	r4,r5,3
   30a14:	2200022c 	andhi	r8,r4,8
   30a18:	4000051e 	bne	r8,zero,30a30 <__subdf3+0x7e0>
   30a1c:	2804977a 	slli	r2,r5,29
   30a20:	30c6703a 	and	r3,r6,r3
   30a24:	5029883a 	mov	r20,r10
   30a28:	1884b03a 	or	r2,r3,r2
   30a2c:	200f883a 	mov	r7,r4
   30a30:	380b883a 	mov	r5,r7
   30a34:	003ec406 	br	30548 <__subdf3+0x2f8>
   30a38:	6b25c83a 	sub	r18,r13,r12
   30a3c:	2c4bc83a 	sub	r5,r5,r17
   30a40:	6c9b803a 	cmpltu	r13,r13,r18
   30a44:	2b63c83a 	sub	r17,r5,r13
   30a48:	4829883a 	mov	r20,r9
   30a4c:	5027883a 	mov	r19,r10
   30a50:	04000044 	movi	r16,1
   30a54:	003e3606 	br	30330 <__subdf3+0xe0>
   30a58:	103fbf26 	beq	r2,zero,30958 <__subdf3+0x708>
   30a5c:	2806977a 	slli	r3,r5,29
   30a60:	00880034 	movhi	r2,8192
   30a64:	10bfffc4 	addi	r2,r2,-1
   30a68:	3084703a 	and	r2,r6,r2
   30a6c:	280ad0fa 	srli	r5,r5,3
   30a70:	5029883a 	mov	r20,r10
   30a74:	10c4b03a 	or	r2,r2,r3
   30a78:	003f3006 	br	3073c <__subdf3+0x4ec>
   30a7c:	04000084 	movi	r16,2
   30a80:	003ec606 	br	3059c <__subdf3+0x34c>
   30a84:	8804977a 	slli	r2,r17,29
   30a88:	00c80034 	movhi	r3,8192
   30a8c:	18ffffc4 	addi	r3,r3,-1
   30a90:	20c8703a 	and	r4,r4,r3
   30a94:	880ad0fa 	srli	r5,r17,3
   30a98:	1104b03a 	or	r2,r2,r4
   30a9c:	003eaa06 	br	30548 <__subdf3+0x2f8>
   30aa0:	6819883a 	mov	r12,r13
   30aa4:	2823883a 	mov	r17,r5
   30aa8:	003f3406 	br	3077c <__subdf3+0x52c>
   30aac:	2806977a 	slli	r3,r5,29
   30ab0:	00880034 	movhi	r2,8192
   30ab4:	10bfffc4 	addi	r2,r2,-1
   30ab8:	3084703a 	and	r2,r6,r2
   30abc:	280ad0fa 	srli	r5,r5,3
   30ac0:	10c4b03a 	or	r2,r2,r3
   30ac4:	003f1d06 	br	3073c <__subdf3+0x4ec>
   30ac8:	2806977a 	slli	r3,r5,29
   30acc:	00880034 	movhi	r2,8192
   30ad0:	10bfffc4 	addi	r2,r2,-1
   30ad4:	3084703a 	and	r2,r6,r2
   30ad8:	280ad0fa 	srli	r5,r5,3
   30adc:	10c4b03a 	or	r2,r2,r3
   30ae0:	4829883a 	mov	r20,r9
   30ae4:	003e9806 	br	30548 <__subdf3+0x2f8>
   30ae8:	113ff804 	addi	r4,r2,-32
   30aec:	11800820 	cmpeqi	r6,r2,32
   30af0:	8908d83a 	srl	r4,r17,r4
   30af4:	3000041e 	bne	r6,zero,30b08 <__subdf3+0x8b8>
   30af8:	01801004 	movi	r6,64
   30afc:	3085c83a 	sub	r2,r6,r2
   30b00:	8884983a 	sll	r2,r17,r2
   30b04:	6098b03a 	or	r12,r12,r2
   30b08:	6024c03a 	cmpne	r18,r12,zero
   30b0c:	9124b03a 	or	r18,r18,r4
   30b10:	003ee606 	br	306ac <__subdf3+0x45c>
   30b14:	6365883a 	add	r18,r12,r13
   30b18:	894b883a 	add	r5,r17,r5
   30b1c:	935b803a 	cmpltu	r13,r18,r13
   30b20:	2b63883a 	add	r17,r5,r13
   30b24:	003eaf06 	br	305e4 <__subdf3+0x394>
   30b28:	2804977a 	slli	r2,r5,29
   30b2c:	00c80034 	movhi	r3,8192
   30b30:	18ffffc4 	addi	r3,r3,-1
   30b34:	30cc703a 	and	r6,r6,r3
   30b38:	280ad0fa 	srli	r5,r5,3
   30b3c:	3084b03a 	or	r2,r6,r2
   30b40:	003e8106 	br	30548 <__subdf3+0x2f8>
   30b44:	90c4b03a 	or	r2,r18,r3
   30b48:	103f8326 	beq	r2,zero,30958 <__subdf3+0x708>
   30b4c:	1823883a 	mov	r17,r3
   30b50:	003f2306 	br	307e0 <__subdf3+0x590>
   30b54:	01400434 	movhi	r5,16
   30b58:	297fffc4 	addi	r5,r5,-1
   30b5c:	00bfffc4 	movi	r2,-1
   30b60:	0029883a 	mov	r20,zero
   30b64:	003e7a06 	br	30550 <__subdf3+0x300>
   30b68:	2806977a 	slli	r3,r5,29
   30b6c:	00880034 	movhi	r2,8192
   30b70:	10bfffc4 	addi	r2,r2,-1
   30b74:	3084703a 	and	r2,r6,r2
   30b78:	280ad0fa 	srli	r5,r5,3
   30b7c:	10c4b03a 	or	r2,r2,r3
   30b80:	003e7106 	br	30548 <__subdf3+0x2f8>
   30b84:	01000804 	movi	r4,32
   30b88:	20c9c83a 	sub	r4,r4,r3
   30b8c:	000b883a 	mov	r5,zero
   30b90:	003dfd06 	br	30388 <__subdf3+0x138>
   30b94:	0005883a 	mov	r2,zero
   30b98:	00c1ffc4 	movi	r3,2047
   30b9c:	0009883a 	mov	r4,zero
   30ba0:	003e1606 	br	303fc <__subdf3+0x1ac>
   30ba4:	403e9526 	beq	r8,zero,305fc <__subdf3+0x3ac>
   30ba8:	1c05c83a 	sub	r2,r3,r16
   30bac:	803f581e 	bne	r16,zero,30910 <__subdf3+0x6c0>
   30bb0:	1021883a 	mov	r16,r2
   30bb4:	003e3e06 	br	304b0 <__subdf3+0x260>
   30bb8:	5027883a 	mov	r19,r10
   30bbc:	3829883a 	mov	r20,r7
   30bc0:	04800044 	movi	r18,1
   30bc4:	003e4506 	br	304dc <__subdf3+0x28c>
   30bc8:	403ef326 	beq	r8,zero,30798 <__subdf3+0x548>
   30bcc:	1c05c83a 	sub	r2,r3,r16
   30bd0:	8000021e 	bne	r16,zero,30bdc <__subdf3+0x98c>
   30bd4:	1021883a 	mov	r16,r2
   30bd8:	003ea006 	br	3065c <__subdf3+0x40c>
   30bdc:	11000e48 	cmpgei	r4,r2,57
   30be0:	203f731e 	bne	r4,zero,309b0 <__subdf3+0x760>
   30be4:	8c402034 	orhi	r17,r17,128
   30be8:	003ea406 	br	3067c <__subdf3+0x42c>

00030bec <__unorddf2>:
   30bec:	2804d53a 	srli	r2,r5,20
   30bf0:	3806d53a 	srli	r3,r7,20
   30bf4:	02000434 	movhi	r8,16
   30bf8:	1081ffcc 	andi	r2,r2,2047
   30bfc:	423fffc4 	addi	r8,r8,-1
   30c00:	1081ffd8 	cmpnei	r2,r2,2047
   30c04:	2a0a703a 	and	r5,r5,r8
   30c08:	3a0e703a 	and	r7,r7,r8
   30c0c:	18c1ffcc 	andi	r3,r3,2047
   30c10:	10000426 	beq	r2,zero,30c24 <__unorddf2+0x38>
   30c14:	18c1ffd8 	cmpnei	r3,r3,2047
   30c18:	18000626 	beq	r3,zero,30c34 <__unorddf2+0x48>
   30c1c:	0005883a 	mov	r2,zero
   30c20:	f800283a 	ret
   30c24:	290ab03a 	or	r5,r5,r4
   30c28:	283ffa26 	beq	r5,zero,30c14 <__unorddf2+0x28>
   30c2c:	00800044 	movi	r2,1
   30c30:	f800283a 	ret
   30c34:	398eb03a 	or	r7,r7,r6
   30c38:	3804c03a 	cmpne	r2,r7,zero
   30c3c:	f800283a 	ret

00030c40 <__fixdfsi>:
   30c40:	2804d53a 	srli	r2,r5,20
   30c44:	00c00434 	movhi	r3,16
   30c48:	18ffffc4 	addi	r3,r3,-1
   30c4c:	1081ffcc 	andi	r2,r2,2047
   30c50:	1180ffd0 	cmplti	r6,r2,1023
   30c54:	280ed7fa 	srli	r7,r5,31
   30c58:	28ca703a 	and	r5,r5,r3
   30c5c:	3000061e 	bne	r6,zero,30c78 <__fixdfsi+0x38>
   30c60:	10c10790 	cmplti	r3,r2,1054
   30c64:	1800061e 	bne	r3,zero,30c80 <__fixdfsi+0x40>
   30c68:	00a00034 	movhi	r2,32768
   30c6c:	10bfffc4 	addi	r2,r2,-1
   30c70:	3885883a 	add	r2,r7,r2
   30c74:	f800283a 	ret
   30c78:	0005883a 	mov	r2,zero
   30c7c:	f800283a 	ret
   30c80:	00c10cc4 	movi	r3,1075
   30c84:	1887c83a 	sub	r3,r3,r2
   30c88:	19800808 	cmpgei	r6,r3,32
   30c8c:	29400434 	orhi	r5,r5,16
   30c90:	3000071e 	bne	r6,zero,30cb0 <__fixdfsi+0x70>
   30c94:	10befb44 	addi	r2,r2,-1043
   30c98:	2884983a 	sll	r2,r5,r2
   30c9c:	20c8d83a 	srl	r4,r4,r3
   30ca0:	1104b03a 	or	r2,r2,r4
   30ca4:	383ff526 	beq	r7,zero,30c7c <__fixdfsi+0x3c>
   30ca8:	0085c83a 	sub	r2,zero,r2
   30cac:	f800283a 	ret
   30cb0:	00c104c4 	movi	r3,1043
   30cb4:	1885c83a 	sub	r2,r3,r2
   30cb8:	2884d83a 	srl	r2,r5,r2
   30cbc:	003ff906 	br	30ca4 <__fixdfsi+0x64>

00030cc0 <__floatsidf>:
   30cc0:	defffd04 	addi	sp,sp,-12
   30cc4:	dfc00215 	stw	ra,8(sp)
   30cc8:	dc400115 	stw	r17,4(sp)
   30ccc:	dc000015 	stw	r16,0(sp)
   30cd0:	20001326 	beq	r4,zero,30d20 <__floatsidf+0x60>
   30cd4:	2022d7fa 	srli	r17,r4,31
   30cd8:	2021883a 	mov	r16,r4
   30cdc:	20002416 	blt	r4,zero,30d70 <__floatsidf+0xb0>
   30ce0:	8009883a 	mov	r4,r16
   30ce4:	0030e080 	call	30e08 <__clzsi2>
   30ce8:	01010784 	movi	r4,1054
   30cec:	2089c83a 	sub	r4,r4,r2
   30cf0:	10c002c8 	cmpgei	r3,r2,11
   30cf4:	2101ffcc 	andi	r4,r4,2047
   30cf8:	1800161e 	bne	r3,zero,30d54 <__floatsidf+0x94>
   30cfc:	014002c4 	movi	r5,11
   30d00:	288bc83a 	sub	r5,r5,r2
   30d04:	814ad83a 	srl	r5,r16,r5
   30d08:	00c00434 	movhi	r3,16
   30d0c:	10800544 	addi	r2,r2,21
   30d10:	18ffffc4 	addi	r3,r3,-1
   30d14:	8084983a 	sll	r2,r16,r2
   30d18:	28ca703a 	and	r5,r5,r3
   30d1c:	00000406 	br	30d30 <__floatsidf+0x70>
   30d20:	0023883a 	mov	r17,zero
   30d24:	0009883a 	mov	r4,zero
   30d28:	000b883a 	mov	r5,zero
   30d2c:	0005883a 	mov	r2,zero
   30d30:	2008953a 	slli	r4,r4,20
   30d34:	880697fa 	slli	r3,r17,31
   30d38:	2148b03a 	or	r4,r4,r5
   30d3c:	20c6b03a 	or	r3,r4,r3
   30d40:	dfc00217 	ldw	ra,8(sp)
   30d44:	dc400117 	ldw	r17,4(sp)
   30d48:	dc000017 	ldw	r16,0(sp)
   30d4c:	dec00304 	addi	sp,sp,12
   30d50:	f800283a 	ret
   30d54:	10bffd44 	addi	r2,r2,-11
   30d58:	808a983a 	sll	r5,r16,r2
   30d5c:	00800434 	movhi	r2,16
   30d60:	10bfffc4 	addi	r2,r2,-1
   30d64:	288a703a 	and	r5,r5,r2
   30d68:	0005883a 	mov	r2,zero
   30d6c:	003ff006 	br	30d30 <__floatsidf+0x70>
   30d70:	0121c83a 	sub	r16,zero,r4
   30d74:	003fda06 	br	30ce0 <__floatsidf+0x20>

00030d78 <__floatunsidf>:
   30d78:	defffe04 	addi	sp,sp,-8
   30d7c:	dc000015 	stw	r16,0(sp)
   30d80:	dfc00115 	stw	ra,4(sp)
   30d84:	2021883a 	mov	r16,r4
   30d88:	20000f26 	beq	r4,zero,30dc8 <__floatunsidf+0x50>
   30d8c:	0030e080 	call	30e08 <__clzsi2>
   30d90:	00c10784 	movi	r3,1054
   30d94:	1887c83a 	sub	r3,r3,r2
   30d98:	110002c8 	cmpgei	r4,r2,11
   30d9c:	18c1ffcc 	andi	r3,r3,2047
   30da0:	2000121e 	bne	r4,zero,30dec <__floatunsidf+0x74>
   30da4:	010002c4 	movi	r4,11
   30da8:	2089c83a 	sub	r4,r4,r2
   30dac:	8108d83a 	srl	r4,r16,r4
   30db0:	01400434 	movhi	r5,16
   30db4:	10800544 	addi	r2,r2,21
   30db8:	297fffc4 	addi	r5,r5,-1
   30dbc:	80a0983a 	sll	r16,r16,r2
   30dc0:	214a703a 	and	r5,r4,r5
   30dc4:	00000206 	br	30dd0 <__floatunsidf+0x58>
   30dc8:	0007883a 	mov	r3,zero
   30dcc:	000b883a 	mov	r5,zero
   30dd0:	1806953a 	slli	r3,r3,20
   30dd4:	8005883a 	mov	r2,r16
   30dd8:	1946b03a 	or	r3,r3,r5
   30ddc:	dfc00117 	ldw	ra,4(sp)
   30de0:	dc000017 	ldw	r16,0(sp)
   30de4:	dec00204 	addi	sp,sp,8
   30de8:	f800283a 	ret
   30dec:	117ffd44 	addi	r5,r2,-11
   30df0:	814a983a 	sll	r5,r16,r5
   30df4:	00800434 	movhi	r2,16
   30df8:	10bfffc4 	addi	r2,r2,-1
   30dfc:	288a703a 	and	r5,r5,r2
   30e00:	0021883a 	mov	r16,zero
   30e04:	003ff206 	br	30dd0 <__floatunsidf+0x58>

00030e08 <__clzsi2>:
   30e08:	00bfffd4 	movui	r2,65535
   30e0c:	11000a36 	bltu	r2,r4,30e38 <__clzsi2+0x30>
   30e10:	20c04028 	cmpgeui	r3,r4,256
   30e14:	180690fa 	slli	r3,r3,3
   30e18:	00800804 	movi	r2,32
   30e1c:	10c5c83a 	sub	r2,r2,r3
   30e20:	20c8d83a 	srl	r4,r4,r3
   30e24:	00c000f4 	movhi	r3,3
   30e28:	20c7883a 	add	r3,r4,r3
   30e2c:	18d37b03 	ldbu	r3,19948(r3)
   30e30:	10c5c83a 	sub	r2,r2,r3
   30e34:	f800283a 	ret
   30e38:	00804034 	movhi	r2,256
   30e3c:	2080032e 	bgeu	r4,r2,30e4c <__clzsi2+0x44>
   30e40:	00800404 	movi	r2,16
   30e44:	00c00404 	movi	r3,16
   30e48:	003ff506 	br	30e20 <__clzsi2+0x18>
   30e4c:	00800204 	movi	r2,8
   30e50:	00c00604 	movi	r3,24
   30e54:	003ff206 	br	30e20 <__clzsi2+0x18>

00030e58 <alt_get_errno>:
#undef errno

extern int errno;

static ALT_INLINE int* alt_get_errno(void)
{
   30e58:	defffe04 	addi	sp,sp,-8
   30e5c:	dfc00115 	stw	ra,4(sp)
   30e60:	df000015 	stw	fp,0(sp)
   30e64:	d839883a 	mov	fp,sp
  return ((alt_errno) ? alt_errno() : &errno);
   30e68:	d0a00c17 	ldw	r2,-32720(gp)
   30e6c:	10000326 	beq	r2,zero,30e7c <alt_get_errno+0x24>
   30e70:	d0a00c17 	ldw	r2,-32720(gp)
   30e74:	103ee83a 	callr	r2
   30e78:	00000106 	br	30e80 <alt_get_errno+0x28>
   30e7c:	d0a92504 	addi	r2,gp,-23404
}
   30e80:	e037883a 	mov	sp,fp
   30e84:	dfc00117 	ldw	ra,4(sp)
   30e88:	df000017 	ldw	fp,0(sp)
   30e8c:	dec00204 	addi	sp,sp,8
   30e90:	f800283a 	ret

00030e94 <close>:
 *
 * ALT_CLOSE is mapped onto the close() system call in alt_syscall.h
 */
 
int ALT_CLOSE (int fildes)
{
   30e94:	defffb04 	addi	sp,sp,-20
   30e98:	dfc00415 	stw	ra,16(sp)
   30e9c:	df000315 	stw	fp,12(sp)
   30ea0:	df000304 	addi	fp,sp,12
   30ea4:	e13ffd15 	stw	r4,-12(fp)
   * A common error case is that when the file descriptor was created, the call
   * to open() failed resulting in a negative file descriptor. This is trapped
   * below so that we don't try and process an invalid file descriptor.
   */

  fd = (fildes < 0) ? NULL : &alt_fd_list[fildes];
   30ea8:	e0bffd17 	ldw	r2,-12(fp)
   30eac:	10000616 	blt	r2,zero,30ec8 <close+0x34>
   30eb0:	e0bffd17 	ldw	r2,-12(fp)
   30eb4:	10c00324 	muli	r3,r2,12
   30eb8:	008000f4 	movhi	r2,3
   30ebc:	10982304 	addi	r2,r2,24716
   30ec0:	1885883a 	add	r2,r3,r2
   30ec4:	00000106 	br	30ecc <close+0x38>
   30ec8:	0005883a 	mov	r2,zero
   30ecc:	e0bfff15 	stw	r2,-4(fp)

  if (fd)
   30ed0:	e0bfff17 	ldw	r2,-4(fp)
   30ed4:	10001926 	beq	r2,zero,30f3c <close+0xa8>
    /*
     * If the associated file system/device has a close function, call it so 
     * that any necessary cleanup code can run.
     */

    rval = (fd->dev->close) ? fd->dev->close(fd) : 0;
   30ed8:	e0bfff17 	ldw	r2,-4(fp)
   30edc:	10800017 	ldw	r2,0(r2)
   30ee0:	10800417 	ldw	r2,16(r2)
   30ee4:	10000626 	beq	r2,zero,30f00 <close+0x6c>
   30ee8:	e0bfff17 	ldw	r2,-4(fp)
   30eec:	10800017 	ldw	r2,0(r2)
   30ef0:	10800417 	ldw	r2,16(r2)
   30ef4:	e13fff17 	ldw	r4,-4(fp)
   30ef8:	103ee83a 	callr	r2
   30efc:	00000106 	br	30f04 <close+0x70>
   30f00:	0005883a 	mov	r2,zero
   30f04:	e0bffe15 	stw	r2,-8(fp)

    /* Free the file descriptor structure and return. */

    alt_release_fd (fildes);
   30f08:	e13ffd17 	ldw	r4,-12(fp)
   30f0c:	0031a840 	call	31a84 <alt_release_fd>
    if (rval < 0)
   30f10:	e0bffe17 	ldw	r2,-8(fp)
   30f14:	1000070e 	bge	r2,zero,30f34 <close+0xa0>
    {
      ALT_ERRNO = -rval;
   30f18:	0030e580 	call	30e58 <alt_get_errno>
   30f1c:	1007883a 	mov	r3,r2
   30f20:	e0bffe17 	ldw	r2,-8(fp)
   30f24:	0085c83a 	sub	r2,zero,r2
   30f28:	18800015 	stw	r2,0(r3)
      return -1;
   30f2c:	00bfffc4 	movi	r2,-1
   30f30:	00000706 	br	30f50 <close+0xbc>
    }
    return 0;
   30f34:	0005883a 	mov	r2,zero
   30f38:	00000506 	br	30f50 <close+0xbc>
  }
  else
  {
    ALT_ERRNO = EBADFD;
   30f3c:	0030e580 	call	30e58 <alt_get_errno>
   30f40:	1007883a 	mov	r3,r2
   30f44:	00801444 	movi	r2,81
   30f48:	18800015 	stw	r2,0(r3)
    return -1;
   30f4c:	00bfffc4 	movi	r2,-1
  }
}
   30f50:	e037883a 	mov	sp,fp
   30f54:	dfc00117 	ldw	ra,4(sp)
   30f58:	df000017 	ldw	fp,0(sp)
   30f5c:	dec00204 	addi	sp,sp,8
   30f60:	f800283a 	ret

00030f64 <alt_dev_null_write>:
 * by the alt_dev_null device. It simple discards all data passed to it, and
 * indicates that the data has been successfully transmitted.
 */

static int alt_dev_null_write (alt_fd* fd, const char* ptr, int len)
{
   30f64:	defffc04 	addi	sp,sp,-16
   30f68:	df000315 	stw	fp,12(sp)
   30f6c:	df000304 	addi	fp,sp,12
   30f70:	e13fff15 	stw	r4,-4(fp)
   30f74:	e17ffe15 	stw	r5,-8(fp)
   30f78:	e1bffd15 	stw	r6,-12(fp)
  return len;
   30f7c:	e0bffd17 	ldw	r2,-12(fp)
}
   30f80:	e037883a 	mov	sp,fp
   30f84:	df000017 	ldw	fp,0(sp)
   30f88:	dec00104 	addi	sp,sp,4
   30f8c:	f800283a 	ret

00030f90 <_exit>:
 *
 * ALT_EXIT is mapped onto the _exit() system call in alt_syscall.h
 */

void ALT_EXIT (int exit_code)
{
   30f90:	defffd04 	addi	sp,sp,-12
   30f94:	df000215 	stw	fp,8(sp)
   30f98:	df000204 	addi	fp,sp,8
   30f9c:	e13ffe15 	stw	r4,-8(fp)
  ALT_LOG_PRINT_BOOT("[alt_exit.c] Entering _exit() function.\r\n");
  ALT_LOG_PRINT_BOOT("[alt_exit.c] Exit code from main was %d.\r\n",exit_code);
  /* Stop all other threads */

  ALT_LOG_PRINT_BOOT("[alt_exit.c] Calling ALT_OS_STOP().\r\n");
  ALT_OS_STOP();
   30fa0:	0001883a 	nop
   30fa4:	e0bffe17 	ldw	r2,-8(fp)
   30fa8:	e0bfff15 	stw	r2,-4(fp)
/*
 * Routine called on exit.
 */
static ALT_INLINE ALT_ALWAYS_INLINE void alt_sim_halt(int exit_code)
{
  register int r2 asm ("r2") = exit_code;
   30fac:	e0bfff17 	ldw	r2,-4(fp)
  __asm__ volatile ("\n0:\n\taddi %0,%0, -1\n\tbgt %0,zero,0b" : : "r" (ALT_CPU_FREQ/100) ); /* Delay for >30ms */

  __asm__ volatile ("break 2" : : "r"(r2), "r"(r3) ALT_GMON_DATA );

#else /* !DEBUG_STUB */
  if (r2) {
   30fb0:	10000226 	beq	r2,zero,30fbc <_exit+0x2c>
    ALT_SIM_FAIL();
   30fb4:	002af070 	cmpltui	zero,zero,43969
  } else {
    ALT_SIM_PASS();
  }
#endif /* DEBUG_STUB */
}
   30fb8:	00000106 	br	30fc0 <_exit+0x30>
    ALT_SIM_PASS();
   30fbc:	002af0b0 	cmpltui	zero,zero,43970
}
   30fc0:	0001883a 	nop
  ALT_SIM_HALT(exit_code);

  /* spin forever, since there's no where to go back to */

  ALT_LOG_PRINT_BOOT("[alt_exit.c] Spinning forever.\r\n");
  while (1);
   30fc4:	0001883a 	nop
   30fc8:	003ffe06 	br	30fc4 <_exit+0x34>

00030fcc <alt_get_errno>:
{
   30fcc:	defffe04 	addi	sp,sp,-8
   30fd0:	dfc00115 	stw	ra,4(sp)
   30fd4:	df000015 	stw	fp,0(sp)
   30fd8:	d839883a 	mov	fp,sp
  return ((alt_errno) ? alt_errno() : &errno);
   30fdc:	d0a00c17 	ldw	r2,-32720(gp)
   30fe0:	10000326 	beq	r2,zero,30ff0 <alt_get_errno+0x24>
   30fe4:	d0a00c17 	ldw	r2,-32720(gp)
   30fe8:	103ee83a 	callr	r2
   30fec:	00000106 	br	30ff4 <alt_get_errno+0x28>
   30ff0:	d0a92504 	addi	r2,gp,-23404
}
   30ff4:	e037883a 	mov	sp,fp
   30ff8:	dfc00117 	ldw	ra,4(sp)
   30ffc:	df000017 	ldw	fp,0(sp)
   31000:	dec00204 	addi	sp,sp,8
   31004:	f800283a 	ret

00031008 <fcntl>:
 *
 * ALT_FCNTL is mapped onto the fcntl() system call in alt_syscall.h
 */
 
int ALT_FCNTL (int file, int cmd, ...)
{ 
   31008:	defff704 	addi	sp,sp,-36
   3100c:	dfc00615 	stw	ra,24(sp)
   31010:	df000515 	stw	fp,20(sp)
   31014:	df000504 	addi	fp,sp,20
   31018:	e13ffc15 	stw	r4,-16(fp)
   3101c:	e17ffb15 	stw	r5,-20(fp)
   31020:	e1800215 	stw	r6,8(fp)
   31024:	e1c00315 	stw	r7,12(fp)
   * A common error case is that when the file descriptor was created, the call
   * to open() failed resulting in a negative file descriptor. This is trapped
   * below so that we don't try and process an invalid file descriptor.
   */

  fd = (file < 0) ? NULL : &alt_fd_list[file];
   31028:	e0bffc17 	ldw	r2,-16(fp)
   3102c:	10000616 	blt	r2,zero,31048 <fcntl+0x40>
   31030:	e0bffc17 	ldw	r2,-16(fp)
   31034:	10c00324 	muli	r3,r2,12
   31038:	008000f4 	movhi	r2,3
   3103c:	10982304 	addi	r2,r2,24716
   31040:	1885883a 	add	r2,r3,r2
   31044:	00000106 	br	3104c <fcntl+0x44>
   31048:	0005883a 	mov	r2,zero
   3104c:	e0bfff15 	stw	r2,-4(fp)
  
  if (fd)
   31050:	e0bfff17 	ldw	r2,-4(fp)
   31054:	10002b26 	beq	r2,zero,31104 <fcntl+0xfc>
  {
    switch (cmd)
   31058:	e0bffb17 	ldw	r2,-20(fp)
   3105c:	108000e0 	cmpeqi	r2,r2,3
   31060:	1000041e 	bne	r2,zero,31074 <fcntl+0x6c>
   31064:	e0bffb17 	ldw	r2,-20(fp)
   31068:	10800120 	cmpeqi	r2,r2,4
   3106c:	1000071e 	bne	r2,zero,3108c <fcntl+0x84>
   31070:	00001e06 	br	310ec <fcntl+0xe4>
    {
    case F_GETFL:
      return fd->fd_flags & ~((alt_u32) ALT_FD_FLAGS_MASK);
   31074:	e0bfff17 	ldw	r2,-4(fp)
   31078:	10c00217 	ldw	r3,8(r2)
   3107c:	00900034 	movhi	r2,16384
   31080:	10bfffc4 	addi	r2,r2,-1
   31084:	1884703a 	and	r2,r3,r2
   31088:	00002306 	br	31118 <fcntl+0x110>
    case F_SETFL:
      va_start(argp, cmd);
   3108c:	e0800204 	addi	r2,fp,8
   31090:	e0bffd15 	stw	r2,-12(fp)
      flags = va_arg(argp, long);
   31094:	e0bffd17 	ldw	r2,-12(fp)
   31098:	10c00104 	addi	r3,r2,4
   3109c:	e0fffd15 	stw	r3,-12(fp)
   310a0:	10800017 	ldw	r2,0(r2)
   310a4:	e0bffe15 	stw	r2,-8(fp)
      fd->fd_flags &= ~ALT_FCNTL_FLAGS_MASK;
   310a8:	e0bfff17 	ldw	r2,-4(fp)
   310ac:	10c00217 	ldw	r3,8(r2)
   310b0:	00affdc4 	movi	r2,-16393
   310b4:	1886703a 	and	r3,r3,r2
   310b8:	e0bfff17 	ldw	r2,-4(fp)
   310bc:	10c00215 	stw	r3,8(r2)
      fd->fd_flags |= (flags & ALT_FCNTL_FLAGS_MASK);
   310c0:	e0bfff17 	ldw	r2,-4(fp)
   310c4:	10800217 	ldw	r2,8(r2)
   310c8:	1007883a 	mov	r3,r2
   310cc:	e0bffe17 	ldw	r2,-8(fp)
   310d0:	1090020c 	andi	r2,r2,16392
   310d4:	1884b03a 	or	r2,r3,r2
   310d8:	1007883a 	mov	r3,r2
   310dc:	e0bfff17 	ldw	r2,-4(fp)
   310e0:	10c00215 	stw	r3,8(r2)
      va_end(argp);
      return 0;
   310e4:	0005883a 	mov	r2,zero
   310e8:	00000b06 	br	31118 <fcntl+0x110>
    default:
      ALT_ERRNO = EINVAL;
   310ec:	0030fcc0 	call	30fcc <alt_get_errno>
   310f0:	1007883a 	mov	r3,r2
   310f4:	00800584 	movi	r2,22
   310f8:	18800015 	stw	r2,0(r3)
      return -1;
   310fc:	00bfffc4 	movi	r2,-1
   31100:	00000506 	br	31118 <fcntl+0x110>
    }
  }

  ALT_ERRNO = EBADFD;
   31104:	0030fcc0 	call	30fcc <alt_get_errno>
   31108:	1007883a 	mov	r3,r2
   3110c:	00801444 	movi	r2,81
   31110:	18800015 	stw	r2,0(r3)
  return -1;
   31114:	00bfffc4 	movi	r2,-1
}
   31118:	e037883a 	mov	sp,fp
   3111c:	dfc00117 	ldw	ra,4(sp)
   31120:	df000017 	ldw	fp,0(sp)
   31124:	dec00404 	addi	sp,sp,16
   31128:	f800283a 	ret

0003112c <alt_get_errno>:
{
   3112c:	defffe04 	addi	sp,sp,-8
   31130:	dfc00115 	stw	ra,4(sp)
   31134:	df000015 	stw	fp,0(sp)
   31138:	d839883a 	mov	fp,sp
  return ((alt_errno) ? alt_errno() : &errno);
   3113c:	d0a00c17 	ldw	r2,-32720(gp)
   31140:	10000326 	beq	r2,zero,31150 <alt_get_errno+0x24>
   31144:	d0a00c17 	ldw	r2,-32720(gp)
   31148:	103ee83a 	callr	r2
   3114c:	00000106 	br	31154 <alt_get_errno+0x28>
   31150:	d0a92504 	addi	r2,gp,-23404
}
   31154:	e037883a 	mov	sp,fp
   31158:	dfc00117 	ldw	ra,4(sp)
   3115c:	df000017 	ldw	fp,0(sp)
   31160:	dec00204 	addi	sp,sp,8
   31164:	f800283a 	ret

00031168 <fstat>:
}

#else /* !ALT_USE_DIRECT_DRIVERS */

int ALT_FSTAT (int file, struct stat *st)
{
   31168:	defffb04 	addi	sp,sp,-20
   3116c:	dfc00415 	stw	ra,16(sp)
   31170:	df000315 	stw	fp,12(sp)
   31174:	df000304 	addi	fp,sp,12
   31178:	e13ffe15 	stw	r4,-8(fp)
   3117c:	e17ffd15 	stw	r5,-12(fp)
   * A common error case is that when the file descriptor was created, the call
   * to open() failed resulting in a negative file descriptor. This is trapped
   * below so that we don't try and process an invalid file descriptor.
   */

  fd = (file < 0) ? NULL : &alt_fd_list[file];
   31180:	e0bffe17 	ldw	r2,-8(fp)
   31184:	10000616 	blt	r2,zero,311a0 <fstat+0x38>
   31188:	e0bffe17 	ldw	r2,-8(fp)
   3118c:	10c00324 	muli	r3,r2,12
   31190:	008000f4 	movhi	r2,3
   31194:	10982304 	addi	r2,r2,24716
   31198:	1885883a 	add	r2,r3,r2
   3119c:	00000106 	br	311a4 <fstat+0x3c>
   311a0:	0005883a 	mov	r2,zero
   311a4:	e0bfff15 	stw	r2,-4(fp)
  
  if (fd)
   311a8:	e0bfff17 	ldw	r2,-4(fp)
   311ac:	10001026 	beq	r2,zero,311f0 <fstat+0x88>
  {
    /* Call the drivers fstat() function to fill out the "st" structure. */

    if (fd->dev->fstat)
   311b0:	e0bfff17 	ldw	r2,-4(fp)
   311b4:	10800017 	ldw	r2,0(r2)
   311b8:	10800817 	ldw	r2,32(r2)
   311bc:	10000726 	beq	r2,zero,311dc <fstat+0x74>
    {
      return fd->dev->fstat(fd, st);
   311c0:	e0bfff17 	ldw	r2,-4(fp)
   311c4:	10800017 	ldw	r2,0(r2)
   311c8:	10800817 	ldw	r2,32(r2)
   311cc:	e17ffd17 	ldw	r5,-12(fp)
   311d0:	e13fff17 	ldw	r4,-4(fp)
   311d4:	103ee83a 	callr	r2
   311d8:	00000a06 	br	31204 <fstat+0x9c>
     * device.
     */
 
    else
    {
      st->st_mode = _IFCHR;
   311dc:	e0bffd17 	ldw	r2,-12(fp)
   311e0:	00c80004 	movi	r3,8192
   311e4:	10c00115 	stw	r3,4(r2)
      return 0;
   311e8:	0005883a 	mov	r2,zero
   311ec:	00000506 	br	31204 <fstat+0x9c>
    }
  }
  else
  {
    ALT_ERRNO = EBADFD;
   311f0:	003112c0 	call	3112c <alt_get_errno>
   311f4:	1007883a 	mov	r3,r2
   311f8:	00801444 	movi	r2,81
   311fc:	18800015 	stw	r2,0(r3)
    return -1;
   31200:	00bfffc4 	movi	r2,-1
  }
}
   31204:	e037883a 	mov	sp,fp
   31208:	dfc00117 	ldw	ra,4(sp)
   3120c:	df000017 	ldw	fp,0(sp)
   31210:	dec00204 	addi	sp,sp,8
   31214:	f800283a 	ret

00031218 <getpid>:
 *
 * ALT_GETPID is mapped onto the getpid() system call in alt_syscall.h
 */
 
int ALT_GETPID (void)
{
   31218:	deffff04 	addi	sp,sp,-4
   3121c:	df000015 	stw	fp,0(sp)
   31220:	d839883a 	mov	fp,sp
  return 0;
   31224:	0005883a 	mov	r2,zero
}
   31228:	e037883a 	mov	sp,fp
   3122c:	df000017 	ldw	fp,0(sp)
   31230:	dec00104 	addi	sp,sp,4
   31234:	f800283a 	ret

00031238 <alt_get_errno>:
{
   31238:	defffe04 	addi	sp,sp,-8
   3123c:	dfc00115 	stw	ra,4(sp)
   31240:	df000015 	stw	fp,0(sp)
   31244:	d839883a 	mov	fp,sp
  return ((alt_errno) ? alt_errno() : &errno);
   31248:	d0a00c17 	ldw	r2,-32720(gp)
   3124c:	10000326 	beq	r2,zero,3125c <alt_get_errno+0x24>
   31250:	d0a00c17 	ldw	r2,-32720(gp)
   31254:	103ee83a 	callr	r2
   31258:	00000106 	br	31260 <alt_get_errno+0x28>
   3125c:	d0a92504 	addi	r2,gp,-23404
}
   31260:	e037883a 	mov	sp,fp
   31264:	dfc00117 	ldw	ra,4(sp)
   31268:	df000017 	ldw	fp,0(sp)
   3126c:	dec00204 	addi	sp,sp,8
   31270:	f800283a 	ret

00031274 <isatty>:
 *
 * ALT_ISATTY is mapped onto the isatty() system call in alt_syscall.h
 */
 
int ALT_ISATTY (int file)
{
   31274:	deffea04 	addi	sp,sp,-88
   31278:	dfc01515 	stw	ra,84(sp)
   3127c:	df001415 	stw	fp,80(sp)
   31280:	df001404 	addi	fp,sp,80
   31284:	e13fec15 	stw	r4,-80(fp)
   * A common error case is that when the file descriptor was created, the call
   * to open() failed resulting in a negative file descriptor. This is trapped
   * below so that we don't try and process an invalid file descriptor.
   */

  fd = (file < 0) ? NULL : &alt_fd_list[file];
   31288:	e0bfec17 	ldw	r2,-80(fp)
   3128c:	10000616 	blt	r2,zero,312a8 <isatty+0x34>
   31290:	e0bfec17 	ldw	r2,-80(fp)
   31294:	10c00324 	muli	r3,r2,12
   31298:	008000f4 	movhi	r2,3
   3129c:	10982304 	addi	r2,r2,24716
   312a0:	1885883a 	add	r2,r3,r2
   312a4:	00000106 	br	312ac <isatty+0x38>
   312a8:	0005883a 	mov	r2,zero
   312ac:	e0bfff15 	stw	r2,-4(fp)
  
  if (fd)
   312b0:	e0bfff17 	ldw	r2,-4(fp)
   312b4:	10000e26 	beq	r2,zero,312f0 <isatty+0x7c>
    /*
     * If a device driver does not provide an fstat() function, then it is 
     * treated as a terminal device by default.
     */

    if (!fd->dev->fstat)
   312b8:	e0bfff17 	ldw	r2,-4(fp)
   312bc:	10800017 	ldw	r2,0(r2)
   312c0:	10800817 	ldw	r2,32(r2)
   312c4:	1000021e 	bne	r2,zero,312d0 <isatty+0x5c>
    {
      return 1;
   312c8:	00800044 	movi	r2,1
   312cc:	00000d06 	br	31304 <isatty+0x90>
     * this is called so that the device can identify itself.
     */ 

    else
    {
      fstat (file, &stat);
   312d0:	e0bfed04 	addi	r2,fp,-76
   312d4:	100b883a 	mov	r5,r2
   312d8:	e13fec17 	ldw	r4,-80(fp)
   312dc:	00311680 	call	31168 <fstat>
      return (stat.st_mode == _IFCHR) ? 1 : 0;
   312e0:	e0bfee17 	ldw	r2,-72(fp)
   312e4:	10880020 	cmpeqi	r2,r2,8192
   312e8:	10803fcc 	andi	r2,r2,255
   312ec:	00000506 	br	31304 <isatty+0x90>
    }
  }
  else
  {
    ALT_ERRNO = EBADFD;
   312f0:	00312380 	call	31238 <alt_get_errno>
   312f4:	1007883a 	mov	r3,r2
   312f8:	00801444 	movi	r2,81
   312fc:	18800015 	stw	r2,0(r3)
    return 0;
   31300:	0005883a 	mov	r2,zero
  }
}
   31304:	e037883a 	mov	sp,fp
   31308:	dfc00117 	ldw	ra,4(sp)
   3130c:	df000017 	ldw	fp,0(sp)
   31310:	dec00204 	addi	sp,sp,8
   31314:	f800283a 	ret

00031318 <alt_get_errno>:
{
   31318:	defffe04 	addi	sp,sp,-8
   3131c:	dfc00115 	stw	ra,4(sp)
   31320:	df000015 	stw	fp,0(sp)
   31324:	d839883a 	mov	fp,sp
  return ((alt_errno) ? alt_errno() : &errno);
   31328:	d0a00c17 	ldw	r2,-32720(gp)
   3132c:	10000326 	beq	r2,zero,3133c <alt_get_errno+0x24>
   31330:	d0a00c17 	ldw	r2,-32720(gp)
   31334:	103ee83a 	callr	r2
   31338:	00000106 	br	31340 <alt_get_errno+0x28>
   3133c:	d0a92504 	addi	r2,gp,-23404
}
   31340:	e037883a 	mov	sp,fp
   31344:	dfc00117 	ldw	ra,4(sp)
   31348:	df000017 	ldw	fp,0(sp)
   3134c:	dec00204 	addi	sp,sp,8
   31350:	f800283a 	ret

00031354 <kill>:
 *
 * ALT_KILL is mapped onto the kill() system call in alt_syscall.h
 */

int ALT_KILL (int pid, int sig)
{
   31354:	defffb04 	addi	sp,sp,-20
   31358:	dfc00415 	stw	ra,16(sp)
   3135c:	df000315 	stw	fp,12(sp)
   31360:	df000304 	addi	fp,sp,12
   31364:	e13ffe15 	stw	r4,-8(fp)
   31368:	e17ffd15 	stw	r5,-12(fp)
  int status = 0;
   3136c:	e03fff15 	stw	zero,-4(fp)

  if (pid <= 0)
   31370:	e0bffe17 	ldw	r2,-8(fp)
   31374:	00801d16 	blt	zero,r2,313ec <kill+0x98>
  {
    switch (sig)
   31378:	e0bffd17 	ldw	r2,-12(fp)
   3137c:	10002026 	beq	r2,zero,31400 <kill+0xac>
   31380:	e0bffd17 	ldw	r2,-12(fp)
   31384:	10001616 	blt	r2,zero,313e0 <kill+0x8c>
   31388:	e0bffd17 	ldw	r2,-12(fp)
   3138c:	10800808 	cmpgei	r2,r2,32
   31390:	1000131e 	bne	r2,zero,313e0 <kill+0x8c>
   31394:	e0bffd17 	ldw	r2,-12(fp)
   31398:	108000d0 	cmplti	r2,r2,3
   3139c:	1000101e 	bne	r2,zero,313e0 <kill+0x8c>
   313a0:	e0bffd17 	ldw	r2,-12(fp)
   313a4:	00c00044 	movi	r3,1
   313a8:	1886983a 	sll	r3,r3,r2
   313ac:	00b3e074 	movhi	r2,53121
   313b0:	10bfde04 	addi	r2,r2,-136
   313b4:	1884703a 	and	r2,r3,r2
   313b8:	1004c03a 	cmpne	r2,r2,zero
   313bc:	10803fcc 	andi	r2,r2,255
   313c0:	1000051e 	bne	r2,zero,313d8 <kill+0x84>
   313c4:	1880046c 	andhi	r2,r3,17
   313c8:	1004c03a 	cmpne	r2,r2,zero
   313cc:	10803fcc 	andi	r2,r2,255
   313d0:	10000d1e 	bne	r2,zero,31408 <kill+0xb4>
   313d4:	00000206 	br	313e0 <kill+0x8c>
       * The Posix standard defines the default behaviour for all these signals 
       * as being eqivalent to a call to _exit(). No mechanism is provided to 
       * change this behaviour.
       */

      _exit(0);
   313d8:	0009883a 	mov	r4,zero
   313dc:	0030f900 	call	30f90 <_exit>
      break;
    default:

      /* Tried to send an unsupported signal */

      status = EINVAL;
   313e0:	00800584 	movi	r2,22
   313e4:	e0bfff15 	stw	r2,-4(fp)
   313e8:	00000806 	br	3140c <kill+0xb8>
    }
  }

  else if (pid > 0)
   313ec:	e0bffe17 	ldw	r2,-8(fp)
   313f0:	0080060e 	bge	zero,r2,3140c <kill+0xb8>
  {
    /* Attempted to signal a non-existant process */

    status = ESRCH;
   313f4:	008000c4 	movi	r2,3
   313f8:	e0bfff15 	stw	r2,-4(fp)
   313fc:	00000306 	br	3140c <kill+0xb8>
      break;
   31400:	0001883a 	nop
   31404:	00000106 	br	3140c <kill+0xb8>
      break;
   31408:	0001883a 	nop
  }

  if (status)
   3140c:	e0bfff17 	ldw	r2,-4(fp)
   31410:	10000626 	beq	r2,zero,3142c <kill+0xd8>
  {
    ALT_ERRNO = status;
   31414:	00313180 	call	31318 <alt_get_errno>
   31418:	1007883a 	mov	r3,r2
   3141c:	e0bfff17 	ldw	r2,-4(fp)
   31420:	18800015 	stw	r2,0(r3)
    return -1;
   31424:	00bfffc4 	movi	r2,-1
   31428:	00000106 	br	31430 <kill+0xdc>
  }

  return 0;
   3142c:	0005883a 	mov	r2,zero
}
   31430:	e037883a 	mov	sp,fp
   31434:	dfc00117 	ldw	ra,4(sp)
   31438:	df000017 	ldw	fp,0(sp)
   3143c:	dec00204 	addi	sp,sp,8
   31440:	f800283a 	ret

00031444 <alt_load_section>:
 */

static void ALT_INLINE alt_load_section (alt_u32* from, 
                                         alt_u32* to, 
                                         alt_u32* end)
{
   31444:	defffc04 	addi	sp,sp,-16
   31448:	df000315 	stw	fp,12(sp)
   3144c:	df000304 	addi	fp,sp,12
   31450:	e13fff15 	stw	r4,-4(fp)
   31454:	e17ffe15 	stw	r5,-8(fp)
   31458:	e1bffd15 	stw	r6,-12(fp)
  if (to != from)
   3145c:	e0fffe17 	ldw	r3,-8(fp)
   31460:	e0bfff17 	ldw	r2,-4(fp)
   31464:	18800c26 	beq	r3,r2,31498 <alt_load_section+0x54>
  {
    while( to != end )
   31468:	00000806 	br	3148c <alt_load_section+0x48>
    {
      *to++ = *from++;
   3146c:	e0ffff17 	ldw	r3,-4(fp)
   31470:	18800104 	addi	r2,r3,4
   31474:	e0bfff15 	stw	r2,-4(fp)
   31478:	e0bffe17 	ldw	r2,-8(fp)
   3147c:	11000104 	addi	r4,r2,4
   31480:	e13ffe15 	stw	r4,-8(fp)
   31484:	18c00017 	ldw	r3,0(r3)
   31488:	10c00015 	stw	r3,0(r2)
    while( to != end )
   3148c:	e0fffe17 	ldw	r3,-8(fp)
   31490:	e0bffd17 	ldw	r2,-12(fp)
   31494:	18bff51e 	bne	r3,r2,3146c <alt_load_section+0x28>
    }
  }
}
   31498:	0001883a 	nop
   3149c:	e037883a 	mov	sp,fp
   314a0:	df000017 	ldw	fp,0(sp)
   314a4:	dec00104 	addi	sp,sp,4
   314a8:	f800283a 	ret

000314ac <alt_load>:
 * there is no bootloader, so this application is responsible for loading to
 * RAM any sections that are required.
 */  

void alt_load (void)
{
   314ac:	defffe04 	addi	sp,sp,-8
   314b0:	dfc00115 	stw	ra,4(sp)
   314b4:	df000015 	stw	fp,0(sp)
   314b8:	d839883a 	mov	fp,sp
  /* 
   * Copy the .rwdata section. 
   */

  alt_load_section (&__flash_rwdata_start, 
   314bc:	018000f4 	movhi	r6,3
   314c0:	319cdd04 	addi	r6,r6,29556
   314c4:	014000f4 	movhi	r5,3
   314c8:	2953c904 	addi	r5,r5,20260
   314cc:	010000f4 	movhi	r4,3
   314d0:	211cdd04 	addi	r4,r4,29556
   314d4:	00314440 	call	31444 <alt_load_section>

  /*
   * Copy the exception handler.
   */

  alt_load_section (&__flash_exceptions_start, 
   314d8:	018000b4 	movhi	r6,2
   314dc:	31808e04 	addi	r6,r6,568
   314e0:	014000b4 	movhi	r5,2
   314e4:	29400804 	addi	r5,r5,32
   314e8:	010000b4 	movhi	r4,2
   314ec:	21000804 	addi	r4,r4,32
   314f0:	00314440 	call	31444 <alt_load_section>

  /*
   * Copy the .rodata section.
   */

  alt_load_section (&__flash_rodata_start, 
   314f4:	018000f4 	movhi	r6,3
   314f8:	3193c904 	addi	r6,r6,20260
   314fc:	014000f4 	movhi	r5,3
   31500:	2950a704 	addi	r5,r5,17052
   31504:	010000f4 	movhi	r4,3
   31508:	2110a704 	addi	r4,r4,17052
   3150c:	00314440 	call	31444 <alt_load_section>
  
  /*
   * Now ensure that the caches are in synch.
   */
  
  alt_dcache_flush_all();
   31510:	00336dc0 	call	336dc <alt_dcache_flush_all>
  alt_icache_flush_all();
   31514:	0033b0c0 	call	33b0c <alt_icache_flush_all>
}
   31518:	0001883a 	nop
   3151c:	e037883a 	mov	sp,fp
   31520:	dfc00117 	ldw	ra,4(sp)
   31524:	df000017 	ldw	fp,0(sp)
   31528:	dec00204 	addi	sp,sp,8
   3152c:	f800283a 	ret

00031530 <alt_get_errno>:
{
   31530:	defffe04 	addi	sp,sp,-8
   31534:	dfc00115 	stw	ra,4(sp)
   31538:	df000015 	stw	fp,0(sp)
   3153c:	d839883a 	mov	fp,sp
  return ((alt_errno) ? alt_errno() : &errno);
   31540:	d0a00c17 	ldw	r2,-32720(gp)
   31544:	10000326 	beq	r2,zero,31554 <alt_get_errno+0x24>
   31548:	d0a00c17 	ldw	r2,-32720(gp)
   3154c:	103ee83a 	callr	r2
   31550:	00000106 	br	31558 <alt_get_errno+0x28>
   31554:	d0a92504 	addi	r2,gp,-23404
}
   31558:	e037883a 	mov	sp,fp
   3155c:	dfc00117 	ldw	ra,4(sp)
   31560:	df000017 	ldw	fp,0(sp)
   31564:	dec00204 	addi	sp,sp,8
   31568:	f800283a 	ret

0003156c <lseek>:
 * ALT_LSEEK is mapped onto the lseek() system call in alt_syscall.h
 *
 */

off_t ALT_LSEEK (int file, off_t ptr, int dir)
{
   3156c:	defff904 	addi	sp,sp,-28
   31570:	dfc00615 	stw	ra,24(sp)
   31574:	df000515 	stw	fp,20(sp)
   31578:	df000504 	addi	fp,sp,20
   3157c:	e13ffd15 	stw	r4,-12(fp)
   31580:	e17ffc15 	stw	r5,-16(fp)
   31584:	e1bffb15 	stw	r6,-20(fp)
  alt_fd* fd;
  off_t   rc = 0; 
   31588:	e03fff15 	stw	zero,-4(fp)
   * A common error case is that when the file descriptor was created, the call
   * to open() failed resulting in a negative file descriptor. This is trapped
   * below so that we don't try and process an invalid file descriptor.
   */

  fd = (file < 0) ? NULL : &alt_fd_list[file];
   3158c:	e0bffd17 	ldw	r2,-12(fp)
   31590:	10000616 	blt	r2,zero,315ac <lseek+0x40>
   31594:	e0bffd17 	ldw	r2,-12(fp)
   31598:	10c00324 	muli	r3,r2,12
   3159c:	008000f4 	movhi	r2,3
   315a0:	10982304 	addi	r2,r2,24716
   315a4:	1885883a 	add	r2,r3,r2
   315a8:	00000106 	br	315b0 <lseek+0x44>
   315ac:	0005883a 	mov	r2,zero
   315b0:	e0bffe15 	stw	r2,-8(fp)
  
  if (fd) 
   315b4:	e0bffe17 	ldw	r2,-8(fp)
   315b8:	10001026 	beq	r2,zero,315fc <lseek+0x90>
    /*
     * If the device driver provides an implementation of the lseek() function,
     * then call that to process the request.
     */
 
    if (fd->dev->lseek)
   315bc:	e0bffe17 	ldw	r2,-8(fp)
   315c0:	10800017 	ldw	r2,0(r2)
   315c4:	10800717 	ldw	r2,28(r2)
   315c8:	10000926 	beq	r2,zero,315f0 <lseek+0x84>
    {
      rc = fd->dev->lseek(fd, ptr, dir);
   315cc:	e0bffe17 	ldw	r2,-8(fp)
   315d0:	10800017 	ldw	r2,0(r2)
   315d4:	10800717 	ldw	r2,28(r2)
   315d8:	e1bffb17 	ldw	r6,-20(fp)
   315dc:	e17ffc17 	ldw	r5,-16(fp)
   315e0:	e13ffe17 	ldw	r4,-8(fp)
   315e4:	103ee83a 	callr	r2
   315e8:	e0bfff15 	stw	r2,-4(fp)
   315ec:	00000506 	br	31604 <lseek+0x98>
     * Otherwise return an error.
     */

    else
    {
      rc = -ENOTSUP;
   315f0:	00bfde84 	movi	r2,-134
   315f4:	e0bfff15 	stw	r2,-4(fp)
   315f8:	00000206 	br	31604 <lseek+0x98>
    }
  }
  else  
  {
    rc = -EBADFD;
   315fc:	00bfebc4 	movi	r2,-81
   31600:	e0bfff15 	stw	r2,-4(fp)
  }

  if (rc < 0)
   31604:	e0bfff17 	ldw	r2,-4(fp)
   31608:	1000070e 	bge	r2,zero,31628 <lseek+0xbc>
  {
    ALT_ERRNO = -rc;
   3160c:	00315300 	call	31530 <alt_get_errno>
   31610:	1007883a 	mov	r3,r2
   31614:	e0bfff17 	ldw	r2,-4(fp)
   31618:	0085c83a 	sub	r2,zero,r2
   3161c:	18800015 	stw	r2,0(r3)
    rc = -1;
   31620:	00bfffc4 	movi	r2,-1
   31624:	e0bfff15 	stw	r2,-4(fp)
  }

  return rc;
   31628:	e0bfff17 	ldw	r2,-4(fp)
}
   3162c:	e037883a 	mov	sp,fp
   31630:	dfc00117 	ldw	ra,4(sp)
   31634:	df000017 	ldw	fp,0(sp)
   31638:	dec00204 	addi	sp,sp,8
   3163c:	f800283a 	ret

00031640 <alt_main>:
 * devices/filesystems/components in the system; and call the entry point for
 * the users application, i.e. main().
 */

void alt_main (void)
{
   31640:	defffd04 	addi	sp,sp,-12
   31644:	dfc00215 	stw	ra,8(sp)
   31648:	df000115 	stw	fp,4(sp)
   3164c:	df000104 	addi	fp,sp,4
#endif

  /* ALT LOG - please see HAL/sys/alt_log_printf.h for details */
  ALT_LOG_PRINT_BOOT("[alt_main.c] Entering alt_main, calling alt_irq_init.\r\n");
  /* Initialize the interrupt controller. */
  alt_irq_init (NULL);
   31650:	0009883a 	mov	r4,zero
   31654:	0031efc0 	call	31efc <alt_irq_init>

  /* Initialize the operating system */
  ALT_LOG_PRINT_BOOT("[alt_main.c] Done alt_irq_init, calling alt_os_init.\r\n");
  ALT_OS_INIT();
   31658:	0001883a 	nop
  ALT_LOG_PRINT_BOOT("[alt_main.c] Done OS Init, calling alt_sem_create.\r\n");
  ALT_SEM_CREATE (&alt_fd_list_lock, 1);

  /* Initialize the device drivers/software components. */
  ALT_LOG_PRINT_BOOT("[alt_main.c] Calling alt_sys_init.\r\n");
  alt_sys_init();
   3165c:	0031f380 	call	31f38 <alt_sys_init>
   * devices be present (not equal to /dev/null) and if direct drivers
   * aren't being used.
   */

    ALT_LOG_PRINT_BOOT("[alt_main.c] Redirecting IO.\r\n");
    alt_io_redirect(ALT_STDOUT, ALT_STDIN, ALT_STDERR);
   31660:	018000f4 	movhi	r6,3
   31664:	3193be04 	addi	r6,r6,20216
   31668:	014000f4 	movhi	r5,3
   3166c:	2953be04 	addi	r5,r5,20216
   31670:	010000f4 	movhi	r4,3
   31674:	2113be04 	addi	r4,r4,20216
   31678:	0033e880 	call	33e88 <alt_io_redirect>
  /* 
   * Call the C++ constructors 
   */

  ALT_LOG_PRINT_BOOT("[alt_main.c] Calling C++ constructors.\r\n");
  _do_ctors ();
   3167c:	003380c0 	call	3380c <_do_ctors>
   * redefined as _exit()). This is in the interest of reducing code footprint,
   * in that the atexit() overhead is removed when it's not needed.
   */

  ALT_LOG_PRINT_BOOT("[alt_main.c] Calling atexit.\r\n");
  atexit (_do_dtors);
   31680:	010000f4 	movhi	r4,3
   31684:	210e1c04 	addi	r4,r4,14448
   31688:	003402c0 	call	3402c <atexit>
  ALT_LOG_PRINT_BOOT("[alt_main.c] Calling main.\r\n");

#ifdef ALT_NO_EXIT
  main (alt_argc, alt_argv, alt_envp);
#else
  result = main (alt_argc, alt_argv, alt_envp);
   3168c:	d0a92a17 	ldw	r2,-23384(gp)
   31690:	d0e92b17 	ldw	r3,-23380(gp)
   31694:	d1292c17 	ldw	r4,-23376(gp)
   31698:	200d883a 	mov	r6,r4
   3169c:	180b883a 	mov	r5,r3
   316a0:	1009883a 	mov	r4,r2
   316a4:	0021a6c0 	call	21a6c <main>
   316a8:	e0bfff15 	stw	r2,-4(fp)
  close(STDOUT_FILENO);
   316ac:	01000044 	movi	r4,1
   316b0:	0030e940 	call	30e94 <close>
  exit (result);
   316b4:	e13fff17 	ldw	r4,-4(fp)
   316b8:	00340400 	call	34040 <exit>

000316bc <__malloc_lock>:
 * configuration is single threaded, so there is nothing to do here. Note that 
 * this requires that malloc is never called by an interrupt service routine.
 */

void __malloc_lock ( struct _reent *_r )
{
   316bc:	defffe04 	addi	sp,sp,-8
   316c0:	df000115 	stw	fp,4(sp)
   316c4:	df000104 	addi	fp,sp,4
   316c8:	e13fff15 	stw	r4,-4(fp)
}
   316cc:	0001883a 	nop
   316d0:	e037883a 	mov	sp,fp
   316d4:	df000017 	ldw	fp,0(sp)
   316d8:	dec00104 	addi	sp,sp,4
   316dc:	f800283a 	ret

000316e0 <__malloc_unlock>:
/*
 *
 */

void __malloc_unlock ( struct _reent *_r )
{
   316e0:	defffe04 	addi	sp,sp,-8
   316e4:	df000115 	stw	fp,4(sp)
   316e8:	df000104 	addi	fp,sp,4
   316ec:	e13fff15 	stw	r4,-4(fp)
}
   316f0:	0001883a 	nop
   316f4:	e037883a 	mov	sp,fp
   316f8:	df000017 	ldw	fp,0(sp)
   316fc:	dec00104 	addi	sp,sp,4
   31700:	f800283a 	ret

00031704 <alt_get_errno>:
{
   31704:	defffe04 	addi	sp,sp,-8
   31708:	dfc00115 	stw	ra,4(sp)
   3170c:	df000015 	stw	fp,0(sp)
   31710:	d839883a 	mov	fp,sp
  return ((alt_errno) ? alt_errno() : &errno);
   31714:	d0a00c17 	ldw	r2,-32720(gp)
   31718:	10000326 	beq	r2,zero,31728 <alt_get_errno+0x24>
   3171c:	d0a00c17 	ldw	r2,-32720(gp)
   31720:	103ee83a 	callr	r2
   31724:	00000106 	br	3172c <alt_get_errno+0x28>
   31728:	d0a92504 	addi	r2,gp,-23404
}
   3172c:	e037883a 	mov	sp,fp
   31730:	dfc00117 	ldw	ra,4(sp)
   31734:	df000017 	ldw	fp,0(sp)
   31738:	dec00204 	addi	sp,sp,8
   3173c:	f800283a 	ret

00031740 <alt_file_locked>:
 * performed for devices. Filesystems are required to handle the ioctl() call
 * themselves, and report the error from the filesystems open() function. 
 */ 

static int alt_file_locked (alt_fd* fd)
{
   31740:	defffd04 	addi	sp,sp,-12
   31744:	df000215 	stw	fp,8(sp)
   31748:	df000204 	addi	fp,sp,8
   3174c:	e13ffe15 	stw	r4,-8(fp)

  /*
   * Mark the file descriptor as belonging to a device.
   */

  fd->fd_flags |= ALT_FD_DEV;
   31750:	e0bffe17 	ldw	r2,-8(fp)
   31754:	10800217 	ldw	r2,8(r2)
   31758:	10d00034 	orhi	r3,r2,16384
   3175c:	e0bffe17 	ldw	r2,-8(fp)
   31760:	10c00215 	stw	r3,8(r2)
  /*
   * Loop through all current file descriptors searching for one that's locked
   * for exclusive access. If a match is found, generate an error.
   */

  for (i = 0; i <= alt_max_fd; i++)
   31764:	e03fff15 	stw	zero,-4(fp)
   31768:	00001a06 	br	317d4 <alt_file_locked+0x94>
  {
    if ((alt_fd_list[i].dev == fd->dev) &&
   3176c:	e0bfff17 	ldw	r2,-4(fp)
   31770:	10c00324 	muli	r3,r2,12
   31774:	008000f4 	movhi	r2,3
   31778:	1885883a 	add	r2,r3,r2
   3177c:	10d82317 	ldw	r3,24716(r2)
   31780:	e0bffe17 	ldw	r2,-8(fp)
   31784:	10800017 	ldw	r2,0(r2)
   31788:	18800f1e 	bne	r3,r2,317c8 <alt_file_locked+0x88>
        (alt_fd_list[i].fd_flags & ALT_FD_EXCL) &&
   3178c:	e0bfff17 	ldw	r2,-4(fp)
   31790:	10c00324 	muli	r3,r2,12
   31794:	008000f4 	movhi	r2,3
   31798:	1885883a 	add	r2,r3,r2
   3179c:	10982517 	ldw	r2,24724(r2)
    if ((alt_fd_list[i].dev == fd->dev) &&
   317a0:	1000090e 	bge	r2,zero,317c8 <alt_file_locked+0x88>
        (&alt_fd_list[i] != fd))
   317a4:	e0bfff17 	ldw	r2,-4(fp)
   317a8:	10c00324 	muli	r3,r2,12
   317ac:	008000f4 	movhi	r2,3
   317b0:	10982304 	addi	r2,r2,24716
   317b4:	1885883a 	add	r2,r3,r2
        (alt_fd_list[i].fd_flags & ALT_FD_EXCL) &&
   317b8:	e0fffe17 	ldw	r3,-8(fp)
   317bc:	18800226 	beq	r3,r2,317c8 <alt_file_locked+0x88>
    {
      return -EACCES;
   317c0:	00bffcc4 	movi	r2,-13
   317c4:	00000806 	br	317e8 <alt_file_locked+0xa8>
  for (i = 0; i <= alt_max_fd; i++)
   317c8:	e0bfff17 	ldw	r2,-4(fp)
   317cc:	10800044 	addi	r2,r2,1
   317d0:	e0bfff15 	stw	r2,-4(fp)
   317d4:	d0a00b17 	ldw	r2,-32724(gp)
   317d8:	1007883a 	mov	r3,r2
   317dc:	e0bfff17 	ldw	r2,-4(fp)
   317e0:	18bfe22e 	bgeu	r3,r2,3176c <alt_file_locked+0x2c>
    }
  }
  
  /* The device is not locked */
 
  return 0;
   317e4:	0005883a 	mov	r2,zero
}
   317e8:	e037883a 	mov	sp,fp
   317ec:	df000017 	ldw	fp,0(sp)
   317f0:	dec00104 	addi	sp,sp,4
   317f4:	f800283a 	ret

000317f8 <open>:
 *
 * ALT_OPEN is mapped onto the open() system call in alt_syscall.h
 */
 
int ALT_OPEN (const char* file, int flags, int mode)
{ 
   317f8:	defff604 	addi	sp,sp,-40
   317fc:	dfc00915 	stw	ra,36(sp)
   31800:	df000815 	stw	fp,32(sp)
   31804:	df000804 	addi	fp,sp,32
   31808:	e13ffa15 	stw	r4,-24(fp)
   3180c:	e17ff915 	stw	r5,-28(fp)
   31810:	e1bff815 	stw	r6,-32(fp)
  alt_dev* dev;
  alt_fd*  fd;
  int index  = -1;
   31814:	00bfffc4 	movi	r2,-1
   31818:	e0bffe15 	stw	r2,-8(fp)
  int status = -ENODEV;
   3181c:	00bffb44 	movi	r2,-19
   31820:	e0bffd15 	stw	r2,-12(fp)
  int isafs = 0;
   31824:	e03ffc15 	stw	zero,-16(fp)
  /* 
   * Check the device list, to see if a device with a matching name is 
   * registered.
   */
  
  if (!(dev = alt_find_dev (file, &alt_dev_list)))
   31828:	d1600904 	addi	r5,gp,-32732
   3182c:	e13ffa17 	ldw	r4,-24(fp)
   31830:	00338d40 	call	338d4 <alt_find_dev>
   31834:	e0bfff15 	stw	r2,-4(fp)
   31838:	e0bfff17 	ldw	r2,-4(fp)
   3183c:	1000051e 	bne	r2,zero,31854 <open+0x5c>
  {
    /* No matching device, so try the filesystem list */

    dev   = alt_find_file (file);
   31840:	e13ffa17 	ldw	r4,-24(fp)
   31844:	00339640 	call	33964 <alt_find_file>
   31848:	e0bfff15 	stw	r2,-4(fp)
    isafs = 1;
   3184c:	00800044 	movi	r2,1
   31850:	e0bffc15 	stw	r2,-16(fp)

  /* 
   * If a matching device or filesystem is found, allocate a file descriptor. 
   */

  if (dev)
   31854:	e0bfff17 	ldw	r2,-4(fp)
   31858:	10002926 	beq	r2,zero,31900 <open+0x108>
  {
    if ((index = alt_get_fd (dev)) < 0)
   3185c:	e13fff17 	ldw	r4,-4(fp)
   31860:	0033a6c0 	call	33a6c <alt_get_fd>
   31864:	e0bffe15 	stw	r2,-8(fp)
   31868:	e0bffe17 	ldw	r2,-8(fp)
   3186c:	1000030e 	bge	r2,zero,3187c <open+0x84>
    {
      status = index;
   31870:	e0bffe17 	ldw	r2,-8(fp)
   31874:	e0bffd15 	stw	r2,-12(fp)
   31878:	00002306 	br	31908 <open+0x110>
    }
    else
    {
      fd = &alt_fd_list[index];
   3187c:	e0bffe17 	ldw	r2,-8(fp)
   31880:	10c00324 	muli	r3,r2,12
   31884:	008000f4 	movhi	r2,3
   31888:	10982304 	addi	r2,r2,24716
   3188c:	1885883a 	add	r2,r3,r2
   31890:	e0bffb15 	stw	r2,-20(fp)
      fd->fd_flags = (flags & ~ALT_FD_FLAGS_MASK);
   31894:	e0fff917 	ldw	r3,-28(fp)
   31898:	00900034 	movhi	r2,16384
   3189c:	10bfffc4 	addi	r2,r2,-1
   318a0:	1886703a 	and	r3,r3,r2
   318a4:	e0bffb17 	ldw	r2,-20(fp)
   318a8:	10c00215 	stw	r3,8(r2)
      
      /* If this is a device, ensure it isn't already locked */

      if (isafs || ((status = alt_file_locked (fd)) >= 0))
   318ac:	e0bffc17 	ldw	r2,-16(fp)
   318b0:	1000051e 	bne	r2,zero,318c8 <open+0xd0>
   318b4:	e13ffb17 	ldw	r4,-20(fp)
   318b8:	00317400 	call	31740 <alt_file_locked>
   318bc:	e0bffd15 	stw	r2,-12(fp)
   318c0:	e0bffd17 	ldw	r2,-12(fp)
   318c4:	10001016 	blt	r2,zero,31908 <open+0x110>
        /* 
         * If the device or filesystem provides an open() callback function,
         * call it now to perform any device/filesystem specific operations.
         */
    
        status = (dev->open) ? dev->open(fd, file, flags, mode): 0;
   318c8:	e0bfff17 	ldw	r2,-4(fp)
   318cc:	10800317 	ldw	r2,12(r2)
   318d0:	10000826 	beq	r2,zero,318f4 <open+0xfc>
   318d4:	e0bfff17 	ldw	r2,-4(fp)
   318d8:	10800317 	ldw	r2,12(r2)
   318dc:	e1fff817 	ldw	r7,-32(fp)
   318e0:	e1bff917 	ldw	r6,-28(fp)
   318e4:	e17ffa17 	ldw	r5,-24(fp)
   318e8:	e13ffb17 	ldw	r4,-20(fp)
   318ec:	103ee83a 	callr	r2
   318f0:	00000106 	br	318f8 <open+0x100>
   318f4:	0005883a 	mov	r2,zero
   318f8:	e0bffd15 	stw	r2,-12(fp)
   318fc:	00000206 	br	31908 <open+0x110>
      }
    }
  }
  else
  {
    status = -ENODEV;
   31900:	00bffb44 	movi	r2,-19
   31904:	e0bffd15 	stw	r2,-12(fp)
  }

  /* Allocation failed, so clean up and return an error */ 

  if (status < 0)
   31908:	e0bffd17 	ldw	r2,-12(fp)
   3190c:	1000090e 	bge	r2,zero,31934 <open+0x13c>
  {
    alt_release_fd (index);  
   31910:	e13ffe17 	ldw	r4,-8(fp)
   31914:	0031a840 	call	31a84 <alt_release_fd>
    ALT_ERRNO = -status;
   31918:	00317040 	call	31704 <alt_get_errno>
   3191c:	1007883a 	mov	r3,r2
   31920:	e0bffd17 	ldw	r2,-12(fp)
   31924:	0085c83a 	sub	r2,zero,r2
   31928:	18800015 	stw	r2,0(r3)
    return -1;
   3192c:	00bfffc4 	movi	r2,-1
   31930:	00000106 	br	31938 <open+0x140>
  }
  
  /* return the reference upon success */

  return index;
   31934:	e0bffe17 	ldw	r2,-8(fp)
}
   31938:	e037883a 	mov	sp,fp
   3193c:	dfc00117 	ldw	ra,4(sp)
   31940:	df000017 	ldw	fp,0(sp)
   31944:	dec00204 	addi	sp,sp,8
   31948:	f800283a 	ret

0003194c <alt_get_errno>:
{
   3194c:	defffe04 	addi	sp,sp,-8
   31950:	dfc00115 	stw	ra,4(sp)
   31954:	df000015 	stw	fp,0(sp)
   31958:	d839883a 	mov	fp,sp
  return ((alt_errno) ? alt_errno() : &errno);
   3195c:	d0a00c17 	ldw	r2,-32720(gp)
   31960:	10000326 	beq	r2,zero,31970 <alt_get_errno+0x24>
   31964:	d0a00c17 	ldw	r2,-32720(gp)
   31968:	103ee83a 	callr	r2
   3196c:	00000106 	br	31974 <alt_get_errno+0x28>
   31970:	d0a92504 	addi	r2,gp,-23404
}
   31974:	e037883a 	mov	sp,fp
   31978:	dfc00117 	ldw	ra,4(sp)
   3197c:	df000017 	ldw	fp,0(sp)
   31980:	dec00204 	addi	sp,sp,8
   31984:	f800283a 	ret

00031988 <read>:
}

#else /* !ALT_USE_DIRECT_DRIVERS */

int ALT_READ (int file, void *ptr, size_t len)
{
   31988:	defff904 	addi	sp,sp,-28
   3198c:	dfc00615 	stw	ra,24(sp)
   31990:	df000515 	stw	fp,20(sp)
   31994:	df000504 	addi	fp,sp,20
   31998:	e13ffd15 	stw	r4,-12(fp)
   3199c:	e17ffc15 	stw	r5,-16(fp)
   319a0:	e1bffb15 	stw	r6,-20(fp)
   * A common error case is that when the file descriptor was created, the call
   * to open() failed resulting in a negative file descriptor. This is trapped
   * below so that we don't try and process an invalid file descriptor.
   */

  fd = (file < 0) ? NULL : &alt_fd_list[file];
   319a4:	e0bffd17 	ldw	r2,-12(fp)
   319a8:	10000616 	blt	r2,zero,319c4 <read+0x3c>
   319ac:	e0bffd17 	ldw	r2,-12(fp)
   319b0:	10c00324 	muli	r3,r2,12
   319b4:	008000f4 	movhi	r2,3
   319b8:	10982304 	addi	r2,r2,24716
   319bc:	1885883a 	add	r2,r3,r2
   319c0:	00000106 	br	319c8 <read+0x40>
   319c4:	0005883a 	mov	r2,zero
   319c8:	e0bfff15 	stw	r2,-4(fp)
  
  if (fd)
   319cc:	e0bfff17 	ldw	r2,-4(fp)
   319d0:	10002226 	beq	r2,zero,31a5c <read+0xd4>
     * If the file has not been opened with read access, or if the driver does
     * not provide an implementation of read(), generate an error. Otherwise
     * call the drivers read() function to process the request.
     */

    if (((fd->fd_flags & O_ACCMODE) != O_WRONLY) && 
   319d4:	e0bfff17 	ldw	r2,-4(fp)
   319d8:	10800217 	ldw	r2,8(r2)
   319dc:	108000cc 	andi	r2,r2,3
   319e0:	10800060 	cmpeqi	r2,r2,1
   319e4:	1000181e 	bne	r2,zero,31a48 <read+0xc0>
        (fd->dev->read))
   319e8:	e0bfff17 	ldw	r2,-4(fp)
   319ec:	10800017 	ldw	r2,0(r2)
   319f0:	10800517 	ldw	r2,20(r2)
    if (((fd->fd_flags & O_ACCMODE) != O_WRONLY) && 
   319f4:	10001426 	beq	r2,zero,31a48 <read+0xc0>
      {
        if ((rval = fd->dev->read(fd, ptr, len)) < 0)
   319f8:	e0bfff17 	ldw	r2,-4(fp)
   319fc:	10800017 	ldw	r2,0(r2)
   31a00:	10800517 	ldw	r2,20(r2)
   31a04:	e0fffb17 	ldw	r3,-20(fp)
   31a08:	180d883a 	mov	r6,r3
   31a0c:	e17ffc17 	ldw	r5,-16(fp)
   31a10:	e13fff17 	ldw	r4,-4(fp)
   31a14:	103ee83a 	callr	r2
   31a18:	e0bffe15 	stw	r2,-8(fp)
   31a1c:	e0bffe17 	ldw	r2,-8(fp)
   31a20:	1000070e 	bge	r2,zero,31a40 <read+0xb8>
        {
          ALT_ERRNO = -rval;
   31a24:	003194c0 	call	3194c <alt_get_errno>
   31a28:	1007883a 	mov	r3,r2
   31a2c:	e0bffe17 	ldw	r2,-8(fp)
   31a30:	0085c83a 	sub	r2,zero,r2
   31a34:	18800015 	stw	r2,0(r3)
          return -1;
   31a38:	00bfffc4 	movi	r2,-1
   31a3c:	00000c06 	br	31a70 <read+0xe8>
        }
        return rval;
   31a40:	e0bffe17 	ldw	r2,-8(fp)
   31a44:	00000a06 	br	31a70 <read+0xe8>
      }
      else
      {
        ALT_ERRNO = EACCES;
   31a48:	003194c0 	call	3194c <alt_get_errno>
   31a4c:	1007883a 	mov	r3,r2
   31a50:	00800344 	movi	r2,13
   31a54:	18800015 	stw	r2,0(r3)
   31a58:	00000406 	br	31a6c <read+0xe4>
      }
    }
  else
  {
    ALT_ERRNO = EBADFD;
   31a5c:	003194c0 	call	3194c <alt_get_errno>
   31a60:	1007883a 	mov	r3,r2
   31a64:	00801444 	movi	r2,81
   31a68:	18800015 	stw	r2,0(r3)
  }
  return -1;
   31a6c:	00bfffc4 	movi	r2,-1
}
   31a70:	e037883a 	mov	sp,fp
   31a74:	dfc00117 	ldw	ra,4(sp)
   31a78:	df000017 	ldw	fp,0(sp)
   31a7c:	dec00204 	addi	sp,sp,8
   31a80:	f800283a 	ret

00031a84 <alt_release_fd>:
 * File descriptors correcponding to standard in, standard out and standard 
 * error cannont be released backed to the pool. They are always reserved.
 */

void alt_release_fd (int fd)
{
   31a84:	defffe04 	addi	sp,sp,-8
   31a88:	df000115 	stw	fp,4(sp)
   31a8c:	df000104 	addi	fp,sp,4
   31a90:	e13fff15 	stw	r4,-4(fp)
  if (fd > 2)
   31a94:	e0bfff17 	ldw	r2,-4(fp)
   31a98:	108000d0 	cmplti	r2,r2,3
   31a9c:	10000a1e 	bne	r2,zero,31ac8 <alt_release_fd+0x44>
  {
    alt_fd_list[fd].fd_flags = 0;
   31aa0:	e0bfff17 	ldw	r2,-4(fp)
   31aa4:	10c00324 	muli	r3,r2,12
   31aa8:	008000f4 	movhi	r2,3
   31aac:	1885883a 	add	r2,r3,r2
   31ab0:	10182515 	stw	zero,24724(r2)
    alt_fd_list[fd].dev      = 0;
   31ab4:	e0bfff17 	ldw	r2,-4(fp)
   31ab8:	10c00324 	muli	r3,r2,12
   31abc:	008000f4 	movhi	r2,3
   31ac0:	1885883a 	add	r2,r3,r2
   31ac4:	10182315 	stw	zero,24716(r2)
  }
}
   31ac8:	0001883a 	nop
   31acc:	e037883a 	mov	sp,fp
   31ad0:	df000017 	ldw	fp,0(sp)
   31ad4:	dec00104 	addi	sp,sp,4
   31ad8:	f800283a 	ret

00031adc <sbrk>:
#endif
 
caddr_t ALT_SBRK (int incr) __attribute__ ((no_instrument_function ));

caddr_t ALT_SBRK (int incr)
{ 
   31adc:	defff904 	addi	sp,sp,-28
   31ae0:	df000615 	stw	fp,24(sp)
   31ae4:	df000604 	addi	fp,sp,24
   31ae8:	e13ffa15 	stw	r4,-24(fp)
  NIOS2_READ_STATUS (context);
   31aec:	0005303a 	rdctl	r2,status
   31af0:	e0bffd15 	stw	r2,-12(fp)
  NIOS2_WRITE_STATUS (context & ~NIOS2_STATUS_PIE_MSK);
   31af4:	e0fffd17 	ldw	r3,-12(fp)
   31af8:	00bfff84 	movi	r2,-2
   31afc:	1884703a 	and	r2,r3,r2
   31b00:	1001703a 	wrctl	status,r2
  return context;
   31b04:	e0bffd17 	ldw	r2,-12(fp)
  alt_irq_context context;
  char *prev_heap_end; 

  context = alt_irq_disable_all();
   31b08:	e0bfff15 	stw	r2,-4(fp)

  /* Always return data aligned on a word boundary */
  heap_end = (char *)(((unsigned int)heap_end + 3) & ~3);
   31b0c:	d0a00d17 	ldw	r2,-32716(gp)
   31b10:	10c000c4 	addi	r3,r2,3
   31b14:	00bfff04 	movi	r2,-4
   31b18:	1884703a 	and	r2,r3,r2
   31b1c:	d0a00d15 	stw	r2,-32716(gp)
  if (((heap_end + incr) - __alt_heap_start) > ALT_MAX_HEAP_BYTES) {
    alt_irq_enable_all(context);
    return (caddr_t)-1;
  }
#else
  if ((heap_end + incr) > __alt_heap_limit) {
   31b20:	d0e00d17 	ldw	r3,-32716(gp)
   31b24:	e0bffa17 	ldw	r2,-24(fp)
   31b28:	1887883a 	add	r3,r3,r2
   31b2c:	00800134 	movhi	r2,4
   31b30:	10800004 	addi	r2,r2,0
   31b34:	10c0072e 	bgeu	r2,r3,31b54 <sbrk+0x78>
   31b38:	e0bfff17 	ldw	r2,-4(fp)
   31b3c:	e0bffc15 	stw	r2,-16(fp)
  NIOS2_WRITE_STATUS (context);
   31b40:	e0bffc17 	ldw	r2,-16(fp)
   31b44:	1001703a 	wrctl	status,r2
}
   31b48:	0001883a 	nop
    alt_irq_enable_all(context);
    return (caddr_t)-1;
   31b4c:	00bfffc4 	movi	r2,-1
   31b50:	00000c06 	br	31b84 <sbrk+0xa8>
  }
#endif

  prev_heap_end = heap_end; 
   31b54:	d0a00d17 	ldw	r2,-32716(gp)
   31b58:	e0bffe15 	stw	r2,-8(fp)
  heap_end += incr; 
   31b5c:	d0e00d17 	ldw	r3,-32716(gp)
   31b60:	e0bffa17 	ldw	r2,-24(fp)
   31b64:	1885883a 	add	r2,r3,r2
   31b68:	d0a00d15 	stw	r2,-32716(gp)
   31b6c:	e0bfff17 	ldw	r2,-4(fp)
   31b70:	e0bffb15 	stw	r2,-20(fp)
  NIOS2_WRITE_STATUS (context);
   31b74:	e0bffb17 	ldw	r2,-20(fp)
   31b78:	1001703a 	wrctl	status,r2
}
   31b7c:	0001883a 	nop

#endif

  alt_irq_enable_all(context);

  return (caddr_t) prev_heap_end; 
   31b80:	e0bffe17 	ldw	r2,-8(fp)
} 
   31b84:	e037883a 	mov	sp,fp
   31b88:	df000017 	ldw	fp,0(sp)
   31b8c:	dec00104 	addi	sp,sp,4
   31b90:	f800283a 	ret

00031b94 <alt_alarm_stop>:
 * alarms. Alternatively an alarm can unregister itself by returning zero when 
 * the alarm executes.
 */

void alt_alarm_stop (alt_alarm* alarm)
{
   31b94:	defffa04 	addi	sp,sp,-24
   31b98:	df000515 	stw	fp,20(sp)
   31b9c:	df000504 	addi	fp,sp,20
   31ba0:	e13ffb15 	stw	r4,-20(fp)
  NIOS2_READ_STATUS (context);
   31ba4:	0005303a 	rdctl	r2,status
   31ba8:	e0bffc15 	stw	r2,-16(fp)
  NIOS2_WRITE_STATUS (context & ~NIOS2_STATUS_PIE_MSK);
   31bac:	e0fffc17 	ldw	r3,-16(fp)
   31bb0:	00bfff84 	movi	r2,-2
   31bb4:	1884703a 	and	r2,r3,r2
   31bb8:	1001703a 	wrctl	status,r2
  return context;
   31bbc:	e0bffc17 	ldw	r2,-16(fp)
  alt_irq_context irq_context;

  irq_context = alt_irq_disable_all();
   31bc0:	e0bfff15 	stw	r2,-4(fp)
  alt_llist_remove (&alarm->llist);
   31bc4:	e0bffb17 	ldw	r2,-20(fp)
   31bc8:	e0bffd15 	stw	r2,-12(fp)
 * input argument is the element to remove.
 */
     
static ALT_INLINE void ALT_ALWAYS_INLINE alt_llist_remove(alt_llist* entry)
{
  entry->next->previous = entry->previous;
   31bcc:	e0bffd17 	ldw	r2,-12(fp)
   31bd0:	10800017 	ldw	r2,0(r2)
   31bd4:	e0fffd17 	ldw	r3,-12(fp)
   31bd8:	18c00117 	ldw	r3,4(r3)
   31bdc:	10c00115 	stw	r3,4(r2)
  entry->previous->next = entry->next;
   31be0:	e0bffd17 	ldw	r2,-12(fp)
   31be4:	10800117 	ldw	r2,4(r2)
   31be8:	e0fffd17 	ldw	r3,-12(fp)
   31bec:	18c00017 	ldw	r3,0(r3)
   31bf0:	10c00015 	stw	r3,0(r2)
  /* 
   * Set the entry to point to itself, so that any further calls to
   * alt_llist_remove() are harmless.
   */

  entry->previous = entry;
   31bf4:	e0bffd17 	ldw	r2,-12(fp)
   31bf8:	e0fffd17 	ldw	r3,-12(fp)
   31bfc:	10c00115 	stw	r3,4(r2)
  entry->next     = entry;
   31c00:	e0bffd17 	ldw	r2,-12(fp)
   31c04:	e0fffd17 	ldw	r3,-12(fp)
   31c08:	10c00015 	stw	r3,0(r2)
} 
   31c0c:	0001883a 	nop
   31c10:	e0bfff17 	ldw	r2,-4(fp)
   31c14:	e0bffe15 	stw	r2,-8(fp)
  NIOS2_WRITE_STATUS (context);
   31c18:	e0bffe17 	ldw	r2,-8(fp)
   31c1c:	1001703a 	wrctl	status,r2
}
   31c20:	0001883a 	nop
  alt_irq_enable_all (irq_context);
}
   31c24:	0001883a 	nop
   31c28:	e037883a 	mov	sp,fp
   31c2c:	df000017 	ldw	fp,0(sp)
   31c30:	dec00104 	addi	sp,sp,4
   31c34:	f800283a 	ret

00031c38 <alt_tick>:
 * 
 * alt_tick() is expected to run at interrupt level.
 */

void alt_tick (void)
{
   31c38:	defff904 	addi	sp,sp,-28
   31c3c:	dfc00615 	stw	ra,24(sp)
   31c40:	df000515 	stw	fp,20(sp)
   31c44:	dc400415 	stw	r17,16(sp)
   31c48:	dc000315 	stw	r16,12(sp)
   31c4c:	df000504 	addi	fp,sp,20
  alt_alarm* next;
  alt_alarm* alarm = (alt_alarm*) alt_alarm_list.next;
   31c50:	d0a00e17 	ldw	r2,-32712(gp)
   31c54:	e0bffd15 	stw	r2,-12(fp)

  alt_u32    next_callback;

  /* update the tick counter */

  _alt_nticks++;
   31c58:	d1292e17 	ldw	r4,-23368(gp)
   31c5c:	d1692f17 	ldw	r5,-23364(gp)
   31c60:	01800044 	movi	r6,1
   31c64:	000f883a 	mov	r7,zero
   31c68:	2185883a 	add	r2,r4,r6
   31c6c:	1111803a 	cmpltu	r8,r2,r4
   31c70:	29c7883a 	add	r3,r5,r7
   31c74:	40c9883a 	add	r4,r8,r3
   31c78:	2007883a 	mov	r3,r4
   31c7c:	1009883a 	mov	r4,r2
   31c80:	180b883a 	mov	r5,r3
   31c84:	d1292e15 	stw	r4,-23368(gp)
   31c88:	d1692f15 	stw	r5,-23364(gp)
 
  /* process the registered callbacks */

  while (alarm != (alt_alarm*) &alt_alarm_list)
   31c8c:	00002906 	br	31d34 <alt_tick+0xfc>
  {
    next = (alt_alarm*) alarm->llist.next;
   31c90:	e0bffd17 	ldw	r2,-12(fp)
   31c94:	10800017 	ldw	r2,0(r2)
   31c98:	e0bffc15 	stw	r2,-16(fp)
    
    /* if the alarm period has expired, make the callback */    
    if (alarm->time <= _alt_nticks)
   31c9c:	e13ffd17 	ldw	r4,-12(fp)
   31ca0:	20800217 	ldw	r2,8(r4)
   31ca4:	20c00317 	ldw	r3,12(r4)
   31ca8:	d1292e17 	ldw	r4,-23368(gp)
   31cac:	d1692f17 	ldw	r5,-23364(gp)
   31cb0:	28c01e36 	bltu	r5,r3,31d2c <alt_tick+0xf4>
   31cb4:	1940011e 	bne	r3,r5,31cbc <alt_tick+0x84>
   31cb8:	20801c36 	bltu	r4,r2,31d2c <alt_tick+0xf4>
    {
      next_callback = alarm->callback (alarm->context);
   31cbc:	e0bffd17 	ldw	r2,-12(fp)
   31cc0:	10800417 	ldw	r2,16(r2)
   31cc4:	e0fffd17 	ldw	r3,-12(fp)
   31cc8:	18c00517 	ldw	r3,20(r3)
   31ccc:	1809883a 	mov	r4,r3
   31cd0:	103ee83a 	callr	r2
   31cd4:	e0bffb15 	stw	r2,-20(fp)

      /* deactivate the alarm if the return value is zero */

      if (next_callback == 0)
   31cd8:	e0bffb17 	ldw	r2,-20(fp)
   31cdc:	1000031e 	bne	r2,zero,31cec <alt_tick+0xb4>
      {
        alt_alarm_stop (alarm);
   31ce0:	e13ffd17 	ldw	r4,-12(fp)
   31ce4:	0031b940 	call	31b94 <alt_alarm_stop>
   31ce8:	00001006 	br	31d2c <alt_tick+0xf4>
      }
      else
      {
        alarm->time += next_callback;
   31cec:	e0bffd17 	ldw	r2,-12(fp)
   31cf0:	11000217 	ldw	r4,8(r2)
   31cf4:	11400317 	ldw	r5,12(r2)
   31cf8:	e0bffb17 	ldw	r2,-20(fp)
   31cfc:	1021883a 	mov	r16,r2
   31d00:	0023883a 	mov	r17,zero
   31d04:	2405883a 	add	r2,r4,r16
   31d08:	110d803a 	cmpltu	r6,r2,r4
   31d0c:	2c47883a 	add	r3,r5,r17
   31d10:	30c9883a 	add	r4,r6,r3
   31d14:	2007883a 	mov	r3,r4
   31d18:	1009883a 	mov	r4,r2
   31d1c:	180b883a 	mov	r5,r3
   31d20:	e0bffd17 	ldw	r2,-12(fp)
   31d24:	11000215 	stw	r4,8(r2)
   31d28:	11400315 	stw	r5,12(r2)
      }
    }
    alarm = next;
   31d2c:	e0bffc17 	ldw	r2,-16(fp)
   31d30:	e0bffd15 	stw	r2,-12(fp)
  while (alarm != (alt_alarm*) &alt_alarm_list)
   31d34:	e0fffd17 	ldw	r3,-12(fp)
   31d38:	d0a00e04 	addi	r2,gp,-32712
   31d3c:	18bfd41e 	bne	r3,r2,31c90 <alt_tick+0x58>

  /* 
   * Update the operating system specific timer facilities.
   */

  ALT_OS_TIME_TICK();
   31d40:	0001883a 	nop
}
   31d44:	0001883a 	nop
   31d48:	e6fffe04 	addi	sp,fp,-8
   31d4c:	dfc00317 	ldw	ra,12(sp)
   31d50:	df000217 	ldw	fp,8(sp)
   31d54:	dc400117 	ldw	r17,4(sp)
   31d58:	dc000017 	ldw	r16,0(sp)
   31d5c:	dec00404 	addi	sp,sp,16
   31d60:	f800283a 	ret

00031d64 <usleep>:
#if defined (__GNUC__) && __GNUC__ >= 4
int ALT_USLEEP (useconds_t us)
#else
unsigned int ALT_USLEEP (unsigned int us)
#endif
{
   31d64:	defffd04 	addi	sp,sp,-12
   31d68:	dfc00215 	stw	ra,8(sp)
   31d6c:	df000115 	stw	fp,4(sp)
   31d70:	df000104 	addi	fp,sp,4
   31d74:	e13fff15 	stw	r4,-4(fp)
  return alt_busy_sleep(us);
   31d78:	e13fff17 	ldw	r4,-4(fp)
   31d7c:	00335840 	call	33584 <alt_busy_sleep>
}
   31d80:	e037883a 	mov	sp,fp
   31d84:	dfc00117 	ldw	ra,4(sp)
   31d88:	df000017 	ldw	fp,0(sp)
   31d8c:	dec00204 	addi	sp,sp,8
   31d90:	f800283a 	ret

00031d94 <alt_get_errno>:
{
   31d94:	defffe04 	addi	sp,sp,-8
   31d98:	dfc00115 	stw	ra,4(sp)
   31d9c:	df000015 	stw	fp,0(sp)
   31da0:	d839883a 	mov	fp,sp
  return ((alt_errno) ? alt_errno() : &errno);
   31da4:	d0a00c17 	ldw	r2,-32720(gp)
   31da8:	10000326 	beq	r2,zero,31db8 <alt_get_errno+0x24>
   31dac:	d0a00c17 	ldw	r2,-32720(gp)
   31db0:	103ee83a 	callr	r2
   31db4:	00000106 	br	31dbc <alt_get_errno+0x28>
   31db8:	d0a92504 	addi	r2,gp,-23404
}
   31dbc:	e037883a 	mov	sp,fp
   31dc0:	dfc00117 	ldw	ra,4(sp)
   31dc4:	df000017 	ldw	fp,0(sp)
   31dc8:	dec00204 	addi	sp,sp,8
   31dcc:	f800283a 	ret

00031dd0 <write>:
}

#else /* !ALT_USE_DIRECT_DRIVERS */

int ALT_WRITE (int file, const void *ptr, size_t len)
{
   31dd0:	defff904 	addi	sp,sp,-28
   31dd4:	dfc00615 	stw	ra,24(sp)
   31dd8:	df000515 	stw	fp,20(sp)
   31ddc:	df000504 	addi	fp,sp,20
   31de0:	e13ffd15 	stw	r4,-12(fp)
   31de4:	e17ffc15 	stw	r5,-16(fp)
   31de8:	e1bffb15 	stw	r6,-20(fp)
   * A common error case is that when the file descriptor was created, the call
   * to open() failed resulting in a negative file descriptor. This is trapped
   * below so that we don't try and process an invalid file descriptor.
   */

  fd = (file < 0) ? NULL : &alt_fd_list[file];
   31dec:	e0bffd17 	ldw	r2,-12(fp)
   31df0:	10000616 	blt	r2,zero,31e0c <write+0x3c>
   31df4:	e0bffd17 	ldw	r2,-12(fp)
   31df8:	10c00324 	muli	r3,r2,12
   31dfc:	008000f4 	movhi	r2,3
   31e00:	10982304 	addi	r2,r2,24716
   31e04:	1885883a 	add	r2,r3,r2
   31e08:	00000106 	br	31e10 <write+0x40>
   31e0c:	0005883a 	mov	r2,zero
   31e10:	e0bfff15 	stw	r2,-4(fp)
  
  if (fd)
   31e14:	e0bfff17 	ldw	r2,-4(fp)
   31e18:	10002126 	beq	r2,zero,31ea0 <write+0xd0>
     * If the file has not been opened with write access, or if the driver does
     * not provide an implementation of write(), generate an error. Otherwise
     * call the drivers write() function to process the request.
     */

    if (((fd->fd_flags & O_ACCMODE) != O_RDONLY) && fd->dev->write)
   31e1c:	e0bfff17 	ldw	r2,-4(fp)
   31e20:	10800217 	ldw	r2,8(r2)
   31e24:	108000cc 	andi	r2,r2,3
   31e28:	10001826 	beq	r2,zero,31e8c <write+0xbc>
   31e2c:	e0bfff17 	ldw	r2,-4(fp)
   31e30:	10800017 	ldw	r2,0(r2)
   31e34:	10800617 	ldw	r2,24(r2)
   31e38:	10001426 	beq	r2,zero,31e8c <write+0xbc>
    {
      
      /* ALT_LOG - see altera_hal/HAL/inc/sys/alt_log_printf.h */
      ALT_LOG_WRITE_FUNCTION(ptr,len);

      if ((rval = fd->dev->write(fd, ptr, len)) < 0)
   31e3c:	e0bfff17 	ldw	r2,-4(fp)
   31e40:	10800017 	ldw	r2,0(r2)
   31e44:	10800617 	ldw	r2,24(r2)
   31e48:	e0fffb17 	ldw	r3,-20(fp)
   31e4c:	180d883a 	mov	r6,r3
   31e50:	e17ffc17 	ldw	r5,-16(fp)
   31e54:	e13fff17 	ldw	r4,-4(fp)
   31e58:	103ee83a 	callr	r2
   31e5c:	e0bffe15 	stw	r2,-8(fp)
   31e60:	e0bffe17 	ldw	r2,-8(fp)
   31e64:	1000070e 	bge	r2,zero,31e84 <write+0xb4>
      {
        ALT_ERRNO = -rval;
   31e68:	0031d940 	call	31d94 <alt_get_errno>
   31e6c:	1007883a 	mov	r3,r2
   31e70:	e0bffe17 	ldw	r2,-8(fp)
   31e74:	0085c83a 	sub	r2,zero,r2
   31e78:	18800015 	stw	r2,0(r3)
        return -1;
   31e7c:	00bfffc4 	movi	r2,-1
   31e80:	00000c06 	br	31eb4 <write+0xe4>
      }
      return rval;
   31e84:	e0bffe17 	ldw	r2,-8(fp)
   31e88:	00000a06 	br	31eb4 <write+0xe4>
    }
    else
    {
      ALT_ERRNO = EACCES;
   31e8c:	0031d940 	call	31d94 <alt_get_errno>
   31e90:	1007883a 	mov	r3,r2
   31e94:	00800344 	movi	r2,13
   31e98:	18800015 	stw	r2,0(r3)
   31e9c:	00000406 	br	31eb0 <write+0xe0>
    }
  }
  else  
  {
    ALT_ERRNO = EBADFD;
   31ea0:	0031d940 	call	31d94 <alt_get_errno>
   31ea4:	1007883a 	mov	r3,r2
   31ea8:	00801444 	movi	r2,81
   31eac:	18800015 	stw	r2,0(r3)
  }
  return -1;
   31eb0:	00bfffc4 	movi	r2,-1
}
   31eb4:	e037883a 	mov	sp,fp
   31eb8:	dfc00117 	ldw	ra,4(sp)
   31ebc:	df000017 	ldw	fp,0(sp)
   31ec0:	dec00204 	addi	sp,sp,8
   31ec4:	f800283a 	ret

00031ec8 <alt_dev_reg>:
 */

extern int alt_fs_reg  (alt_dev* dev); 

static ALT_INLINE int alt_dev_reg (alt_dev* dev)
{
   31ec8:	defffd04 	addi	sp,sp,-12
   31ecc:	dfc00215 	stw	ra,8(sp)
   31ed0:	df000115 	stw	fp,4(sp)
   31ed4:	df000104 	addi	fp,sp,4
   31ed8:	e13fff15 	stw	r4,-4(fp)
  extern alt_llist alt_dev_list;

  return alt_dev_llist_insert ((alt_dev_llist*) dev, &alt_dev_list);
   31edc:	d1600904 	addi	r5,gp,-32732
   31ee0:	e13fff17 	ldw	r4,-4(fp)
   31ee4:	00337640 	call	33764 <alt_dev_llist_insert>
}
   31ee8:	e037883a 	mov	sp,fp
   31eec:	dfc00117 	ldw	ra,4(sp)
   31ef0:	df000017 	ldw	fp,0(sp)
   31ef4:	dec00204 	addi	sp,sp,8
   31ef8:	f800283a 	ret

00031efc <alt_irq_init>:
 * The "base" parameter is ignored and only
 * present for backwards-compatibility.
 */

void alt_irq_init ( const void* base )
{
   31efc:	defffd04 	addi	sp,sp,-12
   31f00:	dfc00215 	stw	ra,8(sp)
   31f04:	df000115 	stw	fp,4(sp)
   31f08:	df000104 	addi	fp,sp,4
   31f0c:	e13fff15 	stw	r4,-4(fp)
    ALTERA_NIOS2_GEN2_IRQ_INIT ( NIOS2_GEN2, nios2_gen2);
   31f10:	0033f040 	call	33f04 <altera_nios2_gen2_irq_init>
    NIOS2_WRITE_STATUS(NIOS2_STATUS_PIE_MSK
   31f14:	00800044 	movi	r2,1
   31f18:	1001703a 	wrctl	status,r2
}
   31f1c:	0001883a 	nop
    alt_irq_cpu_enable_interrupts();
}
   31f20:	0001883a 	nop
   31f24:	e037883a 	mov	sp,fp
   31f28:	dfc00117 	ldw	ra,4(sp)
   31f2c:	df000017 	ldw	fp,0(sp)
   31f30:	dec00204 	addi	sp,sp,8
   31f34:	f800283a 	ret

00031f38 <alt_sys_init>:
 * Initialize the non-interrupt controller devices.
 * Called after alt_irq_init().
 */

void alt_sys_init( void )
{
   31f38:	defffe04 	addi	sp,sp,-8
   31f3c:	dfc00115 	stw	ra,4(sp)
   31f40:	df000015 	stw	fp,0(sp)
   31f44:	d839883a 	mov	fp,sp
    ALTERA_AVALON_TIMER_INIT ( TIMER, timer);
   31f48:	01c0fa04 	movi	r7,1000
   31f4c:	018000c4 	movi	r6,3
   31f50:	000b883a 	mov	r5,zero
   31f54:	01000134 	movhi	r4,4
   31f58:	21040004 	addi	r4,r4,4096
   31f5c:	0032abc0 	call	32abc <alt_avalon_timer_sc_init>
    ALTERA_AVALON_JTAG_UART_INIT ( JTAG_UART, jtag_uart);
   31f60:	01800084 	movi	r6,2
   31f64:	000b883a 	mov	r5,zero
   31f68:	010000f4 	movhi	r4,3
   31f6c:	21188d04 	addi	r4,r4,25140
   31f70:	00321200 	call	32120 <altera_avalon_jtag_uart_init>
   31f74:	010000f4 	movhi	r4,3
   31f78:	21188304 	addi	r4,r4,25100
   31f7c:	0031ec80 	call	31ec8 <alt_dev_reg>
    ALTERA_AVALON_SYSID_QSYS_INIT ( SYSID_QSYS, sysid_qsys);
   31f80:	0001883a 	nop
    ALTERA_AVALON_UART_INIT ( UART_0, uart_0);
   31f84:	01800104 	movi	r6,4
   31f88:	000b883a 	mov	r5,zero
   31f8c:	010000f4 	movhi	r4,3
   31f90:	211ca504 	addi	r4,r4,29332
   31f94:	0032c500 	call	32c50 <altera_avalon_uart_init>
   31f98:	010000f4 	movhi	r4,3
   31f9c:	211c9b04 	addi	r4,r4,29292
   31fa0:	0031ec80 	call	31ec8 <alt_dev_reg>
}
   31fa4:	0001883a 	nop
   31fa8:	e037883a 	mov	sp,fp
   31fac:	dfc00117 	ldw	ra,4(sp)
   31fb0:	df000017 	ldw	fp,0(sp)
   31fb4:	dec00204 	addi	sp,sp,8
   31fb8:	f800283a 	ret

00031fbc <altera_avalon_jtag_uart_read_fd>:
 *
 */

int 
altera_avalon_jtag_uart_read_fd(alt_fd* fd, char* buffer, int space)
{
   31fbc:	defffa04 	addi	sp,sp,-24
   31fc0:	dfc00515 	stw	ra,20(sp)
   31fc4:	df000415 	stw	fp,16(sp)
   31fc8:	df000404 	addi	fp,sp,16
   31fcc:	e13ffe15 	stw	r4,-8(fp)
   31fd0:	e17ffd15 	stw	r5,-12(fp)
   31fd4:	e1bffc15 	stw	r6,-16(fp)
    altera_avalon_jtag_uart_dev* dev = (altera_avalon_jtag_uart_dev*) fd->dev; 
   31fd8:	e0bffe17 	ldw	r2,-8(fp)
   31fdc:	10800017 	ldw	r2,0(r2)
   31fe0:	e0bfff15 	stw	r2,-4(fp)

    return altera_avalon_jtag_uart_read(&dev->state, buffer, space,
   31fe4:	e0bfff17 	ldw	r2,-4(fp)
   31fe8:	10c00a04 	addi	r3,r2,40
   31fec:	e0bffe17 	ldw	r2,-8(fp)
   31ff0:	10800217 	ldw	r2,8(r2)
   31ff4:	100f883a 	mov	r7,r2
   31ff8:	e1bffc17 	ldw	r6,-16(fp)
   31ffc:	e17ffd17 	ldw	r5,-12(fp)
   32000:	1809883a 	mov	r4,r3
   32004:	00325f80 	call	325f8 <altera_avalon_jtag_uart_read>
      fd->fd_flags);
}
   32008:	e037883a 	mov	sp,fp
   3200c:	dfc00117 	ldw	ra,4(sp)
   32010:	df000017 	ldw	fp,0(sp)
   32014:	dec00204 	addi	sp,sp,8
   32018:	f800283a 	ret

0003201c <altera_avalon_jtag_uart_write_fd>:

int 
altera_avalon_jtag_uart_write_fd(alt_fd* fd, const char* buffer, int space)
{
   3201c:	defffa04 	addi	sp,sp,-24
   32020:	dfc00515 	stw	ra,20(sp)
   32024:	df000415 	stw	fp,16(sp)
   32028:	df000404 	addi	fp,sp,16
   3202c:	e13ffe15 	stw	r4,-8(fp)
   32030:	e17ffd15 	stw	r5,-12(fp)
   32034:	e1bffc15 	stw	r6,-16(fp)
    altera_avalon_jtag_uart_dev* dev = (altera_avalon_jtag_uart_dev*) fd->dev; 
   32038:	e0bffe17 	ldw	r2,-8(fp)
   3203c:	10800017 	ldw	r2,0(r2)
   32040:	e0bfff15 	stw	r2,-4(fp)

    return altera_avalon_jtag_uart_write(&dev->state, buffer, space,
   32044:	e0bfff17 	ldw	r2,-4(fp)
   32048:	10c00a04 	addi	r3,r2,40
   3204c:	e0bffe17 	ldw	r2,-8(fp)
   32050:	10800217 	ldw	r2,8(r2)
   32054:	100f883a 	mov	r7,r2
   32058:	e1bffc17 	ldw	r6,-16(fp)
   3205c:	e17ffd17 	ldw	r5,-12(fp)
   32060:	1809883a 	mov	r4,r3
   32064:	00328180 	call	32818 <altera_avalon_jtag_uart_write>
      fd->fd_flags);
}
   32068:	e037883a 	mov	sp,fp
   3206c:	dfc00117 	ldw	ra,4(sp)
   32070:	df000017 	ldw	fp,0(sp)
   32074:	dec00204 	addi	sp,sp,8
   32078:	f800283a 	ret

0003207c <altera_avalon_jtag_uart_close_fd>:

#ifndef ALTERA_AVALON_JTAG_UART_SMALL

int 
altera_avalon_jtag_uart_close_fd(alt_fd* fd)
{
   3207c:	defffc04 	addi	sp,sp,-16
   32080:	dfc00315 	stw	ra,12(sp)
   32084:	df000215 	stw	fp,8(sp)
   32088:	df000204 	addi	fp,sp,8
   3208c:	e13ffe15 	stw	r4,-8(fp)
    altera_avalon_jtag_uart_dev* dev = (altera_avalon_jtag_uart_dev*) fd->dev; 
   32090:	e0bffe17 	ldw	r2,-8(fp)
   32094:	10800017 	ldw	r2,0(r2)
   32098:	e0bfff15 	stw	r2,-4(fp)

    return altera_avalon_jtag_uart_close(&dev->state, fd->fd_flags);
   3209c:	e0bfff17 	ldw	r2,-4(fp)
   320a0:	10c00a04 	addi	r3,r2,40
   320a4:	e0bffe17 	ldw	r2,-8(fp)
   320a8:	10800217 	ldw	r2,8(r2)
   320ac:	100b883a 	mov	r5,r2
   320b0:	1809883a 	mov	r4,r3
   320b4:	003249c0 	call	3249c <altera_avalon_jtag_uart_close>
}
   320b8:	e037883a 	mov	sp,fp
   320bc:	dfc00117 	ldw	ra,4(sp)
   320c0:	df000017 	ldw	fp,0(sp)
   320c4:	dec00204 	addi	sp,sp,8
   320c8:	f800283a 	ret

000320cc <altera_avalon_jtag_uart_ioctl_fd>:

int 
altera_avalon_jtag_uart_ioctl_fd(alt_fd* fd, int req, void* arg)
{
   320cc:	defffa04 	addi	sp,sp,-24
   320d0:	dfc00515 	stw	ra,20(sp)
   320d4:	df000415 	stw	fp,16(sp)
   320d8:	df000404 	addi	fp,sp,16
   320dc:	e13ffe15 	stw	r4,-8(fp)
   320e0:	e17ffd15 	stw	r5,-12(fp)
   320e4:	e1bffc15 	stw	r6,-16(fp)
    altera_avalon_jtag_uart_dev* dev = (altera_avalon_jtag_uart_dev*) fd->dev;
   320e8:	e0bffe17 	ldw	r2,-8(fp)
   320ec:	10800017 	ldw	r2,0(r2)
   320f0:	e0bfff15 	stw	r2,-4(fp)

    return altera_avalon_jtag_uart_ioctl(&dev->state, req, arg);
   320f4:	e0bfff17 	ldw	r2,-4(fp)
   320f8:	10800a04 	addi	r2,r2,40
   320fc:	e1bffc17 	ldw	r6,-16(fp)
   32100:	e17ffd17 	ldw	r5,-12(fp)
   32104:	1009883a 	mov	r4,r2
   32108:	00325040 	call	32504 <altera_avalon_jtag_uart_ioctl>
}
   3210c:	e037883a 	mov	sp,fp
   32110:	dfc00117 	ldw	ra,4(sp)
   32114:	df000017 	ldw	fp,0(sp)
   32118:	dec00204 	addi	sp,sp,8
   3211c:	f800283a 	ret

00032120 <altera_avalon_jtag_uart_init>:
 * Return 1 on sucessful IRQ register and 0 on failure.
 */

void altera_avalon_jtag_uart_init(altera_avalon_jtag_uart_state* sp, 
                                  int irq_controller_id, int irq)
{
   32120:	defffa04 	addi	sp,sp,-24
   32124:	dfc00515 	stw	ra,20(sp)
   32128:	df000415 	stw	fp,16(sp)
   3212c:	df000404 	addi	fp,sp,16
   32130:	e13fff15 	stw	r4,-4(fp)
   32134:	e17ffe15 	stw	r5,-8(fp)
   32138:	e1bffd15 	stw	r6,-12(fp)
  ALT_FLAG_CREATE(&sp->events, 0);
  ALT_SEM_CREATE(&sp->read_lock, 1);
  ALT_SEM_CREATE(&sp->write_lock, 1);

  /* enable read interrupts at the device */
  sp->irq_enable = ALTERA_AVALON_JTAG_UART_CONTROL_RE_MSK;
   3213c:	e0bfff17 	ldw	r2,-4(fp)
   32140:	00c00044 	movi	r3,1
   32144:	10c00815 	stw	r3,32(r2)

  IOWR_ALTERA_AVALON_JTAG_UART_CONTROL(sp->base, sp->irq_enable); 
   32148:	e0bfff17 	ldw	r2,-4(fp)
   3214c:	10800017 	ldw	r2,0(r2)
   32150:	10800104 	addi	r2,r2,4
   32154:	1007883a 	mov	r3,r2
   32158:	e0bfff17 	ldw	r2,-4(fp)
   3215c:	10800817 	ldw	r2,32(r2)
   32160:	18800035 	stwio	r2,0(r3)
  
  /* register the interrupt handler */
#ifdef ALT_ENHANCED_INTERRUPT_API_PRESENT
  alt_ic_isr_register(irq_controller_id, irq, altera_avalon_jtag_uart_irq, 
   32164:	e0bffe17 	ldw	r2,-8(fp)
   32168:	e0fffd17 	ldw	r3,-12(fp)
   3216c:	d8000015 	stw	zero,0(sp)
   32170:	e1ffff17 	ldw	r7,-4(fp)
   32174:	018000f4 	movhi	r6,3
   32178:	31887804 	addi	r6,r6,8672
   3217c:	180b883a 	mov	r5,r3
   32180:	1009883a 	mov	r4,r2
   32184:	0033b400 	call	33b40 <alt_ic_isr_register>
#else
  alt_irq_register(irq, sp, altera_avalon_jtag_uart_irq);
#endif  

  /* Register an alarm to go off every second to check for presence of host */
  sp->host_inactive = 0;
   32188:	e0bfff17 	ldw	r2,-4(fp)
   3218c:	10000915 	stw	zero,36(r2)

  if (alt_alarm_start(&sp->alarm, alt_ticks_per_second(), 
   32190:	e0bfff17 	ldw	r2,-4(fp)
   32194:	10800204 	addi	r2,r2,8
 * Obtain the system clock rate in ticks/s. 
 */

static ALT_INLINE alt_u32 ALT_ALWAYS_INLINE alt_ticks_per_second (void)
{
  return _alt_tick_rate;
   32198:	d0e92d17 	ldw	r3,-23372(gp)
   3219c:	e1ffff17 	ldw	r7,-4(fp)
   321a0:	018000f4 	movhi	r6,3
   321a4:	3188fd04 	addi	r6,r6,9204
   321a8:	180b883a 	mov	r5,r3
   321ac:	1009883a 	mov	r4,r2
   321b0:	00334240 	call	33424 <alt_alarm_start>
   321b4:	1000040e 	bge	r2,zero,321c8 <altera_avalon_jtag_uart_init+0xa8>
    &altera_avalon_jtag_uart_timeout, sp) < 0)
  {
    /* If we can't set the alarm then record "don't know if host present" 
     * and behave as though the host is present.
     */
    sp->timeout = INT_MAX;
   321b8:	e0ffff17 	ldw	r3,-4(fp)
   321bc:	00a00034 	movhi	r2,32768
   321c0:	10bfffc4 	addi	r2,r2,-1
   321c4:	18800115 	stw	r2,4(r3)
  }

  /* ALT_LOG - see altera_hal/HAL/inc/sys/alt_log_printf.h */ 
  ALT_LOG_JTAG_UART_ALARM_REGISTER(sp, sp->base);
}
   321c8:	0001883a 	nop
   321cc:	e037883a 	mov	sp,fp
   321d0:	dfc00117 	ldw	ra,4(sp)
   321d4:	df000017 	ldw	fp,0(sp)
   321d8:	dec00204 	addi	sp,sp,8
   321dc:	f800283a 	ret

000321e0 <altera_avalon_jtag_uart_irq>:
#ifdef ALT_ENHANCED_INTERRUPT_API_PRESENT
static void altera_avalon_jtag_uart_irq(void* context)
#else
static void altera_avalon_jtag_uart_irq(void* context, alt_u32 id)
#endif
{
   321e0:	defff704 	addi	sp,sp,-36
   321e4:	df000815 	stw	fp,32(sp)
   321e8:	df000804 	addi	fp,sp,32
   321ec:	e13ff815 	stw	r4,-32(fp)
  altera_avalon_jtag_uart_state* sp = (altera_avalon_jtag_uart_state*) context;
   321f0:	e0bff817 	ldw	r2,-32(fp)
   321f4:	e0bffc15 	stw	r2,-16(fp)
  unsigned int base = sp->base;
   321f8:	e0bffc17 	ldw	r2,-16(fp)
   321fc:	10800017 	ldw	r2,0(r2)
   32200:	e0bffb15 	stw	r2,-20(fp)
  unsigned int postflag=0;
   32204:	e03fff15 	stw	zero,-4(fp)
  /* ALT_LOG - see altera_hal/HAL/inc/sys/alt_log_printf.h */ 
  ALT_LOG_JTAG_UART_ISR_FUNCTION(base, sp);

  for ( ; ; )
  {
    unsigned int control = IORD_ALTERA_AVALON_JTAG_UART_CONTROL(base);
   32208:	e0bffb17 	ldw	r2,-20(fp)
   3220c:	10800104 	addi	r2,r2,4
   32210:	10800037 	ldwio	r2,0(r2)
   32214:	e0bffa15 	stw	r2,-24(fp)

    /* Return once nothing more to do */
    if ((control & (ALTERA_AVALON_JTAG_UART_CONTROL_RI_MSK | ALTERA_AVALON_JTAG_UART_CONTROL_WI_MSK)) == 0)
   32218:	e0bffa17 	ldw	r2,-24(fp)
   3221c:	1080c00c 	andi	r2,r2,768
   32220:	10006e26 	beq	r2,zero,323dc <altera_avalon_jtag_uart_irq+0x1fc>
      break;

    if (control & ALTERA_AVALON_JTAG_UART_CONTROL_RI_MSK)
   32224:	e0bffa17 	ldw	r2,-24(fp)
   32228:	1080400c 	andi	r2,r2,256
   3222c:	10003526 	beq	r2,zero,32304 <altera_avalon_jtag_uart_irq+0x124>
    {
      /* process a read irq.  Start by assuming that there is data in the
       * receive FIFO (otherwise why would we have been interrupted?)
       */
      unsigned int data = 1 << ALTERA_AVALON_JTAG_UART_DATA_RAVAIL_OFST;
   32230:	00800074 	movhi	r2,1
   32234:	e0bffe15 	stw	r2,-8(fp)
      for ( ; ; )
      {
        /* Check whether there is space in the buffer.  If not then we must not
         * read any characters from the buffer as they will be lost.
         */
        unsigned int next = (sp->rx_in + 1) % ALTERA_AVALON_JTAG_UART_BUF_LEN;
   32238:	e0bffc17 	ldw	r2,-16(fp)
   3223c:	10800a17 	ldw	r2,40(r2)
   32240:	10800044 	addi	r2,r2,1
   32244:	1081ffcc 	andi	r2,r2,2047
   32248:	e0bff915 	stw	r2,-28(fp)
        if (next == sp->rx_out)
   3224c:	e0bffc17 	ldw	r2,-16(fp)
   32250:	10800b17 	ldw	r2,44(r2)
   32254:	e0fff917 	ldw	r3,-28(fp)
   32258:	18801526 	beq	r3,r2,322b0 <altera_avalon_jtag_uart_irq+0xd0>
          break;

        /* Try to remove a character from the FIFO and find out whether there
         * are any more characters remaining.
         */
        data = IORD_ALTERA_AVALON_JTAG_UART_DATA(base);
   3225c:	e0bffb17 	ldw	r2,-20(fp)
   32260:	10800037 	ldwio	r2,0(r2)
   32264:	e0bffe15 	stw	r2,-8(fp)
        
        if ((data & ALTERA_AVALON_JTAG_UART_DATA_RVALID_MSK) == 0)
   32268:	e0bffe17 	ldw	r2,-8(fp)
   3226c:	10a0000c 	andi	r2,r2,32768
   32270:	10001126 	beq	r2,zero,322b8 <altera_avalon_jtag_uart_irq+0xd8>
          break;

        sp->rx_buf[sp->rx_in] = (data & ALTERA_AVALON_JTAG_UART_DATA_DATA_MSK) >> ALTERA_AVALON_JTAG_UART_DATA_DATA_OFST;
   32274:	e0bffc17 	ldw	r2,-16(fp)
   32278:	10800a17 	ldw	r2,40(r2)
   3227c:	e0fffe17 	ldw	r3,-8(fp)
   32280:	1809883a 	mov	r4,r3
   32284:	e0fffc17 	ldw	r3,-16(fp)
   32288:	1885883a 	add	r2,r3,r2
   3228c:	11000e05 	stb	r4,56(r2)
        sp->rx_in = (sp->rx_in + 1) % ALTERA_AVALON_JTAG_UART_BUF_LEN;
   32290:	e0bffc17 	ldw	r2,-16(fp)
   32294:	10800a17 	ldw	r2,40(r2)
   32298:	10800044 	addi	r2,r2,1
   3229c:	10c1ffcc 	andi	r3,r2,2047
   322a0:	e0bffc17 	ldw	r2,-16(fp)
   322a4:	10c00a15 	stw	r3,40(r2)
 * HAL.
 */

static ALT_INLINE int ALT_ALWAYS_INLINE alt_no_error (void)
{
  return 0;
   322a8:	0001883a 	nop
      {
   322ac:	003fe206 	br	32238 <altera_avalon_jtag_uart_irq+0x58>
          break;
   322b0:	0001883a 	nop
   322b4:	00000106 	br	322bc <altera_avalon_jtag_uart_irq+0xdc>
          break;
   322b8:	0001883a 	nop

        /* Post an event to notify jtag_uart_read that a character has been read */
        ALT_FLAG_POST (sp->events, ALT_JTAG_UART_READ_RDY, ALT_FLAG_SET);
      }

      if (data & ALTERA_AVALON_JTAG_UART_DATA_RAVAIL_MSK)
   322bc:	e0bffe17 	ldw	r2,-8(fp)
   322c0:	00ffffd4 	movui	r3,65535
   322c4:	18800f2e 	bgeu	r3,r2,32304 <altera_avalon_jtag_uart_irq+0x124>
      {
        /* If there is still data available here then the buffer is full 
         * so turn off receive interrupts until some space becomes available.
         */
        sp->irq_enable &= ~ALTERA_AVALON_JTAG_UART_CONTROL_RE_MSK;
   322c8:	e0bffc17 	ldw	r2,-16(fp)
   322cc:	10c00817 	ldw	r3,32(r2)
   322d0:	00bfff84 	movi	r2,-2
   322d4:	1886703a 	and	r3,r3,r2
   322d8:	e0bffc17 	ldw	r2,-16(fp)
   322dc:	10c00815 	stw	r3,32(r2)
        IOWR_ALTERA_AVALON_JTAG_UART_CONTROL(base, sp->irq_enable);
   322e0:	e0bffb17 	ldw	r2,-20(fp)
   322e4:	10800104 	addi	r2,r2,4
   322e8:	1007883a 	mov	r3,r2
   322ec:	e0bffc17 	ldw	r2,-16(fp)
   322f0:	10800817 	ldw	r2,32(r2)
   322f4:	18800035 	stwio	r2,0(r3)
        
        /* Dummy read to ensure IRQ is cleared prior to ISR completion */
        IORD_ALTERA_AVALON_JTAG_UART_CONTROL(base);
   322f8:	e0bffb17 	ldw	r2,-20(fp)
   322fc:	10800104 	addi	r2,r2,4
   32300:	10800037 	ldwio	r2,0(r2)
      }
    }

    if (control & ALTERA_AVALON_JTAG_UART_CONTROL_WI_MSK)
   32304:	e0bffa17 	ldw	r2,-24(fp)
   32308:	1080800c 	andi	r2,r2,512
   3230c:	103fbe26 	beq	r2,zero,32208 <altera_avalon_jtag_uart_irq+0x28>
    {
      /* process a write irq */
      unsigned int space = (control & ALTERA_AVALON_JTAG_UART_CONTROL_WSPACE_MSK) >> ALTERA_AVALON_JTAG_UART_CONTROL_WSPACE_OFST;
   32310:	e0bffa17 	ldw	r2,-24(fp)
   32314:	1004d43a 	srli	r2,r2,16
   32318:	e0bffd15 	stw	r2,-12(fp)

      while (space > 0 && sp->tx_out != sp->tx_in)
   3231c:	00001506 	br	32374 <altera_avalon_jtag_uart_irq+0x194>
      {
        IOWR_ALTERA_AVALON_JTAG_UART_DATA(base, sp->tx_buf[sp->tx_out]);
   32320:	e0bffb17 	ldw	r2,-20(fp)
   32324:	e0fffc17 	ldw	r3,-16(fp)
   32328:	18c00d17 	ldw	r3,52(r3)
   3232c:	e13ffc17 	ldw	r4,-16(fp)
   32330:	20c7883a 	add	r3,r4,r3
   32334:	18c20e03 	ldbu	r3,2104(r3)
   32338:	18c03fcc 	andi	r3,r3,255
   3233c:	18c0201c 	xori	r3,r3,128
   32340:	18ffe004 	addi	r3,r3,-128
   32344:	10c00035 	stwio	r3,0(r2)

        sp->tx_out = (sp->tx_out + 1) % ALTERA_AVALON_JTAG_UART_BUF_LEN;
   32348:	e0bffc17 	ldw	r2,-16(fp)
   3234c:	10800d17 	ldw	r2,52(r2)
   32350:	10800044 	addi	r2,r2,1
   32354:	10c1ffcc 	andi	r3,r2,2047
   32358:	e0bffc17 	ldw	r2,-16(fp)
   3235c:	10c00d15 	stw	r3,52(r2)
        
        /* indicate that the ALT_FLAG_POST routine must be called */
        postflag=1;
   32360:	00800044 	movi	r2,1
   32364:	e0bfff15 	stw	r2,-4(fp)

        space--;
   32368:	e0bffd17 	ldw	r2,-12(fp)
   3236c:	10bfffc4 	addi	r2,r2,-1
   32370:	e0bffd15 	stw	r2,-12(fp)
      while (space > 0 && sp->tx_out != sp->tx_in)
   32374:	e0bffd17 	ldw	r2,-12(fp)
   32378:	10000526 	beq	r2,zero,32390 <altera_avalon_jtag_uart_irq+0x1b0>
   3237c:	e0bffc17 	ldw	r2,-16(fp)
   32380:	10c00d17 	ldw	r3,52(r2)
   32384:	e0bffc17 	ldw	r2,-16(fp)
   32388:	10800c17 	ldw	r2,48(r2)
   3238c:	18bfe41e 	bne	r3,r2,32320 <altera_avalon_jtag_uart_irq+0x140>
      {
        /* Post an event to notify jtag_uart_write that a character has been written */
        ALT_FLAG_POST (sp->events, ALT_JTAG_UART_WRITE_RDY, ALT_FLAG_SET);
      }

      if (space > 0)
   32390:	e0bffd17 	ldw	r2,-12(fp)
   32394:	103f9c26 	beq	r2,zero,32208 <altera_avalon_jtag_uart_irq+0x28>
      {
        /* If we don't have any more data available then turn off the TX interrupt */
        sp->irq_enable &= ~ALTERA_AVALON_JTAG_UART_CONTROL_WE_MSK;
   32398:	e0bffc17 	ldw	r2,-16(fp)
   3239c:	10c00817 	ldw	r3,32(r2)
   323a0:	00bfff44 	movi	r2,-3
   323a4:	1886703a 	and	r3,r3,r2
   323a8:	e0bffc17 	ldw	r2,-16(fp)
   323ac:	10c00815 	stw	r3,32(r2)
        IOWR_ALTERA_AVALON_JTAG_UART_CONTROL(sp->base, sp->irq_enable);
   323b0:	e0bffc17 	ldw	r2,-16(fp)
   323b4:	10800017 	ldw	r2,0(r2)
   323b8:	10800104 	addi	r2,r2,4
   323bc:	1007883a 	mov	r3,r2
   323c0:	e0bffc17 	ldw	r2,-16(fp)
   323c4:	10800817 	ldw	r2,32(r2)
   323c8:	18800035 	stwio	r2,0(r3)
        
        /* Dummy read to ensure IRQ is cleared prior to ISR completion */
        IORD_ALTERA_AVALON_JTAG_UART_CONTROL(base);
   323cc:	e0bffb17 	ldw	r2,-20(fp)
   323d0:	10800104 	addi	r2,r2,4
   323d4:	10800037 	ldwio	r2,0(r2)
  {
   323d8:	003f8b06 	br	32208 <altera_avalon_jtag_uart_irq+0x28>
      break;
   323dc:	0001883a 	nop
      }
    }
  }
}
   323e0:	0001883a 	nop
   323e4:	e037883a 	mov	sp,fp
   323e8:	df000017 	ldw	fp,0(sp)
   323ec:	dec00104 	addi	sp,sp,4
   323f0:	f800283a 	ret

000323f4 <altera_avalon_jtag_uart_timeout>:
 * Timeout routine is called every second
 */

static alt_u32 
altera_avalon_jtag_uart_timeout(void* context) 
{
   323f4:	defffc04 	addi	sp,sp,-16
   323f8:	df000315 	stw	fp,12(sp)
   323fc:	df000304 	addi	fp,sp,12
   32400:	e13ffd15 	stw	r4,-12(fp)
  altera_avalon_jtag_uart_state* sp = (altera_avalon_jtag_uart_state *) context;
   32404:	e0bffd17 	ldw	r2,-12(fp)
   32408:	e0bfff15 	stw	r2,-4(fp)

  unsigned int control = IORD_ALTERA_AVALON_JTAG_UART_CONTROL(sp->base);
   3240c:	e0bfff17 	ldw	r2,-4(fp)
   32410:	10800017 	ldw	r2,0(r2)
   32414:	10800104 	addi	r2,r2,4
   32418:	10800037 	ldwio	r2,0(r2)
   3241c:	e0bffe15 	stw	r2,-8(fp)

  if (control & ALTERA_AVALON_JTAG_UART_CONTROL_AC_MSK)
   32420:	e0bffe17 	ldw	r2,-8(fp)
   32424:	1081000c 	andi	r2,r2,1024
   32428:	10000b26 	beq	r2,zero,32458 <altera_avalon_jtag_uart_timeout+0x64>
  {
    IOWR_ALTERA_AVALON_JTAG_UART_CONTROL(sp->base, sp->irq_enable | ALTERA_AVALON_JTAG_UART_CONTROL_AC_MSK);
   3242c:	e0bfff17 	ldw	r2,-4(fp)
   32430:	10800017 	ldw	r2,0(r2)
   32434:	10800104 	addi	r2,r2,4
   32438:	1007883a 	mov	r3,r2
   3243c:	e0bfff17 	ldw	r2,-4(fp)
   32440:	10800817 	ldw	r2,32(r2)
   32444:	10810014 	ori	r2,r2,1024
   32448:	18800035 	stwio	r2,0(r3)
    sp->host_inactive = 0;
   3244c:	e0bfff17 	ldw	r2,-4(fp)
   32450:	10000915 	stw	zero,36(r2)
   32454:	00000c06 	br	32488 <altera_avalon_jtag_uart_timeout+0x94>
  }
  else if (sp->host_inactive < INT_MAX - 2) {
   32458:	e0bfff17 	ldw	r2,-4(fp)
   3245c:	10c00917 	ldw	r3,36(r2)
   32460:	00a00034 	movhi	r2,32768
   32464:	10bfff04 	addi	r2,r2,-4
   32468:	10c00736 	bltu	r2,r3,32488 <altera_avalon_jtag_uart_timeout+0x94>
    sp->host_inactive++;
   3246c:	e0bfff17 	ldw	r2,-4(fp)
   32470:	10800917 	ldw	r2,36(r2)
   32474:	10c00044 	addi	r3,r2,1
   32478:	e0bfff17 	ldw	r2,-4(fp)
   3247c:	10c00915 	stw	r3,36(r2)
    
    if (sp->host_inactive >= sp->timeout) {
   32480:	e0bfff17 	ldw	r2,-4(fp)
   32484:	10800917 	ldw	r2,36(r2)
   32488:	d0a92d17 	ldw	r2,-23372(gp)
      ALT_FLAG_POST (sp->events, ALT_JTAG_UART_TIMEOUT, ALT_FLAG_SET);
    }
  }

  return alt_ticks_per_second();
}
   3248c:	e037883a 	mov	sp,fp
   32490:	df000017 	ldw	fp,0(sp)
   32494:	dec00104 	addi	sp,sp,4
   32498:	f800283a 	ret

0003249c <altera_avalon_jtag_uart_close>:
 * The close routine is not implemented for the small driver; instead it will
 * map to null. This is because the small driver simply waits while characters
 * are transmitted; there is no interrupt-serviced buffer to empty 
 */
int altera_avalon_jtag_uart_close(altera_avalon_jtag_uart_state* sp, int flags)
{
   3249c:	defffd04 	addi	sp,sp,-12
   324a0:	df000215 	stw	fp,8(sp)
   324a4:	df000204 	addi	fp,sp,8
   324a8:	e13fff15 	stw	r4,-4(fp)
   324ac:	e17ffe15 	stw	r5,-8(fp)
  /* 
   * Wait for all transmit data to be emptied by the JTAG UART ISR, or
   * for a host-inactivity timeout, in which case transmit data will be lost
   */
  while ( (sp->tx_out != sp->tx_in) && (sp->host_inactive < sp->timeout) ) {
   324b0:	00000506 	br	324c8 <altera_avalon_jtag_uart_close+0x2c>
    if (flags & O_NONBLOCK) {
   324b4:	e0bffe17 	ldw	r2,-8(fp)
   324b8:	1090000c 	andi	r2,r2,16384
   324bc:	10000226 	beq	r2,zero,324c8 <altera_avalon_jtag_uart_close+0x2c>
      return -EWOULDBLOCK; 
   324c0:	00bffd44 	movi	r2,-11
   324c4:	00000b06 	br	324f4 <altera_avalon_jtag_uart_close+0x58>
  while ( (sp->tx_out != sp->tx_in) && (sp->host_inactive < sp->timeout) ) {
   324c8:	e0bfff17 	ldw	r2,-4(fp)
   324cc:	10c00d17 	ldw	r3,52(r2)
   324d0:	e0bfff17 	ldw	r2,-4(fp)
   324d4:	10800c17 	ldw	r2,48(r2)
   324d8:	18800526 	beq	r3,r2,324f0 <altera_avalon_jtag_uart_close+0x54>
   324dc:	e0bfff17 	ldw	r2,-4(fp)
   324e0:	10c00917 	ldw	r3,36(r2)
   324e4:	e0bfff17 	ldw	r2,-4(fp)
   324e8:	10800117 	ldw	r2,4(r2)
   324ec:	18bff136 	bltu	r3,r2,324b4 <altera_avalon_jtag_uart_close+0x18>
    }
  }

  return 0;
   324f0:	0005883a 	mov	r2,zero
}
   324f4:	e037883a 	mov	sp,fp
   324f8:	df000017 	ldw	fp,0(sp)
   324fc:	dec00104 	addi	sp,sp,4
   32500:	f800283a 	ret

00032504 <altera_avalon_jtag_uart_ioctl>:
/* ----------------------------------------------------------- */

int 
altera_avalon_jtag_uart_ioctl(altera_avalon_jtag_uart_state* sp, int req,
  void* arg)
{
   32504:	defffa04 	addi	sp,sp,-24
   32508:	df000515 	stw	fp,20(sp)
   3250c:	df000504 	addi	fp,sp,20
   32510:	e13ffd15 	stw	r4,-12(fp)
   32514:	e17ffc15 	stw	r5,-16(fp)
   32518:	e1bffb15 	stw	r6,-20(fp)
  int rc = -ENOTTY;
   3251c:	00bff9c4 	movi	r2,-25
   32520:	e0bfff15 	stw	r2,-4(fp)

  switch (req)
   32524:	e0bffc17 	ldw	r2,-16(fp)
   32528:	109a8060 	cmpeqi	r2,r2,27137
   3252c:	1000041e 	bne	r2,zero,32540 <altera_avalon_jtag_uart_ioctl+0x3c>
   32530:	e0bffc17 	ldw	r2,-16(fp)
   32534:	109a80a0 	cmpeqi	r2,r2,27138
   32538:	1000181e 	bne	r2,zero,3259c <altera_avalon_jtag_uart_ioctl+0x98>
      rc = 0;
    }
    break;

  default:
    break;
   3253c:	00002906 	br	325e4 <altera_avalon_jtag_uart_ioctl+0xe0>
    if (sp->timeout != INT_MAX)
   32540:	e0bffd17 	ldw	r2,-12(fp)
   32544:	10c00117 	ldw	r3,4(r2)
   32548:	00a00034 	movhi	r2,32768
   3254c:	10bfffc4 	addi	r2,r2,-1
   32550:	18802126 	beq	r3,r2,325d8 <altera_avalon_jtag_uart_ioctl+0xd4>
      int timeout = *((int *)arg);
   32554:	e0bffb17 	ldw	r2,-20(fp)
   32558:	10800017 	ldw	r2,0(r2)
   3255c:	e0bffe15 	stw	r2,-8(fp)
      sp->timeout = (timeout >= 2 && timeout < INT_MAX) ? timeout : INT_MAX - 1;
   32560:	e0bffe17 	ldw	r2,-8(fp)
   32564:	10800090 	cmplti	r2,r2,2
   32568:	1000061e 	bne	r2,zero,32584 <altera_avalon_jtag_uart_ioctl+0x80>
   3256c:	e0fffe17 	ldw	r3,-8(fp)
   32570:	00a00034 	movhi	r2,32768
   32574:	10bfffc4 	addi	r2,r2,-1
   32578:	18800226 	beq	r3,r2,32584 <altera_avalon_jtag_uart_ioctl+0x80>
   3257c:	e0bffe17 	ldw	r2,-8(fp)
   32580:	00000206 	br	3258c <altera_avalon_jtag_uart_ioctl+0x88>
   32584:	00a00034 	movhi	r2,32768
   32588:	10bfff84 	addi	r2,r2,-2
   3258c:	e0fffd17 	ldw	r3,-12(fp)
   32590:	18800115 	stw	r2,4(r3)
      rc = 0;
   32594:	e03fff15 	stw	zero,-4(fp)
    break;
   32598:	00000f06 	br	325d8 <altera_avalon_jtag_uart_ioctl+0xd4>
    if (sp->timeout != INT_MAX)
   3259c:	e0bffd17 	ldw	r2,-12(fp)
   325a0:	10c00117 	ldw	r3,4(r2)
   325a4:	00a00034 	movhi	r2,32768
   325a8:	10bfffc4 	addi	r2,r2,-1
   325ac:	18800c26 	beq	r3,r2,325e0 <altera_avalon_jtag_uart_ioctl+0xdc>
      *((int *)arg) = (sp->host_inactive < sp->timeout) ? 1 : 0;
   325b0:	e0bffd17 	ldw	r2,-12(fp)
   325b4:	10c00917 	ldw	r3,36(r2)
   325b8:	e0bffd17 	ldw	r2,-12(fp)
   325bc:	10800117 	ldw	r2,4(r2)
   325c0:	1885803a 	cmpltu	r2,r3,r2
   325c4:	10c03fcc 	andi	r3,r2,255
   325c8:	e0bffb17 	ldw	r2,-20(fp)
   325cc:	10c00015 	stw	r3,0(r2)
      rc = 0;
   325d0:	e03fff15 	stw	zero,-4(fp)
    break;
   325d4:	00000206 	br	325e0 <altera_avalon_jtag_uart_ioctl+0xdc>
    break;
   325d8:	0001883a 	nop
   325dc:	00000106 	br	325e4 <altera_avalon_jtag_uart_ioctl+0xe0>
    break;
   325e0:	0001883a 	nop
  }

  return rc;
   325e4:	e0bfff17 	ldw	r2,-4(fp)
}
   325e8:	e037883a 	mov	sp,fp
   325ec:	df000017 	ldw	fp,0(sp)
   325f0:	dec00104 	addi	sp,sp,4
   325f4:	f800283a 	ret

000325f8 <altera_avalon_jtag_uart_read>:
/* ----------------------------------------------------------- */

int 
altera_avalon_jtag_uart_read(altera_avalon_jtag_uart_state* sp, 
  char * buffer, int space, int flags)
{
   325f8:	defff304 	addi	sp,sp,-52
   325fc:	dfc00c15 	stw	ra,48(sp)
   32600:	df000b15 	stw	fp,44(sp)
   32604:	df000b04 	addi	fp,sp,44
   32608:	e13ff815 	stw	r4,-32(fp)
   3260c:	e17ff715 	stw	r5,-36(fp)
   32610:	e1bff615 	stw	r6,-40(fp)
   32614:	e1fff515 	stw	r7,-44(fp)
  char * ptr = buffer;
   32618:	e0bff717 	ldw	r2,-36(fp)
   3261c:	e0bfff15 	stw	r2,-4(fp)
   * When running in a multi threaded environment, obtain the "read_lock"
   * semaphore. This ensures that reading from the device is thread-safe.
   */
  ALT_SEM_PEND (sp->read_lock, 0);

  while (space > 0)
   32620:	00004706 	br	32740 <altera_avalon_jtag_uart_read+0x148>
    unsigned int in, out;

    /* Read as much data as possible */
    do
    {
      in  = sp->rx_in;
   32624:	e0bff817 	ldw	r2,-32(fp)
   32628:	10800a17 	ldw	r2,40(r2)
   3262c:	e0bffd15 	stw	r2,-12(fp)
      out = sp->rx_out;
   32630:	e0bff817 	ldw	r2,-32(fp)
   32634:	10800b17 	ldw	r2,44(r2)
   32638:	e0bffc15 	stw	r2,-16(fp)

      if (in >= out)
   3263c:	e0fffd17 	ldw	r3,-12(fp)
   32640:	e0bffc17 	ldw	r2,-16(fp)
   32644:	18800536 	bltu	r3,r2,3265c <altera_avalon_jtag_uart_read+0x64>
        n = in - out;
   32648:	e0fffd17 	ldw	r3,-12(fp)
   3264c:	e0bffc17 	ldw	r2,-16(fp)
   32650:	1885c83a 	sub	r2,r3,r2
   32654:	e0bffe15 	stw	r2,-8(fp)
   32658:	00000406 	br	3266c <altera_avalon_jtag_uart_read+0x74>
      else
        n = ALTERA_AVALON_JTAG_UART_BUF_LEN - out;
   3265c:	00c20004 	movi	r3,2048
   32660:	e0bffc17 	ldw	r2,-16(fp)
   32664:	1885c83a 	sub	r2,r3,r2
   32668:	e0bffe15 	stw	r2,-8(fp)

      if (n == 0)
   3266c:	e0bffe17 	ldw	r2,-8(fp)
   32670:	10001e26 	beq	r2,zero,326ec <altera_avalon_jtag_uart_read+0xf4>
        break; /* No more data available */

      if (n > space)
   32674:	e0fff617 	ldw	r3,-40(fp)
   32678:	e0bffe17 	ldw	r2,-8(fp)
   3267c:	1880022e 	bgeu	r3,r2,32688 <altera_avalon_jtag_uart_read+0x90>
        n = space;
   32680:	e0bff617 	ldw	r2,-40(fp)
   32684:	e0bffe15 	stw	r2,-8(fp)

      memcpy(ptr, sp->rx_buf + out, n);
   32688:	e0bff817 	ldw	r2,-32(fp)
   3268c:	10c00e04 	addi	r3,r2,56
   32690:	e0bffc17 	ldw	r2,-16(fp)
   32694:	1885883a 	add	r2,r3,r2
   32698:	e1bffe17 	ldw	r6,-8(fp)
   3269c:	100b883a 	mov	r5,r2
   326a0:	e13fff17 	ldw	r4,-4(fp)
   326a4:	0029d840 	call	29d84 <memcpy>
      ptr   += n;
   326a8:	e0ffff17 	ldw	r3,-4(fp)
   326ac:	e0bffe17 	ldw	r2,-8(fp)
   326b0:	1885883a 	add	r2,r3,r2
   326b4:	e0bfff15 	stw	r2,-4(fp)
      space -= n;
   326b8:	e0fff617 	ldw	r3,-40(fp)
   326bc:	e0bffe17 	ldw	r2,-8(fp)
   326c0:	1885c83a 	sub	r2,r3,r2
   326c4:	e0bff615 	stw	r2,-40(fp)

      sp->rx_out = (out + n) % ALTERA_AVALON_JTAG_UART_BUF_LEN;
   326c8:	e0fffc17 	ldw	r3,-16(fp)
   326cc:	e0bffe17 	ldw	r2,-8(fp)
   326d0:	1885883a 	add	r2,r3,r2
   326d4:	10c1ffcc 	andi	r3,r2,2047
   326d8:	e0bff817 	ldw	r2,-32(fp)
   326dc:	10c00b15 	stw	r3,44(r2)
    }
    while (space > 0);
   326e0:	e0bff617 	ldw	r2,-40(fp)
   326e4:	00bfcf16 	blt	zero,r2,32624 <altera_avalon_jtag_uart_read+0x2c>
   326e8:	00000106 	br	326f0 <altera_avalon_jtag_uart_read+0xf8>
        break; /* No more data available */
   326ec:	0001883a 	nop

    /* If we read any data then return it */
    if (ptr != buffer)
   326f0:	e0ffff17 	ldw	r3,-4(fp)
   326f4:	e0bff717 	ldw	r2,-36(fp)
   326f8:	1880141e 	bne	r3,r2,3274c <altera_avalon_jtag_uart_read+0x154>
      break;

    /* If in non-blocking mode then return error */
    if (flags & O_NONBLOCK)
   326fc:	e0bff517 	ldw	r2,-44(fp)
   32700:	1090000c 	andi	r2,r2,16384
   32704:	1000131e 	bne	r2,zero,32754 <altera_avalon_jtag_uart_read+0x15c>
      while (in == sp->rx_in && sp->host_inactive < sp->timeout)
        ;
    }
#else
    /* No OS: Always spin */
    while (in == sp->rx_in && sp->host_inactive < sp->timeout)
   32708:	0001883a 	nop
   3270c:	e0bff817 	ldw	r2,-32(fp)
   32710:	10800a17 	ldw	r2,40(r2)
   32714:	e0fffd17 	ldw	r3,-12(fp)
   32718:	1880051e 	bne	r3,r2,32730 <altera_avalon_jtag_uart_read+0x138>
   3271c:	e0bff817 	ldw	r2,-32(fp)
   32720:	10c00917 	ldw	r3,36(r2)
   32724:	e0bff817 	ldw	r2,-32(fp)
   32728:	10800117 	ldw	r2,4(r2)
   3272c:	18bff736 	bltu	r3,r2,3270c <altera_avalon_jtag_uart_read+0x114>
      ;
#endif /* __ucosii__ */

    if (in == sp->rx_in)
   32730:	e0bff817 	ldw	r2,-32(fp)
   32734:	10800a17 	ldw	r2,40(r2)
   32738:	e0fffd17 	ldw	r3,-12(fp)
   3273c:	18800726 	beq	r3,r2,3275c <altera_avalon_jtag_uart_read+0x164>
  while (space > 0)
   32740:	e0bff617 	ldw	r2,-40(fp)
   32744:	00bfb716 	blt	zero,r2,32624 <altera_avalon_jtag_uart_read+0x2c>
   32748:	00000506 	br	32760 <altera_avalon_jtag_uart_read+0x168>
      break;
   3274c:	0001883a 	nop
   32750:	00000306 	br	32760 <altera_avalon_jtag_uart_read+0x168>
      break;
   32754:	0001883a 	nop
   32758:	00000106 	br	32760 <altera_avalon_jtag_uart_read+0x168>
      break;
   3275c:	0001883a 	nop
   * semaphore so that other threads can access the buffer.
   */

  ALT_SEM_POST (sp->read_lock);

  if (ptr != buffer)
   32760:	e0ffff17 	ldw	r3,-4(fp)
   32764:	e0bff717 	ldw	r2,-36(fp)
   32768:	18801926 	beq	r3,r2,327d0 <altera_avalon_jtag_uart_read+0x1d8>
  NIOS2_READ_STATUS (context);
   3276c:	0005303a 	rdctl	r2,status
   32770:	e0bff915 	stw	r2,-28(fp)
  NIOS2_WRITE_STATUS (context & ~NIOS2_STATUS_PIE_MSK);
   32774:	e0fff917 	ldw	r3,-28(fp)
   32778:	00bfff84 	movi	r2,-2
   3277c:	1884703a 	and	r2,r3,r2
   32780:	1001703a 	wrctl	status,r2
  return context;
   32784:	e0bff917 	ldw	r2,-28(fp)
  {
    /* If we read any data then there is space in the buffer so enable interrupts */
    context = alt_irq_disable_all();
   32788:	e0bffb15 	stw	r2,-20(fp)
    sp->irq_enable |= ALTERA_AVALON_JTAG_UART_CONTROL_RE_MSK;
   3278c:	e0bff817 	ldw	r2,-32(fp)
   32790:	10800817 	ldw	r2,32(r2)
   32794:	10c00054 	ori	r3,r2,1
   32798:	e0bff817 	ldw	r2,-32(fp)
   3279c:	10c00815 	stw	r3,32(r2)
    IOWR_ALTERA_AVALON_JTAG_UART_CONTROL(sp->base, sp->irq_enable);
   327a0:	e0bff817 	ldw	r2,-32(fp)
   327a4:	10800017 	ldw	r2,0(r2)
   327a8:	10800104 	addi	r2,r2,4
   327ac:	1007883a 	mov	r3,r2
   327b0:	e0bff817 	ldw	r2,-32(fp)
   327b4:	10800817 	ldw	r2,32(r2)
   327b8:	18800035 	stwio	r2,0(r3)
   327bc:	e0bffb17 	ldw	r2,-20(fp)
   327c0:	e0bffa15 	stw	r2,-24(fp)
  NIOS2_WRITE_STATUS (context);
   327c4:	e0bffa17 	ldw	r2,-24(fp)
   327c8:	1001703a 	wrctl	status,r2
}
   327cc:	0001883a 	nop
    alt_irq_enable_all(context);
  }

  if (ptr != buffer)
   327d0:	e0ffff17 	ldw	r3,-4(fp)
   327d4:	e0bff717 	ldw	r2,-36(fp)
   327d8:	18800426 	beq	r3,r2,327ec <altera_avalon_jtag_uart_read+0x1f4>
    return ptr - buffer;
   327dc:	e0ffff17 	ldw	r3,-4(fp)
   327e0:	e0bff717 	ldw	r2,-36(fp)
   327e4:	1885c83a 	sub	r2,r3,r2
   327e8:	00000606 	br	32804 <altera_avalon_jtag_uart_read+0x20c>
  else if (flags & O_NONBLOCK)
   327ec:	e0bff517 	ldw	r2,-44(fp)
   327f0:	1090000c 	andi	r2,r2,16384
   327f4:	10000226 	beq	r2,zero,32800 <altera_avalon_jtag_uart_read+0x208>
    return -EWOULDBLOCK;
   327f8:	00bffd44 	movi	r2,-11
   327fc:	00000106 	br	32804 <altera_avalon_jtag_uart_read+0x20c>
  else
    return -EIO;
   32800:	00bffec4 	movi	r2,-5
}
   32804:	e037883a 	mov	sp,fp
   32808:	dfc00117 	ldw	ra,4(sp)
   3280c:	df000017 	ldw	fp,0(sp)
   32810:	dec00204 	addi	sp,sp,8
   32814:	f800283a 	ret

00032818 <altera_avalon_jtag_uart_write>:
/* ----------------------------------------------------------- */

int 
altera_avalon_jtag_uart_write(altera_avalon_jtag_uart_state* sp, 
  const char * ptr, int count, int flags)
{
   32818:	defff304 	addi	sp,sp,-52
   3281c:	dfc00c15 	stw	ra,48(sp)
   32820:	df000b15 	stw	fp,44(sp)
   32824:	df000b04 	addi	fp,sp,44
   32828:	e13ff815 	stw	r4,-32(fp)
   3282c:	e17ff715 	stw	r5,-36(fp)
   32830:	e1bff615 	stw	r6,-40(fp)
   32834:	e1fff515 	stw	r7,-44(fp)
  /* Remove warning at optimisation level 03 by seting out to 0 */
  unsigned int in, out=0;
   32838:	e03fff15 	stw	zero,-4(fp)
  unsigned int n;
  alt_irq_context context;

  const char * start = ptr;
   3283c:	e0bff717 	ldw	r2,-36(fp)
   32840:	e0bffd15 	stw	r2,-12(fp)
  ALT_SEM_PEND (sp->write_lock, 0);

  do
  {
    /* Copy as much as we can into the transmit buffer */
    while (count > 0)
   32844:	00003706 	br	32924 <altera_avalon_jtag_uart_write+0x10c>
    {
      /* We need a stable value of the out pointer to calculate the space available */
      in  = sp->tx_in;
   32848:	e0bff817 	ldw	r2,-32(fp)
   3284c:	10800c17 	ldw	r2,48(r2)
   32850:	e0bffc15 	stw	r2,-16(fp)
      out = sp->tx_out;
   32854:	e0bff817 	ldw	r2,-32(fp)
   32858:	10800d17 	ldw	r2,52(r2)
   3285c:	e0bfff15 	stw	r2,-4(fp)

      if (in < out)
   32860:	e0fffc17 	ldw	r3,-16(fp)
   32864:	e0bfff17 	ldw	r2,-4(fp)
   32868:	1880062e 	bgeu	r3,r2,32884 <altera_avalon_jtag_uart_write+0x6c>
        n = out - 1 - in;
   3286c:	e0ffff17 	ldw	r3,-4(fp)
   32870:	e0bffc17 	ldw	r2,-16(fp)
   32874:	1885c83a 	sub	r2,r3,r2
   32878:	10bfffc4 	addi	r2,r2,-1
   3287c:	e0bffe15 	stw	r2,-8(fp)
   32880:	00000b06 	br	328b0 <altera_avalon_jtag_uart_write+0x98>
      else if (out > 0)
   32884:	e0bfff17 	ldw	r2,-4(fp)
   32888:	10000526 	beq	r2,zero,328a0 <altera_avalon_jtag_uart_write+0x88>
        n = ALTERA_AVALON_JTAG_UART_BUF_LEN - in;
   3288c:	00c20004 	movi	r3,2048
   32890:	e0bffc17 	ldw	r2,-16(fp)
   32894:	1885c83a 	sub	r2,r3,r2
   32898:	e0bffe15 	stw	r2,-8(fp)
   3289c:	00000406 	br	328b0 <altera_avalon_jtag_uart_write+0x98>
      else
        n = ALTERA_AVALON_JTAG_UART_BUF_LEN - 1 - in;
   328a0:	00c1ffc4 	movi	r3,2047
   328a4:	e0bffc17 	ldw	r2,-16(fp)
   328a8:	1885c83a 	sub	r2,r3,r2
   328ac:	e0bffe15 	stw	r2,-8(fp)

      if (n == 0)
   328b0:	e0bffe17 	ldw	r2,-8(fp)
   328b4:	10001e26 	beq	r2,zero,32930 <altera_avalon_jtag_uart_write+0x118>
        break;

      if (n > count)
   328b8:	e0fff617 	ldw	r3,-40(fp)
   328bc:	e0bffe17 	ldw	r2,-8(fp)
   328c0:	1880022e 	bgeu	r3,r2,328cc <altera_avalon_jtag_uart_write+0xb4>
        n = count;
   328c4:	e0bff617 	ldw	r2,-40(fp)
   328c8:	e0bffe15 	stw	r2,-8(fp)

      memcpy(sp->tx_buf + in, ptr, n);
   328cc:	e0bff817 	ldw	r2,-32(fp)
   328d0:	10c20e04 	addi	r3,r2,2104
   328d4:	e0bffc17 	ldw	r2,-16(fp)
   328d8:	1885883a 	add	r2,r3,r2
   328dc:	e1bffe17 	ldw	r6,-8(fp)
   328e0:	e17ff717 	ldw	r5,-36(fp)
   328e4:	1009883a 	mov	r4,r2
   328e8:	0029d840 	call	29d84 <memcpy>
      ptr   += n;
   328ec:	e0fff717 	ldw	r3,-36(fp)
   328f0:	e0bffe17 	ldw	r2,-8(fp)
   328f4:	1885883a 	add	r2,r3,r2
   328f8:	e0bff715 	stw	r2,-36(fp)
      count -= n;
   328fc:	e0fff617 	ldw	r3,-40(fp)
   32900:	e0bffe17 	ldw	r2,-8(fp)
   32904:	1885c83a 	sub	r2,r3,r2
   32908:	e0bff615 	stw	r2,-40(fp)

      sp->tx_in = (in + n) % ALTERA_AVALON_JTAG_UART_BUF_LEN;
   3290c:	e0fffc17 	ldw	r3,-16(fp)
   32910:	e0bffe17 	ldw	r2,-8(fp)
   32914:	1885883a 	add	r2,r3,r2
   32918:	10c1ffcc 	andi	r3,r2,2047
   3291c:	e0bff817 	ldw	r2,-32(fp)
   32920:	10c00c15 	stw	r3,48(r2)
    while (count > 0)
   32924:	e0bff617 	ldw	r2,-40(fp)
   32928:	00bfc716 	blt	zero,r2,32848 <altera_avalon_jtag_uart_write+0x30>
   3292c:	00000106 	br	32934 <altera_avalon_jtag_uart_write+0x11c>
        break;
   32930:	0001883a 	nop
  NIOS2_READ_STATUS (context);
   32934:	0005303a 	rdctl	r2,status
   32938:	e0bff915 	stw	r2,-28(fp)
  NIOS2_WRITE_STATUS (context & ~NIOS2_STATUS_PIE_MSK);
   3293c:	e0fff917 	ldw	r3,-28(fp)
   32940:	00bfff84 	movi	r2,-2
   32944:	1884703a 	and	r2,r3,r2
   32948:	1001703a 	wrctl	status,r2
  return context;
   3294c:	e0bff917 	ldw	r2,-28(fp)
     * to enable interrupts if there is no space left in the FIFO
     *
     * For now kick the interrupt routine every time to make it transmit 
     * the data 
     */
    context = alt_irq_disable_all();
   32950:	e0bffb15 	stw	r2,-20(fp)
    sp->irq_enable |= ALTERA_AVALON_JTAG_UART_CONTROL_WE_MSK;
   32954:	e0bff817 	ldw	r2,-32(fp)
   32958:	10800817 	ldw	r2,32(r2)
   3295c:	10c00094 	ori	r3,r2,2
   32960:	e0bff817 	ldw	r2,-32(fp)
   32964:	10c00815 	stw	r3,32(r2)
    IOWR_ALTERA_AVALON_JTAG_UART_CONTROL(sp->base, sp->irq_enable);
   32968:	e0bff817 	ldw	r2,-32(fp)
   3296c:	10800017 	ldw	r2,0(r2)
   32970:	10800104 	addi	r2,r2,4
   32974:	1007883a 	mov	r3,r2
   32978:	e0bff817 	ldw	r2,-32(fp)
   3297c:	10800817 	ldw	r2,32(r2)
   32980:	18800035 	stwio	r2,0(r3)
   32984:	e0bffb17 	ldw	r2,-20(fp)
   32988:	e0bffa15 	stw	r2,-24(fp)
  NIOS2_WRITE_STATUS (context);
   3298c:	e0bffa17 	ldw	r2,-24(fp)
   32990:	1001703a 	wrctl	status,r2
}
   32994:	0001883a 	nop
    /* 
     * If there is any data left then either return now or block until 
     * some has been sent 
     */
    /* consider: test whether there is anything there while doing this and delay for at most 2s. */
    if (count > 0)
   32998:	e0bff617 	ldw	r2,-40(fp)
   3299c:	0080100e 	bge	zero,r2,329e0 <altera_avalon_jtag_uart_write+0x1c8>
    {
      if (flags & O_NONBLOCK)
   329a0:	e0bff517 	ldw	r2,-44(fp)
   329a4:	1090000c 	andi	r2,r2,16384
   329a8:	1000101e 	bne	r2,zero,329ec <altera_avalon_jtag_uart_write+0x1d4>
      /*
       * No OS present: Always wait for data to be removed from buffer.  Once
       * the interrupt routine has removed some data then we will be able to
       * insert some more.
       */
      while (out == sp->tx_out && sp->host_inactive < sp->timeout)
   329ac:	0001883a 	nop
   329b0:	e0bff817 	ldw	r2,-32(fp)
   329b4:	10800d17 	ldw	r2,52(r2)
   329b8:	e0ffff17 	ldw	r3,-4(fp)
   329bc:	1880051e 	bne	r3,r2,329d4 <altera_avalon_jtag_uart_write+0x1bc>
   329c0:	e0bff817 	ldw	r2,-32(fp)
   329c4:	10c00917 	ldw	r3,36(r2)
   329c8:	e0bff817 	ldw	r2,-32(fp)
   329cc:	10800117 	ldw	r2,4(r2)
   329d0:	18bff736 	bltu	r3,r2,329b0 <altera_avalon_jtag_uart_write+0x198>
        ;
#endif /* __ucosii__ */

      if  (sp->host_inactive)
   329d4:	e0bff817 	ldw	r2,-32(fp)
   329d8:	10800917 	ldw	r2,36(r2)
   329dc:	1000051e 	bne	r2,zero,329f4 <altera_avalon_jtag_uart_write+0x1dc>
         break;
    }
  }
  while (count > 0);
   329e0:	e0bff617 	ldw	r2,-40(fp)
   329e4:	00bfcf16 	blt	zero,r2,32924 <altera_avalon_jtag_uart_write+0x10c>
   329e8:	00000306 	br	329f8 <altera_avalon_jtag_uart_write+0x1e0>
        break;
   329ec:	0001883a 	nop
   329f0:	00000106 	br	329f8 <altera_avalon_jtag_uart_write+0x1e0>
         break;
   329f4:	0001883a 	nop
   * Now that access to the circular buffer is complete, release the write
   * semaphore so that other threads can access the buffer.
   */
  ALT_SEM_POST (sp->write_lock);

  if (ptr != start)
   329f8:	e0fff717 	ldw	r3,-36(fp)
   329fc:	e0bffd17 	ldw	r2,-12(fp)
   32a00:	18800426 	beq	r3,r2,32a14 <altera_avalon_jtag_uart_write+0x1fc>
    return ptr - start;
   32a04:	e0fff717 	ldw	r3,-36(fp)
   32a08:	e0bffd17 	ldw	r2,-12(fp)
   32a0c:	1885c83a 	sub	r2,r3,r2
   32a10:	00000606 	br	32a2c <altera_avalon_jtag_uart_write+0x214>
  else if (flags & O_NONBLOCK)
   32a14:	e0bff517 	ldw	r2,-44(fp)
   32a18:	1090000c 	andi	r2,r2,16384
   32a1c:	10000226 	beq	r2,zero,32a28 <altera_avalon_jtag_uart_write+0x210>
    return -EWOULDBLOCK;
   32a20:	00bffd44 	movi	r2,-11
   32a24:	00000106 	br	32a2c <altera_avalon_jtag_uart_write+0x214>
    sp->tx_out = sp->tx_in = 0;
    return ptr - start + count;
  }
#endif
  else
    return -EIO; /* Host not connected */
   32a28:	00bffec4 	movi	r2,-5
}
   32a2c:	e037883a 	mov	sp,fp
   32a30:	dfc00117 	ldw	ra,4(sp)
   32a34:	df000017 	ldw	fp,0(sp)
   32a38:	dec00204 	addi	sp,sp,8
   32a3c:	f800283a 	ret

00032a40 <alt_avalon_timer_sc_irq>:
#ifdef ALT_ENHANCED_INTERRUPT_API_PRESENT
static void alt_avalon_timer_sc_irq (void* base)
#else
static void alt_avalon_timer_sc_irq (void* base, alt_u32 id)
#endif
{
   32a40:	defffa04 	addi	sp,sp,-24
   32a44:	dfc00515 	stw	ra,20(sp)
   32a48:	df000415 	stw	fp,16(sp)
   32a4c:	df000404 	addi	fp,sp,16
   32a50:	e13ffc15 	stw	r4,-16(fp)
  alt_irq_context cpu_sr;
  
  /* clear the interrupt */
  IOWR_ALTERA_AVALON_TIMER_STATUS (base, 0);
   32a54:	0007883a 	mov	r3,zero
   32a58:	e0bffc17 	ldw	r2,-16(fp)
   32a5c:	10c00035 	stwio	r3,0(r2)
  /* 
   * Dummy read to ensure IRQ is negated before the ISR returns.
   * The control register is read because reading the status
   * register has side-effects per the register map documentation.
   */
  IORD_ALTERA_AVALON_TIMER_CONTROL (base);
   32a60:	e0bffc17 	ldw	r2,-16(fp)
   32a64:	10800104 	addi	r2,r2,4
   32a68:	10800037 	ldwio	r2,0(r2)
  NIOS2_READ_STATUS (context);
   32a6c:	0005303a 	rdctl	r2,status
   32a70:	e0bffd15 	stw	r2,-12(fp)
  NIOS2_WRITE_STATUS (context & ~NIOS2_STATUS_PIE_MSK);
   32a74:	e0fffd17 	ldw	r3,-12(fp)
   32a78:	00bfff84 	movi	r2,-2
   32a7c:	1884703a 	and	r2,r3,r2
   32a80:	1001703a 	wrctl	status,r2
  return context;
   32a84:	e0bffd17 	ldw	r2,-12(fp)

  /* 
   * Notify the system of a clock tick. disable interrupts 
   * during this time to safely support ISR preemption
   */
  cpu_sr = alt_irq_disable_all();
   32a88:	e0bfff15 	stw	r2,-4(fp)
  alt_tick ();
   32a8c:	0031c380 	call	31c38 <alt_tick>
   32a90:	e0bfff17 	ldw	r2,-4(fp)
   32a94:	e0bffe15 	stw	r2,-8(fp)
  NIOS2_WRITE_STATUS (context);
   32a98:	e0bffe17 	ldw	r2,-8(fp)
   32a9c:	1001703a 	wrctl	status,r2
}
   32aa0:	0001883a 	nop
  alt_irq_enable_all(cpu_sr);
}
   32aa4:	0001883a 	nop
   32aa8:	e037883a 	mov	sp,fp
   32aac:	dfc00117 	ldw	ra,4(sp)
   32ab0:	df000017 	ldw	fp,0(sp)
   32ab4:	dec00204 	addi	sp,sp,8
   32ab8:	f800283a 	ret

00032abc <alt_avalon_timer_sc_init>:
 * auto-generated alt_sys_init() function.
 */

void alt_avalon_timer_sc_init (void* base, alt_u32 irq_controller_id, 
                                alt_u32 irq, alt_u32 freq)
{
   32abc:	defff804 	addi	sp,sp,-32
   32ac0:	dfc00715 	stw	ra,28(sp)
   32ac4:	df000615 	stw	fp,24(sp)
   32ac8:	df000604 	addi	fp,sp,24
   32acc:	e13ffe15 	stw	r4,-8(fp)
   32ad0:	e17ffd15 	stw	r5,-12(fp)
   32ad4:	e1bffc15 	stw	r6,-16(fp)
   32ad8:	e1fffb15 	stw	r7,-20(fp)
   32adc:	e0bffb17 	ldw	r2,-20(fp)
   32ae0:	e0bfff15 	stw	r2,-4(fp)
 * in order to initialise the value of the clock frequency.
 */

static ALT_INLINE int ALT_ALWAYS_INLINE alt_sysclk_init (alt_u32 nticks)
{
  if (! _alt_tick_rate)
   32ae4:	d0a92d17 	ldw	r2,-23372(gp)
   32ae8:	1000031e 	bne	r2,zero,32af8 <alt_avalon_timer_sc_init+0x3c>
  {
    _alt_tick_rate = nticks;
   32aec:	e0bfff17 	ldw	r2,-4(fp)
   32af0:	d0a92d15 	stw	r2,-23372(gp)
    return 0;
   32af4:	00000106 	br	32afc <alt_avalon_timer_sc_init+0x40>
  }
  else
  {
    return -1;
   32af8:	0001883a 	nop
  
  alt_sysclk_init (freq);
  
  /* set to free running mode */
  
  IOWR_ALTERA_AVALON_TIMER_CONTROL (base, 
   32afc:	e0bffe17 	ldw	r2,-8(fp)
   32b00:	10800104 	addi	r2,r2,4
   32b04:	00c001c4 	movi	r3,7
   32b08:	10c00035 	stwio	r3,0(r2)
            ALTERA_AVALON_TIMER_CONTROL_CONT_MSK |
            ALTERA_AVALON_TIMER_CONTROL_START_MSK);

  /* register the interrupt handler, and enable the interrupt */
#ifdef ALT_ENHANCED_INTERRUPT_API_PRESENT
  alt_ic_isr_register(irq_controller_id, irq, alt_avalon_timer_sc_irq, 
   32b0c:	d8000015 	stw	zero,0(sp)
   32b10:	e1fffe17 	ldw	r7,-8(fp)
   32b14:	018000f4 	movhi	r6,3
   32b18:	318a9004 	addi	r6,r6,10816
   32b1c:	e17ffc17 	ldw	r5,-16(fp)
   32b20:	e13ffd17 	ldw	r4,-12(fp)
   32b24:	0033b400 	call	33b40 <alt_ic_isr_register>
                      base, NULL);
#else
  alt_irq_register (irq, base, alt_avalon_timer_sc_irq);
#endif  
}
   32b28:	0001883a 	nop
   32b2c:	e037883a 	mov	sp,fp
   32b30:	dfc00117 	ldw	ra,4(sp)
   32b34:	df000017 	ldw	fp,0(sp)
   32b38:	dec00204 	addi	sp,sp,8
   32b3c:	f800283a 	ret

00032b40 <altera_avalon_uart_read_fd>:
 *
 */

int 
altera_avalon_uart_read_fd(alt_fd* fd, char* buffer, int space)
{
   32b40:	defffa04 	addi	sp,sp,-24
   32b44:	dfc00515 	stw	ra,20(sp)
   32b48:	df000415 	stw	fp,16(sp)
   32b4c:	df000404 	addi	fp,sp,16
   32b50:	e13ffe15 	stw	r4,-8(fp)
   32b54:	e17ffd15 	stw	r5,-12(fp)
   32b58:	e1bffc15 	stw	r6,-16(fp)
    altera_avalon_uart_dev* dev = (altera_avalon_uart_dev*) fd->dev; 
   32b5c:	e0bffe17 	ldw	r2,-8(fp)
   32b60:	10800017 	ldw	r2,0(r2)
   32b64:	e0bfff15 	stw	r2,-4(fp)

    return altera_avalon_uart_read(&dev->state, buffer, space,
   32b68:	e0bfff17 	ldw	r2,-4(fp)
   32b6c:	10c00a04 	addi	r3,r2,40
   32b70:	e0bffe17 	ldw	r2,-8(fp)
   32b74:	10800217 	ldw	r2,8(r2)
   32b78:	100f883a 	mov	r7,r2
   32b7c:	e1bffc17 	ldw	r6,-16(fp)
   32b80:	e17ffd17 	ldw	r5,-12(fp)
   32b84:	1809883a 	mov	r4,r3
   32b88:	003304c0 	call	3304c <altera_avalon_uart_read>
      fd->fd_flags);
}
   32b8c:	e037883a 	mov	sp,fp
   32b90:	dfc00117 	ldw	ra,4(sp)
   32b94:	df000017 	ldw	fp,0(sp)
   32b98:	dec00204 	addi	sp,sp,8
   32b9c:	f800283a 	ret

00032ba0 <altera_avalon_uart_write_fd>:

int 
altera_avalon_uart_write_fd(alt_fd* fd, const char* buffer, int space)
{
   32ba0:	defffa04 	addi	sp,sp,-24
   32ba4:	dfc00515 	stw	ra,20(sp)
   32ba8:	df000415 	stw	fp,16(sp)
   32bac:	df000404 	addi	fp,sp,16
   32bb0:	e13ffe15 	stw	r4,-8(fp)
   32bb4:	e17ffd15 	stw	r5,-12(fp)
   32bb8:	e1bffc15 	stw	r6,-16(fp)
    altera_avalon_uart_dev* dev = (altera_avalon_uart_dev*) fd->dev; 
   32bbc:	e0bffe17 	ldw	r2,-8(fp)
   32bc0:	10800017 	ldw	r2,0(r2)
   32bc4:	e0bfff15 	stw	r2,-4(fp)

    return altera_avalon_uart_write(&dev->state, buffer, space,
   32bc8:	e0bfff17 	ldw	r2,-4(fp)
   32bcc:	10c00a04 	addi	r3,r2,40
   32bd0:	e0bffe17 	ldw	r2,-8(fp)
   32bd4:	10800217 	ldw	r2,8(r2)
   32bd8:	100f883a 	mov	r7,r2
   32bdc:	e1bffc17 	ldw	r6,-16(fp)
   32be0:	e17ffd17 	ldw	r5,-12(fp)
   32be4:	1809883a 	mov	r4,r3
   32be8:	00332700 	call	33270 <altera_avalon_uart_write>
      fd->fd_flags);
}
   32bec:	e037883a 	mov	sp,fp
   32bf0:	dfc00117 	ldw	ra,4(sp)
   32bf4:	df000017 	ldw	fp,0(sp)
   32bf8:	dec00204 	addi	sp,sp,8
   32bfc:	f800283a 	ret

00032c00 <altera_avalon_uart_close_fd>:

#endif /* ALTERA_AVALON_UART_USE_IOCTL */

int 
altera_avalon_uart_close_fd(alt_fd* fd)
{
   32c00:	defffc04 	addi	sp,sp,-16
   32c04:	dfc00315 	stw	ra,12(sp)
   32c08:	df000215 	stw	fp,8(sp)
   32c0c:	df000204 	addi	fp,sp,8
   32c10:	e13ffe15 	stw	r4,-8(fp)
    altera_avalon_uart_dev* dev = (altera_avalon_uart_dev*) fd->dev; 
   32c14:	e0bffe17 	ldw	r2,-8(fp)
   32c18:	10800017 	ldw	r2,0(r2)
   32c1c:	e0bfff15 	stw	r2,-4(fp)

    return altera_avalon_uart_close(&dev->state, fd->fd_flags);
   32c20:	e0bfff17 	ldw	r2,-4(fp)
   32c24:	10c00a04 	addi	r3,r2,40
   32c28:	e0bffe17 	ldw	r2,-8(fp)
   32c2c:	10800217 	ldw	r2,8(r2)
   32c30:	100b883a 	mov	r5,r2
   32c34:	1809883a 	mov	r4,r3
   32c38:	0032fbc0 	call	32fbc <altera_avalon_uart_close>
}
   32c3c:	e037883a 	mov	sp,fp
   32c40:	dfc00117 	ldw	ra,4(sp)
   32c44:	df000017 	ldw	fp,0(sp)
   32c48:	dec00204 	addi	sp,sp,8
   32c4c:	f800283a 	ret

00032c50 <altera_avalon_uart_init>:
  alt_u32 status);

void 
altera_avalon_uart_init(altera_avalon_uart_state* sp, 
  alt_u32 irq_controller_id,  alt_u32 irq)
{
   32c50:	defff804 	addi	sp,sp,-32
   32c54:	dfc00715 	stw	ra,28(sp)
   32c58:	df000615 	stw	fp,24(sp)
   32c5c:	df000604 	addi	fp,sp,24
   32c60:	e13ffd15 	stw	r4,-12(fp)
   32c64:	e17ffc15 	stw	r5,-16(fp)
   32c68:	e1bffb15 	stw	r6,-20(fp)
  void* base = sp->base;
   32c6c:	e0bffd17 	ldw	r2,-12(fp)
   32c70:	10800017 	ldw	r2,0(r2)
   32c74:	e0bfff15 	stw	r2,-4(fp)
   32c78:	0005883a 	mov	r2,zero
   * Initialise the read and write flags and the semaphores used to 
   * protect access to the circular buffers when running in a multi-threaded
   * environment.
   */
  error = ALT_FLAG_CREATE (&sp->events, 0)    || 
          ALT_SEM_CREATE (&sp->read_lock, 1)  ||
   32c7c:	1000041e 	bne	r2,zero,32c90 <altera_avalon_uart_init+0x40>
   32c80:	0005883a 	mov	r2,zero
  error = ALT_FLAG_CREATE (&sp->events, 0)    || 
   32c84:	1000021e 	bne	r2,zero,32c90 <altera_avalon_uart_init+0x40>
   32c88:	0005883a 	mov	r2,zero
          ALT_SEM_CREATE (&sp->read_lock, 1)  ||
   32c8c:	10000226 	beq	r2,zero,32c98 <altera_avalon_uart_init+0x48>
   32c90:	00800044 	movi	r2,1
   32c94:	00000106 	br	32c9c <altera_avalon_uart_init+0x4c>
   32c98:	0005883a 	mov	r2,zero
  error = ALT_FLAG_CREATE (&sp->events, 0)    || 
   32c9c:	e0bffe15 	stw	r2,-8(fp)
          ALT_SEM_CREATE (&sp->write_lock, 1);

  if (!error)
   32ca0:	e0bffe17 	ldw	r2,-8(fp)
   32ca4:	10000f1e 	bne	r2,zero,32ce4 <altera_avalon_uart_init+0x94>
  {
    /* enable interrupts at the device */
    sp->ctrl = ALTERA_AVALON_UART_CONTROL_RTS_MSK  |
   32ca8:	e0bffd17 	ldw	r2,-12(fp)
   32cac:	00c32004 	movi	r3,3200
   32cb0:	10c00115 	stw	r3,4(r2)
                ALTERA_AVALON_UART_CONTROL_RRDY_MSK |
                ALTERA_AVALON_UART_CONTROL_DCTS_MSK;

    IOWR_ALTERA_AVALON_UART_CONTROL(base, sp->ctrl); 
   32cb4:	e0bfff17 	ldw	r2,-4(fp)
   32cb8:	10800304 	addi	r2,r2,12
   32cbc:	e0fffd17 	ldw	r3,-12(fp)
   32cc0:	18c00117 	ldw	r3,4(r3)
   32cc4:	10c00035 	stwio	r3,0(r2)
  
    /* register the interrupt handler */
#ifdef ALT_ENHANCED_INTERRUPT_API_PRESENT
    alt_ic_isr_register(irq_controller_id, irq, altera_avalon_uart_irq, sp, 
   32cc8:	d8000015 	stw	zero,0(sp)
   32ccc:	e1fffd17 	ldw	r7,-12(fp)
   32cd0:	018000f4 	movhi	r6,3
   32cd4:	318b3f04 	addi	r6,r6,11516
   32cd8:	e17ffb17 	ldw	r5,-20(fp)
   32cdc:	e13ffc17 	ldw	r4,-16(fp)
   32ce0:	0033b400 	call	33b40 <alt_ic_isr_register>
      0x0);
#else
    alt_irq_register (irq, sp, altera_avalon_uart_irq);
#endif  
  }
}
   32ce4:	0001883a 	nop
   32ce8:	e037883a 	mov	sp,fp
   32cec:	dfc00117 	ldw	ra,4(sp)
   32cf0:	df000017 	ldw	fp,0(sp)
   32cf4:	dec00204 	addi	sp,sp,8
   32cf8:	f800283a 	ret

00032cfc <altera_avalon_uart_irq>:
#ifdef ALT_ENHANCED_INTERRUPT_API_PRESENT
static void altera_avalon_uart_irq(void* context)
#else
static void altera_avalon_uart_irq(void* context, alt_u32 id)
#endif
{
   32cfc:	defffa04 	addi	sp,sp,-24
   32d00:	dfc00515 	stw	ra,20(sp)
   32d04:	df000415 	stw	fp,16(sp)
   32d08:	df000404 	addi	fp,sp,16
   32d0c:	e13ffc15 	stw	r4,-16(fp)
  alt_u32 status;

  altera_avalon_uart_state* sp = (altera_avalon_uart_state*) context;
   32d10:	e0bffc17 	ldw	r2,-16(fp)
   32d14:	e0bfff15 	stw	r2,-4(fp)
  void* base               = sp->base;
   32d18:	e0bfff17 	ldw	r2,-4(fp)
   32d1c:	10800017 	ldw	r2,0(r2)
   32d20:	e0bffe15 	stw	r2,-8(fp)
  /*
   * Read the status register in order to determine the cause of the
   * interrupt.
   */

  status = IORD_ALTERA_AVALON_UART_STATUS(base);
   32d24:	e0bffe17 	ldw	r2,-8(fp)
   32d28:	10800204 	addi	r2,r2,8
   32d2c:	10800037 	ldwio	r2,0(r2)
   32d30:	e0bffd15 	stw	r2,-12(fp)

  /* Clear any error flags set at the device */
  IOWR_ALTERA_AVALON_UART_STATUS(base, 0);
   32d34:	e0bffe17 	ldw	r2,-8(fp)
   32d38:	10800204 	addi	r2,r2,8
   32d3c:	0007883a 	mov	r3,zero
   32d40:	10c00035 	stwio	r3,0(r2)

  /* Dummy read to ensure IRQ is negated before ISR returns */
  IORD_ALTERA_AVALON_UART_STATUS(base);
   32d44:	e0bffe17 	ldw	r2,-8(fp)
   32d48:	10800204 	addi	r2,r2,8
   32d4c:	10800037 	ldwio	r2,0(r2)
  
  /* process a read irq */
  if (status & ALTERA_AVALON_UART_STATUS_RRDY_MSK)
   32d50:	e0bffd17 	ldw	r2,-12(fp)
   32d54:	1080200c 	andi	r2,r2,128
   32d58:	10000326 	beq	r2,zero,32d68 <altera_avalon_uart_irq+0x6c>
  {
    altera_avalon_uart_rxirq(sp, status);
   32d5c:	e17ffd17 	ldw	r5,-12(fp)
   32d60:	e13fff17 	ldw	r4,-4(fp)
   32d64:	0032d980 	call	32d98 <altera_avalon_uart_rxirq>
  }

  /* process a write irq */
  if (status & (ALTERA_AVALON_UART_STATUS_TRDY_MSK | 
   32d68:	e0bffd17 	ldw	r2,-12(fp)
   32d6c:	1081100c 	andi	r2,r2,1088
   32d70:	10000326 	beq	r2,zero,32d80 <altera_avalon_uart_irq+0x84>
                  ALTERA_AVALON_UART_STATUS_DCTS_MSK))
  {
    altera_avalon_uart_txirq(sp, status);
   32d74:	e17ffd17 	ldw	r5,-12(fp)
   32d78:	e13fff17 	ldw	r4,-4(fp)
   32d7c:	0032e780 	call	32e78 <altera_avalon_uart_txirq>
  }
  

}
   32d80:	0001883a 	nop
   32d84:	e037883a 	mov	sp,fp
   32d88:	dfc00117 	ldw	ra,4(sp)
   32d8c:	df000017 	ldw	fp,0(sp)
   32d90:	dec00204 	addi	sp,sp,8
   32d94:	f800283a 	ret

00032d98 <altera_avalon_uart_rxirq>:
 * the receive circular buffer, and sets the apropriate flags to indicate 
 * that there is data ready to be processed.
 */
static void 
altera_avalon_uart_rxirq(altera_avalon_uart_state* sp, alt_u32 status)
{
   32d98:	defffc04 	addi	sp,sp,-16
   32d9c:	df000315 	stw	fp,12(sp)
   32da0:	df000304 	addi	fp,sp,12
   32da4:	e13ffe15 	stw	r4,-8(fp)
   32da8:	e17ffd15 	stw	r5,-12(fp)
  alt_u32 next;
  
  /* If there was an error, discard the data */

  if (status & (ALTERA_AVALON_UART_STATUS_PE_MSK | 
   32dac:	e0bffd17 	ldw	r2,-12(fp)
   32db0:	108000cc 	andi	r2,r2,3
   32db4:	10002b1e 	bne	r2,zero,32e64 <altera_avalon_uart_rxirq+0xcc>
   * In a multi-threaded environment, set the read event flag to indicate
   * that there is data ready. This is only done if the circular buffer was
   * previously empty.
   */

  if (sp->rx_end == sp->rx_start)
   32db8:	e0bffe17 	ldw	r2,-8(fp)
   32dbc:	10800317 	ldw	r2,12(r2)
   32dc0:	e0bffe17 	ldw	r2,-8(fp)
   32dc4:	10800217 	ldw	r2,8(r2)
    ALT_FLAG_POST (sp->events, ALT_UART_READ_RDY, OS_FLAG_SET);
  }

  /* Determine which slot to use next in the circular buffer */

  next = (sp->rx_end + 1) & ALT_AVALON_UART_BUF_MSK;
   32dc8:	e0bffe17 	ldw	r2,-8(fp)
   32dcc:	10800317 	ldw	r2,12(r2)
   32dd0:	10800044 	addi	r2,r2,1
   32dd4:	10800fcc 	andi	r2,r2,63
   32dd8:	e0bfff15 	stw	r2,-4(fp)

  /* Transfer data from the device to the circular buffer */

  sp->rx_buf[sp->rx_end] = IORD_ALTERA_AVALON_UART_RXDATA(sp->base);
   32ddc:	e0bffe17 	ldw	r2,-8(fp)
   32de0:	10800017 	ldw	r2,0(r2)
   32de4:	10c00037 	ldwio	r3,0(r2)
   32de8:	e0bffe17 	ldw	r2,-8(fp)
   32dec:	10800317 	ldw	r2,12(r2)
   32df0:	1809883a 	mov	r4,r3
   32df4:	e0fffe17 	ldw	r3,-8(fp)
   32df8:	1885883a 	add	r2,r3,r2
   32dfc:	11000705 	stb	r4,28(r2)

  sp->rx_end = next;
   32e00:	e0bffe17 	ldw	r2,-8(fp)
   32e04:	e0ffff17 	ldw	r3,-4(fp)
   32e08:	10c00315 	stw	r3,12(r2)

  next = (sp->rx_end + 1) & ALT_AVALON_UART_BUF_MSK;
   32e0c:	e0bffe17 	ldw	r2,-8(fp)
   32e10:	10800317 	ldw	r2,12(r2)
   32e14:	10800044 	addi	r2,r2,1
   32e18:	10800fcc 	andi	r2,r2,63
   32e1c:	e0bfff15 	stw	r2,-4(fp)
  /*
   * If the cicular buffer was full, disable interrupts. Interrupts will be
   * re-enabled when data is removed from the buffer.
   */

  if (next == sp->rx_start)
   32e20:	e0bffe17 	ldw	r2,-8(fp)
   32e24:	10800217 	ldw	r2,8(r2)
   32e28:	e0ffff17 	ldw	r3,-4(fp)
   32e2c:	18800e1e 	bne	r3,r2,32e68 <altera_avalon_uart_rxirq+0xd0>
  {
    sp->ctrl &= ~ALTERA_AVALON_UART_CONTROL_RRDY_MSK;
   32e30:	e0bffe17 	ldw	r2,-8(fp)
   32e34:	10c00117 	ldw	r3,4(r2)
   32e38:	00bfdfc4 	movi	r2,-129
   32e3c:	1886703a 	and	r3,r3,r2
   32e40:	e0bffe17 	ldw	r2,-8(fp)
   32e44:	10c00115 	stw	r3,4(r2)
    IOWR_ALTERA_AVALON_UART_CONTROL(sp->base, sp->ctrl); 
   32e48:	e0bffe17 	ldw	r2,-8(fp)
   32e4c:	10800017 	ldw	r2,0(r2)
   32e50:	10800304 	addi	r2,r2,12
   32e54:	e0fffe17 	ldw	r3,-8(fp)
   32e58:	18c00117 	ldw	r3,4(r3)
   32e5c:	10c00035 	stwio	r3,0(r2)
   32e60:	00000106 	br	32e68 <altera_avalon_uart_rxirq+0xd0>
    return;
   32e64:	0001883a 	nop
  }   
}
   32e68:	e037883a 	mov	sp,fp
   32e6c:	df000017 	ldw	fp,0(sp)
   32e70:	dec00104 	addi	sp,sp,4
   32e74:	f800283a 	ret

00032e78 <altera_avalon_uart_txirq>:
 * buffer to the device, and sets the apropriate flags to indicate that 
 * there is data ready to be processed.
 */
static void 
altera_avalon_uart_txirq(altera_avalon_uart_state* sp, alt_u32 status)
{
   32e78:	defffd04 	addi	sp,sp,-12
   32e7c:	df000215 	stw	fp,8(sp)
   32e80:	df000204 	addi	fp,sp,8
   32e84:	e13fff15 	stw	r4,-4(fp)
   32e88:	e17ffe15 	stw	r5,-8(fp)
  /* Transfer data if there is some ready to be transfered */

  if (sp->tx_start != sp->tx_end)
   32e8c:	e0bfff17 	ldw	r2,-4(fp)
   32e90:	10c00417 	ldw	r3,16(r2)
   32e94:	e0bfff17 	ldw	r2,-4(fp)
   32e98:	10800517 	ldw	r2,20(r2)
   32e9c:	18803126 	beq	r3,r2,32f64 <altera_avalon_uart_txirq+0xec>
    /* 
     * If the device is using flow control (i.e. RTS/CTS), then the
     * transmitter is required to throttle if CTS is high.
     */

    if (!(sp->flags & ALT_AVALON_UART_FC) ||
   32ea0:	e0bfff17 	ldw	r2,-4(fp)
   32ea4:	10800617 	ldw	r2,24(r2)
   32ea8:	1080008c 	andi	r2,r2,2
   32eac:	10000326 	beq	r2,zero,32ebc <altera_avalon_uart_txirq+0x44>
      (status & ALTERA_AVALON_UART_STATUS_CTS_MSK))
   32eb0:	e0bffe17 	ldw	r2,-8(fp)
   32eb4:	1082000c 	andi	r2,r2,2048
    if (!(sp->flags & ALT_AVALON_UART_FC) ||
   32eb8:	10001c26 	beq	r2,zero,32f2c <altera_avalon_uart_txirq+0xb4>
       * In a multi-threaded environment, set the write event flag to indicate
       * that there is space in the circular buffer. This is only done if the
       * buffer was previously empty.
       */

      if (sp->tx_start == ((sp->tx_end + 1) & ALT_AVALON_UART_BUF_MSK))
   32ebc:	e0bfff17 	ldw	r2,-4(fp)
   32ec0:	10800417 	ldw	r2,16(r2)
   32ec4:	e0bfff17 	ldw	r2,-4(fp)
   32ec8:	10800517 	ldw	r2,20(r2)
                       OS_FLAG_SET);
      }

      /* Write the data to the device */

      IOWR_ALTERA_AVALON_UART_TXDATA(sp->base, sp->tx_buf[sp->tx_start]);
   32ecc:	e0bfff17 	ldw	r2,-4(fp)
   32ed0:	10800017 	ldw	r2,0(r2)
   32ed4:	10800104 	addi	r2,r2,4
   32ed8:	e0ffff17 	ldw	r3,-4(fp)
   32edc:	18c00417 	ldw	r3,16(r3)
   32ee0:	e13fff17 	ldw	r4,-4(fp)
   32ee4:	20c7883a 	add	r3,r4,r3
   32ee8:	18c01703 	ldbu	r3,92(r3)
   32eec:	18c03fcc 	andi	r3,r3,255
   32ef0:	10c00035 	stwio	r3,0(r2)

      sp->tx_start = (++sp->tx_start) & ALT_AVALON_UART_BUF_MSK;
   32ef4:	e0bfff17 	ldw	r2,-4(fp)
   32ef8:	10800417 	ldw	r2,16(r2)
   32efc:	10800044 	addi	r2,r2,1
   32f00:	e0ffff17 	ldw	r3,-4(fp)
   32f04:	18800415 	stw	r2,16(r3)
   32f08:	10c00fcc 	andi	r3,r2,63
   32f0c:	e0bfff17 	ldw	r2,-4(fp)
   32f10:	10c00415 	stw	r3,16(r2)
      /*
       * In case the tranmit interrupt had previously been disabled by 
       * detecting a low value on CTS, it is reenabled here.
       */ 

      sp->ctrl |= ALTERA_AVALON_UART_CONTROL_TRDY_MSK;
   32f14:	e0bfff17 	ldw	r2,-4(fp)
   32f18:	10800117 	ldw	r2,4(r2)
   32f1c:	10c01014 	ori	r3,r2,64
   32f20:	e0bfff17 	ldw	r2,-4(fp)
   32f24:	10c00115 	stw	r3,4(r2)
   32f28:	00000e06 	br	32f64 <altera_avalon_uart_txirq+0xec>
       * the last write to the status register. To avoid this resulting in
       * deadlock, it's necessary to re-check the status register here
       * before throttling.
       */
 
      status = IORD_ALTERA_AVALON_UART_STATUS(sp->base); 
   32f2c:	e0bfff17 	ldw	r2,-4(fp)
   32f30:	10800017 	ldw	r2,0(r2)
   32f34:	10800204 	addi	r2,r2,8
   32f38:	10800037 	ldwio	r2,0(r2)
   32f3c:	e0bffe15 	stw	r2,-8(fp)

      if (!(status & ALTERA_AVALON_UART_STATUS_CTS_MSK))
   32f40:	e0bffe17 	ldw	r2,-8(fp)
   32f44:	1082000c 	andi	r2,r2,2048
   32f48:	1000061e 	bne	r2,zero,32f64 <altera_avalon_uart_txirq+0xec>
      {
        sp->ctrl &= ~ALTERA_AVALON_UART_CONTROL_TRDY_MSK;
   32f4c:	e0bfff17 	ldw	r2,-4(fp)
   32f50:	10c00117 	ldw	r3,4(r2)
   32f54:	00bfefc4 	movi	r2,-65
   32f58:	1886703a 	and	r3,r3,r2
   32f5c:	e0bfff17 	ldw	r2,-4(fp)
   32f60:	10c00115 	stw	r3,4(r2)
  /*
   * If the circular buffer is empty, disable the interrupt. This will be
   * re-enabled when new data is placed in the buffer.
   */

  if (sp->tx_start == sp->tx_end)
   32f64:	e0bfff17 	ldw	r2,-4(fp)
   32f68:	10c00417 	ldw	r3,16(r2)
   32f6c:	e0bfff17 	ldw	r2,-4(fp)
   32f70:	10800517 	ldw	r2,20(r2)
   32f74:	1880061e 	bne	r3,r2,32f90 <altera_avalon_uart_txirq+0x118>
  {
    sp->ctrl &= ~(ALTERA_AVALON_UART_CONTROL_TRDY_MSK |
   32f78:	e0bfff17 	ldw	r2,-4(fp)
   32f7c:	10c00117 	ldw	r3,4(r2)
   32f80:	00beefc4 	movi	r2,-1089
   32f84:	1886703a 	and	r3,r3,r2
   32f88:	e0bfff17 	ldw	r2,-4(fp)
   32f8c:	10c00115 	stw	r3,4(r2)
                    ALTERA_AVALON_UART_CONTROL_DCTS_MSK);
  }

  IOWR_ALTERA_AVALON_UART_CONTROL(sp->base, sp->ctrl);
   32f90:	e0bfff17 	ldw	r2,-4(fp)
   32f94:	10800017 	ldw	r2,0(r2)
   32f98:	10800304 	addi	r2,r2,12
   32f9c:	e0ffff17 	ldw	r3,-4(fp)
   32fa0:	18c00117 	ldw	r3,4(r3)
   32fa4:	10c00035 	stwio	r3,0(r2)
}
   32fa8:	0001883a 	nop
   32fac:	e037883a 	mov	sp,fp
   32fb0:	df000017 	ldw	fp,0(sp)
   32fb4:	dec00104 	addi	sp,sp,4
   32fb8:	f800283a 	ret

00032fbc <altera_avalon_uart_close>:
 * The close routine is not implemented for the small driver; instead it will
 * map to null. This is because the small driver simply waits while characters
 * are transmitted; there is no interrupt-serviced buffer to empty 
 */
int altera_avalon_uart_close(altera_avalon_uart_state* sp, int flags)
{
   32fbc:	defffd04 	addi	sp,sp,-12
   32fc0:	df000215 	stw	fp,8(sp)
   32fc4:	df000204 	addi	fp,sp,8
   32fc8:	e13fff15 	stw	r4,-4(fp)
   32fcc:	e17ffe15 	stw	r5,-8(fp)
  /* 
   * Wait for all transmit data to be emptied by the UART ISR.
   */
  while (sp->tx_start != sp->tx_end) {
   32fd0:	00000506 	br	32fe8 <altera_avalon_uart_close+0x2c>
    if (flags & O_NONBLOCK) {
   32fd4:	e0bffe17 	ldw	r2,-8(fp)
   32fd8:	1090000c 	andi	r2,r2,16384
   32fdc:	10000226 	beq	r2,zero,32fe8 <altera_avalon_uart_close+0x2c>
      return -EWOULDBLOCK; 
   32fe0:	00bffd44 	movi	r2,-11
   32fe4:	00000606 	br	33000 <altera_avalon_uart_close+0x44>
  while (sp->tx_start != sp->tx_end) {
   32fe8:	e0bfff17 	ldw	r2,-4(fp)
   32fec:	10c00417 	ldw	r3,16(r2)
   32ff0:	e0bfff17 	ldw	r2,-4(fp)
   32ff4:	10800517 	ldw	r2,20(r2)
   32ff8:	18bff61e 	bne	r3,r2,32fd4 <altera_avalon_uart_close+0x18>
    }
  }

  return 0;
   32ffc:	0005883a 	mov	r2,zero
}
   33000:	e037883a 	mov	sp,fp
   33004:	df000017 	ldw	fp,0(sp)
   33008:	dec00104 	addi	sp,sp,4
   3300c:	f800283a 	ret

00033010 <alt_get_errno>:
{
   33010:	defffe04 	addi	sp,sp,-8
   33014:	dfc00115 	stw	ra,4(sp)
   33018:	df000015 	stw	fp,0(sp)
   3301c:	d839883a 	mov	fp,sp
  return ((alt_errno) ? alt_errno() : &errno);
   33020:	d0a00c17 	ldw	r2,-32720(gp)
   33024:	10000326 	beq	r2,zero,33034 <alt_get_errno+0x24>
   33028:	d0a00c17 	ldw	r2,-32720(gp)
   3302c:	103ee83a 	callr	r2
   33030:	00000106 	br	33038 <alt_get_errno+0x28>
   33034:	d0a92504 	addi	r2,gp,-23404
}
   33038:	e037883a 	mov	sp,fp
   3303c:	dfc00117 	ldw	ra,4(sp)
   33040:	df000017 	ldw	fp,0(sp)
   33044:	dec00204 	addi	sp,sp,8
   33048:	f800283a 	ret

0003304c <altera_avalon_uart_read>:
 */

int 
altera_avalon_uart_read(altera_avalon_uart_state* sp, char* ptr, int len,
  int flags)
{
   3304c:	defff204 	addi	sp,sp,-56
   33050:	dfc00d15 	stw	ra,52(sp)
   33054:	df000c15 	stw	fp,48(sp)
   33058:	df000c04 	addi	fp,sp,48
   3305c:	e13ff715 	stw	r4,-36(fp)
   33060:	e17ff615 	stw	r5,-40(fp)
   33064:	e1bff515 	stw	r6,-44(fp)
   33068:	e1fff415 	stw	r7,-48(fp)
  alt_irq_context context;
  int             block;
  alt_u8          read_would_block = 0;
   3306c:	e03fffc5 	stb	zero,-1(fp)
  int             count = 0;
   33070:	e03ffe15 	stw	zero,-8(fp)
  /* 
   * Construct a flag to indicate whether the device is being accessed in
   * blocking or non-blocking mode.
   */

  block = !(flags & O_NONBLOCK);
   33074:	e0bff417 	ldw	r2,-48(fp)
   33078:	1090000c 	andi	r2,r2,16384
   3307c:	1005003a 	cmpeq	r2,r2,zero
   33080:	10803fcc 	andi	r2,r2,255
   33084:	e0bffd15 	stw	r2,-12(fp)
    /*
     * Read the required amount of data, until the circular buffer runs
     * empty
     */

    while ((count < len) && (sp->rx_start != sp->rx_end))
   33088:	00001306 	br	330d8 <altera_avalon_uart_read+0x8c>
    {
      count++;
   3308c:	e0bffe17 	ldw	r2,-8(fp)
   33090:	10800044 	addi	r2,r2,1
   33094:	e0bffe15 	stw	r2,-8(fp)
      *ptr++ = sp->rx_buf[sp->rx_start];
   33098:	e0bff717 	ldw	r2,-36(fp)
   3309c:	10800217 	ldw	r2,8(r2)
   330a0:	e0fff717 	ldw	r3,-36(fp)
   330a4:	1885883a 	add	r2,r3,r2
   330a8:	11000703 	ldbu	r4,28(r2)
   330ac:	e0bff617 	ldw	r2,-40(fp)
   330b0:	10c00044 	addi	r3,r2,1
   330b4:	e0fff615 	stw	r3,-40(fp)
   330b8:	2007883a 	mov	r3,r4
   330bc:	10c00005 	stb	r3,0(r2)
      
      sp->rx_start = (sp->rx_start+1) & ALT_AVALON_UART_BUF_MSK;
   330c0:	e0bff717 	ldw	r2,-36(fp)
   330c4:	10800217 	ldw	r2,8(r2)
   330c8:	10800044 	addi	r2,r2,1
   330cc:	10c00fcc 	andi	r3,r2,63
   330d0:	e0bff717 	ldw	r2,-36(fp)
   330d4:	10c00215 	stw	r3,8(r2)
    while ((count < len) && (sp->rx_start != sp->rx_end))
   330d8:	e0fffe17 	ldw	r3,-8(fp)
   330dc:	e0bff517 	ldw	r2,-44(fp)
   330e0:	1880050e 	bge	r3,r2,330f8 <altera_avalon_uart_read+0xac>
   330e4:	e0bff717 	ldw	r2,-36(fp)
   330e8:	10c00217 	ldw	r3,8(r2)
   330ec:	e0bff717 	ldw	r2,-36(fp)
   330f0:	10800317 	ldw	r2,12(r2)
   330f4:	18bfe51e 	bne	r3,r2,3308c <altera_avalon_uart_read+0x40>
    /*
     * If no data has been transferred, the circular buffer is empty, and
     * this is not a non-blocking access, block waiting for data to arrive.
     */

    if (!count && (sp->rx_start == sp->rx_end))
   330f8:	e0bffe17 	ldw	r2,-8(fp)
   330fc:	1000271e 	bne	r2,zero,3319c <altera_avalon_uart_read+0x150>
   33100:	e0bff717 	ldw	r2,-36(fp)
   33104:	10c00217 	ldw	r3,8(r2)
   33108:	e0bff717 	ldw	r2,-36(fp)
   3310c:	10800317 	ldw	r2,12(r2)
   33110:	1880221e 	bne	r3,r2,3319c <altera_avalon_uart_read+0x150>
    {
      if (!block)
   33114:	e0bffd17 	ldw	r2,-12(fp)
   33118:	1000071e 	bne	r2,zero,33138 <altera_avalon_uart_read+0xec>
      {
        /* Set errno to indicate the reason we're not returning any data */

        ALT_ERRNO = EWOULDBLOCK;
   3311c:	00330100 	call	33010 <alt_get_errno>
   33120:	1007883a 	mov	r3,r2
   33124:	008002c4 	movi	r2,11
   33128:	18800015 	stw	r2,0(r3)
        read_would_block = 1;
   3312c:	00800044 	movi	r2,1
   33130:	e0bfffc5 	stb	r2,-1(fp)
        break;
   33134:	00001d06 	br	331ac <altera_avalon_uart_read+0x160>
  NIOS2_READ_STATUS (context);
   33138:	0005303a 	rdctl	r2,status
   3313c:	e0bffa15 	stw	r2,-24(fp)
  NIOS2_WRITE_STATUS (context & ~NIOS2_STATUS_PIE_MSK);
   33140:	e0fffa17 	ldw	r3,-24(fp)
   33144:	00bfff84 	movi	r2,-2
   33148:	1884703a 	and	r2,r3,r2
   3314c:	1001703a 	wrctl	status,r2
  return context;
   33150:	e0bffa17 	ldw	r2,-24(fp)
      {
       /* Block waiting for some data to arrive */

       /* First, ensure read interrupts are enabled to avoid deadlock */

       context = alt_irq_disable_all ();
   33154:	e0bffc15 	stw	r2,-16(fp)
       sp->ctrl |= ALTERA_AVALON_UART_CONTROL_RRDY_MSK;
   33158:	e0bff717 	ldw	r2,-36(fp)
   3315c:	10800117 	ldw	r2,4(r2)
   33160:	10c02014 	ori	r3,r2,128
   33164:	e0bff717 	ldw	r2,-36(fp)
   33168:	10c00115 	stw	r3,4(r2)
       IOWR_ALTERA_AVALON_UART_CONTROL(sp->base, sp->ctrl);
   3316c:	e0bff717 	ldw	r2,-36(fp)
   33170:	10800017 	ldw	r2,0(r2)
   33174:	10800304 	addi	r2,r2,12
   33178:	e0fff717 	ldw	r3,-36(fp)
   3317c:	18c00117 	ldw	r3,4(r3)
   33180:	10c00035 	stwio	r3,0(r2)
   33184:	e0bffc17 	ldw	r2,-16(fp)
   33188:	e0bffb15 	stw	r2,-20(fp)
  NIOS2_WRITE_STATUS (context);
   3318c:	e0bffb17 	ldw	r2,-20(fp)
   33190:	1001703a 	wrctl	status,r2
}
   33194:	0001883a 	nop
   33198:	0001883a 	nop
                      OS_FLAG_WAIT_SET_ANY + OS_FLAG_CONSUME,
                      0);
      }
    }
  }
  while (!count && len);
   3319c:	e0bffe17 	ldw	r2,-8(fp)
   331a0:	1000021e 	bne	r2,zero,331ac <altera_avalon_uart_read+0x160>
   331a4:	e0bff517 	ldw	r2,-44(fp)
   331a8:	103fcb1e 	bne	r2,zero,330d8 <altera_avalon_uart_read+0x8c>
  NIOS2_READ_STATUS (context);
   331ac:	0005303a 	rdctl	r2,status
   331b0:	e0bff815 	stw	r2,-32(fp)
  NIOS2_WRITE_STATUS (context & ~NIOS2_STATUS_PIE_MSK);
   331b4:	e0fff817 	ldw	r3,-32(fp)
   331b8:	00bfff84 	movi	r2,-2
   331bc:	1884703a 	and	r2,r3,r2
   331c0:	1001703a 	wrctl	status,r2
  return context;
   331c4:	e0bff817 	ldw	r2,-32(fp)
  /*
   * Ensure that interrupts are enabled, so that the circular buffer can
   * re-fill.
   */

  context = alt_irq_disable_all ();
   331c8:	e0bffc15 	stw	r2,-16(fp)
  sp->ctrl |= ALTERA_AVALON_UART_CONTROL_RRDY_MSK;
   331cc:	e0bff717 	ldw	r2,-36(fp)
   331d0:	10800117 	ldw	r2,4(r2)
   331d4:	10c02014 	ori	r3,r2,128
   331d8:	e0bff717 	ldw	r2,-36(fp)
   331dc:	10c00115 	stw	r3,4(r2)
  IOWR_ALTERA_AVALON_UART_CONTROL(sp->base, sp->ctrl);
   331e0:	e0bff717 	ldw	r2,-36(fp)
   331e4:	10800017 	ldw	r2,0(r2)
   331e8:	10800304 	addi	r2,r2,12
   331ec:	e0fff717 	ldw	r3,-36(fp)
   331f0:	18c00117 	ldw	r3,4(r3)
   331f4:	10c00035 	stwio	r3,0(r2)
   331f8:	e0bffc17 	ldw	r2,-16(fp)
   331fc:	e0bff915 	stw	r2,-28(fp)
  NIOS2_WRITE_STATUS (context);
   33200:	e0bff917 	ldw	r2,-28(fp)
   33204:	1001703a 	wrctl	status,r2
}
   33208:	0001883a 	nop
  alt_irq_enable_all (context);

  /* Return the number of bytes read */
  if(read_would_block) {
   3320c:	e0bfffc3 	ldbu	r2,-1(fp)
   33210:	10000226 	beq	r2,zero,3321c <altera_avalon_uart_read+0x1d0>
    return -EWOULDBLOCK;
   33214:	00bffd44 	movi	r2,-11
   33218:	00000106 	br	33220 <altera_avalon_uart_read+0x1d4>
  }
  else {
    return count;
   3321c:	e0bffe17 	ldw	r2,-8(fp)
  }
}
   33220:	e037883a 	mov	sp,fp
   33224:	dfc00117 	ldw	ra,4(sp)
   33228:	df000017 	ldw	fp,0(sp)
   3322c:	dec00204 	addi	sp,sp,8
   33230:	f800283a 	ret

00033234 <alt_get_errno>:
{
   33234:	defffe04 	addi	sp,sp,-8
   33238:	dfc00115 	stw	ra,4(sp)
   3323c:	df000015 	stw	fp,0(sp)
   33240:	d839883a 	mov	fp,sp
  return ((alt_errno) ? alt_errno() : &errno);
   33244:	d0a00c17 	ldw	r2,-32720(gp)
   33248:	10000326 	beq	r2,zero,33258 <alt_get_errno+0x24>
   3324c:	d0a00c17 	ldw	r2,-32720(gp)
   33250:	103ee83a 	callr	r2
   33254:	00000106 	br	3325c <alt_get_errno+0x28>
   33258:	d0a92504 	addi	r2,gp,-23404
}
   3325c:	e037883a 	mov	sp,fp
   33260:	dfc00117 	ldw	ra,4(sp)
   33264:	df000017 	ldw	fp,0(sp)
   33268:	dec00204 	addi	sp,sp,8
   3326c:	f800283a 	ret

00033270 <altera_avalon_uart_write>:
 */

int
altera_avalon_uart_write(altera_avalon_uart_state* sp, const char* ptr, int len,
  int flags)
{
   33270:	defff204 	addi	sp,sp,-56
   33274:	dfc00d15 	stw	ra,52(sp)
   33278:	df000c15 	stw	fp,48(sp)
   3327c:	df000c04 	addi	fp,sp,48
   33280:	e13ff715 	stw	r4,-36(fp)
   33284:	e17ff615 	stw	r5,-40(fp)
   33288:	e1bff515 	stw	r6,-44(fp)
   3328c:	e1fff415 	stw	r7,-48(fp)
  alt_irq_context context;
  int             no_block;
  alt_u32         next;
  int             count = len;
   33290:	e0bff517 	ldw	r2,-44(fp)
   33294:	e0bfff15 	stw	r2,-4(fp)
  /* 
   * Construct a flag to indicate whether the device is being accessed in
   * blocking or non-blocking mode.
   */

  no_block = (flags & O_NONBLOCK);
   33298:	e0bff417 	ldw	r2,-48(fp)
   3329c:	1090000c 	andi	r2,r2,16384
   332a0:	e0bffe15 	stw	r2,-8(fp)
   * Loop transferring data from the input buffer to the transmit circular
   * buffer. The loop is terminated once all the data has been transferred,
   * or, (if in non-blocking mode) the buffer becomes full.
   */

  while (count)
   332a4:	00003d06 	br	3339c <altera_avalon_uart_write+0x12c>
  {
    /* Determine the next slot in the buffer to access */

    next = (sp->tx_end + 1) & ALT_AVALON_UART_BUF_MSK;
   332a8:	e0bff717 	ldw	r2,-36(fp)
   332ac:	10800517 	ldw	r2,20(r2)
   332b0:	10800044 	addi	r2,r2,1
   332b4:	10800fcc 	andi	r2,r2,63
   332b8:	e0bffd15 	stw	r2,-12(fp)

    /* block waiting for space if necessary */

    if (next == sp->tx_start)
   332bc:	e0bff717 	ldw	r2,-36(fp)
   332c0:	10800417 	ldw	r2,16(r2)
   332c4:	e0fffd17 	ldw	r3,-12(fp)
   332c8:	1880241e 	bne	r3,r2,3335c <altera_avalon_uart_write+0xec>
    {
      if (no_block)
   332cc:	e0bffe17 	ldw	r2,-8(fp)
   332d0:	10000526 	beq	r2,zero,332e8 <altera_avalon_uart_write+0x78>
      {
        /* Set errno to indicate why this function returned early */
 
        ALT_ERRNO = EWOULDBLOCK;
   332d4:	00332340 	call	33234 <alt_get_errno>
   332d8:	1007883a 	mov	r3,r2
   332dc:	008002c4 	movi	r2,11
   332e0:	18800015 	stw	r2,0(r3)
        break;
   332e4:	00002f06 	br	333a4 <altera_avalon_uart_write+0x134>
  NIOS2_READ_STATUS (context);
   332e8:	0005303a 	rdctl	r2,status
   332ec:	e0bffa15 	stw	r2,-24(fp)
  NIOS2_WRITE_STATUS (context & ~NIOS2_STATUS_PIE_MSK);
   332f0:	e0fffa17 	ldw	r3,-24(fp)
   332f4:	00bfff84 	movi	r2,-2
   332f8:	1884703a 	and	r2,r3,r2
   332fc:	1001703a 	wrctl	status,r2
  return context;
   33300:	e0bffa17 	ldw	r2,-24(fp)
      {
        /* Block waiting for space in the circular buffer */

        /* First, ensure transmit interrupts are enabled to avoid deadlock */

        context = alt_irq_disable_all ();
   33304:	e0bffc15 	stw	r2,-16(fp)
        sp->ctrl |= (ALTERA_AVALON_UART_CONTROL_TRDY_MSK |
   33308:	e0bff717 	ldw	r2,-36(fp)
   3330c:	10800117 	ldw	r2,4(r2)
   33310:	10c11014 	ori	r3,r2,1088
   33314:	e0bff717 	ldw	r2,-36(fp)
   33318:	10c00115 	stw	r3,4(r2)
                        ALTERA_AVALON_UART_CONTROL_DCTS_MSK);
        IOWR_ALTERA_AVALON_UART_CONTROL(sp->base, sp->ctrl);
   3331c:	e0bff717 	ldw	r2,-36(fp)
   33320:	10800017 	ldw	r2,0(r2)
   33324:	10800304 	addi	r2,r2,12
   33328:	e0fff717 	ldw	r3,-36(fp)
   3332c:	18c00117 	ldw	r3,4(r3)
   33330:	10c00035 	stwio	r3,0(r2)
   33334:	e0bffc17 	ldw	r2,-16(fp)
   33338:	e0bffb15 	stw	r2,-20(fp)
  NIOS2_WRITE_STATUS (context);
   3333c:	e0bffb17 	ldw	r2,-20(fp)
   33340:	1001703a 	wrctl	status,r2
}
   33344:	0001883a 	nop
   33348:	0001883a 	nop
          ALT_FLAG_PEND (sp->events, 
                         ALT_UART_WRITE_RDY,
                         OS_FLAG_WAIT_SET_ANY + OS_FLAG_CONSUME,
                         0);
        }
        while ((next == sp->tx_start));
   3334c:	e0bff717 	ldw	r2,-36(fp)
   33350:	10800417 	ldw	r2,16(r2)
   33354:	e0fffd17 	ldw	r3,-12(fp)
   33358:	18bffb26 	beq	r3,r2,33348 <altera_avalon_uart_write+0xd8>
      }
    }

    count--;
   3335c:	e0bfff17 	ldw	r2,-4(fp)
   33360:	10bfffc4 	addi	r2,r2,-1
   33364:	e0bfff15 	stw	r2,-4(fp)

    /* Add the next character to the transmit buffer */

    sp->tx_buf[sp->tx_end] = *ptr++;
   33368:	e0bff617 	ldw	r2,-40(fp)
   3336c:	10c00044 	addi	r3,r2,1
   33370:	e0fff615 	stw	r3,-40(fp)
   33374:	10c00003 	ldbu	r3,0(r2)
   33378:	e0bff717 	ldw	r2,-36(fp)
   3337c:	10800517 	ldw	r2,20(r2)
   33380:	1809883a 	mov	r4,r3
   33384:	e0fff717 	ldw	r3,-36(fp)
   33388:	1885883a 	add	r2,r3,r2
   3338c:	11001705 	stb	r4,92(r2)
    sp->tx_end = next;
   33390:	e0bff717 	ldw	r2,-36(fp)
   33394:	e0fffd17 	ldw	r3,-12(fp)
   33398:	10c00515 	stw	r3,20(r2)
  while (count)
   3339c:	e0bfff17 	ldw	r2,-4(fp)
   333a0:	103fc11e 	bne	r2,zero,332a8 <altera_avalon_uart_write+0x38>
  NIOS2_READ_STATUS (context);
   333a4:	0005303a 	rdctl	r2,status
   333a8:	e0bff815 	stw	r2,-32(fp)
  NIOS2_WRITE_STATUS (context & ~NIOS2_STATUS_PIE_MSK);
   333ac:	e0fff817 	ldw	r3,-32(fp)
   333b0:	00bfff84 	movi	r2,-2
   333b4:	1884703a 	and	r2,r3,r2
   333b8:	1001703a 	wrctl	status,r2
  return context;
   333bc:	e0bff817 	ldw	r2,-32(fp)
  /* 
   * Ensure that interrupts are enabled, so that the circular buffer can 
   * drain.
   */

  context = alt_irq_disable_all ();
   333c0:	e0bffc15 	stw	r2,-16(fp)
  sp->ctrl |= ALTERA_AVALON_UART_CONTROL_TRDY_MSK |
   333c4:	e0bff717 	ldw	r2,-36(fp)
   333c8:	10800117 	ldw	r2,4(r2)
   333cc:	10c11014 	ori	r3,r2,1088
   333d0:	e0bff717 	ldw	r2,-36(fp)
   333d4:	10c00115 	stw	r3,4(r2)
                 ALTERA_AVALON_UART_CONTROL_DCTS_MSK;
  IOWR_ALTERA_AVALON_UART_CONTROL(sp->base, sp->ctrl);
   333d8:	e0bff717 	ldw	r2,-36(fp)
   333dc:	10800017 	ldw	r2,0(r2)
   333e0:	10800304 	addi	r2,r2,12
   333e4:	e0fff717 	ldw	r3,-36(fp)
   333e8:	18c00117 	ldw	r3,4(r3)
   333ec:	10c00035 	stwio	r3,0(r2)
   333f0:	e0bffc17 	ldw	r2,-16(fp)
   333f4:	e0bff915 	stw	r2,-28(fp)
  NIOS2_WRITE_STATUS (context);
   333f8:	e0bff917 	ldw	r2,-28(fp)
   333fc:	1001703a 	wrctl	status,r2
}
   33400:	0001883a 	nop
  alt_irq_enable_all (context);

  /* return the number of bytes written */

  return (len - count);
   33404:	e0fff517 	ldw	r3,-44(fp)
   33408:	e0bfff17 	ldw	r2,-4(fp)
   3340c:	1885c83a 	sub	r2,r3,r2
}
   33410:	e037883a 	mov	sp,fp
   33414:	dfc00117 	ldw	ra,4(sp)
   33418:	df000017 	ldw	fp,0(sp)
   3341c:	dec00204 	addi	sp,sp,8
   33420:	f800283a 	ret

00033424 <alt_alarm_start>:
 */ 

int alt_alarm_start (alt_alarm* alarm, alt_u32 nticks,
                     alt_u32 (*callback) (void* context),
                     void* context)
{
   33424:	defff404 	addi	sp,sp,-48
   33428:	df000b15 	stw	fp,44(sp)
   3342c:	df000b04 	addi	fp,sp,44
   33430:	e13ff815 	stw	r4,-32(fp)
   33434:	e17ff715 	stw	r5,-36(fp)
   33438:	e1bff615 	stw	r6,-40(fp)
   3343c:	e1fff515 	stw	r7,-44(fp)
  alt_irq_context irq_context;
  alt_u64 current_nticks = 0;
   33440:	e03ffe15 	stw	zero,-8(fp)
   33444:	e03fff15 	stw	zero,-4(fp)
  return _alt_tick_rate;
   33448:	d0a92d17 	ldw	r2,-23372(gp)
  
  if (alt_ticks_per_second ())
   3344c:	10004826 	beq	r2,zero,33570 <alt_alarm_start+0x14c>
  {
    if (alarm)
   33450:	e0bff817 	ldw	r2,-32(fp)
   33454:	10004426 	beq	r2,zero,33568 <alt_alarm_start+0x144>
    {
      alarm->callback = callback;
   33458:	e0bff817 	ldw	r2,-32(fp)
   3345c:	e0fff617 	ldw	r3,-40(fp)
   33460:	10c00415 	stw	r3,16(r2)
      alarm->context  = context;
   33464:	e0bff817 	ldw	r2,-32(fp)
   33468:	e0fff517 	ldw	r3,-44(fp)
   3346c:	10c00515 	stw	r3,20(r2)
  NIOS2_READ_STATUS (context);
   33470:	0005303a 	rdctl	r2,status
   33474:	e0bff915 	stw	r2,-28(fp)
  NIOS2_WRITE_STATUS (context & ~NIOS2_STATUS_PIE_MSK);
   33478:	e0fff917 	ldw	r3,-28(fp)
   3347c:	00bfff84 	movi	r2,-2
   33480:	1884703a 	and	r2,r3,r2
   33484:	1001703a 	wrctl	status,r2
  return context;
   33488:	e0bff917 	ldw	r2,-28(fp)
 
      irq_context = alt_irq_disable_all ();
   3348c:	e0bffd15 	stw	r2,-12(fp)
 * alt_nticks() returns the elapsed number of system clock ticks since reset.
 */

static ALT_INLINE alt_u64 ALT_ALWAYS_INLINE alt_nticks (void)
{
  return _alt_nticks;
   33490:	d0a92e17 	ldw	r2,-23368(gp)
   33494:	d0e92f17 	ldw	r3,-23364(gp)
      
      current_nticks = alt_nticks();
   33498:	e0bffe15 	stw	r2,-8(fp)
   3349c:	e0ffff15 	stw	r3,-4(fp)
      
      alarm->time = (alt_u64)nticks + current_nticks + 1; 
   334a0:	e0bff717 	ldw	r2,-36(fp)
   334a4:	1011883a 	mov	r8,r2
   334a8:	0013883a 	mov	r9,zero
   334ac:	e13ffe17 	ldw	r4,-8(fp)
   334b0:	e17fff17 	ldw	r5,-4(fp)
   334b4:	4105883a 	add	r2,r8,r4
   334b8:	120d803a 	cmpltu	r6,r2,r8
   334bc:	4947883a 	add	r3,r9,r5
   334c0:	30c9883a 	add	r4,r6,r3
   334c4:	2007883a 	mov	r3,r4
   334c8:	1009883a 	mov	r4,r2
   334cc:	180b883a 	mov	r5,r3
   334d0:	01800044 	movi	r6,1
   334d4:	000f883a 	mov	r7,zero
   334d8:	2185883a 	add	r2,r4,r6
   334dc:	1111803a 	cmpltu	r8,r2,r4
   334e0:	29c7883a 	add	r3,r5,r7
   334e4:	40c9883a 	add	r4,r8,r3
   334e8:	2007883a 	mov	r3,r4
   334ec:	1009883a 	mov	r4,r2
   334f0:	180b883a 	mov	r5,r3
   334f4:	e0bff817 	ldw	r2,-32(fp)
   334f8:	11000215 	stw	r4,8(r2)
   334fc:	11400315 	stw	r5,12(r2)
          
      alt_llist_insert (&alt_alarm_list, &alarm->llist);
   33500:	e0bff817 	ldw	r2,-32(fp)
   33504:	d0e00e04 	addi	r3,gp,-32712
   33508:	e0fffb15 	stw	r3,-20(fp)
   3350c:	e0bffa15 	stw	r2,-24(fp)
  entry->previous = list;
   33510:	e0bffa17 	ldw	r2,-24(fp)
   33514:	e0fffb17 	ldw	r3,-20(fp)
   33518:	10c00115 	stw	r3,4(r2)
  entry->next     = list->next;
   3351c:	e0bffb17 	ldw	r2,-20(fp)
   33520:	10c00017 	ldw	r3,0(r2)
   33524:	e0bffa17 	ldw	r2,-24(fp)
   33528:	10c00015 	stw	r3,0(r2)
  list->next->previous = entry;
   3352c:	e0bffb17 	ldw	r2,-20(fp)
   33530:	10800017 	ldw	r2,0(r2)
   33534:	e0fffa17 	ldw	r3,-24(fp)
   33538:	10c00115 	stw	r3,4(r2)
  list->next           = entry;
   3353c:	e0bffb17 	ldw	r2,-20(fp)
   33540:	e0fffa17 	ldw	r3,-24(fp)
   33544:	10c00015 	stw	r3,0(r2)
}
   33548:	0001883a 	nop
   3354c:	e0bffd17 	ldw	r2,-12(fp)
   33550:	e0bffc15 	stw	r2,-16(fp)
  NIOS2_WRITE_STATUS (context);
   33554:	e0bffc17 	ldw	r2,-16(fp)
   33558:	1001703a 	wrctl	status,r2
}
   3355c:	0001883a 	nop
      alt_irq_enable_all (irq_context);

      return 0;
   33560:	0005883a 	mov	r2,zero
   33564:	00000306 	br	33574 <alt_alarm_start+0x150>
    }
    else
    {
      return -EINVAL;
   33568:	00bffa84 	movi	r2,-22
   3356c:	00000106 	br	33574 <alt_alarm_start+0x150>
    }
  }
  else
  {
    return -ENOTSUP;
   33570:	00bfde84 	movi	r2,-134
  }
}
   33574:	e037883a 	mov	sp,fp
   33578:	df000017 	ldw	fp,0(sp)
   3357c:	dec00104 	addi	sp,sp,4
   33580:	f800283a 	ret

00033584 <alt_busy_sleep>:
#include "alt_types.h"

#include "priv/alt_busy_sleep.h"

unsigned int alt_busy_sleep (unsigned int us)
{
   33584:	defffa04 	addi	sp,sp,-24
   33588:	dfc00515 	stw	ra,20(sp)
   3358c:	df000415 	stw	fp,16(sp)
   33590:	df000404 	addi	fp,sp,16
   33594:	e13ffc15 	stw	r4,-16(fp)
  {
    cycles_per_loop = 9;
  }
  else  
  {
    cycles_per_loop = 3;
   33598:	008000c4 	movi	r2,3
   3359c:	e0bffe15 	stw	r2,-8(fp)
  }
  

  big_loops = us / (INT_MAX/
  (ALT_CPU_FREQ/(cycles_per_loop * 1000000)));
   335a0:	e0fffe17 	ldw	r3,-8(fp)
   335a4:	008003f4 	movhi	r2,15
   335a8:	10909004 	addi	r2,r2,16960
   335ac:	1885383a 	mul	r2,r3,r2
   335b0:	100b883a 	mov	r5,r2
   335b4:	0100bef4 	movhi	r4,763
   335b8:	213c2004 	addi	r4,r4,-3968
   335bc:	002301c0 	call	2301c <__udivsi3>
  big_loops = us / (INT_MAX/
   335c0:	100b883a 	mov	r5,r2
   335c4:	01200034 	movhi	r4,32768
   335c8:	213fffc4 	addi	r4,r4,-1
   335cc:	002301c0 	call	2301c <__udivsi3>
   335d0:	100b883a 	mov	r5,r2
   335d4:	e13ffc17 	ldw	r4,-16(fp)
   335d8:	002301c0 	call	2301c <__udivsi3>
   335dc:	e0bffd15 	stw	r2,-12(fp)

  if (big_loops)
   335e0:	e0bffd17 	ldw	r2,-12(fp)
   335e4:	10002a26 	beq	r2,zero,33690 <alt_busy_sleep+0x10c>
  {
    for(i=0;i<big_loops;i++)
   335e8:	e03fff15 	stw	zero,-4(fp)
   335ec:	00001706 	br	3364c <alt_busy_sleep+0xc8>
      /*
      * Do NOT Try to single step the asm statement below 
      * (single step will never return)
      * Step out of this function or set a breakpoint after the asm statements
      */
      __asm__ volatile (
   335f0:	00a00034 	movhi	r2,32768
   335f4:	10bfffc4 	addi	r2,r2,-1
   335f8:	10bfffc4 	addi	r2,r2,-1
   335fc:	103ffe1e 	bne	r2,zero,335f8 <alt_busy_sleep+0x74>
        "\n\t.pushsection .debug_alt_sim_info"
        "\n\t.int 4, 0, 0b, 1b"
        "\n\t.popsection"
        :: "r" (INT_MAX));
      us -= (INT_MAX/(ALT_CPU_FREQ/
      (cycles_per_loop * 1000000)));
   33600:	e0fffe17 	ldw	r3,-8(fp)
   33604:	008003f4 	movhi	r2,15
   33608:	10909004 	addi	r2,r2,16960
   3360c:	1885383a 	mul	r2,r3,r2
      us -= (INT_MAX/(ALT_CPU_FREQ/
   33610:	100b883a 	mov	r5,r2
   33614:	0100bef4 	movhi	r4,763
   33618:	213c2004 	addi	r4,r4,-3968
   3361c:	002301c0 	call	2301c <__udivsi3>
   33620:	100b883a 	mov	r5,r2
   33624:	01200034 	movhi	r4,32768
   33628:	213fffc4 	addi	r4,r4,-1
   3362c:	002301c0 	call	2301c <__udivsi3>
   33630:	1007883a 	mov	r3,r2
   33634:	e0bffc17 	ldw	r2,-16(fp)
   33638:	10c5c83a 	sub	r2,r2,r3
   3363c:	e0bffc15 	stw	r2,-16(fp)
    for(i=0;i<big_loops;i++)
   33640:	e0bfff17 	ldw	r2,-4(fp)
   33644:	10800044 	addi	r2,r2,1
   33648:	e0bfff15 	stw	r2,-4(fp)
   3364c:	e0ffff17 	ldw	r3,-4(fp)
   33650:	e0bffd17 	ldw	r2,-12(fp)
   33654:	18bfe616 	blt	r3,r2,335f0 <alt_busy_sleep+0x6c>
      "\n\tbne %0,zero,0b"
      "\n1:"
      "\n\t.pushsection .debug_alt_sim_info"
      "\n\t.int 4, 0, 0b, 1b"
      "\n\t.popsection"
      :: "r" (us*(ALT_CPU_FREQ/(cycles_per_loop * 1000000))));
   33658:	e0fffe17 	ldw	r3,-8(fp)
   3365c:	008003f4 	movhi	r2,15
   33660:	10909004 	addi	r2,r2,16960
   33664:	1885383a 	mul	r2,r3,r2
   33668:	100b883a 	mov	r5,r2
   3366c:	0100bef4 	movhi	r4,763
   33670:	213c2004 	addi	r4,r4,-3968
   33674:	002301c0 	call	2301c <__udivsi3>
   33678:	1007883a 	mov	r3,r2
   3367c:	e0bffc17 	ldw	r2,-16(fp)
   33680:	1885383a 	mul	r2,r3,r2
    __asm__ volatile (
   33684:	10bfffc4 	addi	r2,r2,-1
   33688:	103ffe1e 	bne	r2,zero,33684 <alt_busy_sleep+0x100>
   3368c:	00000d06 	br	336c4 <alt_busy_sleep+0x140>
      "\n\tbgt %0,zero,0b"
      "\n1:"
      "\n\t.pushsection .debug_alt_sim_info"
      "\n\t.int 4, 0, 0b, 1b"
      "\n\t.popsection"
      :: "r" (us*(ALT_CPU_FREQ/(cycles_per_loop * 1000000))));
   33690:	e0fffe17 	ldw	r3,-8(fp)
   33694:	008003f4 	movhi	r2,15
   33698:	10909004 	addi	r2,r2,16960
   3369c:	1885383a 	mul	r2,r3,r2
   336a0:	100b883a 	mov	r5,r2
   336a4:	0100bef4 	movhi	r4,763
   336a8:	213c2004 	addi	r4,r4,-3968
   336ac:	002301c0 	call	2301c <__udivsi3>
   336b0:	1007883a 	mov	r3,r2
   336b4:	e0bffc17 	ldw	r2,-16(fp)
   336b8:	1885383a 	mul	r2,r3,r2
    __asm__ volatile (
   336bc:	10bfffc4 	addi	r2,r2,-1
   336c0:	00bffe16 	blt	zero,r2,336bc <alt_busy_sleep+0x138>
  }
#endif /* #ifndef ALT_SIM_OPTIMIZE */
  return 0;
   336c4:	0005883a 	mov	r2,zero
}
   336c8:	e037883a 	mov	sp,fp
   336cc:	dfc00117 	ldw	ra,4(sp)
   336d0:	df000017 	ldw	fp,0(sp)
   336d4:	dec00204 	addi	sp,sp,8
   336d8:	f800283a 	ret

000336dc <alt_dcache_flush_all>:
/*
 * alt_dcache_flush_all() is called to flush the entire data cache.
 */

void alt_dcache_flush_all (void)
{
   336dc:	defffe04 	addi	sp,sp,-8
   336e0:	df000115 	stw	fp,4(sp)
   336e4:	df000104 	addi	fp,sp,4
#if NIOS2_DCACHE_SIZE > 0
  char* i;
  
  for (i = (char*) 0; i < (char*) NIOS2_DCACHE_SIZE; i+= NIOS2_DCACHE_LINE_SIZE)
   336e8:	e03fff15 	stw	zero,-4(fp)
   336ec:	00000506 	br	33704 <alt_dcache_flush_all+0x28>
  { 
    __asm__ volatile ("flushd (%0)" :: "r" (i));
   336f0:	e0bfff17 	ldw	r2,-4(fp)
   336f4:	1000003b 	flushd	0(r2)
  for (i = (char*) 0; i < (char*) NIOS2_DCACHE_SIZE; i+= NIOS2_DCACHE_LINE_SIZE)
   336f8:	e0bfff17 	ldw	r2,-4(fp)
   336fc:	10800804 	addi	r2,r2,32
   33700:	e0bfff15 	stw	r2,-4(fp)
   33704:	e0bfff17 	ldw	r2,-4(fp)
   33708:	10820030 	cmpltui	r2,r2,2048
   3370c:	103ff81e 	bne	r2,zero,336f0 <alt_dcache_flush_all+0x14>
  }
#endif /* NIOS2_DCACHE_SIZE > 0 */
}
   33710:	0001883a 	nop
   33714:	0001883a 	nop
   33718:	e037883a 	mov	sp,fp
   3371c:	df000017 	ldw	fp,0(sp)
   33720:	dec00104 	addi	sp,sp,4
   33724:	f800283a 	ret

00033728 <alt_get_errno>:
{
   33728:	defffe04 	addi	sp,sp,-8
   3372c:	dfc00115 	stw	ra,4(sp)
   33730:	df000015 	stw	fp,0(sp)
   33734:	d839883a 	mov	fp,sp
  return ((alt_errno) ? alt_errno() : &errno);
   33738:	d0a00c17 	ldw	r2,-32720(gp)
   3373c:	10000326 	beq	r2,zero,3374c <alt_get_errno+0x24>
   33740:	d0a00c17 	ldw	r2,-32720(gp)
   33744:	103ee83a 	callr	r2
   33748:	00000106 	br	33750 <alt_get_errno+0x28>
   3374c:	d0a92504 	addi	r2,gp,-23404
}
   33750:	e037883a 	mov	sp,fp
   33754:	dfc00117 	ldw	ra,4(sp)
   33758:	df000017 	ldw	fp,0(sp)
   3375c:	dec00204 	addi	sp,sp,8
   33760:	f800283a 	ret

00033764 <alt_dev_llist_insert>:
/*
 *
 */

int alt_dev_llist_insert (alt_dev_llist* dev, alt_llist* list)
{
   33764:	defffa04 	addi	sp,sp,-24
   33768:	dfc00515 	stw	ra,20(sp)
   3376c:	df000415 	stw	fp,16(sp)
   33770:	df000404 	addi	fp,sp,16
   33774:	e13ffd15 	stw	r4,-12(fp)
   33778:	e17ffc15 	stw	r5,-16(fp)
  /*
   * check that the device exists, and that it has a valid name.
   */

  if (!dev || !dev->name)
   3377c:	e0bffd17 	ldw	r2,-12(fp)
   33780:	10000326 	beq	r2,zero,33790 <alt_dev_llist_insert+0x2c>
   33784:	e0bffd17 	ldw	r2,-12(fp)
   33788:	10800217 	ldw	r2,8(r2)
   3378c:	1000061e 	bne	r2,zero,337a8 <alt_dev_llist_insert+0x44>
  {
    ALT_ERRNO = EINVAL;
   33790:	00337280 	call	33728 <alt_get_errno>
   33794:	1007883a 	mov	r3,r2
   33798:	00800584 	movi	r2,22
   3379c:	18800015 	stw	r2,0(r3)
    return -EINVAL;
   337a0:	00bffa84 	movi	r2,-22
   337a4:	00001406 	br	337f8 <alt_dev_llist_insert+0x94>
  
  /*
   * register the device.
   */
  
  alt_llist_insert(list, &dev->llist);
   337a8:	e0bffd17 	ldw	r2,-12(fp)
   337ac:	e0fffc17 	ldw	r3,-16(fp)
   337b0:	e0ffff15 	stw	r3,-4(fp)
   337b4:	e0bffe15 	stw	r2,-8(fp)
  entry->previous = list;
   337b8:	e0bffe17 	ldw	r2,-8(fp)
   337bc:	e0ffff17 	ldw	r3,-4(fp)
   337c0:	10c00115 	stw	r3,4(r2)
  entry->next     = list->next;
   337c4:	e0bfff17 	ldw	r2,-4(fp)
   337c8:	10c00017 	ldw	r3,0(r2)
   337cc:	e0bffe17 	ldw	r2,-8(fp)
   337d0:	10c00015 	stw	r3,0(r2)
  list->next->previous = entry;
   337d4:	e0bfff17 	ldw	r2,-4(fp)
   337d8:	10800017 	ldw	r2,0(r2)
   337dc:	e0fffe17 	ldw	r3,-8(fp)
   337e0:	10c00115 	stw	r3,4(r2)
  list->next           = entry;
   337e4:	e0bfff17 	ldw	r2,-4(fp)
   337e8:	e0fffe17 	ldw	r3,-8(fp)
   337ec:	10c00015 	stw	r3,0(r2)
}
   337f0:	0001883a 	nop

  return 0;  
   337f4:	0005883a 	mov	r2,zero
}
   337f8:	e037883a 	mov	sp,fp
   337fc:	dfc00117 	ldw	ra,4(sp)
   33800:	df000017 	ldw	fp,0(sp)
   33804:	dec00204 	addi	sp,sp,8
   33808:	f800283a 	ret

0003380c <_do_ctors>:
/*
 * Run the C++ static constructors.
 */

void _do_ctors(void)
{
   3380c:	defffd04 	addi	sp,sp,-12
   33810:	dfc00215 	stw	ra,8(sp)
   33814:	df000115 	stw	fp,4(sp)
   33818:	df000104 	addi	fp,sp,4
  constructor* ctor;

  for (ctor = &__CTOR_END__[-1]; ctor >= __CTOR_LIST__; ctor--)
   3381c:	008000f4 	movhi	r2,3
   33820:	1090a604 	addi	r2,r2,17048
   33824:	e0bfff15 	stw	r2,-4(fp)
   33828:	00000606 	br	33844 <_do_ctors+0x38>
        (*ctor) (); 
   3382c:	e0bfff17 	ldw	r2,-4(fp)
   33830:	10800017 	ldw	r2,0(r2)
   33834:	103ee83a 	callr	r2
  for (ctor = &__CTOR_END__[-1]; ctor >= __CTOR_LIST__; ctor--)
   33838:	e0bfff17 	ldw	r2,-4(fp)
   3383c:	10bfff04 	addi	r2,r2,-4
   33840:	e0bfff15 	stw	r2,-4(fp)
   33844:	e0ffff17 	ldw	r3,-4(fp)
   33848:	008000f4 	movhi	r2,3
   3384c:	1090a704 	addi	r2,r2,17052
   33850:	18bff62e 	bgeu	r3,r2,3382c <_do_ctors+0x20>
}
   33854:	0001883a 	nop
   33858:	0001883a 	nop
   3385c:	e037883a 	mov	sp,fp
   33860:	dfc00117 	ldw	ra,4(sp)
   33864:	df000017 	ldw	fp,0(sp)
   33868:	dec00204 	addi	sp,sp,8
   3386c:	f800283a 	ret

00033870 <_do_dtors>:
/*
 * Run the C++ static destructors.
 */

void _do_dtors(void)
{
   33870:	defffd04 	addi	sp,sp,-12
   33874:	dfc00215 	stw	ra,8(sp)
   33878:	df000115 	stw	fp,4(sp)
   3387c:	df000104 	addi	fp,sp,4
  destructor* dtor;

  for (dtor = &__DTOR_END__[-1]; dtor >= __DTOR_LIST__; dtor--)
   33880:	008000f4 	movhi	r2,3
   33884:	1090a604 	addi	r2,r2,17048
   33888:	e0bfff15 	stw	r2,-4(fp)
   3388c:	00000606 	br	338a8 <_do_dtors+0x38>
        (*dtor) (); 
   33890:	e0bfff17 	ldw	r2,-4(fp)
   33894:	10800017 	ldw	r2,0(r2)
   33898:	103ee83a 	callr	r2
  for (dtor = &__DTOR_END__[-1]; dtor >= __DTOR_LIST__; dtor--)
   3389c:	e0bfff17 	ldw	r2,-4(fp)
   338a0:	10bfff04 	addi	r2,r2,-4
   338a4:	e0bfff15 	stw	r2,-4(fp)
   338a8:	e0ffff17 	ldw	r3,-4(fp)
   338ac:	008000f4 	movhi	r2,3
   338b0:	1090a704 	addi	r2,r2,17052
   338b4:	18bff62e 	bgeu	r3,r2,33890 <_do_dtors+0x20>
}
   338b8:	0001883a 	nop
   338bc:	0001883a 	nop
   338c0:	e037883a 	mov	sp,fp
   338c4:	dfc00117 	ldw	ra,4(sp)
   338c8:	df000017 	ldw	fp,0(sp)
   338cc:	dec00204 	addi	sp,sp,8
   338d0:	f800283a 	ret

000338d4 <alt_find_dev>:
 * "name" must be an exact match for the devices registered name for a match to
 * be found.
 */
 
alt_dev* alt_find_dev(const char* name, alt_llist* llist)
{
   338d4:	defffa04 	addi	sp,sp,-24
   338d8:	dfc00515 	stw	ra,20(sp)
   338dc:	df000415 	stw	fp,16(sp)
   338e0:	df000404 	addi	fp,sp,16
   338e4:	e13ffd15 	stw	r4,-12(fp)
   338e8:	e17ffc15 	stw	r5,-16(fp)
  alt_dev* next = (alt_dev*) llist->next;
   338ec:	e0bffc17 	ldw	r2,-16(fp)
   338f0:	10800017 	ldw	r2,0(r2)
   338f4:	e0bfff15 	stw	r2,-4(fp)
  alt_32 len;

  len  = strlen(name) + 1;
   338f8:	e13ffd17 	ldw	r4,-12(fp)
   338fc:	00248900 	call	24890 <strlen>
   33900:	10800044 	addi	r2,r2,1
   33904:	e0bffe15 	stw	r2,-8(fp)
  /*
   * Check each list entry in turn, until a match is found, or we reach the
   * end of the list (i.e. next winds up pointing back to the list head).
   */ 

  while (next != (alt_dev*) llist)
   33908:	00000d06 	br	33940 <alt_find_dev+0x6c>
    /* 
     * memcmp() is used here rather than strcmp() in order to reduce the size
     * of the executable.
     */

    if (!memcmp (next->name, name, len))
   3390c:	e0bfff17 	ldw	r2,-4(fp)
   33910:	10800217 	ldw	r2,8(r2)
   33914:	e0fffe17 	ldw	r3,-8(fp)
   33918:	180d883a 	mov	r6,r3
   3391c:	e17ffd17 	ldw	r5,-12(fp)
   33920:	1009883a 	mov	r4,r2
   33924:	00340740 	call	34074 <memcmp>
   33928:	1000021e 	bne	r2,zero,33934 <alt_find_dev+0x60>
    {
      /* match found */

      return next;
   3392c:	e0bfff17 	ldw	r2,-4(fp)
   33930:	00000706 	br	33950 <alt_find_dev+0x7c>
    }
    next = (alt_dev*) next->llist.next;
   33934:	e0bfff17 	ldw	r2,-4(fp)
   33938:	10800017 	ldw	r2,0(r2)
   3393c:	e0bfff15 	stw	r2,-4(fp)
  while (next != (alt_dev*) llist)
   33940:	e0ffff17 	ldw	r3,-4(fp)
   33944:	e0bffc17 	ldw	r2,-16(fp)
   33948:	18bff01e 	bne	r3,r2,3390c <alt_find_dev+0x38>
  }
  
  /* No match found */
  
  return NULL;
   3394c:	0005883a 	mov	r2,zero
}
   33950:	e037883a 	mov	sp,fp
   33954:	dfc00117 	ldw	ra,4(sp)
   33958:	df000017 	ldw	fp,0(sp)
   3395c:	dec00204 	addi	sp,sp,8
   33960:	f800283a 	ret

00033964 <alt_find_file>:
 * either '/' or '\0' is the prefix of the filename. For example the filename:
 * "/myfilesystem/junk.txt" would match: "/myfilesystem", but not: "/myfile". 
 */
 
alt_dev* alt_find_file (const char* name)
{
   33964:	defffb04 	addi	sp,sp,-20
   33968:	dfc00415 	stw	ra,16(sp)
   3396c:	df000315 	stw	fp,12(sp)
   33970:	df000304 	addi	fp,sp,12
   33974:	e13ffd15 	stw	r4,-12(fp)
  alt_dev* next = (alt_dev*) alt_fs_list.next;   
   33978:	d0a00717 	ldw	r2,-32740(gp)
   3397c:	e0bfff15 	stw	r2,-4(fp)
  /*
   * Check each list entry in turn, until a match is found, or we reach the
   * end of the list (i.e. next winds up pointing back to the list head).
   */ 
 
  while (next != (alt_dev*) &alt_fs_list)
   33980:	00003106 	br	33a48 <alt_find_file+0xe4>
  {
    len = strlen(next->name);
   33984:	e0bfff17 	ldw	r2,-4(fp)
   33988:	10800217 	ldw	r2,8(r2)
   3398c:	1009883a 	mov	r4,r2
   33990:	00248900 	call	24890 <strlen>
   33994:	e0bffe15 	stw	r2,-8(fp)
    
    if (next->name[len-1] == '/')
   33998:	e0bfff17 	ldw	r2,-4(fp)
   3399c:	10c00217 	ldw	r3,8(r2)
   339a0:	e0bffe17 	ldw	r2,-8(fp)
   339a4:	10bfffc4 	addi	r2,r2,-1
   339a8:	1885883a 	add	r2,r3,r2
   339ac:	10800003 	ldbu	r2,0(r2)
   339b0:	10803fcc 	andi	r2,r2,255
   339b4:	1080201c 	xori	r2,r2,128
   339b8:	10bfe004 	addi	r2,r2,-128
   339bc:	10800bd8 	cmpnei	r2,r2,47
   339c0:	1000031e 	bne	r2,zero,339d0 <alt_find_file+0x6c>
    {
      len -= 1;
   339c4:	e0bffe17 	ldw	r2,-8(fp)
   339c8:	10bfffc4 	addi	r2,r2,-1
   339cc:	e0bffe15 	stw	r2,-8(fp)
    }

    if (((name[len] == '/') || (name[len] == '\0')) && 
   339d0:	e0bffe17 	ldw	r2,-8(fp)
   339d4:	e0fffd17 	ldw	r3,-12(fp)
   339d8:	1885883a 	add	r2,r3,r2
   339dc:	10800003 	ldbu	r2,0(r2)
   339e0:	10803fcc 	andi	r2,r2,255
   339e4:	1080201c 	xori	r2,r2,128
   339e8:	10bfe004 	addi	r2,r2,-128
   339ec:	10800be0 	cmpeqi	r2,r2,47
   339f0:	1000081e 	bne	r2,zero,33a14 <alt_find_file+0xb0>
   339f4:	e0bffe17 	ldw	r2,-8(fp)
   339f8:	e0fffd17 	ldw	r3,-12(fp)
   339fc:	1885883a 	add	r2,r3,r2
   33a00:	10800003 	ldbu	r2,0(r2)
   33a04:	10803fcc 	andi	r2,r2,255
   33a08:	1080201c 	xori	r2,r2,128
   33a0c:	10bfe004 	addi	r2,r2,-128
   33a10:	10000a1e 	bne	r2,zero,33a3c <alt_find_file+0xd8>
        !memcmp (next->name, name, len))
   33a14:	e0bfff17 	ldw	r2,-4(fp)
   33a18:	10800217 	ldw	r2,8(r2)
   33a1c:	e0fffe17 	ldw	r3,-8(fp)
   33a20:	180d883a 	mov	r6,r3
   33a24:	e17ffd17 	ldw	r5,-12(fp)
   33a28:	1009883a 	mov	r4,r2
   33a2c:	00340740 	call	34074 <memcmp>
    if (((name[len] == '/') || (name[len] == '\0')) && 
   33a30:	1000021e 	bne	r2,zero,33a3c <alt_find_file+0xd8>
    {
      /* match found */

      return next;
   33a34:	e0bfff17 	ldw	r2,-4(fp)
   33a38:	00000706 	br	33a58 <alt_find_file+0xf4>
    }
    next = (alt_dev*) next->llist.next;
   33a3c:	e0bfff17 	ldw	r2,-4(fp)
   33a40:	10800017 	ldw	r2,0(r2)
   33a44:	e0bfff15 	stw	r2,-4(fp)
  while (next != (alt_dev*) &alt_fs_list)
   33a48:	e0ffff17 	ldw	r3,-4(fp)
   33a4c:	d0a00704 	addi	r2,gp,-32740
   33a50:	18bfcc1e 	bne	r3,r2,33984 <alt_find_file+0x20>
  }
  
  /* No match found */
  
  return NULL;     
   33a54:	0005883a 	mov	r2,zero
}
   33a58:	e037883a 	mov	sp,fp
   33a5c:	dfc00117 	ldw	ra,4(sp)
   33a60:	df000017 	ldw	fp,0(sp)
   33a64:	dec00204 	addi	sp,sp,8
   33a68:	f800283a 	ret

00033a6c <alt_get_fd>:
 * the offset of the file descriptor within the file descriptor array). A
 * negative value indicates failure.
 */

int alt_get_fd (alt_dev* dev)
{
   33a6c:	defffc04 	addi	sp,sp,-16
   33a70:	df000315 	stw	fp,12(sp)
   33a74:	df000304 	addi	fp,sp,12
   33a78:	e13ffd15 	stw	r4,-12(fp)
  alt_32 i;
  int rc = -EMFILE;
   33a7c:	00bffa04 	movi	r2,-24
   33a80:	e0bffe15 	stw	r2,-8(fp)
   * indicates the highest file descriptor ever allocated. This is used to
   * improve efficency when searching the file descriptor list, and 
   * therefore reduce contention on the alt_fd_list_lock semaphore. 
   */

  for (i = 0; i < ALT_MAX_FD; i++)
   33a84:	e03fff15 	stw	zero,-4(fp)
   33a88:	00001706 	br	33ae8 <alt_get_fd+0x7c>
  {
    if (!alt_fd_list[i].dev)
   33a8c:	e0bfff17 	ldw	r2,-4(fp)
   33a90:	10c00324 	muli	r3,r2,12
   33a94:	008000f4 	movhi	r2,3
   33a98:	1885883a 	add	r2,r3,r2
   33a9c:	10982317 	ldw	r2,24716(r2)
   33aa0:	10000e1e 	bne	r2,zero,33adc <alt_get_fd+0x70>
    {
      alt_fd_list[i].dev = dev;
   33aa4:	e0bfff17 	ldw	r2,-4(fp)
   33aa8:	11000324 	muli	r4,r2,12
   33aac:	e0fffd17 	ldw	r3,-12(fp)
   33ab0:	008000f4 	movhi	r2,3
   33ab4:	2085883a 	add	r2,r4,r2
   33ab8:	10d82315 	stw	r3,24716(r2)
      if (i > alt_max_fd)
   33abc:	d0e00b17 	ldw	r3,-32724(gp)
   33ac0:	e0bfff17 	ldw	r2,-4(fp)
   33ac4:	1880020e 	bge	r3,r2,33ad0 <alt_get_fd+0x64>
      {
        alt_max_fd = i;
   33ac8:	e0bfff17 	ldw	r2,-4(fp)
   33acc:	d0a00b15 	stw	r2,-32724(gp)
      }
      rc = i;
   33ad0:	e0bfff17 	ldw	r2,-4(fp)
   33ad4:	e0bffe15 	stw	r2,-8(fp)
      goto alt_get_fd_exit;
   33ad8:	00000706 	br	33af8 <alt_get_fd+0x8c>
  for (i = 0; i < ALT_MAX_FD; i++)
   33adc:	e0bfff17 	ldw	r2,-4(fp)
   33ae0:	10800044 	addi	r2,r2,1
   33ae4:	e0bfff15 	stw	r2,-4(fp)
   33ae8:	e0bfff17 	ldw	r2,-4(fp)
   33aec:	10800810 	cmplti	r2,r2,32
   33af0:	103fe61e 	bne	r2,zero,33a8c <alt_get_fd+0x20>
    }
  }

 alt_get_fd_exit:
   33af4:	0001883a 	nop
   * file descriptor pool.
   */

  ALT_SEM_POST(alt_fd_list_lock);

  return rc;
   33af8:	e0bffe17 	ldw	r2,-8(fp)
}
   33afc:	e037883a 	mov	sp,fp
   33b00:	df000017 	ldw	fp,0(sp)
   33b04:	dec00104 	addi	sp,sp,4
   33b08:	f800283a 	ret

00033b0c <alt_icache_flush_all>:
/*
 * alt_icache_flush_all() is called to flush the entire instruction cache.
 */

void alt_icache_flush_all (void)
{
   33b0c:	defffe04 	addi	sp,sp,-8
   33b10:	dfc00115 	stw	ra,4(sp)
   33b14:	df000015 	stw	fp,0(sp)
   33b18:	d839883a 	mov	fp,sp
#if NIOS2_ICACHE_SIZE > 0
  alt_icache_flush (0, NIOS2_ICACHE_SIZE);
   33b1c:	01440004 	movi	r5,4096
   33b20:	0009883a 	mov	r4,zero
   33b24:	0033f280 	call	33f28 <alt_icache_flush>
#endif
}
   33b28:	0001883a 	nop
   33b2c:	e037883a 	mov	sp,fp
   33b30:	dfc00117 	ldw	ra,4(sp)
   33b34:	df000017 	ldw	fp,0(sp)
   33b38:	dec00204 	addi	sp,sp,8
   33b3c:	f800283a 	ret

00033b40 <alt_ic_isr_register>:
  * @param irq              IRQ number
  * @return                 0 if successful, else error (-1)
  */
int alt_ic_isr_register(alt_u32 ic_id, alt_u32 irq, alt_isr_func isr, 
  void *isr_context, void *flags)
{
   33b40:	defff904 	addi	sp,sp,-28
   33b44:	dfc00615 	stw	ra,24(sp)
   33b48:	df000515 	stw	fp,20(sp)
   33b4c:	df000504 	addi	fp,sp,20
   33b50:	e13fff15 	stw	r4,-4(fp)
   33b54:	e17ffe15 	stw	r5,-8(fp)
   33b58:	e1bffd15 	stw	r6,-12(fp)
   33b5c:	e1fffc15 	stw	r7,-16(fp)
    return alt_iic_isr_register(ic_id, irq, isr, isr_context, flags);
   33b60:	e0800217 	ldw	r2,8(fp)
   33b64:	d8800015 	stw	r2,0(sp)
   33b68:	e1fffc17 	ldw	r7,-16(fp)
   33b6c:	e1bffd17 	ldw	r6,-12(fp)
   33b70:	e17ffe17 	ldw	r5,-8(fp)
   33b74:	e13fff17 	ldw	r4,-4(fp)
   33b78:	0033cf00 	call	33cf0 <alt_iic_isr_register>
}  
   33b7c:	e037883a 	mov	sp,fp
   33b80:	dfc00117 	ldw	ra,4(sp)
   33b84:	df000017 	ldw	fp,0(sp)
   33b88:	dec00204 	addi	sp,sp,8
   33b8c:	f800283a 	ret

00033b90 <alt_ic_irq_enable>:
  * @param ic_id            Ignored.
  * @param irq              IRQ number
  * @return                 0 if successful, else error (-1)
  */
int alt_ic_irq_enable (alt_u32 ic_id, alt_u32 irq)
{
   33b90:	defff904 	addi	sp,sp,-28
   33b94:	df000615 	stw	fp,24(sp)
   33b98:	df000604 	addi	fp,sp,24
   33b9c:	e13ffb15 	stw	r4,-20(fp)
   33ba0:	e17ffa15 	stw	r5,-24(fp)
   33ba4:	e0bffa17 	ldw	r2,-24(fp)
   33ba8:	e0bfff15 	stw	r2,-4(fp)
  NIOS2_READ_STATUS (context);
   33bac:	0005303a 	rdctl	r2,status
   33bb0:	e0bffe15 	stw	r2,-8(fp)
  NIOS2_WRITE_STATUS (context & ~NIOS2_STATUS_PIE_MSK);
   33bb4:	e0fffe17 	ldw	r3,-8(fp)
   33bb8:	00bfff84 	movi	r2,-2
   33bbc:	1884703a 	and	r2,r3,r2
   33bc0:	1001703a 	wrctl	status,r2
  return context;
   33bc4:	e0bffe17 	ldw	r2,-8(fp)
static ALT_INLINE int ALT_ALWAYS_INLINE alt_irq_enable (alt_u32 id)
{
  alt_irq_context  status;
  extern volatile alt_u32 alt_irq_active;

  status = alt_irq_disable_all ();
   33bc8:	e0bffd15 	stw	r2,-12(fp)

  alt_irq_active |= (1 << id);
   33bcc:	00c00044 	movi	r3,1
   33bd0:	e0bfff17 	ldw	r2,-4(fp)
   33bd4:	1884983a 	sll	r2,r3,r2
   33bd8:	1007883a 	mov	r3,r2
   33bdc:	d0a93017 	ldw	r2,-23360(gp)
   33be0:	1884b03a 	or	r2,r3,r2
   33be4:	d0a93015 	stw	r2,-23360(gp)
  NIOS2_WRITE_IENABLE (alt_irq_active);
   33be8:	d0a93017 	ldw	r2,-23360(gp)
   33bec:	100170fa 	wrctl	ienable,r2
   33bf0:	e0bffd17 	ldw	r2,-12(fp)
   33bf4:	e0bffc15 	stw	r2,-16(fp)
  NIOS2_WRITE_STATUS (context);
   33bf8:	e0bffc17 	ldw	r2,-16(fp)
   33bfc:	1001703a 	wrctl	status,r2
}
   33c00:	0001883a 	nop

  alt_irq_enable_all(status);

  return 0;
   33c04:	0005883a 	mov	r2,zero
    return alt_irq_enable(irq);
}
   33c08:	e037883a 	mov	sp,fp
   33c0c:	df000017 	ldw	fp,0(sp)
   33c10:	dec00104 	addi	sp,sp,4
   33c14:	f800283a 	ret

00033c18 <alt_ic_irq_disable>:
  * @param ic_id            Ignored.
  * @param irq              IRQ number
  * @return                 0 if successful, else error (-1)
  */
int alt_ic_irq_disable(alt_u32 ic_id, alt_u32 irq)
{
   33c18:	defff904 	addi	sp,sp,-28
   33c1c:	df000615 	stw	fp,24(sp)
   33c20:	df000604 	addi	fp,sp,24
   33c24:	e13ffb15 	stw	r4,-20(fp)
   33c28:	e17ffa15 	stw	r5,-24(fp)
   33c2c:	e0bffa17 	ldw	r2,-24(fp)
   33c30:	e0bfff15 	stw	r2,-4(fp)
  NIOS2_READ_STATUS (context);
   33c34:	0005303a 	rdctl	r2,status
   33c38:	e0bffe15 	stw	r2,-8(fp)
  NIOS2_WRITE_STATUS (context & ~NIOS2_STATUS_PIE_MSK);
   33c3c:	e0fffe17 	ldw	r3,-8(fp)
   33c40:	00bfff84 	movi	r2,-2
   33c44:	1884703a 	and	r2,r3,r2
   33c48:	1001703a 	wrctl	status,r2
  return context;
   33c4c:	e0bffe17 	ldw	r2,-8(fp)
  status = alt_irq_disable_all ();
   33c50:	e0bffd15 	stw	r2,-12(fp)
  alt_irq_active &= ~(1 << id);
   33c54:	00c00044 	movi	r3,1
   33c58:	e0bfff17 	ldw	r2,-4(fp)
   33c5c:	1884983a 	sll	r2,r3,r2
   33c60:	0084303a 	nor	r2,zero,r2
   33c64:	1007883a 	mov	r3,r2
   33c68:	d0a93017 	ldw	r2,-23360(gp)
   33c6c:	1884703a 	and	r2,r3,r2
   33c70:	d0a93015 	stw	r2,-23360(gp)
  NIOS2_WRITE_IENABLE (alt_irq_active);
   33c74:	d0a93017 	ldw	r2,-23360(gp)
   33c78:	100170fa 	wrctl	ienable,r2
   33c7c:	e0bffd17 	ldw	r2,-12(fp)
   33c80:	e0bffc15 	stw	r2,-16(fp)
  NIOS2_WRITE_STATUS (context);
   33c84:	e0bffc17 	ldw	r2,-16(fp)
   33c88:	1001703a 	wrctl	status,r2
}
   33c8c:	0001883a 	nop
  return 0;
   33c90:	0005883a 	mov	r2,zero
    return alt_irq_disable(irq);
}
   33c94:	e037883a 	mov	sp,fp
   33c98:	df000017 	ldw	fp,0(sp)
   33c9c:	dec00104 	addi	sp,sp,4
   33ca0:	f800283a 	ret

00033ca4 <alt_ic_irq_enabled>:
  * @param irq              IRQ number
  * @return                 Zero if corresponding interrupt is disabled and
  *                         non-zero otherwise.
  */
alt_u32 alt_ic_irq_enabled(alt_u32 ic_id, alt_u32 irq)
{
   33ca4:	defffc04 	addi	sp,sp,-16
   33ca8:	df000315 	stw	fp,12(sp)
   33cac:	df000304 	addi	fp,sp,12
   33cb0:	e13ffe15 	stw	r4,-8(fp)
   33cb4:	e17ffd15 	stw	r5,-12(fp)
    alt_u32 irq_enabled;

    NIOS2_READ_IENABLE(irq_enabled);
   33cb8:	000530fa 	rdctl	r2,ienable
   33cbc:	e0bfff15 	stw	r2,-4(fp)

    return (irq_enabled & (1 << irq)) ? 1: 0;
   33cc0:	00c00044 	movi	r3,1
   33cc4:	e0bffd17 	ldw	r2,-12(fp)
   33cc8:	1884983a 	sll	r2,r3,r2
   33ccc:	1007883a 	mov	r3,r2
   33cd0:	e0bfff17 	ldw	r2,-4(fp)
   33cd4:	1884703a 	and	r2,r3,r2
   33cd8:	1004c03a 	cmpne	r2,r2,zero
   33cdc:	10803fcc 	andi	r2,r2,255
}
   33ce0:	e037883a 	mov	sp,fp
   33ce4:	df000017 	ldw	fp,0(sp)
   33ce8:	dec00104 	addi	sp,sp,4
   33cec:	f800283a 	ret

00033cf0 <alt_iic_isr_register>:
  * @param flags            
  * @return                 0 if successful, else error (-1)
  */
int alt_iic_isr_register(alt_u32 ic_id, alt_u32 irq, alt_isr_func isr, 
  void *isr_context, void *flags)
{
   33cf0:	defff504 	addi	sp,sp,-44
   33cf4:	dfc00a15 	stw	ra,40(sp)
   33cf8:	df000915 	stw	fp,36(sp)
   33cfc:	df000904 	addi	fp,sp,36
   33d00:	e13ffa15 	stw	r4,-24(fp)
   33d04:	e17ff915 	stw	r5,-28(fp)
   33d08:	e1bff815 	stw	r6,-32(fp)
   33d0c:	e1fff715 	stw	r7,-36(fp)
  int rc = -EINVAL;  
   33d10:	00bffa84 	movi	r2,-22
   33d14:	e0bfff15 	stw	r2,-4(fp)
  int id = irq;             /* IRQ interpreted as the interrupt ID. */
   33d18:	e0bff917 	ldw	r2,-28(fp)
   33d1c:	e0bffe15 	stw	r2,-8(fp)
  alt_irq_context status;

  if (id < ALT_NIRQ)
   33d20:	e0bffe17 	ldw	r2,-8(fp)
   33d24:	10800808 	cmpgei	r2,r2,32
   33d28:	1000251e 	bne	r2,zero,33dc0 <alt_iic_isr_register+0xd0>
  NIOS2_READ_STATUS (context);
   33d2c:	0005303a 	rdctl	r2,status
   33d30:	e0bffc15 	stw	r2,-16(fp)
  NIOS2_WRITE_STATUS (context & ~NIOS2_STATUS_PIE_MSK);
   33d34:	e0fffc17 	ldw	r3,-16(fp)
   33d38:	00bfff84 	movi	r2,-2
   33d3c:	1884703a 	and	r2,r3,r2
   33d40:	1001703a 	wrctl	status,r2
  return context;
   33d44:	e0bffc17 	ldw	r2,-16(fp)
     * interrupts are disabled while the handler tables are updated to ensure
     * that an interrupt doesn't occur while the tables are in an inconsistant
     * state.
     */

    status = alt_irq_disable_all();
   33d48:	e0bffd15 	stw	r2,-12(fp)

    alt_irq[id].handler = isr;
   33d4c:	e0bffe17 	ldw	r2,-8(fp)
   33d50:	100890fa 	slli	r4,r2,3
   33d54:	e0fff817 	ldw	r3,-32(fp)
   33d58:	00800134 	movhi	r2,4
   33d5c:	2085883a 	add	r2,r4,r2
   33d60:	10e60815 	stw	r3,-26592(r2)
    alt_irq[id].context = isr_context;
   33d64:	e0bffe17 	ldw	r2,-8(fp)
   33d68:	100890fa 	slli	r4,r2,3
   33d6c:	e0fff717 	ldw	r3,-36(fp)
   33d70:	00800134 	movhi	r2,4
   33d74:	2085883a 	add	r2,r4,r2
   33d78:	10e60915 	stw	r3,-26588(r2)

    rc = (isr) ? alt_ic_irq_enable(ic_id, id) : alt_ic_irq_disable(ic_id, id);
   33d7c:	e0bff817 	ldw	r2,-32(fp)
   33d80:	10000526 	beq	r2,zero,33d98 <alt_iic_isr_register+0xa8>
   33d84:	e0bffe17 	ldw	r2,-8(fp)
   33d88:	100b883a 	mov	r5,r2
   33d8c:	e13ffa17 	ldw	r4,-24(fp)
   33d90:	0033b900 	call	33b90 <alt_ic_irq_enable>
   33d94:	00000406 	br	33da8 <alt_iic_isr_register+0xb8>
   33d98:	e0bffe17 	ldw	r2,-8(fp)
   33d9c:	100b883a 	mov	r5,r2
   33da0:	e13ffa17 	ldw	r4,-24(fp)
   33da4:	0033c180 	call	33c18 <alt_ic_irq_disable>
   33da8:	e0bfff15 	stw	r2,-4(fp)
   33dac:	e0bffd17 	ldw	r2,-12(fp)
   33db0:	e0bffb15 	stw	r2,-20(fp)
  NIOS2_WRITE_STATUS (context);
   33db4:	e0bffb17 	ldw	r2,-20(fp)
   33db8:	1001703a 	wrctl	status,r2
}
   33dbc:	0001883a 	nop

    alt_irq_enable_all(status);
  }

  return rc; 
   33dc0:	e0bfff17 	ldw	r2,-4(fp)
}
   33dc4:	e037883a 	mov	sp,fp
   33dc8:	dfc00117 	ldw	ra,4(sp)
   33dcc:	df000017 	ldw	fp,0(sp)
   33dd0:	dec00204 	addi	sp,sp,8
   33dd4:	f800283a 	ret

00033dd8 <alt_open_fd>:
 * If the device can not be succesfully opened, then the input file descriptor
 * remains unchanged.
 */

static void alt_open_fd(alt_fd* fd, const char* name, int flags, int mode)
{
   33dd8:	defff904 	addi	sp,sp,-28
   33ddc:	dfc00615 	stw	ra,24(sp)
   33de0:	df000515 	stw	fp,20(sp)
   33de4:	df000504 	addi	fp,sp,20
   33de8:	e13ffe15 	stw	r4,-8(fp)
   33dec:	e17ffd15 	stw	r5,-12(fp)
   33df0:	e1bffc15 	stw	r6,-16(fp)
   33df4:	e1fffb15 	stw	r7,-20(fp)
  int old;

  old = open (name, flags, mode);
   33df8:	e1bffb17 	ldw	r6,-20(fp)
   33dfc:	e17ffc17 	ldw	r5,-16(fp)
   33e00:	e13ffd17 	ldw	r4,-12(fp)
   33e04:	00317f80 	call	317f8 <open>
   33e08:	e0bfff15 	stw	r2,-4(fp)

  if (old >= 0)
   33e0c:	e0bfff17 	ldw	r2,-4(fp)
   33e10:	10001716 	blt	r2,zero,33e70 <alt_open_fd+0x98>
  {
    fd->dev      = alt_fd_list[old].dev;
   33e14:	e0bfff17 	ldw	r2,-4(fp)
   33e18:	10c00324 	muli	r3,r2,12
   33e1c:	008000f4 	movhi	r2,3
   33e20:	1885883a 	add	r2,r3,r2
   33e24:	10d82317 	ldw	r3,24716(r2)
   33e28:	e0bffe17 	ldw	r2,-8(fp)
   33e2c:	10c00015 	stw	r3,0(r2)
    fd->priv     = alt_fd_list[old].priv;
   33e30:	e0bfff17 	ldw	r2,-4(fp)
   33e34:	10c00324 	muli	r3,r2,12
   33e38:	008000f4 	movhi	r2,3
   33e3c:	1885883a 	add	r2,r3,r2
   33e40:	10d82417 	ldw	r3,24720(r2)
   33e44:	e0bffe17 	ldw	r2,-8(fp)
   33e48:	10c00115 	stw	r3,4(r2)
    fd->fd_flags = alt_fd_list[old].fd_flags;
   33e4c:	e0bfff17 	ldw	r2,-4(fp)
   33e50:	10c00324 	muli	r3,r2,12
   33e54:	008000f4 	movhi	r2,3
   33e58:	1885883a 	add	r2,r3,r2
   33e5c:	10d82517 	ldw	r3,24724(r2)
   33e60:	e0bffe17 	ldw	r2,-8(fp)
   33e64:	10c00215 	stw	r3,8(r2)

    alt_release_fd (old);
   33e68:	e13fff17 	ldw	r4,-4(fp)
   33e6c:	0031a840 	call	31a84 <alt_release_fd>
  }
} 
   33e70:	0001883a 	nop
   33e74:	e037883a 	mov	sp,fp
   33e78:	dfc00117 	ldw	ra,4(sp)
   33e7c:	df000017 	ldw	fp,0(sp)
   33e80:	dec00204 	addi	sp,sp,8
   33e84:	f800283a 	ret

00033e88 <alt_io_redirect>:
 */
 
void alt_io_redirect(const char* stdout_dev, 
                     const char* stdin_dev, 
                     const char* stderr_dev)
{
   33e88:	defffb04 	addi	sp,sp,-20
   33e8c:	dfc00415 	stw	ra,16(sp)
   33e90:	df000315 	stw	fp,12(sp)
   33e94:	df000304 	addi	fp,sp,12
   33e98:	e13fff15 	stw	r4,-4(fp)
   33e9c:	e17ffe15 	stw	r5,-8(fp)
   33ea0:	e1bffd15 	stw	r6,-12(fp)
  /* Redirect the channels */

  alt_open_fd (&alt_fd_list[STDOUT_FILENO], stdout_dev, O_WRONLY, 0777);
   33ea4:	01c07fc4 	movi	r7,511
   33ea8:	01800044 	movi	r6,1
   33eac:	e17fff17 	ldw	r5,-4(fp)
   33eb0:	010000f4 	movhi	r4,3
   33eb4:	21182604 	addi	r4,r4,24728
   33eb8:	0033dd80 	call	33dd8 <alt_open_fd>
  alt_open_fd (&alt_fd_list[STDIN_FILENO], stdin_dev, O_RDONLY, 0777);
   33ebc:	01c07fc4 	movi	r7,511
   33ec0:	000d883a 	mov	r6,zero
   33ec4:	e17ffe17 	ldw	r5,-8(fp)
   33ec8:	010000f4 	movhi	r4,3
   33ecc:	21182304 	addi	r4,r4,24716
   33ed0:	0033dd80 	call	33dd8 <alt_open_fd>
  alt_open_fd (&alt_fd_list[STDERR_FILENO], stderr_dev, O_WRONLY, 0777);
   33ed4:	01c07fc4 	movi	r7,511
   33ed8:	01800044 	movi	r6,1
   33edc:	e17ffd17 	ldw	r5,-12(fp)
   33ee0:	010000f4 	movhi	r4,3
   33ee4:	21182904 	addi	r4,r4,24740
   33ee8:	0033dd80 	call	33dd8 <alt_open_fd>
}  
   33eec:	0001883a 	nop
   33ef0:	e037883a 	mov	sp,fp
   33ef4:	dfc00117 	ldw	ra,4(sp)
   33ef8:	df000017 	ldw	fp,0(sp)
   33efc:	dec00204 	addi	sp,sp,8
   33f00:	f800283a 	ret

00033f04 <altera_nios2_gen2_irq_init>:
/*
 * To initialize the internal interrupt controller, just clear the IENABLE
 * register so that all possible IRQs are disabled.
 */
void altera_nios2_gen2_irq_init(void) 
{
   33f04:	deffff04 	addi	sp,sp,-4
   33f08:	df000015 	stw	fp,0(sp)
   33f0c:	d839883a 	mov	fp,sp
    NIOS2_WRITE_IENABLE(0);
   33f10:	000170fa 	wrctl	ienable,zero
}
   33f14:	0001883a 	nop
   33f18:	e037883a 	mov	sp,fp
   33f1c:	df000017 	ldw	fp,0(sp)
   33f20:	dec00104 	addi	sp,sp,4
   33f24:	f800283a 	ret

00033f28 <alt_icache_flush>:
 * alt_icache_flush() is called to flush the instruction cache for a memory
 * region of length "len" bytes, starting at address "start".
 */

void alt_icache_flush (void* start, alt_u32 len)
{
   33f28:	defffb04 	addi	sp,sp,-20
   33f2c:	df000415 	stw	fp,16(sp)
   33f30:	df000404 	addi	fp,sp,16
   33f34:	e13ffd15 	stw	r4,-12(fp)
   33f38:	e17ffc15 	stw	r5,-16(fp)

  /*
   * This is the most we would ever need to flush.
   */
 
  if (len > NIOS2_ICACHE_SIZE)
   33f3c:	e0bffc17 	ldw	r2,-16(fp)
   33f40:	10840070 	cmpltui	r2,r2,4097
   33f44:	1000021e 	bne	r2,zero,33f50 <alt_icache_flush+0x28>
  {
    len = NIOS2_ICACHE_SIZE;
   33f48:	00840004 	movi	r2,4096
   33f4c:	e0bffc15 	stw	r2,-16(fp)
  }

  end = ((char*) start) + len;
   33f50:	e0fffd17 	ldw	r3,-12(fp)
   33f54:	e0bffc17 	ldw	r2,-16(fp)
   33f58:	1885883a 	add	r2,r3,r2
   33f5c:	e0bffe15 	stw	r2,-8(fp)

  for (i = start; i < end; i+= NIOS2_ICACHE_LINE_SIZE)
   33f60:	e0bffd17 	ldw	r2,-12(fp)
   33f64:	e0bfff15 	stw	r2,-4(fp)
   33f68:	00000506 	br	33f80 <alt_icache_flush+0x58>
  { 
    __asm__ volatile ("flushi %0" :: "r" (i)); 
   33f6c:	e0bfff17 	ldw	r2,-4(fp)
   33f70:	1000603a 	flushi	r2
  for (i = start; i < end; i+= NIOS2_ICACHE_LINE_SIZE)
   33f74:	e0bfff17 	ldw	r2,-4(fp)
   33f78:	10800804 	addi	r2,r2,32
   33f7c:	e0bfff15 	stw	r2,-4(fp)
   33f80:	e0ffff17 	ldw	r3,-4(fp)
   33f84:	e0bffe17 	ldw	r2,-8(fp)
   33f88:	18bff836 	bltu	r3,r2,33f6c <alt_icache_flush+0x44>
   * For an unaligned flush request, we've got one more line left.
   * Note that this is dependent on NIOS2_ICACHE_LINE_SIZE to be a 
   * multiple of 2 (which it always is).
   */

  if (((alt_u32) start) & (NIOS2_ICACHE_LINE_SIZE - 1))
   33f8c:	e0bffd17 	ldw	r2,-12(fp)
   33f90:	108007cc 	andi	r2,r2,31
   33f94:	10000226 	beq	r2,zero,33fa0 <alt_icache_flush+0x78>
  {
    __asm__ volatile ("flushi %0" :: "r" (i));
   33f98:	e0bfff17 	ldw	r2,-4(fp)
   33f9c:	1000603a 	flushi	r2
  /* 
   * Having flushed the cache, flush any stale instructions in the 
   * pipeline 
   */

  __asm__ volatile ("flushp");
   33fa0:	0000203a 	flushp

#endif /* NIOS2_ICACHE_SIZE > 0 */
}
   33fa4:	0001883a 	nop
   33fa8:	e037883a 	mov	sp,fp
   33fac:	df000017 	ldw	fp,0(sp)
   33fb0:	dec00104 	addi	sp,sp,4
   33fb4:	f800283a 	ret

00033fb8 <alt_exception_cause_generated_bad_addr>:
 * Return: 1: BADADDR (bad_addr argument to handler) is valid
 *         0: BADADDR is not valid
 */
int 
alt_exception_cause_generated_bad_addr(alt_exception_cause cause)
{
   33fb8:	defffe04 	addi	sp,sp,-8
   33fbc:	df000115 	stw	fp,4(sp)
   33fc0:	df000104 	addi	fp,sp,4
   33fc4:	e13fff15 	stw	r4,-4(fp)
  switch (cause) {
   33fc8:	e0bfff17 	ldw	r2,-4(fp)
   33fcc:	10bffe84 	addi	r2,r2,-6
   33fd0:	10c00428 	cmpgeui	r3,r2,16
   33fd4:	18c03fcc 	andi	r3,r3,255
   33fd8:	18000f1e 	bne	r3,zero,34018 <alt_exception_cause_generated_bad_addr+0x60>
   33fdc:	00c00044 	movi	r3,1
   33fe0:	1884983a 	sll	r2,r3,r2
   33fe4:	10e2c8cc 	andi	r3,r2,35619
   33fe8:	1806c03a 	cmpne	r3,r3,zero
   33fec:	18c03fcc 	andi	r3,r3,255
   33ff0:	1800051e 	bne	r3,zero,34008 <alt_exception_cause_generated_bad_addr+0x50>
   33ff4:	1084100c 	andi	r2,r2,4160
   33ff8:	1004c03a 	cmpne	r2,r2,zero
   33ffc:	10803fcc 	andi	r2,r2,255
   34000:	1000031e 	bne	r2,zero,34010 <alt_exception_cause_generated_bad_addr+0x58>
   34004:	00000406 	br	34018 <alt_exception_cause_generated_bad_addr+0x60>
  case NIOS2_EXCEPTION_MISALIGNED_TARGET_PC:
  case NIOS2_EXCEPTION_TLB_READ_PERM_VIOLATION:
  case NIOS2_EXCEPTION_TLB_WRITE_PERM_VIOLATION:
  case NIOS2_EXCEPTION_MPU_DATA_REGION_VIOLATION:
  case NIOS2_EXCEPTION_ECC_DATA_ERR:
    return 1;
   34008:	00800044 	movi	r2,1
   3400c:	00000306 	br	3401c <alt_exception_cause_generated_bad_addr+0x64>

  case NIOS2_EXCEPTION_TLB_MISS:
  case NIOS2_EXCEPTION_ECC_TLB_ERR:
    return 0;
   34010:	0005883a 	mov	r2,zero
   34014:	00000106 	br	3401c <alt_exception_cause_generated_bad_addr+0x64>

  default:
    return 0;
   34018:	0005883a 	mov	r2,zero
  }
}
   3401c:	e037883a 	mov	sp,fp
   34020:	df000017 	ldw	fp,0(sp)
   34024:	dec00104 	addi	sp,sp,4
   34028:	f800283a 	ret

0003402c <atexit>:
   3402c:	200b883a 	mov	r5,r4
   34030:	000f883a 	mov	r7,zero
   34034:	000d883a 	mov	r6,zero
   34038:	0009883a 	mov	r4,zero
   3403c:	00340ec1 	jmpi	340ec <__register_exitproc>

00034040 <exit>:
   34040:	defffe04 	addi	sp,sp,-8
   34044:	000b883a 	mov	r5,zero
   34048:	dc000015 	stw	r16,0(sp)
   3404c:	dfc00115 	stw	ra,4(sp)
   34050:	2021883a 	mov	r16,r4
   34054:	003417c0 	call	3417c <__call_exitprocs>
   34058:	008000f4 	movhi	r2,3
   3405c:	111ccf17 	ldw	r4,29500(r2)
   34060:	20800f17 	ldw	r2,60(r4)
   34064:	10000126 	beq	r2,zero,3406c <exit+0x2c>
   34068:	103ee83a 	callr	r2
   3406c:	8009883a 	mov	r4,r16
   34070:	0030f900 	call	30f90 <_exit>

00034074 <memcmp>:
   34074:	30800128 	cmpgeui	r2,r6,4
   34078:	10000d26 	beq	r2,zero,340b0 <memcmp+0x3c>
   3407c:	2144b03a 	or	r2,r4,r5
   34080:	108000cc 	andi	r2,r2,3
   34084:	10000726 	beq	r2,zero,340a4 <memcmp+0x30>
   34088:	30bfffc4 	addi	r2,r6,-1
   3408c:	00000a06 	br	340b8 <memcmp+0x44>
   34090:	31bfff04 	addi	r6,r6,-4
   34094:	30800128 	cmpgeui	r2,r6,4
   34098:	21000104 	addi	r4,r4,4
   3409c:	29400104 	addi	r5,r5,4
   340a0:	10000326 	beq	r2,zero,340b0 <memcmp+0x3c>
   340a4:	20c00017 	ldw	r3,0(r4)
   340a8:	28800017 	ldw	r2,0(r5)
   340ac:	18bff826 	beq	r3,r2,34090 <memcmp+0x1c>
   340b0:	30bfffc4 	addi	r2,r6,-1
   340b4:	30000b26 	beq	r6,zero,340e4 <memcmp+0x70>
   340b8:	11800044 	addi	r6,r2,1
   340bc:	218d883a 	add	r6,r4,r6
   340c0:	00000106 	br	340c8 <memcmp+0x54>
   340c4:	21800726 	beq	r4,r6,340e4 <memcmp+0x70>
   340c8:	20800003 	ldbu	r2,0(r4)
   340cc:	28c00003 	ldbu	r3,0(r5)
   340d0:	21000044 	addi	r4,r4,1
   340d4:	29400044 	addi	r5,r5,1
   340d8:	10fffa26 	beq	r2,r3,340c4 <memcmp+0x50>
   340dc:	10c5c83a 	sub	r2,r2,r3
   340e0:	f800283a 	ret
   340e4:	0005883a 	mov	r2,zero
   340e8:	f800283a 	ret

000340ec <__register_exitproc>:
   340ec:	008000f4 	movhi	r2,3
   340f0:	10dccf17 	ldw	r3,29500(r2)
   340f4:	18805217 	ldw	r2,328(r3)
   340f8:	10001726 	beq	r2,zero,34158 <__register_exitproc+0x6c>
   340fc:	10c00117 	ldw	r3,4(r2)
   34100:	1a000808 	cmpgei	r8,r3,32
   34104:	40001b1e 	bne	r8,zero,34174 <__register_exitproc+0x88>
   34108:	20000b26 	beq	r4,zero,34138 <__register_exitproc+0x4c>
   3410c:	181090ba 	slli	r8,r3,2
   34110:	02400044 	movi	r9,1
   34114:	48d2983a 	sll	r9,r9,r3
   34118:	1211883a 	add	r8,r2,r8
   3411c:	41802215 	stw	r6,136(r8)
   34120:	11806217 	ldw	r6,392(r2)
   34124:	21000098 	cmpnei	r4,r4,2
   34128:	324cb03a 	or	r6,r6,r9
   3412c:	11806215 	stw	r6,392(r2)
   34130:	41c04215 	stw	r7,264(r8)
   34134:	20000b26 	beq	r4,zero,34164 <__register_exitproc+0x78>
   34138:	19000084 	addi	r4,r3,2
   3413c:	200890ba 	slli	r4,r4,2
   34140:	18c00044 	addi	r3,r3,1
   34144:	10c00115 	stw	r3,4(r2)
   34148:	1105883a 	add	r2,r2,r4
   3414c:	11400015 	stw	r5,0(r2)
   34150:	0005883a 	mov	r2,zero
   34154:	f800283a 	ret
   34158:	18805304 	addi	r2,r3,332
   3415c:	18805215 	stw	r2,328(r3)
   34160:	003fe606 	br	340fc <__register_exitproc+0x10>
   34164:	11006317 	ldw	r4,396(r2)
   34168:	2248b03a 	or	r4,r4,r9
   3416c:	11006315 	stw	r4,396(r2)
   34170:	003ff106 	br	34138 <__register_exitproc+0x4c>
   34174:	00bfffc4 	movi	r2,-1
   34178:	f800283a 	ret

0003417c <__call_exitprocs>:
   3417c:	defff704 	addi	sp,sp,-36
   34180:	008000f4 	movhi	r2,3
   34184:	dcc00315 	stw	r19,12(sp)
   34188:	14dccf17 	ldw	r19,29500(r2)
   3418c:	dc800215 	stw	r18,8(sp)
   34190:	dfc00815 	stw	ra,32(sp)
   34194:	9c805217 	ldw	r18,328(r19)
   34198:	ddc00715 	stw	r23,28(sp)
   3419c:	dd800615 	stw	r22,24(sp)
   341a0:	dd400515 	stw	r21,20(sp)
   341a4:	dd000415 	stw	r20,16(sp)
   341a8:	dc400115 	stw	r17,4(sp)
   341ac:	dc000015 	stw	r16,0(sp)
   341b0:	90001026 	beq	r18,zero,341f4 <__call_exitprocs+0x78>
   341b4:	202b883a 	mov	r21,r4
   341b8:	282d883a 	mov	r22,r5
   341bc:	05000044 	movi	r20,1
   341c0:	94000117 	ldw	r16,4(r18)
   341c4:	847fffc4 	addi	r17,r16,-1
   341c8:	88000a16 	blt	r17,zero,341f4 <__call_exitprocs+0x78>
   341cc:	84000044 	addi	r16,r16,1
   341d0:	802090ba 	slli	r16,r16,2
   341d4:	9421883a 	add	r16,r18,r16
   341d8:	b0001126 	beq	r22,zero,34220 <__call_exitprocs+0xa4>
   341dc:	80804017 	ldw	r2,256(r16)
   341e0:	15800f26 	beq	r2,r22,34220 <__call_exitprocs+0xa4>
   341e4:	8c7fffc4 	addi	r17,r17,-1
   341e8:	88bfffd8 	cmpnei	r2,r17,-1
   341ec:	843fff04 	addi	r16,r16,-4
   341f0:	103ff91e 	bne	r2,zero,341d8 <__call_exitprocs+0x5c>
   341f4:	dfc00817 	ldw	ra,32(sp)
   341f8:	ddc00717 	ldw	r23,28(sp)
   341fc:	dd800617 	ldw	r22,24(sp)
   34200:	dd400517 	ldw	r21,20(sp)
   34204:	dd000417 	ldw	r20,16(sp)
   34208:	dcc00317 	ldw	r19,12(sp)
   3420c:	dc800217 	ldw	r18,8(sp)
   34210:	dc400117 	ldw	r17,4(sp)
   34214:	dc000017 	ldw	r16,0(sp)
   34218:	dec00904 	addi	sp,sp,36
   3421c:	f800283a 	ret
   34220:	90800117 	ldw	r2,4(r18)
   34224:	81800017 	ldw	r6,0(r16)
   34228:	10bfffc4 	addi	r2,r2,-1
   3422c:	14401726 	beq	r2,r17,3428c <__call_exitprocs+0x110>
   34230:	80000015 	stw	zero,0(r16)
   34234:	303feb26 	beq	r6,zero,341e4 <__call_exitprocs+0x68>
   34238:	a446983a 	sll	r3,r20,r17
   3423c:	90806217 	ldw	r2,392(r18)
   34240:	95c00117 	ldw	r23,4(r18)
   34244:	1884703a 	and	r2,r3,r2
   34248:	1000081e 	bne	r2,zero,3426c <__call_exitprocs+0xf0>
   3424c:	303ee83a 	callr	r6
   34250:	90c00117 	ldw	r3,4(r18)
   34254:	98805217 	ldw	r2,328(r19)
   34258:	1dc0011e 	bne	r3,r23,34260 <__call_exitprocs+0xe4>
   3425c:	14bfe126 	beq	r2,r18,341e4 <__call_exitprocs+0x68>
   34260:	103fe426 	beq	r2,zero,341f4 <__call_exitprocs+0x78>
   34264:	1025883a 	mov	r18,r2
   34268:	003fd506 	br	341c0 <__call_exitprocs+0x44>
   3426c:	90806317 	ldw	r2,396(r18)
   34270:	81002017 	ldw	r4,128(r16)
   34274:	1886703a 	and	r3,r3,r2
   34278:	1800061e 	bne	r3,zero,34294 <__call_exitprocs+0x118>
   3427c:	200b883a 	mov	r5,r4
   34280:	a809883a 	mov	r4,r21
   34284:	303ee83a 	callr	r6
   34288:	003ff106 	br	34250 <__call_exitprocs+0xd4>
   3428c:	94400115 	stw	r17,4(r18)
   34290:	003fe806 	br	34234 <__call_exitprocs+0xb8>
   34294:	303ee83a 	callr	r6
   34298:	003fed06 	br	34250 <__call_exitprocs+0xd4>
